 PhysXCooking_64

 Timestamp is 682ed89f (Thu May 22 16:56:15 2025)

 Preferred load address is 0000000180000000

 Start         Length     Name                   Class
 0001:00000000 00000ba0H .text$di                CODE
 0001:00000ba0 00103980H .text$mn                CODE
 0001:00104520 00000040H .text$mn$00             CODE
 0001:00104560 00000b40H .text$mn$21             CODE
 0001:001050a0 0000101dH .text$x                 CODE
 0002:00000000 00000308H .idata$5                DATA
 0002:00000308 00000038H .00cfg                  DATA
 0002:00000340 00000008H .CRT$XCA                DATA
 0002:00000348 000001f0H .CRT$XCU                DATA
 0002:00000538 00000008H .CRT$XCZ                DATA
 0002:00000540 00000008H .CRT$XIA                DATA
 0002:00000548 00000018H .CRT$XIC                DATA
 0002:00000560 00000008H .CRT$XIZ                DATA
 0002:00000568 00000008H .CRT$XPA                DATA
 0002:00000570 00000010H .CRT$XPX                DATA
 0002:00000580 00000008H .CRT$XPXA               DATA
 0002:00000588 00000008H .CRT$XPZ                DATA
 0002:00000590 00000008H .CRT$XTA                DATA
 0002:00000598 00000008H .CRT$XTZ                DATA
 0002:000005a0 00000000H .gehcont$y              DATA
 0002:000005a0 00000000H .gfids$y                DATA
 0002:000005a0 00027ff0H .rdata                  DATA
 0002:00028590 00000170H .rdata$00               DATA
 0002:00028700 00000080H .rdata$CastGuardVftablesA DATA
 0002:00028780 00000080H .rdata$CastGuardVftablesC DATA
 0002:00028800 00000464H .rdata$r                DATA
 0002:00028c64 000001a4H .rdata$voltmd           DATA
 0002:00028e08 000004d0H .rdata$zzzdbg           DATA
 0002:000292d8 00000008H .rtc$IAA                DATA
 0002:000292e0 000000a0H .rtc$IMZ                DATA
 0002:00029380 00000008H .rtc$IZZ                DATA
 0002:00029388 00000008H .rtc$TAA                DATA
 0002:00029390 000000a0H .rtc$TMZ                DATA
 0002:00029430 00000008H .rtc$TZZ                DATA
 0002:00029438 00009320H .xdata                  DATA
 0002:00032758 00000084H .xdata$x                DATA
 0002:000327dc 00000040H .didat$2                DATA
 0002:0003281c 00000024H .didat$3                DATA
 0002:00032840 000001d0H .didat$4                DATA
 0002:00032a10 00000b30H .didat$6                DATA
 0002:00033540 00000300H .didat$7                DATA
 0002:00033840 00001d34H .edata                  DATA
 0002:00035574 00000014H .idata$2                DATA
 0002:00035588 00000018H .idata$3                DATA
 0002:000355a0 00000308H .idata$4                DATA
 0002:000358a8 000006feH .idata$6                DATA
 0003:00000000 00000b60H .data                   DATA
 0003:00000b60 00000380H .data$r                 DATA
 0003:00000ee0 000000f0H .data$rs                DATA
 0003:00000fd0 000001d0H .didat$5                DATA
 0003:000011a0 00002098H .bss                    DATA
 0004:00000000 0000baccH .pdata                  DATA
 0005:00000000 000000a0H .rsrc$01                DATA
 0005:000000a0 000004b0H .rsrc$02                DATA

  Address         Publics by Value              Rva+Base               Lib:Object

 0000:00000000       __AbsoluteZero             0000000000000000     <absolute>
 0000:00000000       ___safe_se_handler_count   0000000000000000     <absolute>
 0000:00000000       ___safe_se_handler_table   0000000000000000     <absolute>
 0000:00000000       __arm64x_extra_rfe_table   0000000000000000     <absolute>
 0000:00000000       __arm64x_extra_rfe_table_size 0000000000000000     <absolute>
 0000:00000000       __arm64x_native_entrypoint 0000000000000000     <absolute>
 0000:00000000       __arm64x_redirection_metadata 0000000000000000     <absolute>
 0000:00000000       __arm64x_redirection_metadata_count 0000000000000000     <absolute>
 0000:00000000       __dynamic_value_reloc_table 0000000000000000     <absolute>
 0000:00000000       __enclave_config           0000000000000000     <absolute>
 0000:00000000       __guard_check_icall_a64n_fptr 0000000000000000     <absolute>
 0000:00000000       __guard_eh_cont_count      0000000000000000     <absolute>
 0000:00000000       __guard_eh_cont_table      0000000000000000     <absolute>
 0000:00000000       __guard_fids_count         0000000000000000     <absolute>
 0000:00000000       __guard_fids_table         0000000000000000     <absolute>
 0000:00000000       __guard_iat_count          0000000000000000     <absolute>
 0000:00000000       __guard_iat_table          0000000000000000     <absolute>
 0000:00000000       __guard_longjmp_count      0000000000000000     <absolute>
 0000:00000000       __guard_longjmp_table      0000000000000000     <absolute>
 0000:00000000       __hybrid_auxiliary_delayload_iat 0000000000000000     <absolute>
 0000:00000000       __hybrid_auxiliary_delayload_iat_copy 0000000000000000     <absolute>
 0000:00000000       __hybrid_auxiliary_iat     0000000000000000     <absolute>
 0000:00000000       __hybrid_auxiliary_iat_copy 0000000000000000     <absolute>
 0000:00000000       __hybrid_code_map          0000000000000000     <absolute>
 0000:00000000       __hybrid_code_map_count    0000000000000000     <absolute>
 0000:00000000       __hybrid_image_info_bitfield 0000000000000000     <absolute>
 0000:00000000       __x64_code_ranges_to_entry_points 0000000000000000     <absolute>
 0000:00000000       __x64_code_ranges_to_entry_points_count 0000000000000000     <absolute>
 0000:00000100       __guard_flags              0000000000000100     <absolute>
 0000:00000000       __ImageBase                0000000180000000     <linker-defined>
 0001:00000ba0       ?ComputeNbBoundaryEdges@AdjTriangle@physx@@QEBAIXZ 0000000180001ba0 f   Adjacencies.obj
 0001:00000c30       ?ComputeNbNeighbors@AdjTriangle@physx@@QEBAIXZ 0000000180001c30 f   Adjacencies.obj
 0001:00000cc0       ?HasNeighbor@AdjTriangle@physx@@QEBA_NIPEAI@Z 0000000180001cc0 f   Adjacencies.obj
 0001:00000dd0       ?Flip@AdjTriangle@physx@@QEAAXXZ 0000000180001dd0 f   Adjacencies.obj
 0001:00000e20       ??0Adjacencies@physx@@QEAA@XZ 0000000180001e20 f   Adjacencies.obj
 0001:00000e50       ??1Adjacencies@physx@@QEAA@XZ 0000000180001e50 f   Adjacencies.obj
 0001:00000eb0       ?Load@Adjacencies@physx@@QEAA_NAEAVPxInputStream@2@@Z 0000000180001eb0 f   Adjacencies.obj
 0001:00001040       ?ComputeNbBoundaryEdges@Adjacencies@physx@@QEBAIXZ 0000000180002040 f   Adjacencies.obj
 0001:000010c0       ?GetBoundaryVertices@Adjacencies@physx@@QEBA_NIPEA_NPEBU?$TriangleT@I@Gu@2@@Z 00000001800020c0 f   Adjacencies.obj
 0001:000013d0       ?MakeLastRef@Adjacencies@physx@@QEAA_NAEAVAdjTriangle@2@IPEAU?$TriangleT@I@Gu@2@@Z 00000001800023d0 f   Adjacencies.obj
 0001:00001730       ?AssignNewEdgeCode@Adjacencies@physx@@AEAAXIE@Z 0000000180002730 f   Adjacencies.obj
 0001:000017d0       ??0AdjacenciesBuilder@physx@@QEAA@XZ 00000001800027d0 f   Adjacencies.obj
 0001:00001800       ??1AdjacenciesBuilder@physx@@QEAA@XZ 0000000180002800 f   Adjacencies.obj
 0001:00001820       ?Init@AdjacenciesBuilder@physx@@QEAA_NAEBUADJACENCIESCREATE@2@@Z 0000000180002820 f   Adjacencies.obj
 0001:00002b10       ??$?_UI@@YAPEAX_KV?$ReflectionAllocator@I@shdfnd@physx@@PEBDH@Z 0000000180003b10 f i Adjacencies.obj
 0001:00002b50       ??$?_UV?$ReflectionAllocator@VAdjEdge@@@shdfnd@physx@@@UserAllocated@shdfnd@physx@@SAPEAX_KV?$ReflectionAllocator@VAdjEdge@@@12@PEBDH@Z 0000000180003b50 f i Adjacencies.obj
 0001:00002b90       ??$?_UV?$ReflectionAllocator@VAdjTriangle@physx@@@shdfnd@physx@@@UserAllocated@shdfnd@physx@@SAPEAX_KV?$ReflectionAllocator@VAdjTriangle@physx@@@12@PEBDH@Z 0000000180003b90 f i Adjacencies.obj
 0001:00002bd0       ??$swap@I@shdfnd@physx@@YAXAEAI0@Z 0000000180003bd0 f i Adjacencies.obj
 0001:00002c10       ??0?$ReflectionAllocator@I@shdfnd@physx@@QEAA@PEBD@Z 0000000180003c10 f i Adjacencies.obj
 0001:00002c20       ??0?$ReflectionAllocator@VAdjEdge@@@shdfnd@physx@@QEAA@PEBD@Z 0000000180003c20 f i Adjacencies.obj
 0001:00002c30       ??0?$ReflectionAllocator@VAdjTriangle@physx@@@shdfnd@physx@@QEAA@PEBD@Z 0000000180003c30 f i Adjacencies.obj
 0001:00002c40       ??0?$TriangleT@I@Gu@physx@@QEAA@XZ 0000000180003c40 f i Adjacencies.obj
 0001:00002c50       ??0AdjEdge@@QEAA@XZ        0000000180003c50 f i Adjacencies.obj
 0001:00002c60       ??0AdjTriangle@physx@@QEAA@XZ 0000000180003c60 f i Adjacencies.obj
 0001:00002c70       ??0Allocator@shdfnd@physx@@QEAA@PEBD@Z 0000000180003c70 f i Adjacencies.obj
 0001:00002c80       ??0EDGELISTCREATE@Gu@physx@@QEAA@XZ 0000000180003c80 f i Adjacencies.obj
 0001:00002cf0       ??0NonTrackingAllocator@shdfnd@physx@@QEAA@PEBD@Z 0000000180003cf0 f i Adjacencies.obj
 0001:00002d00       ??0PxFoundation@physx@@QEAA@AEBV01@@Z 0000000180003d00 f i Adjacencies.obj
 0001:00002d20       ??0PxFoundation@physx@@QEAA@XZ 0000000180003d20 f i Adjacencies.obj
 0001:00002d40       ??1AdjEdge@@QEAA@XZ        0000000180003d40 f i Adjacencies.obj
 0001:00002d50       ??1AdjTriangle@physx@@QEAA@XZ 0000000180003d50 f i Adjacencies.obj
 0001:00002d60       ??1PxFoundation@physx@@MEAA@XZ 0000000180003d60 f i Adjacencies.obj
 0001:00002d80       ??3UserAllocated@shdfnd@physx@@SAXPEAX@Z 0000000180003d80 f i Adjacencies.obj
 0001:00002db0       ??4Allocator@shdfnd@physx@@QEAAAEAV012@$$QEAV012@@Z 0000000180003db0 f i Adjacencies.obj
 0001:00002dc0       ??4Allocator@shdfnd@physx@@QEAAAEAV012@AEBV012@@Z 0000000180003dc0 f i Adjacencies.obj
 0001:00002dd0       ??4MutexImpl@shdfnd@physx@@QEAAAEAV012@AEBV012@@Z 0000000180003dd0 f i Adjacencies.obj
 0001:00002de0       ??4PxFoundation@physx@@QEAAAEAV01@AEBV01@@Z 0000000180003de0 f i Adjacencies.obj
 0001:00002df0       ??_EAdjEdge@@QEAAPEAXI@Z   0000000180003df0 f i Adjacencies.obj
 0001:00002ed0       ??_EAdjTriangle@physx@@QEAAPEAXI@Z 0000000180003ed0 f i Adjacencies.obj
 0001:00002fb0       ??_EPxFoundation@physx@@MEAAPEAXI@Z 0000000180003fb0 f i Adjacencies.obj
 0001:00003050       ??_FAllocator@shdfnd@physx@@QEAAXXZ 0000000180004050 f i Adjacencies.obj
 0001:00003070       ??_FNamedAllocator@shdfnd@physx@@QEAAXXZ 0000000180004070 f i Adjacencies.obj
 0001:00003090       ??_GPxFoundation@physx@@MEAAPEAXI@Z 0000000180004090 f i Adjacencies.obj
 0001:000030d0       ??_H@YAXPEAX_K1P6APEAX0@Z@Z 00000001800040d0 f i Adjacencies.obj
 0001:00003150       ??_I@YAXPEAX_K1P6AX0@Z@Z   0000000180004150 f i Adjacencies.obj
 0001:000031f0       ??_VUserAllocated@shdfnd@physx@@SAXPEAX@Z 00000001800041f0 f i Adjacencies.obj
 0001:00003220       ?GetNbHits@RadixSort@Cm@physx@@QEBAIXZ 0000000180004220 f i Adjacencies.obj
 0001:00003230       ?GetNbTotalCalls@RadixSort@Cm@physx@@QEBAIXZ 0000000180004230 f i Adjacencies.obj
 0001:00003240       ?GetRanks@RadixSort@Cm@physx@@QEBAPEBIXZ 0000000180004240 f i Adjacencies.obj
 0001:00003250       ?GetRecyclable@RadixSort@Cm@physx@@QEBAPEAIXZ 0000000180004250 f i Adjacencies.obj
 0001:00003260       ?HasActiveEdge01@AdjTriangle@physx@@QEBAHXZ 0000000180004260 f i Adjacencies.obj
 0001:00003280       ?HasActiveEdge01@EdgeTriangleAC@Gu@physx@@SAHAEBUEdgeTriangleData@23@@Z 0000000180004280 f i Adjacencies.obj
 0001:000032a0       ?HasActiveEdge12@AdjTriangle@physx@@QEBAHXZ 00000001800042a0 f i Adjacencies.obj
 0001:000032c0       ?HasActiveEdge12@EdgeTriangleAC@Gu@physx@@SAHAEBUEdgeTriangleData@23@@Z 00000001800042c0 f i Adjacencies.obj
 0001:000032e0       ?HasActiveEdge20@AdjTriangle@physx@@QEBAHXZ 00000001800042e0 f i Adjacencies.obj
 0001:00003300       ?HasActiveEdge20@EdgeTriangleAC@Gu@physx@@SAHAEBUEdgeTriangleData@23@@Z 0000000180004300 f i Adjacencies.obj
 0001:00003320       ?PxMemZero@physx@@YAPEAXPEAXI@Z 0000000180004320 f i Adjacencies.obj
 0001:00003340       ?__empty_global_delete@@YAXPEAX@Z 0000000180004340 f i Adjacencies.obj
 0001:00003350       ?__empty_global_delete@@YAXPEAX_K@Z 0000000180004350 f i Adjacencies.obj
 0001:00003360       ?allocate@?$ReflectionAllocator@I@shdfnd@physx@@QEAAPEAX_KPEBDH@Z 0000000180004360 f i Adjacencies.obj
 0001:000033e0       ?allocate@?$ReflectionAllocator@VAdjEdge@@@shdfnd@physx@@QEAAPEAX_KPEBDH@Z 00000001800043e0 f i Adjacencies.obj
 0001:00003460       ?allocate@?$ReflectionAllocator@VAdjTriangle@physx@@@shdfnd@physx@@QEAAPEAX_KPEBDH@Z 0000000180004460 f i Adjacencies.obj
 0001:000034e0       ?deallocate@NonTrackingAllocator@shdfnd@physx@@QEAAXPEAX@Z 00000001800044e0 f i Adjacencies.obj
 0001:00003520       ?findEdge@?$TriangleT@I@Gu@physx@@QEBAEII@Z 0000000180004520 f i Adjacencies.obj
 0001:00003680       ?getAllocator@Foundation@shdfnd@physx@@QEAAAEAVPxAllocatorCallback@3@XZ 0000000180004680 f i Adjacencies.obj
 0001:00003690       ?getAllocatorCallback@Foundation@shdfnd@physx@@UEAAAEAVPxAllocatorCallback@3@XZ 0000000180004690 f i Adjacencies.obj
 0001:000036a0       ?getEdgeTriangle@EdgeList@Gu@physx@@QEBAAEBUEdgeTriangleData@23@I@Z 00000001800046a0 f i Adjacencies.obj
 0001:000036c0       ?getErrorCallback@Foundation@shdfnd@physx@@UEAAAEAVPxErrorCallback@3@XZ 00000001800046c0 f i Adjacencies.obj
 0001:000036d0       ?getErrorLevel@Foundation@shdfnd@physx@@UEBA?AW4Enum@PxErrorCode@3@XZ 00000001800046d0 f i Adjacencies.obj
 0001:000036f0       ?getFoundation@shdfnd@physx@@YAAEAVFoundation@12@XZ 00000001800046f0 f i Adjacencies.obj
 0001:00003700       ?getInternalErrorCallback@Foundation@shdfnd@physx@@QEAAAEAVPxErrorCallback@3@XZ 0000000180004700 f i Adjacencies.obj
 0001:00003720       ?getName@?$ReflectionAllocator@I@shdfnd@physx@@CAPEBDXZ 0000000180004720 f i Adjacencies.obj
 0001:00003760       ?getName@?$ReflectionAllocator@VAdjEdge@@@shdfnd@physx@@CAPEBDXZ 0000000180004760 f i Adjacencies.obj
 0001:000037a0       ?getName@?$ReflectionAllocator@VAdjTriangle@physx@@@shdfnd@physx@@CAPEBDXZ 00000001800047a0 f i Adjacencies.obj
 0001:000037e0       ?getNamedAllocMap@Foundation@shdfnd@physx@@QEAAAEAV?$HashMap@PEBVNamedAllocator@shdfnd@physx@@PEBDU?$Hash@PEBVNamedAllocator@shdfnd@physx@@@23@VNonTrackingAllocator@23@@23@XZ 00000001800047e0 f i Adjacencies.obj
 0001:00003800       ?getNamedAllocMutex@Foundation@shdfnd@physx@@QEAAAEAV?$MutexT@VAllocator@shdfnd@physx@@@23@XZ 0000000180004800 f i Adjacencies.obj
 0001:00003820       ?getReportAllocationNames@Foundation@shdfnd@physx@@UEBA_NXZ 0000000180004820 f i Adjacencies.obj
 0001:00003840       ?getTempAllocFreeTable@Foundation@shdfnd@physx@@QEAAAEAV?$Array@PEATTempAllocatorChunk@shdfnd@physx@@VAllocator@23@@23@XZ 0000000180004840 f i Adjacencies.obj
 0001:00003860       ?getTempAllocMutex@Foundation@shdfnd@physx@@QEAAAEAV?$MutexT@VAllocator@shdfnd@physx@@@23@XZ 0000000180004860 f i Adjacencies.obj
 0001:00003880       ?invalidateRanks@RadixSort@Cm@physx@@QEAAXXZ 0000000180004880 f i Adjacencies.obj
 0001:000038a0       ?memZero@intrinsics@physx@@YAPEAXPEAXI@Z 00000001800048a0 f i Adjacencies.obj
 0001:000038d0       ?name@type_info@@QEBAPEBDXZ 00000001800048d0 f i Adjacencies.obj
 0001:00003900       ?setErrorLevel@Foundation@shdfnd@physx@@UEAAXW4Enum@PxErrorCode@3@@Z 0000000180004900 f i Adjacencies.obj
 0001:00003920       ?setReportAllocationNames@Foundation@shdfnd@physx@@UEAAX_N@Z 0000000180004920 f i Adjacencies.obj
 0001:00003940       PxCreateCooking            0000000180004940 f   Cooking.obj
 0001:00003a30       ?release@Cooking@physx@@UEAAXXZ 0000000180004a30 f   Cooking.obj
 0001:00003a90       ?setParams@Cooking@physx@@UEAAXAEBUPxCookingParams@2@@Z 0000000180004a90 f   Cooking.obj
 0001:00003ac0       ?getParams@Cooking@physx@@UEBAAEBUPxCookingParams@2@XZ 0000000180004ac0 f   Cooking.obj
 0001:00003ae0       ?platformMismatch@Cooking@physx@@UEBA_NXZ 0000000180004ae0 f   Cooking.obj
 0001:00003b30       ?cookTriangleMesh@Cooking@physx@@UEBA_NAEBVPxTriangleMeshDesc@2@AEAVPxOutputStream@2@PEAW4Enum@PxTriangleMeshCookingResult@2@@Z 0000000180004b30 f   Cooking.obj
 0001:00003c40       ?createTriangleMesh@Cooking@physx@@UEBAPEAVPxTriangleMesh@2@AEBVPxTriangleMeshDesc@2@AEAVPxPhysicsInsertionCallback@2@PEAW4Enum@PxTriangleMeshCookingResult@2@@Z 0000000180004c40 f   Cooking.obj
 0001:00003d50       ?validateTriangleMesh@Cooking@physx@@UEBA_NAEBVPxTriangleMeshDesc@2@@Z 0000000180004d50 f   Cooking.obj
 0001:00003e20       ?cookConvexMesh@Cooking@physx@@UEBA_NAEBVPxConvexMeshDesc@2@AEAVPxOutputStream@2@PEAW4Enum@PxConvexMeshCookingResult@2@@Z 0000000180004e20 f   Cooking.obj
 0001:00004160       ?createConvexMesh@Cooking@physx@@UEBAPEAVPxConvexMesh@2@AEBVPxConvexMeshDesc@2@AEAVPxPhysicsInsertionCallback@2@PEAW4Enum@PxConvexMeshCookingResult@2@@Z 0000000180005160 f   Cooking.obj
 0001:000044f0       ?validateConvexMesh@Cooking@physx@@UEBA_NAEBVPxConvexMeshDesc@2@@Z 00000001800054f0 f   Cooking.obj
 0001:00004570       ?computeHullPolygons@Cooking@physx@@UEBA_NAEBVPxSimpleTriangleMesh@2@AEAVPxAllocatorCallback@2@AEAIAEAPEAVPxVec3@2@2AEAPEAI2AEAPEAUPxHullPolygon@2@@Z 0000000180005570 f   Cooking.obj
 0001:00004850       ?cookHeightField@Cooking@physx@@UEBA_NAEBVPxHeightFieldDesc@2@AEAVPxOutputStream@2@@Z 0000000180005850 f   Cooking.obj
 0001:000049c0       ?createHeightField@Cooking@physx@@UEBAPEAVPxHeightField@2@AEBVPxHeightFieldDesc@2@AEAVPxPhysicsInsertionCallback@2@@Z 00000001800059c0 f   Cooking.obj
 0001:00004cb0       ?cookBVHStructure@Cooking@physx@@UEBA_NAEBVPxBVHStructureDesc@2@AEAVPxOutputStream@2@@Z 0000000180005cb0 f   Cooking.obj
 0001:00004dd0       ?createBVHStructure@Cooking@physx@@UEBAPEAVPxBVHStructure@2@AEBVPxBVHStructureDesc@2@AEAVPxPhysicsInsertionCallback@2@@Z 0000000180005dd0 f   Cooking.obj
 0001:00004f00       ?cookConvexMeshInternal@Cooking@physx@@AEBA_NAEBVPxConvexMeshDesc@2@AEAVConvexMeshBuilder@2@PEAVConvexHullLib@2@PEAW4Enum@PxConvexMeshCookingResult@2@@Z 0000000180005f00 f   Cooking.obj
 0001:00005220       ?cookTriangleMesh@Cooking@physx@@AEBA_NAEAVTriangleMeshBuilder@2@AEBVPxTriangleMeshDesc@2@AEAVPxOutputStream@2@PEAW4Enum@PxTriangleMeshCookingResult@2@@Z 0000000180006220 f   Cooking.obj
 0001:00005300       ?createTriangleMesh@Cooking@physx@@AEBAPEAVPxTriangleMesh@2@AEAVTriangleMeshBuilder@2@AEBVPxTriangleMeshDesc@2@AEAVPxPhysicsInsertionCallback@2@PEAW4Enum@PxTriangleMeshCookingResult@2@@Z 0000000180006300 f   Cooking.obj
 0001:000054e0       ??$?2V?$ReflectionAllocator@VCooking@physx@@@shdfnd@physx@@@UserAllocated@shdfnd@physx@@SAPEAX_KV?$ReflectionAllocator@VCooking@physx@@@12@PEBDH@Z 00000001800064e0 f i Cooking.obj
 0001:00005520       ??$?2V?$ReflectionAllocator@VQuickHullConvexHullLib@physx@@@shdfnd@physx@@@UserAllocated@shdfnd@physx@@SAPEAX_KV?$ReflectionAllocator@VQuickHullConvexHullLib@physx@@@12@PEBDH@Z 0000000180006520 f i Cooking.obj
 0001:00005560       ??$PX_UNUSED@VPxFoundation@physx@@@@YAXAEBVPxFoundation@physx@@@Z 0000000180006560 f i Cooking.obj
 0001:00005570       ??$PX_UNUSED@W4PxIDENTITY@physx@@@@YAXAEBW4PxIDENTITY@physx@@@Z 0000000180006570 f i Cooking.obj
 0001:00005580       ??$PxMax@I@physx@@YAIII@Z  0000000180006580 f i Cooking.obj
 0001:000055b0       ??$PxMin@G@physx@@YAGGG@Z  00000001800065b0 f i Cooking.obj
 0001:000055f0       ??0?$PxBitAndDataT@G$0IAAA@@physx@@QEAA@XZ 00000001800065f0 f i Cooking.obj
 0001:00005610       ??0?$PxFlags@W4Enum@PxBaseFlag@physx@@G@physx@@QEAA@AEBV01@@Z 0000000180006610 f i Cooking.obj
 0001:00005630       ??0?$PxFlags@W4Enum@PxConvexFlag@physx@@G@physx@@QEAA@AEBV01@@Z 0000000180006630 f i Cooking.obj
 0001:00005650       ??0?$PxFlags@W4Enum@PxConvexFlag@physx@@G@physx@@QEAA@W4Enum@PxConvexFlag@1@@Z 0000000180006650 f i Cooking.obj
 0001:00005670       ??0?$PxFlags@W4Enum@PxConvexFlag@physx@@G@physx@@QEAA@XZ 0000000180006670 f i Cooking.obj
 0001:00005690       ??0?$PxFlags@W4Enum@PxHeightFieldFlag@physx@@G@physx@@QEAA@AEBV01@@Z 0000000180006690 f i Cooking.obj
 0001:000056b0       ??0?$PxFlags@W4Enum@PxHeightFieldFlag@physx@@G@physx@@QEAA@W4PxEMPTY@1@@Z 00000001800066b0 f i Cooking.obj
 0001:000056c0       ??0?$PxFlags@W4Enum@PxHeightFieldFlag@physx@@G@physx@@QEAA@XZ 00000001800066c0 f i Cooking.obj
 0001:000056e0       ??0?$PxFlags@W4Enum@PxMeshFlag@physx@@G@physx@@QEAA@AEBV01@@Z 00000001800066e0 f i Cooking.obj
 0001:00005700       ??0?$PxFlags@W4Enum@PxMeshPreprocessingFlag@physx@@I@physx@@QEAA@AEBV01@@Z 0000000180006700 f i Cooking.obj
 0001:00005720       ??0?$ReflectionAllocator@VCooking@physx@@@shdfnd@physx@@QEAA@PEBD@Z 0000000180006720 f i Cooking.obj
 0001:00005730       ??0?$ReflectionAllocator@VHeightField@Gu@physx@@@shdfnd@physx@@QEAA@PEBD@Z 0000000180006730 f i Cooking.obj
 0001:00005740       ??0?$ReflectionAllocator@VQuickHullConvexHullLib@physx@@@shdfnd@physx@@QEAA@PEBD@Z 0000000180006740 f i Cooking.obj
 0001:00005750       ??0CenterExtents@Gu@physx@@QEAA@AEBV012@@Z 0000000180006750 f i Cooking.obj
 0001:000057a0       ??0CenterExtents@Gu@physx@@QEAA@XZ 00000001800067a0 f i Cooking.obj
 0001:000057e0       ??0ConvexHullData@Gu@physx@@QEAA@XZ 00000001800067e0 f i Cooking.obj
 0001:00005830       ??0ConvexHullInitData@Gu@physx@@QEAA@XZ 0000000180006830 f i Cooking.obj
 0001:00005870       ??0Cooking@physx@@QEAA@AEBUPxCookingParams@1@@Z 0000000180006870 f i Cooking.obj
 0001:000058c0       ??0DebugText@Cm@physx@@QEAA@$$QEAU012@@Z 00000001800068c0 f i Cooking.obj
 0001:00005930       ??0DebugText@Cm@physx@@QEAA@AEBU012@@Z 0000000180006930 f i Cooking.obj
 0001:000059a0       ??0HeightFieldData@Gu@physx@@QEAA@$$QEAU012@@Z 00000001800069a0 f i Cooking.obj
 0001:00005a80       ??0HeightFieldData@Gu@physx@@QEAA@AEBU012@@Z 0000000180006a80 f i Cooking.obj
 0001:00005b60       ??0HeightFieldData@Gu@physx@@QEAA@W4PxEMPTY@2@@Z 0000000180006b60 f i Cooking.obj
 0001:00005ba0       ??0HeightFieldData@Gu@physx@@QEAA@XZ 0000000180006ba0 f i Cooking.obj
 0001:00005be0       ??0PxConvexMeshDesc@physx@@QEAA@AEBV01@@Z 0000000180006be0 f i Cooking.obj
 0001:00005c80       ??0PxCooking@physx@@QEAA@XZ 0000000180006c80 f i Cooking.obj
 0001:00005ca0       ??0PxCookingParams@physx@@QEAA@AEBU01@@Z 0000000180006ca0 f i Cooking.obj
 0001:00005d90       ??0PxDebugLine@physx@@QEAA@AEBU01@@Z 0000000180006d90 f i Cooking.obj
 0001:00005e00       ??0PxMat33@physx@@QEAA@XZ  0000000180006e00 f i Cooking.obj
 0001:00005e50       ??0PxMat44@physx@@QEAA@AEBV01@@Z 0000000180006e50 f i Cooking.obj
 0001:00005ed0       ??0PxMat44@physx@@QEAA@W4PxIDENTITY@1@@Z 0000000180006ed0 f i Cooking.obj
 0001:00005f90       ??0PxVec3@physx@@QEAA@AEBV01@@Z 0000000180006f90 f i Cooking.obj
 0001:00005fe0       ??0PxVec3@physx@@QEAA@M@Z  0000000180006fe0 f i Cooking.obj
 0001:00006020       ??0PxVec3@physx@@QEAA@MMM@Z 0000000180007020 f i Cooking.obj
 0001:00006070       ??0PxVec3@physx@@QEAA@XZ   0000000180007070 f i Cooking.obj
 0001:00006080       ??0PxVec4@physx@@QEAA@AEBV01@@Z 0000000180007080 f i Cooking.obj
 0001:000060e0       ??0PxVec4@physx@@QEAA@MMMM@Z 00000001800070e0 f i Cooking.obj
 0001:00006140       ??0RenderOutput@Cm@physx@@QEAA@AEAVRenderBuffer@12@@Z 0000000180007140 f i Cooking.obj
 0001:000061d0       ??0RenderOutput@Cm@physx@@QEAA@AEBV012@@Z 00000001800071d0 f i Cooking.obj
 0001:00006280       ??1CenterExtents@Gu@physx@@QEAA@XZ 0000000180007280 f i Cooking.obj
 0001:00006290       ??1ConvexHullData@Gu@physx@@QEAA@XZ 0000000180007290 f i Cooking.obj
 0001:000062b0       ??1ConvexHullInitData@Gu@physx@@QEAA@XZ 00000001800072b0 f i Cooking.obj
 0001:000062d0       ??1Cooking@physx@@UEAA@XZ  00000001800072d0 f i Cooking.obj
 0001:000062f0       ??1HeightFieldData@Gu@physx@@QEAA@XZ 00000001800072f0 f i Cooking.obj
 0001:00006310       ??1PxBase@physx@@MEAA@XZ   0000000180007310 f i Cooking.obj
 0001:00006330       ??1PxConvexMesh@physx@@MEAA@XZ 0000000180007330 f i Cooking.obj
 0001:00006360       ??1PxCooking@physx@@MEAA@XZ 0000000180007360 f i Cooking.obj
 0001:00006380       ??1PxHeightField@physx@@MEAA@XZ 0000000180007380 f i Cooking.obj
 0001:000063b0       ??2@YAPEAX_KPEAX@Z         00000001800073b0 f i Cooking.obj
 0001:000063c0       ??2UserAllocated@shdfnd@physx@@SAPEAX_KPEAX@Z 00000001800073c0 f i Cooking.obj
 0001:000063d0       ??4?$PxFlags@W4Enum@PxHeightFieldFlag@physx@@G@physx@@QEAAAEAV01@AEBV01@@Z 00000001800073d0 f i Cooking.obj
 0001:000063f0       ??4?$PxFlags@W4Enum@PxMeshPreprocessingFlag@physx@@I@physx@@QEAAAEAV01@AEBV01@@Z 00000001800073f0 f i Cooking.obj
 0001:00006410       ??4CenterExtents@Gu@physx@@QEAAAEAV012@AEBV012@@Z 0000000180007410 f i Cooking.obj
 0001:00006460       ??4DebugText@Cm@physx@@QEAAAEAU012@$$QEAU012@@Z 0000000180007460 f i Cooking.obj
 0001:00006500       ??4DebugText@Cm@physx@@QEAAAEAU012@AEBU012@@Z 0000000180007500 f i Cooking.obj
 0001:000065a0       ??4FPUGuard@shdfnd@physx@@QEAAAEAV012@AEBV012@@Z 00000001800075a0 f i Cooking.obj
 0001:000065d0       ??4HeightFieldData@Gu@physx@@QEAAAEAU012@$$QEAU012@@Z 00000001800075d0 f i Cooking.obj
 0001:000066b0       ??4HeightFieldData@Gu@physx@@QEAAAEAU012@AEBU012@@Z 00000001800076b0 f i Cooking.obj
 0001:00006790       ??4PxCookingParams@physx@@QEAAAEAU01@AEBU01@@Z 0000000180007790 f i Cooking.obj
 0001:00006880       ??4PxVec3@physx@@QEAAAEAV01@AEBV01@@Z 0000000180007880 f i Cooking.obj
 0001:000068d0       ??9?$PxFlags@W4Enum@PxHeightFieldFlag@physx@@G@physx@@QEBA_NAEBV01@@Z 00000001800078d0 f i Cooking.obj
 0001:00006910       ??B?$PxBitAndDataT@E$0IA@@physx@@QEBAEXZ 0000000180007910 f i Cooking.obj
 0001:00006930       ??B?$PxBitAndDataT@G$0IAAA@@physx@@QEBAGXZ 0000000180007930 f i Cooking.obj
 0001:00006950       ??B?$PxFlags@W4Enum@PxBaseFlag@physx@@G@physx@@QEBA_NXZ 0000000180007950 f i Cooking.obj
 0001:00006980       ??B?$PxFlags@W4Enum@PxConvexFlag@physx@@G@physx@@QEBA_NXZ 0000000180007980 f i Cooking.obj
 0001:000069b0       ??B?$PxFlags@W4Enum@PxMeshFlag@physx@@G@physx@@QEBA_NXZ 00000001800079b0 f i Cooking.obj
 0001:000069e0       ??B?$PxFlags@W4Enum@PxMeshPreprocessingFlag@physx@@I@physx@@QEBA_NXZ 00000001800079e0 f i Cooking.obj
 0001:00006a10       ??I?$PxFlags@W4Enum@PxBaseFlag@physx@@G@physx@@QEBA?AV01@W4Enum@PxBaseFlag@1@@Z 0000000180007a10 f i Cooking.obj
 0001:00006a60       ??I?$PxFlags@W4Enum@PxConvexFlag@physx@@G@physx@@QEBA?AV01@W4Enum@PxConvexFlag@1@@Z 0000000180007a60 f i Cooking.obj
 0001:00006ab0       ??I?$PxFlags@W4Enum@PxHeightFieldFlag@physx@@G@physx@@QEBA?AV01@W4Enum@PxHeightFieldFlag@1@@Z 0000000180007ab0 f i Cooking.obj
 0001:00006b00       ??I?$PxFlags@W4Enum@PxMeshFlag@physx@@G@physx@@QEBA?AV01@W4Enum@PxMeshFlag@1@@Z 0000000180007b00 f i Cooking.obj
 0001:00006b50       ??I?$PxFlags@W4Enum@PxMeshPreprocessingFlag@physx@@I@physx@@QEBA?AV01@W4Enum@PxMeshPreprocessingFlag@1@@Z 0000000180007b50 f i Cooking.obj
 0001:00006ba0       ??S?$PxFlags@W4Enum@PxConvexFlag@physx@@G@physx@@QEBA?AV01@XZ 0000000180007ba0 f i Cooking.obj
 0001:00006be0       ??Sphysx@@YA?AV?$PxFlags@W4Enum@PxConvexFlag@physx@@G@0@W4Enum@PxConvexFlag@0@@Z 0000000180007be0 f i Cooking.obj
 0001:00006c20       ??_4?$PxFlags@W4Enum@PxConvexFlag@physx@@G@physx@@QEAAAEAV01@AEBV01@@Z 0000000180007c20 f i Cooking.obj
 0001:00006c50       ??_EPxConvexMesh@physx@@MEAAPEAXI@Z 0000000180007c50 f i Cooking.obj
 0001:00006cf0       ??_EPxHeightField@physx@@MEAAPEAXI@Z 0000000180007cf0 f i Cooking.obj
 0001:00006d90       ??_ECooking@physx@@UEAAPEAXI@Z 0000000180007d90 f i Cooking.obj
 0001:00006d90       ??_GCooking@physx@@UEAAPEAXI@Z 0000000180007d90 f i Cooking.obj
 0001:00006df0       ??_EPxBase@physx@@MEAAPEAXI@Z 0000000180007df0 f i Cooking.obj
 0001:00006df0       ??_GPxBase@physx@@MEAAPEAXI@Z 0000000180007df0 f i Cooking.obj
 0001:00006e30       ??_EPxCooking@physx@@MEAAPEAXI@Z 0000000180007e30 f i Cooking.obj
 0001:00006e30       ??_GPxCooking@physx@@MEAAPEAXI@Z 0000000180007e30 f i Cooking.obj
 0001:00006e70       ?FLoad@aos@shdfnd@physx@@YA?AT__m128@@M@Z 0000000180007e70 f i Cooking.obj
 0001:00006ea0       ?PxMemCopy@physx@@YAPEAXPEAXPEBXI@Z 0000000180007ea0 f i Cooking.obj
 0001:00006ed0       ?V3Load@aos@shdfnd@physx@@YA?AT__m128@@M@Z 0000000180007ed0 f i Cooking.obj
 0001:00006f10       ?V4Load@aos@shdfnd@physx@@YA?AT__m128@@M@Z 0000000180007f10 f i Cooking.obj
 0001:00006f40       ?allocate@?$Array@UPxDebugLine@physx@@VNamedAllocator@shdfnd@2@@shdfnd@physx@@IEAAPEAUPxDebugLine@3@I@Z 0000000180007f40 f i Cooking.obj
 0001:00006fd0       ?allocate@?$ReflectionAllocator@VCooking@physx@@@shdfnd@physx@@QEAAPEAX_KPEBDH@Z 0000000180007fd0 f i Cooking.obj
 0001:00007050       ?allocate@?$ReflectionAllocator@VHeightField@Gu@physx@@@shdfnd@physx@@QEAAPEAX_KPEBDH@Z 0000000180008050 f i Cooking.obj
 0001:000070d0       ?allocate@?$ReflectionAllocator@VQuickHullConvexHullLib@physx@@@shdfnd@physx@@QEAAPEAX_KPEBDH@Z 00000001800080d0 f i Cooking.obj
 0001:00007150       ?capacity@?$Array@UPxDebugLine@physx@@VNamedAllocator@shdfnd@2@@shdfnd@physx@@QEBAIXZ 0000000180008150 f i Cooking.obj
 0001:00007170       ?copy@?$Array@UPxDebugLine@physx@@VNamedAllocator@shdfnd@2@@shdfnd@physx@@KAXPEAUPxDebugLine@3@0PEBU43@@Z 0000000180008170 f i Cooking.obj
 0001:000071f0       ?deallocate@?$Array@UPxDebugLine@physx@@VNamedAllocator@shdfnd@2@@shdfnd@physx@@IEAAXPEAX@Z 00000001800081f0 f i Cooking.obj
 0001:00007220       ?destroy@?$Array@UPxDebugLine@physx@@VNamedAllocator@shdfnd@2@@shdfnd@physx@@KAXPEAUPxDebugLine@3@0@Z 0000000180008220 f i Cooking.obj
 0001:00007250       ?end@?$Array@UPxDebugLine@physx@@VNamedAllocator@shdfnd@2@@shdfnd@physx@@QEAAPEAUPxDebugLine@3@XZ 0000000180008250 f i Cooking.obj
 0001:00007270       ?forceSize_Unsafe@?$Array@UPxDebugLine@physx@@VNamedAllocator@shdfnd@2@@shdfnd@physx@@QEAAXI@Z 0000000180008270 f i Cooking.obj
 0001:000072f0       ?fsel@intrinsics@physx@@YAMMMM@Z 00000001800082f0 f i Cooking.obj
 0001:00007340       ?gatherStrided@Cooking@physx@@SAXPEBXPEAXIII@Z 0000000180008340 f i Cooking.obj
 0001:000073d0       ?getConcreteTypeName@PxConvexMesh@physx@@UEBAPEBDXZ 00000001800083d0 f i Cooking.obj
 0001:000073e0       ?getConcreteTypeName@PxHeightField@physx@@UEBAPEBDXZ 00000001800083e0 f i Cooking.obj
 0001:000073f0       ?getConvexEdgeThreshold@HeightField@Gu@physx@@UEBAMXZ 00000001800083f0 f i Cooking.obj
 0001:00007400       ?getFlags@HeightField@Gu@physx@@UEBA?AV?$PxFlags@W4Enum@PxHeightFieldFlag@physx@@G@3@XZ 0000000180008400 f i Cooking.obj
 0001:00007430       ?getFormat@HeightField@Gu@physx@@UEBA?AW4Enum@PxHeightFieldFormat@3@XZ 0000000180008430 f i Cooking.obj
 0001:00007440       ?getHeight@HeightField@Gu@physx@@QEBAMI@Z 0000000180008440 f i Cooking.obj
 0001:00007470       ?getHeight@HeightField@Gu@physx@@UEBAMMM@Z 0000000180008470 f i Cooking.obj
 0001:000074a0       ?getHeightInternal2@HeightField@Gu@physx@@QEBAMIMM@Z 00000001800084a0 f i Cooking.obj
 0001:00007710       ?getHeightInternal@HeightField@Gu@physx@@QEBAMMM@Z 0000000180008710 f i Cooking.obj
 0001:00007770       ?getHullVertices@ConvexHullData@Gu@physx@@QEBAPEBVPxVec3@3@XZ 0000000180008770 f i Cooking.obj
 0001:000077b0       ?getIndexBuffer@ConvexMesh@Gu@physx@@UEBAPEBEXZ 00000001800087b0 f i Cooking.obj
 0001:000077d0       ?getMaterialIndex0@HeightField@Gu@physx@@QEBAGI@Z 00000001800087d0 f i Cooking.obj
 0001:00007800       ?getMaterialIndex1@HeightField@Gu@physx@@QEBAGI@Z 0000000180008800 f i Cooking.obj
 0001:00007830       ?getMeshData@TriangleMeshBuilder@physx@@QEAAAEAVTriangleMeshData@Gu@2@XZ 0000000180008830 f i Cooking.obj
 0001:00007840       ?getName@?$ReflectionAllocator@VCooking@physx@@@shdfnd@physx@@CAPEBDXZ 0000000180008840 f i Cooking.obj
 0001:00007880       ?getName@?$ReflectionAllocator@VHeightField@Gu@physx@@@shdfnd@physx@@CAPEBDXZ 0000000180008880 f i Cooking.obj
 0001:000078c0       ?getName@?$ReflectionAllocator@VQuickHullConvexHullLib@physx@@@shdfnd@physx@@CAPEBDXZ 00000001800088c0 f i Cooking.obj
 0001:00007900       ?getNbColumns@HeightField@Gu@physx@@UEBAIXZ 0000000180008900 f i Cooking.obj
 0001:00007910       ?getNbColumnsFast@HeightField@Gu@physx@@QEBAIXZ 0000000180008910 f i Cooking.obj
 0001:00007920       ?getNbPolygons@ConvexMesh@Gu@physx@@UEBAIXZ 0000000180008920 f i Cooking.obj
 0001:00007930       ?getNbRows@HeightField@Gu@physx@@UEBAIXZ 0000000180008930 f i Cooking.obj
 0001:00007940       ?getNbVertices@ConvexMesh@Gu@physx@@UEBAIXZ 0000000180008940 f i Cooking.obj
 0001:00007950       ?getPaddedBounds@HeightFieldData@Gu@physx@@QEBAAEBVCenterExtentsPadded@23@XZ 0000000180008950 f i Cooking.obj
 0001:00007960       ?getSample@HeightField@Gu@physx@@QEBAAEBUPxHeightFieldSample@3@I@Z 0000000180008960 f i Cooking.obj
 0001:000079e0       ?getSample@HeightField@Gu@physx@@UEBAAEBUPxHeightFieldSample@3@II@Z 00000001800089e0 f i Cooking.obj
 0001:00007a20       ?getSampleStride@HeightField@Gu@physx@@UEBAIXZ 0000000180008a20 f i Cooking.obj
 0001:00007a30       ?getTimestamp@HeightField@Gu@physx@@UEBAIXZ 0000000180008a30 f i Cooking.obj
 0001:00007a40       ?getTriangleMaterial@HeightField@Gu@physx@@QEBAGI@Z 0000000180008a40 f i Cooking.obj
 0001:00007aa0       ?getTriangleMaterialIndex@HeightField@Gu@physx@@UEBAGI@Z 0000000180008aa0 f i Cooking.obj
 0001:00007ac0       ?getTriangleNormal@HeightField@Gu@physx@@UEBA?AVPxVec3@3@I@Z 0000000180008ac0 f i Cooking.obj
 0001:00007b00       ?getTriangleNormalInternal@HeightField@Gu@physx@@QEBA?AVPxVec3@3@I@Z 0000000180008b00 f i Cooking.obj
 0001:00007d60       ?getTriangleVertexIndices@HeightField@Gu@physx@@QEBAXIAEAI00@Z 0000000180008d60 f i Cooking.obj
 0001:00007eb0       ?getType@PxMidphaseDesc@physx@@QEBA?AW4Enum@PxMeshMidPhase@2@XZ 0000000180008eb0 f i Cooking.obj
 0001:00007ec0       ?getVertexData8@ConvexHullData@Gu@physx@@QEBAPEBEXZ 0000000180008ec0 f i Cooking.obj
 0001:00007fa0       ?getVertices@ConvexMesh@Gu@physx@@UEBAPEBVPxVec3@3@XZ 0000000180008fa0 f i Cooking.obj
 0001:00007fc0       ?grow@?$Array@UPxDebugLine@physx@@VNamedAllocator@shdfnd@2@@shdfnd@physx@@IEAAXI@Z 0000000180008fc0 f i Cooking.obj
 0001:00008040       ?isBitSet@?$PxBitAndDataT@E$0IA@@physx@@QEBAEXZ 0000000180009040 f i Cooking.obj
 0001:00008060       ?isBitSet@?$PxBitAndDataT@G$0IAAA@@physx@@QEBAGXZ 0000000180009060 f i Cooking.obj
 0001:00008080       ?isFirstTriangle@HeightField@Gu@physx@@QEBA_NI@Z 0000000180009080 f i Cooking.obj
 0001:000080c0       ?isInUserMemory@?$Array@UPxDebugLine@physx@@VNamedAllocator@shdfnd@2@@shdfnd@physx@@QEBAIXZ 00000001800090c0 f i Cooking.obj
 0001:000080e0       ?isKindOf@PxBase@physx@@MEBA_NPEBD@Z 00000001800090e0 f i Cooking.obj
 0001:00008120       ?isKindOf@PxConvexMesh@physx@@MEBA_NPEBD@Z 0000000180009120 f i Cooking.obj
 0001:00008180       ?isKindOf@PxHeightField@physx@@MEBA_NPEBD@Z 0000000180009180 f i Cooking.obj
 0001:000081e0       ?isReleasable@PxBase@physx@@UEBA_NXZ 00000001800091e0 f i Cooking.obj
 0001:00008220       ?isValid@PxBVHStructureDesc@physx@@QEBA_NXZ 0000000180009220 f i Cooking.obj
 0001:00008260       ?isValid@PxConvexMeshDesc@physx@@QEBA_NXZ 0000000180009260 f i Cooking.obj
 0001:00008470       ?isValid@PxHeightFieldDesc@physx@@QEBA_NXZ 0000000180009470 f i Cooking.obj
 0001:00008520       ?isValid@PxSimpleTriangleMesh@physx@@QEBA_NXZ 0000000180009520 f i Cooking.obj
 0001:00008600       ?isValid@PxTriangleMeshDesc@physx@@QEBA_NXZ 0000000180009600 f i Cooking.obj
 0001:00008670       ?isValidVertex@HeightField@Gu@physx@@QEBA_NI@Z 0000000180009670 f i Cooking.obj
 0001:000086b0       ?isZerothVertexShared@HeightField@Gu@physx@@QEBA_NI@Z 00000001800096b0 f i Cooking.obj
 0001:00008700       ?littleEndian@shdfnd@physx@@YADXZ 0000000180009700 f i Cooking.obj
 0001:00008720       ?markSerializedMem@Cm@physx@@YAXPEAXI@Z 0000000180009720 f i Cooking.obj
 0001:00008760       ?memCopy@intrinsics@physx@@YAPEAXPEAXPEBXI@Z 0000000180009760 f i Cooking.obj
 0001:00008790       ?outputSegment@RenderOutput@Cm@physx@@QEAAXAEBVPxVec3@3@0@Z 0000000180009790 f i Cooking.obj
 0001:00008810       ?preExportDataReset@ConvexMesh@Gu@physx@@QEAAXXZ 0000000180009810 f i Cooking.obj
 0001:00008830       ?preExportDataReset@HeightField@Gu@physx@@QEAAXXZ 0000000180009830 f i Cooking.obj
 0001:00008850       ?preExportDataReset@RefCountable@Cm@physx@@QEAAXXZ 0000000180009850 f i Cooking.obj
 0001:00008870       ?recreate@?$Array@UPxDebugLine@physx@@VNamedAllocator@shdfnd@2@@shdfnd@physx@@IEAAXI@Z 0000000180009870 f i Cooking.obj
 0001:00008990       ?reserve@?$Array@UPxDebugLine@physx@@VNamedAllocator@shdfnd@2@@shdfnd@physx@@QEAAXI@Z 0000000180009990 f i Cooking.obj
 0001:000089d0       ?reserveSegments@RenderOutput@Cm@physx@@QEAAPEAUPxDebugLine@3@I@Z 00000001800099d0 f i Cooking.obj
 0001:00008a00       ?size@?$Array@UPxDebugLine@physx@@VNamedAllocator@shdfnd@2@@shdfnd@physx@@QEBAIXZ 0000000180009a00 f i Cooking.obj
 0001:00008a10       ?tessFlag@PxHeightFieldSample@physx@@QEBAEXZ 0000000180009a10 f i Cooking.obj
 0001:00008a50       ??0ReducedVertexCloud@physx@@QEAA@PEBVPxVec3@1@I@Z 0000000180009a50 f   CookingUtils.obj
 0001:00008ab0       ??1ReducedVertexCloud@physx@@QEAA@XZ 0000000180009ab0 f   CookingUtils.obj
 0001:00008ad0       ?Clean@ReducedVertexCloud@physx@@QEAAAEAV12@XZ 0000000180009ad0 f   CookingUtils.obj
 0001:00008b40       ?Reduce@ReducedVertexCloud@physx@@QEAA_NPEAUREDUCEDCLOUD@2@@Z 0000000180009b40 f   CookingUtils.obj
 0001:00009040       ??$?_UM@@YAPEAX_KV?$ReflectionAllocator@M@shdfnd@physx@@PEBDH@Z 000000018000a040 f i CookingUtils.obj
 0001:00009080       ??0?$ReflectionAllocator@M@shdfnd@physx@@QEAA@PEBD@Z 000000018000a080 f i CookingUtils.obj
 0001:00009090       ?allocate@?$ReflectionAllocator@M@shdfnd@physx@@QEAAPEAX_KPEBDH@Z 000000018000a090 f i CookingUtils.obj
 0001:00009110       ?getName@?$ReflectionAllocator@M@shdfnd@physx@@CAPEBDXZ 000000018000a110 f i CookingUtils.obj
 0001:00009150       ??0EdgeList@Gu@physx@@QEAA@XZ 000000018000a150 f   EdgeList.obj
 0001:000091a0       ??1EdgeList@Gu@physx@@QEAA@XZ 000000018000a1a0 f   EdgeList.obj
 0001:00009260       ?load@EdgeList@Gu@physx@@QEAA_NAEAVPxInputStream@3@@Z 000000018000a260 f   EdgeList.obj
 0001:00009590       ??0EdgeListBuilder@Gu@physx@@QEAA@XZ 000000018000a590 f   EdgeList.obj
 0001:000095c0       ??1EdgeListBuilder@Gu@physx@@QEAA@XZ 000000018000a5c0 f   EdgeList.obj
 0001:000095e0       ?init@EdgeListBuilder@Gu@physx@@QEAA_NAEBUEDGELISTCREATE@23@@Z 000000018000a5e0 f   EdgeList.obj
 0001:000097c0       ?createFacesToEdges@EdgeListBuilder@Gu@physx@@AEAA_NIPEBIPEBG@Z 000000018000a7c0 f   EdgeList.obj
 0001:00009f90       ?createEdgesToFaces@EdgeListBuilder@Gu@physx@@AEAA_NIPEBIPEBG@Z 000000018000af90 f   EdgeList.obj
 0001:0000a530       ?computeActiveEdges@EdgeListBuilder@Gu@physx@@AEAA_NIPEBIPEBGPEBVPxVec3@3@M@Z 000000018000b530 f   EdgeList.obj
 0001:0000c030       ??$?_UUEdgeData@Gu@physx@@@@YAPEAX_KV?$ReflectionAllocator@UEdgeData@Gu@physx@@@shdfnd@physx@@PEBDH@Z 000000018000d030 f i EdgeList.obj
 0001:0000c070       ??$?_UUEdgeTriangleData@Gu@physx@@@@YAPEAX_KV?$ReflectionAllocator@UEdgeTriangleData@Gu@physx@@@shdfnd@physx@@PEBDH@Z 000000018000d070 f i EdgeList.obj
 0001:0000c0b0       ??0?$ReflectionAllocator@UEdgeData@Gu@physx@@@shdfnd@physx@@QEAA@PEBD@Z 000000018000d0b0 f i EdgeList.obj
 0001:0000c0c0       ??0?$ReflectionAllocator@UEdgeTriangleData@Gu@physx@@@shdfnd@physx@@QEAA@PEBD@Z 000000018000d0c0 f i EdgeList.obj
 0001:0000c0d0       ??0PxPlane@physx@@QEAA@AEBVPxVec3@1@00@Z 000000018000d0d0 f i EdgeList.obj
 0001:0000c190       ??0PxTriangle@physx@@QEAA@AEBVPxVec3@1@00@Z 000000018000d190 f i EdgeList.obj
 0001:0000c240       ??1PxTriangle@physx@@QEAA@XZ 000000018000d240 f i EdgeList.obj
 0001:0000c250       ??DPxVec3@physx@@QEBA?AV01@M@Z 000000018000d250 f i EdgeList.obj
 0001:0000c2c0       ??GPxVec3@physx@@QEBA?AV01@AEBV01@@Z 000000018000d2c0 f i EdgeList.obj
 0001:0000c340       ??_0PxVec3@physx@@QEAAAEAV01@M@Z 000000018000d340 f i EdgeList.obj
 0001:0000c3c0       ?PxAtan2@physx@@YAMMM@Z    000000018000d3c0 f i EdgeList.obj
 0001:0000c3f0       ?PxRecipSqrt@physx@@YAMM@Z 000000018000d3f0 f i EdgeList.obj
 0001:0000c410       ?PxSqrt@physx@@YAMM@Z      000000018000d410 f i EdgeList.obj
 0001:0000c430       ?allocate@?$ReflectionAllocator@UEdgeData@Gu@physx@@@shdfnd@physx@@QEAAPEAX_KPEBDH@Z 000000018000d430 f i EdgeList.obj
 0001:0000c4b0       ?allocate@?$ReflectionAllocator@UEdgeTriangleData@Gu@physx@@@shdfnd@physx@@QEAAPEAX_KPEBDH@Z 000000018000d4b0 f i EdgeList.obj
 0001:0000c530       ?angle@shdfnd@physx@@YAMAEBVPxVec3@2@0@Z 000000018000d530 f i EdgeList.obj
 0001:0000c590       ?cross@PxVec3@physx@@QEBA?AV12@AEBV12@@Z 000000018000d590 f i EdgeList.obj
 0001:0000c650       ?distance@PxPlane@physx@@QEBAMAEBVPxVec3@2@@Z 000000018000d650 f i EdgeList.obj
 0001:0000c680       ?dot@PxVec3@physx@@QEBAMAEBV12@@Z 000000018000d680 f i EdgeList.obj
 0001:0000c6d0       ?getEdgeToTriangles@EdgeList@Gu@physx@@QEBAPEBUEdgeDescData@23@XZ 000000018000d6d0 f i EdgeList.obj
 0001:0000c6e0       ?getEdges@EdgeList@Gu@physx@@QEBAPEBUEdgeData@23@XZ 000000018000d6e0 f i EdgeList.obj
 0001:0000c6f0       ?getFacesByEdges@EdgeList@Gu@physx@@QEBAPEBIXZ 000000018000d6f0 f i EdgeList.obj
 0001:0000c700       ?getName@?$ReflectionAllocator@UEdgeData@Gu@physx@@@shdfnd@physx@@CAPEBDXZ 000000018000d700 f i EdgeList.obj
 0001:0000c740       ?getName@?$ReflectionAllocator@UEdgeTriangleData@Gu@physx@@@shdfnd@physx@@CAPEBDXZ 000000018000d740 f i EdgeList.obj
 0001:0000c780       ?getNbEdges@EdgeList@Gu@physx@@QEBAIXZ 000000018000d780 f i EdgeList.obj
 0001:0000c790       ?getNormalized@PxVec3@physx@@QEBA?AV12@XZ 000000018000d790 f i EdgeList.obj
 0001:0000c820       ?magnitude@PxVec3@physx@@QEBAMXZ 000000018000d820 f i EdgeList.obj
 0001:0000c840       ?magnitudeSquared@PxVec3@physx@@QEBAMXZ 000000018000d840 f i EdgeList.obj
 0001:0000c890       ?normal@PxTriangle@physx@@QEBAXAEAVPxVec3@2@@Z 000000018000d890 f i EdgeList.obj
 0001:0000c950       ?normalize@PxVec3@physx@@QEAAMXZ 000000018000d950 f i EdgeList.obj
 0001:0000c9a0       ?recipSqrt@intrinsics@physx@@YAMM@Z 000000018000d9a0 f i EdgeList.obj
 0001:0000c9d0       ?sqrt@intrinsics@physx@@YAMM@Z 000000018000d9d0 f i EdgeList.obj
 0001:0000c9f0       fabsf                      000000018000d9f0 f i EdgeList.obj
 0001:0000ca10       ??0MeshCleaner@physx@@QEAA@IPEBVPxVec3@1@IPEBIM@Z 000000018000da10 f   MeshCleaner.obj
 0001:0000d6f0       ??1MeshCleaner@physx@@QEAA@XZ 000000018000e6f0 f   MeshCleaner.obj
 0001:0000da00       ??9Indices@@QEBA_NAEBU0@@Z 000000018000ea00 f i MeshCleaner.obj
 0001:0000daa0       ??9PxVec3@physx@@QEBA_NAEBV01@@Z 000000018000eaa0 f i MeshCleaner.obj
 0001:0000db10       ?PxFloor@physx@@YAMM@Z     000000018000eb10 f i MeshCleaner.obj
 0001:0000db30       ?nextPowerOfTwo@shdfnd@physx@@YAII@Z 000000018000eb30 f i MeshCleaner.obj
 0001:0000dba0       ?createQuantizer@physx@@YAPEAVQuantizer@1@XZ 000000018000eba0 f   Quantizer.obj
 0001:0000dc20       ?kmeans_cluster3d@@YAIPEBVPxVec3@physx@@IIPEAV12@PEAIMM@Z 000000018000ec20 f   Quantizer.obj
 0001:0000dc80       ??$?2V?$ReflectionAllocator@VQuantizerImpl@@@shdfnd@physx@@@UserAllocated@shdfnd@physx@@SAPEAX_KV?$ReflectionAllocator@VQuantizerImpl@@@12@PEBDH@Z 000000018000ec80 f i Quantizer.obj
 0001:0000dcc0       ??$PX_UNUSED@W4PxZERO@physx@@@@YAXAEBW4PxZERO@physx@@@Z 000000018000ecc0 f i Quantizer.obj
 0001:0000dcd0       ??$PxMax@M@physx@@YAMMM@Z  000000018000ecd0 f i Quantizer.obj
 0001:0000dd00       ??$PxMin@M@physx@@YAMMM@Z  000000018000ed00 f i Quantizer.obj
 0001:0000dd30       ??$kmeans_cluster@VPxVec3@physx@@M@@YAIPEBVPxVec3@physx@@IIPEAV01@PEAIMM@Z 000000018000ed30 f i Quantizer.obj
 0001:0000e490       ??0?$Array@VPxVec3@physx@@VNamedAllocator@shdfnd@2@@shdfnd@physx@@QEAA@AEBVNamedAllocator@12@@Z 000000018000f490 f i Quantizer.obj
 0001:0000e4e0       ??0?$ReflectionAllocator@VQuantizerImpl@@@shdfnd@physx@@QEAA@PEBD@Z 000000018000f4e0 f i Quantizer.obj
 0001:0000e4f0       ??0PxBounds3@physx@@QEAA@XZ 000000018000f4f0 f i Quantizer.obj
 0001:0000e530       ??0PxVec3@physx@@QEAA@W4PxZERO@1@@Z 000000018000f530 f i Quantizer.obj
 0001:0000e580       ??0Quantizer@physx@@QEAA@XZ 000000018000f580 f i Quantizer.obj
 0001:0000e5a0       ??0QuantizerImpl@@QEAA@XZ  000000018000f5a0 f i Quantizer.obj
 0001:0000e6a0       ??1?$Array@VPxVec3@physx@@VNamedAllocator@shdfnd@2@@shdfnd@physx@@QEAA@XZ 000000018000f6a0 f i Quantizer.obj
 0001:0000e710       ??1Quantizer@physx@@MEAA@XZ 000000018000f710 f i Quantizer.obj
 0001:0000e730       ??1QuantizerImpl@@EEAA@XZ  000000018000f730 f i Quantizer.obj
 0001:0000e780       ??A?$Array@VPxVec3@physx@@VNamedAllocator@shdfnd@2@@shdfnd@physx@@QEAAAEAVPxVec3@2@I@Z 000000018000f780 f i Quantizer.obj
 0001:0000e800       ??APxVec3@physx@@QEAAAEAMI@Z 000000018000f800 f i Quantizer.obj
 0001:0000e850       ??HPxVec3@physx@@QEBA?AV01@AEBV01@@Z 000000018000f850 f i Quantizer.obj
 0001:0000e8d0       ??XPxVec3@physx@@QEAAAEAV01@M@Z 000000018000f8d0 f i Quantizer.obj
 0001:0000e930       ??YPxVec3@physx@@QEAAAEAV01@AEBV01@@Z 000000018000f930 f i Quantizer.obj
 0001:0000e9a0       ??_EQuantizer@physx@@MEAAPEAXI@Z 000000018000f9a0 f i Quantizer.obj
 0001:0000e9a0       ??_GQuantizer@physx@@MEAAPEAXI@Z 000000018000f9a0 f i Quantizer.obj
 0001:0000e9e0       ??_EQuantizerImpl@@EEAAPEAXI@Z 000000018000f9e0 f i Quantizer.obj
 0001:0000e9e0       ??_GQuantizerImpl@@EEAAPEAXI@Z 000000018000f9e0 f i Quantizer.obj
 0001:0000ea40       ?PxAbs@physx@@YAMM@Z       000000018000fa40 f i Quantizer.obj
 0001:0000ea60       ?PxIsFinite@physx@@YA_NM@Z 000000018000fa60 f i Quantizer.obj
 0001:0000ea80       ?abs@intrinsics@physx@@YAMM@Z 000000018000fa80 f i Quantizer.obj
 0001:0000eaa0       ?allocate@?$Array@VPxVec3@physx@@VNamedAllocator@shdfnd@2@@shdfnd@physx@@IEAAPEAVPxVec3@3@I@Z 000000018000faa0 f i Quantizer.obj
 0001:0000eb30       ?allocate@?$ReflectionAllocator@VQuantizerImpl@@@shdfnd@physx@@QEAAPEAX_KPEBDH@Z 000000018000fb30 f i Quantizer.obj
 0001:0000ebb0       ?capacity@?$Array@VPxVec3@physx@@VNamedAllocator@shdfnd@2@@shdfnd@physx@@QEBAIXZ 000000018000fbb0 f i Quantizer.obj
 0001:0000ebd0       ?capacityIncrement@?$Array@VPxVec3@physx@@VNamedAllocator@shdfnd@2@@shdfnd@physx@@IEBAIXZ 000000018000fbd0 f i Quantizer.obj
 0001:0000ec10       ?clear@?$Array@VPxVec3@physx@@VNamedAllocator@shdfnd@2@@shdfnd@physx@@QEAAXXZ 000000018000fc10 f i Quantizer.obj
 0001:0000ec50       ?copy@?$Array@VPxVec3@physx@@VNamedAllocator@shdfnd@2@@shdfnd@physx@@KAXPEAVPxVec3@3@0PEBV43@@Z 000000018000fc50 f i Quantizer.obj
 0001:0000ecd0       ?deallocate@?$Array@VPxVec3@physx@@VNamedAllocator@shdfnd@2@@shdfnd@physx@@IEAAXPEAX@Z 000000018000fcd0 f i Quantizer.obj
 0001:0000ed00       ?destroy@?$Array@VPxVec3@physx@@VNamedAllocator@shdfnd@2@@shdfnd@physx@@KAXPEAVPxVec3@3@0@Z 000000018000fd00 f i Quantizer.obj
 0001:0000ed30       ?getCenter@PxBounds3@physx@@QEBA?AVPxVec3@2@XZ 000000018000fd30 f i Quantizer.obj
 0001:0000edb0       ?getDenormalizeCenter@QuantizerImpl@@UEBAAEBVPxVec3@physx@@XZ 000000018000fdb0 f i Quantizer.obj
 0001:0000edc0       ?getDenormalizeScale@QuantizerImpl@@UEBAAEBVPxVec3@physx@@XZ 000000018000fdc0 f i Quantizer.obj
 0001:0000edd0       ?getDimensions@PxBounds3@physx@@QEBA?AVPxVec3@2@XZ 000000018000fdd0 f i Quantizer.obj
 0001:0000ee30       ?getName@?$ReflectionAllocator@VQuantizerImpl@@@shdfnd@physx@@CAPEBDXZ 000000018000fe30 f i Quantizer.obj
 0001:0000ee70       ?growAndPushBack@?$Array@VPxVec3@physx@@VNamedAllocator@shdfnd@2@@shdfnd@physx@@IEAAAEAVPxVec3@3@AEBV43@@Z 000000018000fe70 f i Quantizer.obj
 0001:0000f000       ?include@PxBounds3@physx@@QEAAXAEBVPxVec3@2@@Z 0000000180010000 f i Quantizer.obj
 0001:0000f0a0       ?isFinite@PxBounds3@physx@@QEBA_NXZ 00000001800100a0 f i Quantizer.obj
 0001:0000f100       ?isFinite@PxVec3@physx@@QEBA_NXZ 0000000180010100 f i Quantizer.obj
 0001:0000f170       ?isFinite@intrinsics@physx@@YA_NM@Z 0000000180010170 f i Quantizer.obj
 0001:0000f1b0       ?isInUserMemory@?$Array@VPxVec3@physx@@VNamedAllocator@shdfnd@2@@shdfnd@physx@@QEBAIXZ 00000001800101b0 f i Quantizer.obj
 0001:0000f1d0       ?isValid@PxBounds3@physx@@QEBA_NXZ 00000001800101d0 f i Quantizer.obj
 0001:0000f2c0       ?kmeansQuantize3D@QuantizerImpl@@UEAAPEBVPxVec3@physx@@IPEBV23@I_NIAEAI@Z 00000001800102c0 f i Quantizer.obj
 0001:0000f600       ?maximum@PxVec3@physx@@QEBA?AV12@AEBV12@@Z 0000000180010600 f i Quantizer.obj
 0001:0000f6a0       ?minimum@PxVec3@physx@@QEBA?AV12@AEBV12@@Z 00000001800106a0 f i Quantizer.obj
 0001:0000f740       ?multiply@PxVec3@physx@@QEBA?AV12@AEBV12@@Z 0000000180010740 f i Quantizer.obj
 0001:0000f7c0       ?normalizeInput@QuantizerImpl@@AEAAXIPEBVPxVec3@physx@@I@Z 00000001800107c0 f i Quantizer.obj
 0001:0000fa70       ?pushBack@?$Array@VPxVec3@physx@@VNamedAllocator@shdfnd@2@@shdfnd@physx@@QEAAAEAVPxVec3@3@AEBV43@@Z 0000000180010a70 f i Quantizer.obj
 0001:0000fb10       ?release@QuantizerImpl@@UEAAXXZ 0000000180010b10 f i Quantizer.obj
 0001:0000fb60       ?selectMax@intrinsics@physx@@YAMMM@Z 0000000180010b60 f i Quantizer.obj
 0001:0000fba0       ?selectMin@intrinsics@physx@@YAMMM@Z 0000000180010ba0 f i Quantizer.obj
 0001:0000fbe0       ?setEmpty@PxBounds3@physx@@QEAAXXZ 0000000180010be0 f i Quantizer.obj
 0001:0000fc40       ??0BVHStructureBuilder@physx@@QEAA@XZ 0000000180010c40 f   BVHStructureBuilder.obj
 0001:0000fc90       ??1BVHStructureBuilder@physx@@QEAA@XZ 0000000180010c90 f   BVHStructureBuilder.obj
 0001:0000fd30       ?loadFromDesc@BVHStructureBuilder@physx@@QEAA_NAEBVPxBVHStructureDesc@2@@Z 0000000180010d30 f   BVHStructureBuilder.obj
 0001:00010080       ?save@BVHStructureBuilder@physx@@QEBA_NAEAVPxOutputStream@2@_N@Z 0000000180011080 f   BVHStructureBuilder.obj
 0001:00010280       ?moveData@BVHStructureBuilder@physx@@QEAAXAEAUBVHStructureData@Gu@2@@Z 0000000180011280 f   BVHStructureBuilder.obj
 0001:00010330       ?flatten@@YAXAEBVNodeAllocator@Gu@physx@@PEAUBVHNode@23@@Z 0000000180011330 f   BVHStructureBuilder.obj
 0001:000106d0       ??$?4VNamedAllocator@shdfnd@physx@@@?$Array@USlab@NodeAllocator@Gu@physx@@VNamedAllocator@shdfnd@4@@shdfnd@physx@@QEAAAEAV012@AEBV012@@Z 00000001800116d0 f i BVHStructureBuilder.obj
 0001:00010760       ??$PX_UNUSED@_N@@YAXAEB_N@Z 0000000180011760 f i BVHStructureBuilder.obj
 0001:00010770       ??$copy@VNamedAllocator@shdfnd@physx@@@?$Array@USlab@NodeAllocator@Gu@physx@@VNamedAllocator@shdfnd@4@@shdfnd@physx@@IEAAXAEBV012@@Z 0000000180011770 f i BVHStructureBuilder.obj
 0001:00010830       ??0?$Array@USlab@NodeAllocator@Gu@physx@@VNamedAllocator@shdfnd@4@@shdfnd@physx@@QEAA@AEBV012@AEBVNamedAllocator@12@@Z 0000000180011830 f i BVHStructureBuilder.obj
 0001:00010870       ??0AABBTreeBuildNode@Gu@physx@@QEAA@AEBV012@@Z 0000000180011870 f i BVHStructureBuilder.obj
 0001:000108d0       ??0AABBTreeBuildNode@Gu@physx@@QEAA@XZ 00000001800118d0 f i BVHStructureBuilder.obj
 0001:00010900       ??0AABBTreeBuildParams@Gu@physx@@QEAA@IIPEBVPxBounds3@2@@Z 0000000180011900 f i BVHStructureBuilder.obj
 0001:00010950       ??0BuildStats@Gu@physx@@QEAA@XZ 0000000180011950 f i BVHStructureBuilder.obj
 0001:00010980       ??0NodeAllocator@Gu@physx@@QEAA@AEBV012@@Z 0000000180011980 f i BVHStructureBuilder.obj
 0001:00010a10       ??0PxBounds3@physx@@QEAA@AEBV01@@Z 0000000180011a10 f i BVHStructureBuilder.obj
 0001:00010a60       ??0PxVec4@physx@@QEAA@XZ   0000000180011a60 f i BVHStructureBuilder.obj
 0001:00010a70       ??1AABBTreeBuildNode@Gu@physx@@QEAA@XZ 0000000180011a70 f i BVHStructureBuilder.obj
 0001:00010a80       ??1AABBTreeBuildParams@Gu@physx@@QEAA@XZ 0000000180011a80 f i BVHStructureBuilder.obj
 0001:00010aa0       ??4?$Array@USlab@NodeAllocator@Gu@physx@@VNamedAllocator@shdfnd@4@@shdfnd@physx@@QEAAAEAV012@AEBV012@@Z 0000000180011aa0 f i BVHStructureBuilder.obj
 0001:00010ad0       ??4AABBTreeBuildNode@Gu@physx@@QEAAAEAV012@AEBV012@@Z 0000000180011ad0 f i BVHStructureBuilder.obj
 0001:00010b30       ??4AABBTreeBuildParams@Gu@physx@@QEAAAEAV012@AEBV012@@Z 0000000180011b30 f i BVHStructureBuilder.obj
 0001:00010b60       ??4BuildStats@Gu@physx@@QEAAAEAU012@$$QEAU012@@Z 0000000180011b60 f i BVHStructureBuilder.obj
 0001:00010b90       ??4BuildStats@Gu@physx@@QEAAAEAU012@AEBU012@@Z 0000000180011b90 f i BVHStructureBuilder.obj
 0001:00010bb0       ??4NodeAllocator@Gu@physx@@QEAAAEAV012@AEBV012@@Z 0000000180011bb0 f i BVHStructureBuilder.obj
 0001:00010c20       ??4PxBounds3@physx@@QEAAAEAV01@AEBV01@@Z 0000000180011c20 f i BVHStructureBuilder.obj
 0001:00010c70       ??A?$Array@USlab@NodeAllocator@Gu@physx@@VNamedAllocator@shdfnd@4@@shdfnd@physx@@QEBAAEBUSlab@NodeAllocator@Gu@2@I@Z 0000000180011c70 f i BVHStructureBuilder.obj
 0001:00010cf0       ??_FAABBTreeBuildParams@Gu@physx@@QEAAXXZ 0000000180011cf0 f i BVHStructureBuilder.obj
 0001:00010d20       ?V4Add@aos@shdfnd@physx@@YA?AT__m128@@T4@0@Z 0000000180011d20 f i BVHStructureBuilder.obj
 0001:00010d50       ?V4LoadU@aos@shdfnd@physx@@YA?AT__m128@@QEBM@Z 0000000180011d50 f i BVHStructureBuilder.obj
 0001:00010d70       ?V4Scale@aos@shdfnd@physx@@YA?AT__m128@@T4@0@Z 0000000180011d70 f i BVHStructureBuilder.obj
 0001:00010da0       ?V4StoreA@aos@shdfnd@physx@@YAXT__m128@@PEAM@Z 0000000180011da0 f i BVHStructureBuilder.obj
 0001:00010e20       ?V4StoreU@aos@shdfnd@physx@@YAXT__m128@@PEAM@Z 0000000180011e20 f i BVHStructureBuilder.obj
 0001:00010e40       ?V4Sub@aos@shdfnd@physx@@YA?AT__m128@@T4@0@Z 0000000180011e40 f i BVHStructureBuilder.obj
 0001:00010e70       ?__global_array_delete@@YAXPEAX@Z 0000000180011e70 f i BVHStructureBuilder.obj
 0001:00010e90       ?__global_array_delete@@YAXPEAX_K@Z 0000000180011e90 f i BVHStructureBuilder.obj
 0001:00010ec0       ?__global_delete@@YAXPEAX@Z 0000000180011ec0 f i BVHStructureBuilder.obj
 0001:00010ee0       ?__global_delete@@YAXPEAX_K@Z 0000000180011ee0 f i BVHStructureBuilder.obj
 0001:00010f10       ?allocate@?$Array@USlab@NodeAllocator@Gu@physx@@VNamedAllocator@shdfnd@4@@shdfnd@physx@@IEAAPEAUSlab@NodeAllocator@Gu@3@I@Z 0000000180011f10 f i BVHStructureBuilder.obj
 0001:00010fa0       ?begin@?$Array@USlab@NodeAllocator@Gu@physx@@VNamedAllocator@shdfnd@4@@shdfnd@physx@@QEBAPEBUSlab@NodeAllocator@Gu@3@XZ 0000000180011fa0 f i BVHStructureBuilder.obj
 0001:00010fb0       ?capacity@?$Array@USlab@NodeAllocator@Gu@physx@@VNamedAllocator@shdfnd@4@@shdfnd@physx@@QEBAIXZ 0000000180011fb0 f i BVHStructureBuilder.obj
 0001:00010fd0       ?clear@?$Array@USlab@NodeAllocator@Gu@physx@@VNamedAllocator@shdfnd@4@@shdfnd@physx@@QEAAXXZ 0000000180011fd0 f i BVHStructureBuilder.obj
 0001:00011010       ?copy@?$Array@USlab@NodeAllocator@Gu@physx@@VNamedAllocator@shdfnd@4@@shdfnd@physx@@KAXPEAUSlab@NodeAllocator@Gu@3@0PEBU4563@@Z 0000000180012010 f i BVHStructureBuilder.obj
 0001:00011090       ?deallocate@?$Array@USlab@NodeAllocator@Gu@physx@@VNamedAllocator@shdfnd@4@@shdfnd@physx@@IEAAXPEAX@Z 0000000180012090 f i BVHStructureBuilder.obj
 0001:000110c0       ?destroy@?$Array@USlab@NodeAllocator@Gu@physx@@VNamedAllocator@shdfnd@4@@shdfnd@physx@@KAXPEAUSlab@NodeAllocator@Gu@3@0@Z 00000001800120c0 f i BVHStructureBuilder.obj
 0001:000110f0       ?empty@?$Array@USlab@NodeAllocator@Gu@physx@@VNamedAllocator@shdfnd@4@@shdfnd@physx@@QEBA_NXZ 00000001800120f0 f i BVHStructureBuilder.obj
 0001:00011120       ?getAABB@AABBTreeBuildNode@Gu@physx@@QEBAAEBVPxBounds3@3@XZ 0000000180012120 f i BVHStructureBuilder.obj
 0001:00011130       ?getCount@BuildStats@Gu@physx@@QEBAIXZ 0000000180012130 f i BVHStructureBuilder.obj
 0001:00011140       ?getNbPrimitives@AABBTreeBuildNode@Gu@physx@@QEBAIXZ 0000000180012140 f i BVHStructureBuilder.obj
 0001:00011150       ?getNbRuntimePrimitives@AABBTreeBuildNode@Gu@physx@@QEBAIXZ 0000000180012150 f i BVHStructureBuilder.obj
 0001:00011160       ?getNeg@AABBTreeBuildNode@Gu@physx@@QEBAPEBV123@XZ 0000000180012160 f i BVHStructureBuilder.obj
 0001:000111a0       ?getPos@AABBTreeBuildNode@Gu@physx@@QEBAPEBV123@XZ 00000001800121a0 f i BVHStructureBuilder.obj
 0001:000111b0       ?getPrimitives@AABBTreeBuildNode@Gu@physx@@QEAAPEAIPEAI@Z 00000001800121b0 f i BVHStructureBuilder.obj
 0001:000111d0       ?getPrimitives@AABBTreeBuildNode@Gu@physx@@QEBAPEBIPEBI@Z 00000001800121d0 f i BVHStructureBuilder.obj
 0001:000111f0       ?grow@?$Array@USlab@NodeAllocator@Gu@physx@@VNamedAllocator@shdfnd@4@@shdfnd@physx@@IEAAXI@Z 00000001800121f0 f i BVHStructureBuilder.obj
 0001:00011270       ?increaseCount@BuildStats@Gu@physx@@QEAAXI@Z 0000000180012270 f i BVHStructureBuilder.obj
 0001:00011290       ?inflateBounds@@YAXAEAVPxBounds3@physx@@AEBV12@@Z 0000000180012290 f i BVHStructureBuilder.obj
 0001:00011480       ?isAligned16@aos@shdfnd@physx@@YA_NPEAX@Z 0000000180012480 f i BVHStructureBuilder.obj
 0001:000114b0       ?isInUserMemory@?$Array@USlab@NodeAllocator@Gu@physx@@VNamedAllocator@shdfnd@4@@shdfnd@physx@@QEBAIXZ 00000001800124b0 f i BVHStructureBuilder.obj
 0001:000114d0       ?isLeaf@AABBTreeBuildNode@Gu@physx@@QEBA_NXZ 00000001800124d0 f i BVHStructureBuilder.obj
 0001:00011510       ?recreate@?$Array@USlab@NodeAllocator@Gu@physx@@VNamedAllocator@shdfnd@4@@shdfnd@physx@@IEAAXI@Z 0000000180012510 f i BVHStructureBuilder.obj
 0001:00011630       ?reserve@?$Array@USlab@NodeAllocator@Gu@physx@@VNamedAllocator@shdfnd@4@@shdfnd@physx@@QEAAXI@Z 0000000180012630 f i BVHStructureBuilder.obj
 0001:00011670       ?reset@AABBTreeBuildParams@Gu@physx@@QEAAXXZ 0000000180012670 f i BVHStructureBuilder.obj
 0001:000116d0       ?reset@BuildStats@Gu@physx@@QEAAXXZ 00000001800126d0 f i BVHStructureBuilder.obj
 0001:000116f0       ?setCount@BuildStats@Gu@physx@@QEAAXI@Z 00000001800126f0 f i BVHStructureBuilder.obj
 0001:00011710       ?setNbRunTimePrimitives@AABBTreeBuildNode@Gu@physx@@QEAAXI@Z 0000000180012710 f i BVHStructureBuilder.obj
 0001:00011730       ?size@?$Array@USlab@NodeAllocator@Gu@physx@@VNamedAllocator@shdfnd@4@@shdfnd@physx@@QEBAIXZ 0000000180012730 f i BVHStructureBuilder.obj
 0001:00011740       ?saveHeightField@physx@@YA_NAEBVHeightField@Gu@1@AEAVPxOutputStream@1@_N@Z 0000000180012740 f   HeightFieldCooking.obj
 0001:00011af0       ??APxVec3@physx@@QEBAAEBMI@Z 0000000180012af0 f i HeightFieldCooking.obj
 0001:00011b40       ??B?$PxFlags@W4Enum@PxHeightFieldFlag@physx@@G@physx@@QEBAGXZ 0000000180012b40 f i HeightFieldCooking.obj
 0001:00011b50       ?getData@HeightField@Gu@physx@@QEBAAEBUHeightFieldData@23@XZ 0000000180012b50 f i HeightFieldCooking.obj
 0001:00011b60       ?getMax@CenterExtents@Gu@physx@@QEBAMI@Z 0000000180012b60 f i HeightFieldCooking.obj
 0001:00011bb0       ?getMin@CenterExtents@Gu@physx@@QEBAMI@Z 0000000180012bb0 f i HeightFieldCooking.obj
 0001:00011c00       ?buildFromTriangles@RTreeCooker@physx@@SAXAEAURTree@Gu@2@PEBVPxVec3@2@IPEBGPEBIIAEAV?$Array@IVNamedAllocator@shdfnd@physx@@@shdfnd@2@PEAURemapCallback@12@MW4Enum@PxMeshCookingHint@2@@Z 0000000180012c00 f   RTreeCooking.obj
 0001:00013460       ??$PX_UNUSED@I@@YAXAEBI@Z  0000000180014460 f i RTreeCooking.obj
 0001:00013470       ??$PX_UNUSED@M@@YAXAEBM@Z  0000000180014470 f i RTreeCooking.obj
 0001:00013480       ??$PX_UNUSED@PEAURTreeNodeNQ@physx@@@@YAXAEBQEAURTreeNodeNQ@physx@@@Z 0000000180014480 f i RTreeCooking.obj
 0001:00013490       ??$PX_UNUSED@URTreeNodeNQ@physx@@@@YAXAEBURTreeNodeNQ@physx@@@Z 0000000180014490 f i RTreeCooking.obj
 0001:000134a0       ??$PxMax@H@physx@@YAHHH@Z  00000001800144a0 f i RTreeCooking.obj
 0001:000134d0       ??$PxMin@I@physx@@YAIII@Z  00000001800144d0 f i RTreeCooking.obj
 0001:00013500       ??$median3@I$$CBU?$Less@I@shdfnd@physx@@@internal@shdfnd@physx@@YAXPEAIHHAEBU?$Less@I@12@@Z 0000000180014500 f i RTreeCooking.obj
 0001:00013670       ??$median3@I$$CBUSortBoundsPredicate@physx@@@internal@shdfnd@physx@@YAXPEAIHHAEBUSortBoundsPredicate@2@@Z 0000000180014670 f i RTreeCooking.obj
 0001:000137e0       ??$partition@I$$CBU?$Less@I@shdfnd@physx@@@internal@shdfnd@physx@@YAHPEAIHHAEBU?$Less@I@12@@Z 00000001800147e0 f i RTreeCooking.obj
 0001:000139d0       ??$partition@I$$CBUSortBoundsPredicate@physx@@@internal@shdfnd@physx@@YAHPEAIHHAEBUSortBoundsPredicate@2@@Z 00000001800149d0 f i RTreeCooking.obj
 0001:00013bc0       ??$partition@UBoundsLTE@physx@@@quickSelect@physx@@YAIPEIAIIIIAEBUBoundsLTE@1@@Z 0000000180014bc0 f i RTreeCooking.obj
 0001:00013f10       ??$quickSelectFirstK@UBoundsLTE@physx@@@quickSelect@physx@@YAXPEIAIIIIAEBUBoundsLTE@1@@Z 0000000180014f10 f i RTreeCooking.obj
 0001:00014070       ??$smallSort@I$$CBU?$Less@I@shdfnd@physx@@@internal@shdfnd@physx@@YAXPEAIHHAEBU?$Less@I@12@@Z 0000000180015070 f i RTreeCooking.obj
 0001:00014150       ??$smallSort@I$$CBUSortBoundsPredicate@physx@@@internal@shdfnd@physx@@YAXPEAIHHAEBUSortBoundsPredicate@2@@Z 0000000180015150 f i RTreeCooking.obj
 0001:00014230       ??$sort@I@shdfnd@physx@@YAXPEAII@Z 0000000180015230 f i RTreeCooking.obj
 0001:00014280       ??$sort@IU?$Less@I@shdfnd@physx@@VNamedAllocator@23@@shdfnd@physx@@YAXPEAIIAEBU?$Less@I@01@AEBVNamedAllocator@01@I@Z 0000000180015280 f i RTreeCooking.obj
 0001:00014570       ??$sort@IUSortBoundsPredicate@physx@@@shdfnd@physx@@YAXPEAIIAEBUSortBoundsPredicate@1@@Z 0000000180015570 f i RTreeCooking.obj
 0001:000145c0       ??$sort@IUSortBoundsPredicate@physx@@VNamedAllocator@shdfnd@2@@shdfnd@physx@@YAXPEAIIAEBUSortBoundsPredicate@1@AEBVNamedAllocator@01@I@Z 00000001800155c0 f i RTreeCooking.obj
 0001:000148b0       ??0?$AlignedAllocator@$0IA@VNonTrackingAllocator@shdfnd@physx@@@shdfnd@physx@@QEAA@AEBVNonTrackingAllocator@12@@Z 00000001800158b0 f i RTreeCooking.obj
 0001:000148c0       ??0?$Array@IVNamedAllocator@shdfnd@physx@@@shdfnd@physx@@QEAA@IAEBIAEBVNamedAllocator@12@@Z 00000001800158c0 f i RTreeCooking.obj
 0001:00014930       ??0?$Array@UInterval@physx@@V?$InlineAllocator@$0CAAA@VNamedAllocator@shdfnd@physx@@@shdfnd@2@@shdfnd@physx@@QEAA@AEBV?$InlineAllocator@$0CAAA@VNamedAllocator@shdfnd@physx@@@12@@Z 0000000180015930 f i RTreeCooking.obj
 0001:00014990       ??0?$Array@UPxBounds3V@physx@@VNamedAllocator@shdfnd@2@@shdfnd@physx@@QEAA@AEBVNamedAllocator@12@@Z 0000000180015990 f i RTreeCooking.obj
 0001:000149e0       ??0?$Array@URTreeNodeNQ@physx@@VNamedAllocator@shdfnd@2@@shdfnd@physx@@QEAA@AEBVNamedAllocator@12@@Z 00000001800159e0 f i RTreeCooking.obj
 0001:00014a30       ??0?$Array@URTreeNodeQ@Gu@physx@@VNamedAllocator@shdfnd@3@@shdfnd@physx@@QEAA@AEBVNamedAllocator@12@@Z 0000000180015a30 f i RTreeCooking.obj
 0001:00014a80       ??0?$InlineAllocator@$0CAAA@VNamedAllocator@shdfnd@physx@@@shdfnd@physx@@QEAA@AEBV012@@Z 0000000180015a80 f i RTreeCooking.obj
 0001:00014ac0       ??0?$InlineAllocator@$0CAAA@VNamedAllocator@shdfnd@physx@@@shdfnd@physx@@QEAA@AEBVNamedAllocator@12@@Z 0000000180015ac0 f i RTreeCooking.obj
 0001:00014b00       ??0?$InlineArray@UInterval@physx@@$0EAA@VNamedAllocator@shdfnd@2@@shdfnd@physx@@QEAA@AEBVNamedAllocator@12@@Z 0000000180015b00 f i RTreeCooking.obj
 0001:00014b90       ??0?$ScopedPointer@HVTempAllocator@shdfnd@physx@@@shdfnd@physx@@QEAA@XZ 0000000180015b90 f i RTreeCooking.obj
 0001:00014bb0       ??0?$Stack@VNamedAllocator@shdfnd@physx@@@internal@shdfnd@physx@@QEAA@PEAHIAEBVNamedAllocator@23@@Z 0000000180015bb0 f i RTreeCooking.obj
 0001:00014c20       ??0BoundsLTE@physx@@QEAA@IPEBVPxVec3@1@@Z 0000000180015c20 f i RTreeCooking.obj
 0001:00014c50       ??0Interval@physx@@QEAA@II@Z 0000000180015c50 f i RTreeCooking.obj
 0001:00014c80       ??0PxBounds3@physx@@QEAA@AEBVPxVec3@1@0@Z 0000000180015c80 f i RTreeCooking.obj
 0001:00014cd0       ??0PxBounds3V@physx@@QEAA@AEAT__m128@@0@Z 0000000180015cd0 f i RTreeCooking.obj
 0001:00014d10       ??0PxBounds3V@physx@@QEAA@UU@01@@Z 0000000180015d10 f i RTreeCooking.obj
 0001:00014d20       ??0PxVec4@physx@@QEAA@AEBVPxVec3@1@M@Z 0000000180015d20 f i RTreeCooking.obj
 0001:00014d80       ??0PxVec4@physx@@QEAA@M@Z  0000000180015d80 f i RTreeCooking.obj
 0001:00014dd0       ??0RTreeNodeNQ@physx@@QEAA@AEBU01@@Z 0000000180015dd0 f i RTreeCooking.obj
 0001:00014e20       ??0RTreeNodeNQ@physx@@QEAA@XZ 0000000180015e20 f i RTreeCooking.obj
 0001:00014e60       ??0SortBoundsPredicate@physx@@QEAA@IPEBUPxBounds3V@1@@Z 0000000180015e60 f i RTreeCooking.obj
 0001:00014e90       ??0SubSortQuick@physx@@QEAA@PEAIPEBUPxBounds3V@1@IM@Z 0000000180015e90 f i RTreeCooking.obj
 0001:00015000       ??0SubSortSAH@physx@@QEAA@PEAIPEBUPxBounds3V@1@IPEBI22222M@Z 0000000180016000 f i RTreeCooking.obj
 0001:00015230       ??0TempAllocator@shdfnd@physx@@QEAA@PEBD@Z 0000000180016230 f i RTreeCooking.obj
 0001:00015240       ??1?$Array@IVNamedAllocator@shdfnd@physx@@@shdfnd@physx@@QEAA@XZ 0000000180016240 f i RTreeCooking.obj
 0001:000152b0       ??1?$Array@UInterval@physx@@V?$InlineAllocator@$0CAAA@VNamedAllocator@shdfnd@physx@@@shdfnd@2@@shdfnd@physx@@QEAA@XZ 00000001800162b0 f i RTreeCooking.obj
 0001:00015330       ??1?$Array@UPxBounds3V@physx@@VNamedAllocator@shdfnd@2@@shdfnd@physx@@QEAA@XZ 0000000180016330 f i RTreeCooking.obj
 0001:000153a0       ??1?$Array@URTreeNodeNQ@physx@@VNamedAllocator@shdfnd@2@@shdfnd@physx@@QEAA@XZ 00000001800163a0 f i RTreeCooking.obj
 0001:00015410       ??1?$Array@URTreeNodeQ@Gu@physx@@VNamedAllocator@shdfnd@3@@shdfnd@physx@@QEAA@XZ 0000000180016410 f i RTreeCooking.obj
 0001:00015480       ??1?$InlineAllocator@$0CAAA@VNamedAllocator@shdfnd@physx@@@shdfnd@physx@@QEAA@XZ 0000000180016480 f i RTreeCooking.obj
 0001:000154a0       ??1?$InlineArray@UInterval@physx@@$0EAA@VNamedAllocator@shdfnd@2@@shdfnd@physx@@QEAA@XZ 00000001800164a0 f i RTreeCooking.obj
 0001:000154c0       ??1?$ScopedPointer@HVTempAllocator@shdfnd@physx@@@shdfnd@physx@@QEAA@XZ 00000001800164c0 f i RTreeCooking.obj
 0001:000154f0       ??1?$Stack@VNamedAllocator@shdfnd@physx@@@internal@shdfnd@physx@@QEAA@XZ 00000001800164f0 f i RTreeCooking.obj
 0001:00015530       ??1SubSortQuick@physx@@QEAA@XZ 0000000180016530 f i RTreeCooking.obj
 0001:00015550       ??1SubSortSAH@physx@@QEAA@XZ 0000000180016550 f i RTreeCooking.obj
 0001:00015610       ??4PxVec4@physx@@QEAAAEAV01@AEBV01@@Z 0000000180016610 f i RTreeCooking.obj
 0001:00015670       ??A?$Array@IVNamedAllocator@shdfnd@physx@@@shdfnd@physx@@QEAAAEAII@Z 0000000180016670 f i RTreeCooking.obj
 0001:000156f0       ??A?$Array@UInterval@physx@@V?$InlineAllocator@$0CAAA@VNamedAllocator@shdfnd@physx@@@shdfnd@2@@shdfnd@physx@@QEAAAEAUInterval@2@I@Z 00000001800166f0 f i RTreeCooking.obj
 0001:00015770       ??A?$Array@URTreeNodeNQ@physx@@VNamedAllocator@shdfnd@2@@shdfnd@physx@@QEAAAEAURTreeNodeNQ@2@I@Z 0000000180016770 f i RTreeCooking.obj
 0001:000157f0       ??A?$Array@URTreeNodeQ@Gu@physx@@VNamedAllocator@shdfnd@3@@shdfnd@physx@@QEAAAEAURTreeNodeQ@Gu@2@I@Z 00000001800167f0 f i RTreeCooking.obj
 0001:00015870       ??B?$ScopedPointer@HVTempAllocator@shdfnd@physx@@@shdfnd@physx@@QEBAPEAHXZ 0000000180016870 f i RTreeCooking.obj
 0001:00015880       ??GPxVec4@physx@@QEBA?AV01@AEBV01@@Z 0000000180016880 f i RTreeCooking.obj
 0001:00015910       ??KPxVec4@physx@@QEBA?AV01@M@Z 0000000180016910 f i RTreeCooking.obj
 0001:000159b0       ??R?$Less@I@shdfnd@physx@@QEBA_NAEBI0@Z 00000001800169b0 f i RTreeCooking.obj
 0001:000159f0       ??RBoundsLTE@physx@@QEBA_NAEBI0@Z 00000001800169f0 f i RTreeCooking.obj
 0001:00015a90       ??RSortBoundsPredicate@physx@@QEBA_NAEBI0@Z 0000000180016a90 f i RTreeCooking.obj
 0001:00015bc0       ?FMax@aos@shdfnd@physx@@YA?AT__m128@@XZ 0000000180016bc0 f i RTreeCooking.obj
 0001:00015be0       ?FNegMax@aos@shdfnd@physx@@YA?AT__m128@@XZ 0000000180016be0 f i RTreeCooking.obj
 0001:00015c00       ?FStore@aos@shdfnd@physx@@YAXT__m128@@PEIAM@Z 0000000180016c00 f i RTreeCooking.obj
 0001:00015c90       ?PxAbs@physx@@YAHH@Z       0000000180016c90 f i RTreeCooking.obj
 0001:00015cb0       ?V3Add@aos@shdfnd@physx@@YA?AT__m128@@T4@0@Z 0000000180016cb0 f i RTreeCooking.obj
 0001:00015dc0       ?V3Dot@aos@shdfnd@physx@@YA?AT__m128@@T4@0@Z 0000000180016dc0 f i RTreeCooking.obj
 0001:00015f60       ?V3LoadU@aos@shdfnd@physx@@YA?AT__m128@@AEBVPxVec3@3@@Z 0000000180016f60 f i RTreeCooking.obj
 0001:00015fb0       ?V3Max@aos@shdfnd@physx@@YA?AT__m128@@T4@0@Z 0000000180016fb0 f i RTreeCooking.obj
 0001:000160c0       ?V3Min@aos@shdfnd@physx@@YA?AT__m128@@T4@0@Z 00000001800170c0 f i RTreeCooking.obj
 0001:000161d0       ?V3PermZXY@aos@shdfnd@physx@@YA?AT__m128@@T4@@Z 00000001800171d0 f i RTreeCooking.obj
 0001:00016260       ?V3ReadXYZ@aos@shdfnd@physx@@YAAEBVPxVec3@3@AEBT__m128@@@Z 0000000180017260 f i RTreeCooking.obj
 0001:00016270       ?V3Splat@aos@shdfnd@physx@@YA?AT__m128@@T4@@Z 0000000180017270 f i RTreeCooking.obj
 0001:00016350       ?V3StoreA@aos@shdfnd@physx@@YAXT__m128@@AEAVPxVec3@3@@Z 0000000180017350 f i RTreeCooking.obj
 0001:00016410       ?V3StoreU@aos@shdfnd@physx@@YAXT__m128@@AEAVPxVec3@3@@Z 0000000180017410 f i RTreeCooking.obj
 0001:00016480       ?V3Sub@aos@shdfnd@physx@@YA?AT__m128@@T4@0@Z 0000000180017480 f i RTreeCooking.obj
 0001:00016590       ?V3Zero@aos@shdfnd@physx@@YA?AT__m128@@XZ 0000000180017590 f i RTreeCooking.obj
 0001:000165b0       ?V4ClearW@aos@shdfnd@physx@@YA?AT__m128@@T4@@Z 00000001800175b0 f i RTreeCooking.obj
 0001:000165e0       ?V4ReadW@aos@shdfnd@physx@@YAMAEBT__m128@@@Z 00000001800175e0 f i RTreeCooking.obj
 0001:000165f0       ?V4ReadX@aos@shdfnd@physx@@YAMAEBT__m128@@@Z 00000001800175f0 f i RTreeCooking.obj
 0001:00016600       ?V4ReadY@aos@shdfnd@physx@@YAMAEBT__m128@@@Z 0000000180017600 f i RTreeCooking.obj
 0001:00016610       ?V4ReadZ@aos@shdfnd@physx@@YAMAEBT__m128@@@Z 0000000180017610 f i RTreeCooking.obj
 0001:00016620       ?Vec3V_From_FloatV@aos@shdfnd@physx@@YA?AT__m128@@T4@@Z 0000000180017620 f i RTreeCooking.obj
 0001:00016670       ?Vec3V_From_Vec4V@aos@shdfnd@physx@@YA?AT__m128@@T4@@Z 0000000180017670 f i RTreeCooking.obj
 0001:000166a0       ?Vec4V_From_FloatV@aos@shdfnd@physx@@YA?AT__m128@@T4@@Z 00000001800176a0 f i RTreeCooking.obj
 0001:000166b0       ?allocate@?$AlignedAllocator@$0IA@VNonTrackingAllocator@shdfnd@physx@@@shdfnd@physx@@QEAAPEAX_KPEBDH@Z 00000001800176b0 f i RTreeCooking.obj
 0001:00016750       ?allocate@?$Array@IVNamedAllocator@shdfnd@physx@@@shdfnd@physx@@IEAAPEAII@Z 0000000180017750 f i RTreeCooking.obj
 0001:000167e0       ?allocate@?$Array@UInterval@physx@@V?$InlineAllocator@$0CAAA@VNamedAllocator@shdfnd@physx@@@shdfnd@2@@shdfnd@physx@@IEAAPEAUInterval@3@I@Z 00000001800177e0 f i RTreeCooking.obj
 0001:00016870       ?allocate@?$Array@UPxBounds3V@physx@@VNamedAllocator@shdfnd@2@@shdfnd@physx@@IEAAPEAUPxBounds3V@3@I@Z 0000000180017870 f i RTreeCooking.obj
 0001:00016900       ?allocate@?$Array@URTreeNodeNQ@physx@@VNamedAllocator@shdfnd@2@@shdfnd@physx@@IEAAPEAURTreeNodeNQ@3@I@Z 0000000180017900 f i RTreeCooking.obj
 0001:00016990       ?allocate@?$Array@URTreeNodeQ@Gu@physx@@VNamedAllocator@shdfnd@3@@shdfnd@physx@@IEAAPEAURTreeNodeQ@Gu@3@I@Z 0000000180017990 f i RTreeCooking.obj
 0001:00016a20       ?allocate@?$InlineAllocator@$0CAAA@VNamedAllocator@shdfnd@physx@@@shdfnd@physx@@QEAAPEAXIPEBDH@Z 0000000180017a20 f i RTreeCooking.obj
 0001:00016a90       ?allocate@NonTrackingAllocator@shdfnd@physx@@QEAAPEAX_KPEBDH@Z 0000000180017a90 f i RTreeCooking.obj
 0001:00016b00       ?begin@?$Array@IVNamedAllocator@shdfnd@physx@@@shdfnd@physx@@QEAAPEAIXZ 0000000180017b00 f i RTreeCooking.obj
 0001:00016b10       ?begin@?$Array@UPxBounds3V@physx@@VNamedAllocator@shdfnd@2@@shdfnd@physx@@QEAAPEAUPxBounds3V@3@XZ 0000000180017b10 f i RTreeCooking.obj
 0001:00016b20       ?begin@?$Array@VPxVec3@physx@@VNamedAllocator@shdfnd@2@@shdfnd@physx@@QEAAPEAVPxVec3@3@XZ 0000000180017b20 f i RTreeCooking.obj
 0001:00016b30       ?capacity@?$Array@IVNamedAllocator@shdfnd@physx@@@shdfnd@physx@@QEBAIXZ 0000000180017b30 f i RTreeCooking.obj
 0001:00016b50       ?capacity@?$Array@UInterval@physx@@V?$InlineAllocator@$0CAAA@VNamedAllocator@shdfnd@physx@@@shdfnd@2@@shdfnd@physx@@QEBAIXZ 0000000180017b50 f i RTreeCooking.obj
 0001:00016b70       ?capacity@?$Array@UPxBounds3V@physx@@VNamedAllocator@shdfnd@2@@shdfnd@physx@@QEBAIXZ 0000000180017b70 f i RTreeCooking.obj
 0001:00016b90       ?capacity@?$Array@URTreeNodeNQ@physx@@VNamedAllocator@shdfnd@2@@shdfnd@physx@@QEBAIXZ 0000000180017b90 f i RTreeCooking.obj
 0001:00016bb0       ?capacity@?$Array@URTreeNodeQ@Gu@physx@@VNamedAllocator@shdfnd@3@@shdfnd@physx@@QEBAIXZ 0000000180017bb0 f i RTreeCooking.obj
 0001:00016bd0       ?capacityIncrement@?$Array@IVNamedAllocator@shdfnd@physx@@@shdfnd@physx@@IEBAIXZ 0000000180017bd0 f i RTreeCooking.obj
 0001:00016c10       ?capacityIncrement@?$Array@UInterval@physx@@V?$InlineAllocator@$0CAAA@VNamedAllocator@shdfnd@physx@@@shdfnd@2@@shdfnd@physx@@IEBAIXZ 0000000180017c10 f i RTreeCooking.obj
 0001:00016c50       ?capacityIncrement@?$Array@UPxBounds3V@physx@@VNamedAllocator@shdfnd@2@@shdfnd@physx@@IEBAIXZ 0000000180017c50 f i RTreeCooking.obj
 0001:00016c90       ?capacityIncrement@?$Array@URTreeNodeNQ@physx@@VNamedAllocator@shdfnd@2@@shdfnd@physx@@IEBAIXZ 0000000180017c90 f i RTreeCooking.obj
 0001:00016cd0       ?capacityIncrement@?$Array@URTreeNodeQ@Gu@physx@@VNamedAllocator@shdfnd@3@@shdfnd@physx@@IEBAIXZ 0000000180017cd0 f i RTreeCooking.obj
 0001:00016d10       ?computeSA@SubSortSAH@physx@@QEAAMPEBIAEBUInterval@2@@Z 0000000180017d10 f i RTreeCooking.obj
 0001:00016f20       ?copy@?$Array@IVNamedAllocator@shdfnd@physx@@@shdfnd@physx@@KAXPEAI0PEBI@Z 0000000180017f20 f i RTreeCooking.obj
 0001:00016fa0       ?copy@?$Array@UInterval@physx@@V?$InlineAllocator@$0CAAA@VNamedAllocator@shdfnd@physx@@@shdfnd@2@@shdfnd@physx@@KAXPEAUInterval@3@0PEBU43@@Z 0000000180017fa0 f i RTreeCooking.obj
 0001:00017020       ?copy@?$Array@UPxBounds3V@physx@@VNamedAllocator@shdfnd@2@@shdfnd@physx@@KAXPEAUPxBounds3V@3@0PEBU43@@Z 0000000180018020 f i RTreeCooking.obj
 0001:000170a0       ?copy@?$Array@URTreeNodeNQ@physx@@VNamedAllocator@shdfnd@2@@shdfnd@physx@@KAXPEAURTreeNodeNQ@3@0PEBU43@@Z 00000001800180a0 f i RTreeCooking.obj
 0001:00017120       ?copy@?$Array@URTreeNodeQ@Gu@physx@@VNamedAllocator@shdfnd@3@@shdfnd@physx@@KAXPEAURTreeNodeQ@Gu@3@0PEBU453@@Z 0000000180018120 f i RTreeCooking.obj
 0001:000171a0       ?create@?$Array@IVNamedAllocator@shdfnd@physx@@@shdfnd@physx@@KAXPEAI0AEBI@Z 00000001800181a0 f i RTreeCooking.obj
 0001:00017200       ?deallocate@?$Array@IVNamedAllocator@shdfnd@physx@@@shdfnd@physx@@IEAAXPEAX@Z 0000000180018200 f i RTreeCooking.obj
 0001:00017230       ?deallocate@?$Array@UInterval@physx@@V?$InlineAllocator@$0CAAA@VNamedAllocator@shdfnd@physx@@@shdfnd@2@@shdfnd@physx@@IEAAXPEAX@Z 0000000180018230 f i RTreeCooking.obj
 0001:00017260       ?deallocate@?$Array@UPxBounds3V@physx@@VNamedAllocator@shdfnd@2@@shdfnd@physx@@IEAAXPEAX@Z 0000000180018260 f i RTreeCooking.obj
 0001:00017290       ?deallocate@?$Array@URTreeNodeNQ@physx@@VNamedAllocator@shdfnd@2@@shdfnd@physx@@IEAAXPEAX@Z 0000000180018290 f i RTreeCooking.obj
 0001:000172c0       ?deallocate@?$Array@URTreeNodeQ@Gu@physx@@VNamedAllocator@shdfnd@3@@shdfnd@physx@@IEAAXPEAX@Z 00000001800182c0 f i RTreeCooking.obj
 0001:000172f0       ?deallocate@?$InlineAllocator@$0CAAA@VNamedAllocator@shdfnd@physx@@@shdfnd@physx@@QEAAXPEAX@Z 00000001800182f0 f i RTreeCooking.obj
 0001:00017330       ?destroy@?$Array@IVNamedAllocator@shdfnd@physx@@@shdfnd@physx@@KAXPEAI0@Z 0000000180018330 f i RTreeCooking.obj
 0001:00017360       ?destroy@?$Array@UInterval@physx@@V?$InlineAllocator@$0CAAA@VNamedAllocator@shdfnd@physx@@@shdfnd@2@@shdfnd@physx@@KAXPEAUInterval@3@0@Z 0000000180018360 f i RTreeCooking.obj
 0001:00017390       ?destroy@?$Array@UPxBounds3V@physx@@VNamedAllocator@shdfnd@2@@shdfnd@physx@@KAXPEAUPxBounds3V@3@0@Z 0000000180018390 f i RTreeCooking.obj
 0001:000173c0       ?destroy@?$Array@URTreeNodeNQ@physx@@VNamedAllocator@shdfnd@2@@shdfnd@physx@@KAXPEAURTreeNodeNQ@3@0@Z 00000001800183c0 f i RTreeCooking.obj
 0001:000173f0       ?destroy@?$Array@URTreeNodeQ@Gu@physx@@VNamedAllocator@shdfnd@3@@shdfnd@physx@@KAXPEAURTreeNodeQ@Gu@3@0@Z 00000001800183f0 f i RTreeCooking.obj
 0001:00017420       ?empty@?$Stack@VNamedAllocator@shdfnd@physx@@@internal@shdfnd@physx@@QEAA_NXZ 0000000180018420 f i RTreeCooking.obj
 0001:00017450       ?empty@PxBounds3@physx@@SA?AV12@XZ 0000000180018450 f i RTreeCooking.obj
 0001:000174b0       ?getExtents@PxBounds3V@physx@@QEBA?AT__m128@@XZ 00000001800184b0 f i RTreeCooking.obj
 0001:00017510       ?getMaxVec3@PxBounds3V@physx@@QEBA?BVPxVec3@2@XZ 0000000180018510 f i RTreeCooking.obj
 0001:00017560       ?getMinVec3@PxBounds3V@physx@@QEBA?BVPxVec3@2@XZ 0000000180018560 f i RTreeCooking.obj
 0001:000175b0       ?grow@?$Array@IVNamedAllocator@shdfnd@physx@@@shdfnd@physx@@IEAAXI@Z 00000001800185b0 f i RTreeCooking.obj
 0001:00017630       ?grow@?$Array@UPxBounds3V@physx@@VNamedAllocator@shdfnd@2@@shdfnd@physx@@IEAAXI@Z 0000000180018630 f i RTreeCooking.obj
 0001:000176b0       ?grow@?$Array@URTreeNodeNQ@physx@@VNamedAllocator@shdfnd@2@@shdfnd@physx@@IEAAXI@Z 00000001800186b0 f i RTreeCooking.obj
 0001:00017730       ?grow@?$Array@URTreeNodeQ@Gu@physx@@VNamedAllocator@shdfnd@3@@shdfnd@physx@@IEAAXI@Z 0000000180018730 f i RTreeCooking.obj
 0001:000177b0       ?grow@?$Array@VPxVec3@physx@@VNamedAllocator@shdfnd@2@@shdfnd@physx@@IEAAXI@Z 00000001800187b0 f i RTreeCooking.obj
 0001:00017830       ?grow@?$Stack@VNamedAllocator@shdfnd@physx@@@internal@shdfnd@physx@@QEAAXXZ 0000000180018830 f i RTreeCooking.obj
 0001:000178e0       ?growAndPushBack@?$Array@IVNamedAllocator@shdfnd@physx@@@shdfnd@physx@@IEAAAEAIAEBI@Z 00000001800188e0 f i RTreeCooking.obj
 0001:00017a60       ?growAndPushBack@?$Array@UInterval@physx@@V?$InlineAllocator@$0CAAA@VNamedAllocator@shdfnd@physx@@@shdfnd@2@@shdfnd@physx@@IEAAAEAUInterval@3@AEBU43@@Z 0000000180018a60 f i RTreeCooking.obj
 0001:00017c20       ?growAndPushBack@?$Array@UPxBounds3V@physx@@VNamedAllocator@shdfnd@2@@shdfnd@physx@@IEAAAEAUPxBounds3V@3@AEBU43@@Z 0000000180018c20 f i RTreeCooking.obj
 0001:00017df0       ?growAndPushBack@?$Array@URTreeNodeNQ@physx@@VNamedAllocator@shdfnd@2@@shdfnd@physx@@IEAAAEAURTreeNodeNQ@3@AEBU43@@Z 0000000180018df0 f i RTreeCooking.obj
 0001:00017f80       ?growAndPushBack@?$Array@URTreeNodeQ@Gu@physx@@VNamedAllocator@shdfnd@3@@shdfnd@physx@@IEAAAEAURTreeNodeQ@Gu@3@AEBU453@@Z 0000000180018f80 f i RTreeCooking.obj
 0001:00018150       ?include@PxBounds3V@physx@@QEAAXAEBU12@@Z 0000000180019150 f i RTreeCooking.obj
 0001:00018200       ?isInUserMemory@?$Array@IVNamedAllocator@shdfnd@physx@@@shdfnd@physx@@QEBAIXZ 0000000180019200 f i RTreeCooking.obj
 0001:00018220       ?isInUserMemory@?$Array@UInterval@physx@@V?$InlineAllocator@$0CAAA@VNamedAllocator@shdfnd@physx@@@shdfnd@2@@shdfnd@physx@@QEBAIXZ 0000000180019220 f i RTreeCooking.obj
 0001:00018240       ?isInUserMemory@?$Array@UPxBounds3V@physx@@VNamedAllocator@shdfnd@2@@shdfnd@physx@@QEBAIXZ 0000000180019240 f i RTreeCooking.obj
 0001:00018260       ?isInUserMemory@?$Array@URTreeNodeNQ@physx@@VNamedAllocator@shdfnd@2@@shdfnd@physx@@QEBAIXZ 0000000180019260 f i RTreeCooking.obj
 0001:00018280       ?isInUserMemory@?$Array@URTreeNodeQ@Gu@physx@@VNamedAllocator@shdfnd@3@@shdfnd@physx@@QEBAIXZ 0000000180019280 f i RTreeCooking.obj
 0001:000182a0       ?isInside@PxBounds3@physx@@QEBA_NAEBV12@@Z 00000001800192a0 f i RTreeCooking.obj
 0001:00018390       ?isLeaf@RTreeNodeQ@Gu@physx@@QEBAIXZ 0000000180019390 f i RTreeCooking.obj
 0001:000183b0       ?isValidFloatV@aos@shdfnd@physx@@YA_NT__m128@@@Z 00000001800193b0 f i RTreeCooking.obj
 0001:000184c0       ?isValidVec3V@aos@shdfnd@physx@@YA_NT__m128@@@Z 00000001800194c0 f i RTreeCooking.obj
 0001:00018520       ?pop@?$Stack@VNamedAllocator@shdfnd@physx@@@internal@shdfnd@physx@@QEAAXAEAH0@Z 0000000180019520 f i RTreeCooking.obj
 0001:00018600       ?popBack@?$Array@IVNamedAllocator@shdfnd@physx@@@shdfnd@physx@@QEAAIXZ 0000000180019600 f i RTreeCooking.obj
 0001:000186a0       ?push@?$Stack@VNamedAllocator@shdfnd@physx@@@internal@shdfnd@physx@@QEAAXHH@Z 00000001800196a0 f i RTreeCooking.obj
 0001:00018730       ?pushBack@?$Array@IVNamedAllocator@shdfnd@physx@@@shdfnd@physx@@QEAAAEAIAEBI@Z 0000000180019730 f i RTreeCooking.obj
 0001:000187d0       ?pushBack@?$Array@UInterval@physx@@V?$InlineAllocator@$0CAAA@VNamedAllocator@shdfnd@physx@@@shdfnd@2@@shdfnd@physx@@QEAAAEAUInterval@3@AEBU43@@Z 00000001800197d0 f i RTreeCooking.obj
 0001:00018890       ?pushBack@?$Array@UPxBounds3V@physx@@VNamedAllocator@shdfnd@2@@shdfnd@physx@@QEAAAEAUPxBounds3V@3@AEBU43@@Z 0000000180019890 f i RTreeCooking.obj
 0001:00018940       ?pushBack@?$Array@URTreeNodeNQ@physx@@VNamedAllocator@shdfnd@2@@shdfnd@physx@@QEAAAEAURTreeNodeNQ@3@AEBU43@@Z 0000000180019940 f i RTreeCooking.obj
 0001:000189e0       ?pushBack@?$Array@URTreeNodeQ@Gu@physx@@VNamedAllocator@shdfnd@3@@shdfnd@physx@@QEAAAEAURTreeNodeQ@Gu@3@AEBU453@@Z 00000001800199e0 f i RTreeCooking.obj
 0001:00018a90       ?recreate@?$Array@IVNamedAllocator@shdfnd@physx@@@shdfnd@physx@@IEAAXI@Z 0000000180019a90 f i RTreeCooking.obj
 0001:00018ba0       ?recreate@?$Array@UPxBounds3V@physx@@VNamedAllocator@shdfnd@2@@shdfnd@physx@@IEAAXI@Z 0000000180019ba0 f i RTreeCooking.obj
 0001:00018cc0       ?recreate@?$Array@URTreeNodeNQ@physx@@VNamedAllocator@shdfnd@2@@shdfnd@physx@@IEAAXI@Z 0000000180019cc0 f i RTreeCooking.obj
 0001:00018de0       ?recreate@?$Array@URTreeNodeQ@Gu@physx@@VNamedAllocator@shdfnd@3@@shdfnd@physx@@IEAAXI@Z 0000000180019de0 f i RTreeCooking.obj
 0001:00018f00       ?recreate@?$Array@VPxVec3@physx@@VNamedAllocator@shdfnd@2@@shdfnd@physx@@IEAAXI@Z 0000000180019f00 f i RTreeCooking.obj
 0001:00019020       ?replaceWithLast@?$Array@UInterval@physx@@V?$InlineAllocator@$0CAAA@VNamedAllocator@shdfnd@physx@@@shdfnd@2@@shdfnd@physx@@QEAAXI@Z 000000018001a020 f i RTreeCooking.obj
 0001:000190e0       ?reserve@?$Array@IVNamedAllocator@shdfnd@physx@@@shdfnd@physx@@QEAAXI@Z 000000018001a0e0 f i RTreeCooking.obj
 0001:00019120       ?reserve@?$Array@UPxBounds3V@physx@@VNamedAllocator@shdfnd@2@@shdfnd@physx@@QEAAXI@Z 000000018001a120 f i RTreeCooking.obj
 0001:00019160       ?reserve@?$Array@URTreeNodeNQ@physx@@VNamedAllocator@shdfnd@2@@shdfnd@physx@@QEAAXI@Z 000000018001a160 f i RTreeCooking.obj
 0001:000191a0       ?reserve@?$Array@URTreeNodeQ@Gu@physx@@VNamedAllocator@shdfnd@3@@shdfnd@physx@@QEAAXI@Z 000000018001a1a0 f i RTreeCooking.obj
 0001:000191e0       ?reserve@?$Array@VPxVec3@physx@@VNamedAllocator@shdfnd@2@@shdfnd@physx@@QEAAXI@Z 000000018001a1e0 f i RTreeCooking.obj
 0001:00019220       ?resize@?$Array@IVNamedAllocator@shdfnd@physx@@@shdfnd@physx@@QEAAXIAEBI@Z 000000018001a220 f i RTreeCooking.obj
 0001:000192b0       ?resizeUninitialized@?$Array@URTreeNodeNQ@physx@@VNamedAllocator@shdfnd@2@@shdfnd@physx@@QEAAXI@Z 000000018001a2b0 f i RTreeCooking.obj
 0001:000192e0       ?setLeaf@RTreeNodeQ@Gu@physx@@QEAAX_N@Z 000000018001a2e0 f i RTreeCooking.obj
 0001:00019320       ?size@?$Array@IVNamedAllocator@shdfnd@physx@@@shdfnd@physx@@QEBAIXZ 000000018001a320 f i RTreeCooking.obj
 0001:00019330       ?size@?$Array@UInterval@physx@@V?$InlineAllocator@$0CAAA@VNamedAllocator@shdfnd@physx@@@shdfnd@2@@shdfnd@physx@@QEBAIXZ 000000018001a330 f i RTreeCooking.obj
 0001:00019350       ?size@?$Array@URTreeNodeNQ@physx@@VNamedAllocator@shdfnd@2@@shdfnd@physx@@QEBAIXZ 000000018001a350 f i RTreeCooking.obj
 0001:00019360       ?size@?$Array@URTreeNodeQ@Gu@physx@@VNamedAllocator@shdfnd@3@@shdfnd@physx@@QEBAIXZ 000000018001a360 f i RTreeCooking.obj
 0001:00019370       ?size@?$Array@VPxVec3@physx@@VNamedAllocator@shdfnd@2@@shdfnd@physx@@QEBAIXZ 000000018001a370 f i RTreeCooking.obj
 0001:00019380       ?sort4@SubSortQuick@physx@@QEAAXPEIAIIAEAV?$Array@URTreeNodeNQ@physx@@VNamedAllocator@shdfnd@2@@shdfnd@2@AEAIAEAUPxBounds3V@2@I@Z 000000018001a380 f i RTreeCooking.obj
 0001:00019db0       ?sort4@SubSortSAH@physx@@QEAAXPEAIIAEAV?$Array@URTreeNodeNQ@physx@@VNamedAllocator@shdfnd@2@@shdfnd@2@AEAIIPEAURTreeNodeNQ@2@@Z 000000018001adb0 f i RTreeCooking.obj
 0001:0001abd0       ?split@SubSortSAH@physx@@QEAAIPEAII@Z 000000018001bbd0 f i RTreeCooking.obj
 0001:0001bab0       ?computeLocalBounds@MeshBulider@physx@@IEAAXAEAVMeshDataBase@Gu@2@@Z 000000018001cab0 f   MeshBuilder.obj
 0001:0001bbb0       ??0TriangleMeshBuilder@physx@@QEAA@AEAVTriangleMeshData@Gu@1@AEBUPxCookingParams@1@@Z 000000018001cbb0 f   TriangleMeshBuilder.obj
 0001:0001bc10       ??1TriangleMeshBuilder@physx@@UEAA@XZ 000000018001cc10 f   TriangleMeshBuilder.obj
 0001:0001bc40       ?cleanMesh@TriangleMeshBuilder@physx@@QEAA_N_NPEAW4Enum@PxTriangleMeshCookingResult@2@@Z 000000018001cc40 f   TriangleMeshBuilder.obj
 0001:0001c4e0       ?remapTopology@TriangleMeshBuilder@physx@@QEAAXPEBI@Z 000000018001d4e0 f   TriangleMeshBuilder.obj
 0001:0001c910       ?createSharedEdgeData@TriangleMeshBuilder@physx@@QEAAX_N0@Z 000000018001d910 f   TriangleMeshBuilder.obj
 0001:0001d1c0       ?recordTriangleIndices@TriangleMeshBuilder@physx@@QEAAXXZ 000000018001e1c0 f   TriangleMeshBuilder.obj
 0001:0001d3c0       ?createGRBMidPhaseAndData@TriangleMeshBuilder@physx@@QEAAXI@Z 000000018001e3c0 f   TriangleMeshBuilder.obj
 0001:0001d720       ?createGRBData@TriangleMeshBuilder@physx@@QEAAXXZ 000000018001e720 f   TriangleMeshBuilder.obj
 0001:0001d8c0       ?loadFromDesc@TriangleMeshBuilder@physx@@QEAA_NAEBVPxTriangleMeshDesc@2@PEAW4Enum@PxTriangleMeshCookingResult@2@_N@Z 000000018001e8c0 f   TriangleMeshBuilder.obj
 0001:0001dbc0       ?save@TriangleMeshBuilder@physx@@QEBA_NAEAVPxOutputStream@2@_NAEBUPxCookingParams@2@@Z 000000018001ebc0 f   TriangleMeshBuilder.obj
 0001:0001e4f0       ?checkMeshIndicesSize@TriangleMeshBuilder@physx@@QEAAXXZ 000000018001f4f0 f   TriangleMeshBuilder.obj
 0001:0001e6f0       ?importMesh@TriangleMeshBuilder@physx@@IEAA_NAEBVPxTriangleMeshDesc@2@AEBUPxCookingParams@2@PEAW4Enum@PxTriangleMeshCookingResult@2@_N@Z 000000018001f6f0 f   TriangleMeshBuilder.obj
 0001:0001ed80       ?releaseEdgeList@TriangleMeshBuilder@physx@@IEAAXXZ 000000018001fd80 f   TriangleMeshBuilder.obj
 0001:0001ede0       ?createEdgeList@TriangleMeshBuilder@physx@@IEAAXXZ 000000018001fde0 f   TriangleMeshBuilder.obj
 0001:0001ef60       ??0RTreeTriangleMeshBuilder@physx@@QEAA@AEBUPxCookingParams@1@@Z 000000018001ff60 f   TriangleMeshBuilder.obj
 0001:0001efc0       ??1RTreeTriangleMeshBuilder@physx@@UEAA@XZ 000000018001ffc0 f   TriangleMeshBuilder.obj
 0001:0001f000       ?createMidPhaseStructure@RTreeTriangleMeshBuilder@physx@@UEAAXXZ 0000000180020000 f   TriangleMeshBuilder.obj
 0001:0001f220       ?saveMidPhaseStructure@RTreeTriangleMeshBuilder@physx@@UEBAXAEAVPxOutputStream@2@_N@Z 0000000180020220 f   TriangleMeshBuilder.obj
 0001:0001f510       ??0BV4TriangleMeshBuilder@physx@@QEAA@AEBUPxCookingParams@1@@Z 0000000180020510 f   TriangleMeshBuilder.obj
 0001:0001f570       ??1BV4TriangleMeshBuilder@physx@@UEAA@XZ 0000000180020570 f   TriangleMeshBuilder.obj
 0001:0001f5b0       ?createMidPhaseStructure@BV4TriangleMeshBuilder@physx@@UEAAXXZ 00000001800205b0 f   TriangleMeshBuilder.obj
 0001:0001fa70       ?saveMidPhaseStructure@BV4TriangleMeshBuilder@physx@@UEBAXAEAVPxOutputStream@2@_N@Z 0000000180020a70 f   TriangleMeshBuilder.obj
 0001:0001fcc0       ?onMeshIndexFormatChange@BV4TriangleMeshBuilder@physx@@UEAAXXZ 0000000180020cc0 f   TriangleMeshBuilder.obj
 0001:0001fd50       ?createMidPhaseStructure@BV32TriangleMeshBuilder@physx@@SAXAEBUPxCookingParams@2@AEAVTriangleMeshData@Gu@2@AEAVBV32Tree@52@@Z 0000000180020d50 f   TriangleMeshBuilder.obj
 0001:00020040       ?saveMidPhaseStructure@BV32TriangleMeshBuilder@physx@@SAXPEAVBV32Tree@Gu@2@AEAVPxOutputStream@2@_N@Z 0000000180021040 f   TriangleMeshBuilder.obj
 0001:00020ad0       ?findSharpVertices@GrbTrimeshCookerHelper@physx@@YAXAEAV?$Array@USortedNeighbor@GrbTrimeshCookerHelper@physx@@VNamedAllocator@shdfnd@3@@shdfnd@2@AEAV?$Array@USharpEdgeRange@GrbTrimeshCookerHelper@physx@@VNamedAllocator@shdfnd@3@@42@PEBUuint3@2@PEBUuint4@2@II@Z 0000000180021ad0 f   TriangleMeshBuilder.obj
 0001:00020ff0       ?buildVertexConnectionNew_p1@GrbTrimeshCookerHelper@physx@@YAIAEAV?$Array@USortedNeighbor@GrbTrimeshCookerHelper@physx@@VNamedAllocator@shdfnd@3@@shdfnd@2@AEAV?$Array@USharpEdgeRange@GrbTrimeshCookerHelper@physx@@VNamedAllocator@shdfnd@3@@42@PEBUuint3@2@PEBUuint4@2@II@Z 0000000180021ff0 f   TriangleMeshBuilder.obj
 0001:00021090       ?buildVertexConnectionNew_p2@GrbTrimeshCookerHelper@physx@@YAXPEAI00AEAV?$Array@USortedNeighbor@GrbTrimeshCookerHelper@physx@@VNamedAllocator@shdfnd@3@@shdfnd@2@AEAV?$Array@USharpEdgeRange@GrbTrimeshCookerHelper@physx@@VNamedAllocator@shdfnd@3@@42@I@Z 0000000180022090 f   TriangleMeshBuilder.obj
 0001:00021170       ??$?2V?$ReflectionAllocator@VBV32Tree@Gu@physx@@@shdfnd@physx@@@UserAllocated@shdfnd@physx@@SAPEAX_KV?$ReflectionAllocator@VBV32Tree@Gu@physx@@@12@PEBDH@Z 0000000180022170 f i TriangleMeshBuilder.obj
 0001:000211b0       ??$?2V?$ReflectionAllocator@VEdgeListBuilder@Gu@physx@@@shdfnd@physx@@@UserAllocated@shdfnd@physx@@SAPEAX_KV?$ReflectionAllocator@VEdgeListBuilder@Gu@physx@@@12@PEBDH@Z 00000001800221b0 f i TriangleMeshBuilder.obj
 0001:000211f0       ??$?_UE@@YAPEAX_KV?$ReflectionAllocator@E@shdfnd@physx@@PEBDH@Z 00000001800221f0 f i TriangleMeshBuilder.obj
 0001:00021230       ??$?_UG@@YAPEAX_KV?$ReflectionAllocator@G@shdfnd@physx@@PEBDH@Z 0000000180022230 f i TriangleMeshBuilder.obj
 0001:00021270       ??$PX_UNUSED@U?$TriangleT@I@Gu@physx@@@@YAXAEBU?$TriangleT@I@Gu@physx@@@Z 0000000180022270 f i TriangleMeshBuilder.obj
 0001:00021280       ??$median3@UEdgeTriLookup@physx@@$$CBU?$Less@UEdgeTriLookup@physx@@@shdfnd@2@@internal@shdfnd@physx@@YAXPEAUEdgeTriLookup@2@HHAEBU?$Less@UEdgeTriLookup@physx@@@12@@Z 0000000180022280 f i TriangleMeshBuilder.obj
 0001:00021440       ??$median3@USortedNeighbor@GrbTrimeshCookerHelper@physx@@$$CBU?$Less@USortedNeighbor@GrbTrimeshCookerHelper@physx@@@shdfnd@3@@internal@shdfnd@physx@@YAXPEAUSortedNeighbor@GrbTrimeshCookerHelper@2@HHAEBU?$Less@USortedNeighbor@GrbTrimeshCookerHelper@physx@@@12@@Z 0000000180022440 f i TriangleMeshBuilder.obj
 0001:00021600       ??$partition@UEdgeTriLookup@physx@@$$CBU?$Less@UEdgeTriLookup@physx@@@shdfnd@2@@internal@shdfnd@physx@@YAHPEAUEdgeTriLookup@2@HHAEBU?$Less@UEdgeTriLookup@physx@@@12@@Z 0000000180022600 f i TriangleMeshBuilder.obj
 0001:00021820       ??$partition@USortedNeighbor@GrbTrimeshCookerHelper@physx@@$$CBU?$Less@USortedNeighbor@GrbTrimeshCookerHelper@physx@@@shdfnd@3@@internal@shdfnd@physx@@YAHPEAUSortedNeighbor@GrbTrimeshCookerHelper@2@HHAEBU?$Less@USortedNeighbor@GrbTrimeshCookerHelper@physx@@@12@@Z 0000000180022820 f i TriangleMeshBuilder.obj
 0001:00021a40       ??$smallSort@UEdgeTriLookup@physx@@$$CBU?$Less@UEdgeTriLookup@physx@@@shdfnd@2@@internal@shdfnd@physx@@YAXPEAUEdgeTriLookup@2@HHAEBU?$Less@UEdgeTriLookup@physx@@@12@@Z 0000000180022a40 f i TriangleMeshBuilder.obj
 0001:00021b30       ??$smallSort@USortedNeighbor@GrbTrimeshCookerHelper@physx@@$$CBU?$Less@USortedNeighbor@GrbTrimeshCookerHelper@physx@@@shdfnd@3@@internal@shdfnd@physx@@YAXPEAUSortedNeighbor@GrbTrimeshCookerHelper@2@HHAEBU?$Less@USortedNeighbor@GrbTrimeshCookerHelper@physx@@@12@@Z 0000000180022b30 f i TriangleMeshBuilder.obj
 0001:00021c20       ??$sort@UEdgeTriLookup@physx@@@shdfnd@physx@@YAXPEAUEdgeTriLookup@1@I@Z 0000000180022c20 f i TriangleMeshBuilder.obj
 0001:00021c70       ??$sort@UEdgeTriLookup@physx@@U?$Less@UEdgeTriLookup@physx@@@shdfnd@2@VNamedAllocator@42@@shdfnd@physx@@YAXPEAUEdgeTriLookup@1@IAEBU?$Less@UEdgeTriLookup@physx@@@01@AEBVNamedAllocator@01@I@Z 0000000180022c70 f i TriangleMeshBuilder.obj
 0001:00021f70       ??$sort@USortedNeighbor@GrbTrimeshCookerHelper@physx@@@shdfnd@physx@@YAXPEAUSortedNeighbor@GrbTrimeshCookerHelper@1@I@Z 0000000180022f70 f i TriangleMeshBuilder.obj
 0001:00021fc0       ??$sort@USortedNeighbor@GrbTrimeshCookerHelper@physx@@U?$Less@USortedNeighbor@GrbTrimeshCookerHelper@physx@@@shdfnd@3@VNamedAllocator@53@@shdfnd@physx@@YAXPEAUSortedNeighbor@GrbTrimeshCookerHelper@1@IAEBU?$Less@USortedNeighbor@GrbTrimeshCookerHelper@physx@@@01@AEBVNamedAllocator@01@I@Z 0000000180022fc0 f i TriangleMeshBuilder.obj
 0001:000222c0       ??$swap@UEdgeTriLookup@physx@@@shdfnd@physx@@YAXAEAUEdgeTriLookup@1@0@Z 00000001800232c0 f i TriangleMeshBuilder.obj
 0001:00022310       ??$swap@USortedNeighbor@GrbTrimeshCookerHelper@physx@@@shdfnd@physx@@YAXAEAUSortedNeighbor@GrbTrimeshCookerHelper@1@0@Z 0000000180023310 f i TriangleMeshBuilder.obj
 0001:00022360       ??0?$Array@IVNamedAllocator@shdfnd@physx@@@shdfnd@physx@@QEAA@AEBVNamedAllocator@12@@Z 0000000180023360 f i TriangleMeshBuilder.obj
 0001:000223b0       ??0?$PxFlags@W4Enum@PxMeshFlag@physx@@G@physx@@QEAA@W4Enum@PxMeshFlag@1@@Z 00000001800233b0 f i TriangleMeshBuilder.obj
 0001:000223d0       ??0?$PxFlags@W4Enum@PxMeshFlag@physx@@G@physx@@QEAA@XZ 00000001800233d0 f i TriangleMeshBuilder.obj
 0001:000223f0       ??0?$ReflectionAllocator@E@shdfnd@physx@@QEAA@PEBD@Z 00000001800233f0 f i TriangleMeshBuilder.obj
 0001:00022400       ??0?$ReflectionAllocator@G@shdfnd@physx@@QEAA@PEBD@Z 0000000180023400 f i TriangleMeshBuilder.obj
 0001:00022410       ??0?$ReflectionAllocator@VBV32Tree@Gu@physx@@@shdfnd@physx@@QEAA@PEBD@Z 0000000180023410 f i TriangleMeshBuilder.obj
 0001:00022420       ??0?$ReflectionAllocator@VEdgeListBuilder@Gu@physx@@@shdfnd@physx@@QEAA@PEBD@Z 0000000180023420 f i TriangleMeshBuilder.obj
 0001:00022430       ??0BV4TriangleData@Gu@physx@@QEAA@XZ 0000000180023430 f i TriangleMeshBuilder.obj
 0001:00022490       ??0MeshDataBase@Gu@physx@@QEAA@XZ 0000000180023490 f i TriangleMeshBuilder.obj
 0001:00022540       ??0PxPlane@physx@@QEAA@AEBVPxVec3@1@0@Z 0000000180023540 f i TriangleMeshBuilder.obj
 0001:000225a0       ??0PxSimpleTriangleMesh@physx@@QEAA@AEBV01@@Z 00000001800235a0 f i TriangleMeshBuilder.obj
 0001:00022610       ??0PxTriangleMeshDesc@physx@@QEAA@AEBV01@@Z 0000000180023610 f i TriangleMeshBuilder.obj
 0001:00022660       ??0RTree@Gu@physx@@QEAA@XZ 0000000180023660 f i TriangleMeshBuilder.obj
 0001:000226f0       ??0RTreeCookerRemap@physx@@QEAA@I@Z 00000001800236f0 f i TriangleMeshBuilder.obj
 0001:00022730       ??0RTreeTriangleData@Gu@physx@@QEAA@XZ 0000000180023730 f i TriangleMeshBuilder.obj
 0001:00022780       ??0RemapCallback@RTreeCooker@physx@@QEAA@XZ 0000000180023780 f i TriangleMeshBuilder.obj
 0001:000227a0       ??0SharpEdgeRange@GrbTrimeshCookerHelper@physx@@QEAA@II@Z 00000001800237a0 f i TriangleMeshBuilder.obj
 0001:000227d0       ??0SharpEdgeRange@GrbTrimeshCookerHelper@physx@@QEAA@XZ 00000001800237d0 f i TriangleMeshBuilder.obj
 0001:00022800       ??0SortedNeighbor@GrbTrimeshCookerHelper@physx@@QEAA@II_N@Z 0000000180023800 f i TriangleMeshBuilder.obj
 0001:00022840       ??0TriangleMeshData@Gu@physx@@QEAA@XZ 0000000180023840 f i TriangleMeshBuilder.obj
 0001:000228c0       ??1BV4TriangleData@Gu@physx@@UEAA@XZ 00000001800238c0 f i TriangleMeshBuilder.obj
 0001:00022910       ??1MeshDataBase@Gu@physx@@UEAA@XZ 0000000180023910 f i TriangleMeshBuilder.obj
 0001:00022a60       ??1RTree@Gu@physx@@QEAA@XZ 0000000180023a60 f i TriangleMeshBuilder.obj
 0001:00022a80       ??1RTreeCookerRemap@physx@@UEAA@XZ 0000000180023a80 f i TriangleMeshBuilder.obj
 0001:00022aa0       ??1RTreeTriangleData@Gu@physx@@UEAA@XZ 0000000180023aa0 f i TriangleMeshBuilder.obj
 0001:00022ae0       ??1RemapCallback@RTreeCooker@physx@@UEAA@XZ 0000000180023ae0 f i TriangleMeshBuilder.obj
 0001:00022b00       ??1TriangleMeshData@Gu@physx@@UEAA@XZ 0000000180023b00 f i TriangleMeshBuilder.obj
 0001:00022c30       ??A?$Array@USharpEdgeRange@GrbTrimeshCookerHelper@physx@@VNamedAllocator@shdfnd@3@@shdfnd@physx@@QEAAAEAUSharpEdgeRange@GrbTrimeshCookerHelper@2@I@Z 0000000180023c30 f i TriangleMeshBuilder.obj
 0001:00022cb0       ??A?$Array@USortedNeighbor@GrbTrimeshCookerHelper@physx@@VNamedAllocator@shdfnd@3@@shdfnd@physx@@QEAAAEAUSortedNeighbor@GrbTrimeshCookerHelper@2@I@Z 0000000180023cb0 f i TriangleMeshBuilder.obj
 0001:00022d30       ??MEdgeTriLookup@physx@@QEBA_NAEBU01@@Z 0000000180023d30 f i TriangleMeshBuilder.obj
 0001:00022d90       ??MSortedNeighbor@GrbTrimeshCookerHelper@physx@@QEBA_NAEBU012@@Z 0000000180023d90 f i TriangleMeshBuilder.obj
 0001:00022e30       ??NEdgeTriLookup@physx@@QEBA_NAEBU01@@Z 0000000180023e30 f i TriangleMeshBuilder.obj
 0001:00022e90       ??R?$Less@UEdgeTriLookup@physx@@@shdfnd@physx@@QEBA_NAEBUEdgeTriLookup@2@0@Z 0000000180023e90 f i TriangleMeshBuilder.obj
 0001:00022ec0       ??R?$Less@USortedNeighbor@GrbTrimeshCookerHelper@physx@@@shdfnd@physx@@QEBA_NAEBUSortedNeighbor@GrbTrimeshCookerHelper@2@0@Z 0000000180023ec0 f i TriangleMeshBuilder.obj
 0001:00022ef0       ??S?$PxFlags@W4Enum@PxMeshFlag@physx@@G@physx@@QEBA?AV01@XZ 0000000180023ef0 f i TriangleMeshBuilder.obj
 0001:00022f30       ??Sphysx@@YA?AV?$PxFlags@W4Enum@PxMeshFlag@physx@@G@0@W4Enum@PxMeshFlag@0@@Z 0000000180023f30 f i TriangleMeshBuilder.obj
 0001:00022f70       ??_4?$PxFlags@W4Enum@PxMeshFlag@physx@@G@physx@@QEAAAEAV01@AEBV01@@Z 0000000180023f70 f i TriangleMeshBuilder.obj
 0001:00022fa0       ??_GBV32Tree@Gu@physx@@QEAAPEAXI@Z 0000000180023fa0 f i TriangleMeshBuilder.obj
 0001:00023000       ??_EBV4TriangleData@Gu@physx@@UEAAPEAXI@Z 0000000180024000 f i TriangleMeshBuilder.obj
 0001:00023000       ??_GBV4TriangleData@Gu@physx@@UEAAPEAXI@Z 0000000180024000 f i TriangleMeshBuilder.obj
 0001:00023060       ??_EBV4TriangleMeshBuilder@physx@@UEAAPEAXI@Z 0000000180024060 f i TriangleMeshBuilder.obj
 0001:00023060       ??_GBV4TriangleMeshBuilder@physx@@UEAAPEAXI@Z 0000000180024060 f i TriangleMeshBuilder.obj
 0001:000230a0       ??_GEdgeListBuilder@Gu@physx@@QEAAPEAXI@Z 00000001800240a0 f i TriangleMeshBuilder.obj
 0001:00023100       ??_EMeshDataBase@Gu@physx@@UEAAPEAXI@Z 0000000180024100 f i TriangleMeshBuilder.obj
 0001:00023100       ??_GMeshDataBase@Gu@physx@@UEAAPEAXI@Z 0000000180024100 f i TriangleMeshBuilder.obj
 0001:00023160       ??_ERTreeCookerRemap@physx@@UEAAPEAXI@Z 0000000180024160 f i TriangleMeshBuilder.obj
 0001:00023160       ??_GRTreeCookerRemap@physx@@UEAAPEAXI@Z 0000000180024160 f i TriangleMeshBuilder.obj
 0001:000231a0       ??_ERTreeTriangleData@Gu@physx@@UEAAPEAXI@Z 00000001800241a0 f i TriangleMeshBuilder.obj
 0001:000231a0       ??_GRTreeTriangleData@Gu@physx@@UEAAPEAXI@Z 00000001800241a0 f i TriangleMeshBuilder.obj
 0001:00023200       ??_ERTreeTriangleMeshBuilder@physx@@UEAAPEAXI@Z 0000000180024200 f i TriangleMeshBuilder.obj
 0001:00023200       ??_GRTreeTriangleMeshBuilder@physx@@UEAAPEAXI@Z 0000000180024200 f i TriangleMeshBuilder.obj
 0001:00023240       ??_ERemapCallback@RTreeCooker@physx@@UEAAPEAXI@Z 0000000180024240 f i TriangleMeshBuilder.obj
 0001:00023240       ??_GRemapCallback@RTreeCooker@physx@@UEAAPEAXI@Z 0000000180024240 f i TriangleMeshBuilder.obj
 0001:00023280       ??_ETriangleMeshBuilder@physx@@UEAAPEAXI@Z 0000000180024280 f i TriangleMeshBuilder.obj
 0001:00023280       ??_GTriangleMeshBuilder@physx@@UEAAPEAXI@Z 0000000180024280 f i TriangleMeshBuilder.obj
 0001:000232c0       ??_ETriangleMeshData@Gu@physx@@UEAAPEAXI@Z 00000001800242c0 f i TriangleMeshBuilder.obj
 0001:000232c0       ??_GTriangleMeshData@Gu@physx@@UEAAPEAXI@Z 00000001800242c0 f i TriangleMeshBuilder.obj
 0001:00023320       ?LeafSetData@Gu@physx@@YAIII@Z 0000000180024320 f i TriangleMeshBuilder.obj
 0001:000233f0       ?SetData@LeafTriangles@Gu@physx@@QEAAXII@Z 00000001800243f0 f i TriangleMeshBuilder.obj
 0001:00023420       ?WriteDwordBuffer@physx@@YAXPEBII_NAEAVPxOutputStream@1@@Z 0000000180024420 f i TriangleMeshBuilder.obj
 0001:00023460       ?allocate@?$Array@USharpEdgeRange@GrbTrimeshCookerHelper@physx@@VNamedAllocator@shdfnd@3@@shdfnd@physx@@IEAAPEAUSharpEdgeRange@GrbTrimeshCookerHelper@3@I@Z 0000000180024460 f i TriangleMeshBuilder.obj
 0001:000234f0       ?allocate@?$Array@USortedNeighbor@GrbTrimeshCookerHelper@physx@@VNamedAllocator@shdfnd@3@@shdfnd@physx@@IEAAPEAUSortedNeighbor@GrbTrimeshCookerHelper@3@I@Z 00000001800244f0 f i TriangleMeshBuilder.obj
 0001:00023580       ?allocate@?$ReflectionAllocator@E@shdfnd@physx@@QEAAPEAX_KPEBDH@Z 0000000180024580 f i TriangleMeshBuilder.obj
 0001:00023600       ?allocate@?$ReflectionAllocator@G@shdfnd@physx@@QEAAPEAX_KPEBDH@Z 0000000180024600 f i TriangleMeshBuilder.obj
 0001:00023680       ?allocate@?$ReflectionAllocator@VBV32Tree@Gu@physx@@@shdfnd@physx@@QEAAPEAX_KPEBDH@Z 0000000180024680 f i TriangleMeshBuilder.obj
 0001:00023700       ?allocate@?$ReflectionAllocator@VEdgeListBuilder@Gu@physx@@@shdfnd@physx@@QEAAPEAX_KPEBDH@Z 0000000180024700 f i TriangleMeshBuilder.obj
 0001:00023780       ?allocateMaterials@TriangleMeshData@Gu@physx@@QEAAPEAGXZ 0000000180024780 f i TriangleMeshBuilder.obj
 0001:000238b0       ?allocateTriangles@TriangleMeshData@Gu@physx@@QEAAPEAXI_NI@Z 00000001800248b0 f i TriangleMeshBuilder.obj
 0001:00023af0       ?allocateVertices@MeshDataBase@Gu@physx@@QEAAPEAVPxVec3@3@I@Z 0000000180024af0 f i TriangleMeshBuilder.obj
 0001:00023bd0       ?begin@?$Array@USortedNeighbor@GrbTrimeshCookerHelper@physx@@VNamedAllocator@shdfnd@3@@shdfnd@physx@@QEAAPEAUSortedNeighbor@GrbTrimeshCookerHelper@3@XZ 0000000180024bd0 f i TriangleMeshBuilder.obj
 0001:00023be0       ?capacity@?$Array@USharpEdgeRange@GrbTrimeshCookerHelper@physx@@VNamedAllocator@shdfnd@3@@shdfnd@physx@@QEBAIXZ 0000000180024be0 f i TriangleMeshBuilder.obj
 0001:00023c00       ?capacity@?$Array@USortedNeighbor@GrbTrimeshCookerHelper@physx@@VNamedAllocator@shdfnd@3@@shdfnd@physx@@QEBAIXZ 0000000180024c00 f i TriangleMeshBuilder.obj
 0001:00023c20       ?capacityIncrement@?$Array@USortedNeighbor@GrbTrimeshCookerHelper@physx@@VNamedAllocator@shdfnd@3@@shdfnd@physx@@IEBAIXZ 0000000180024c20 f i TriangleMeshBuilder.obj
 0001:00023c60       ?copy@?$Array@USharpEdgeRange@GrbTrimeshCookerHelper@physx@@VNamedAllocator@shdfnd@3@@shdfnd@physx@@KAXPEAUSharpEdgeRange@GrbTrimeshCookerHelper@3@0PEBU453@@Z 0000000180024c60 f i TriangleMeshBuilder.obj
 0001:00023ce0       ?copy@?$Array@USortedNeighbor@GrbTrimeshCookerHelper@physx@@VNamedAllocator@shdfnd@3@@shdfnd@physx@@KAXPEAUSortedNeighbor@GrbTrimeshCookerHelper@3@0PEBU453@@Z 0000000180024ce0 f i TriangleMeshBuilder.obj
 0001:00023d60       ?create@?$Array@USharpEdgeRange@GrbTrimeshCookerHelper@physx@@VNamedAllocator@shdfnd@3@@shdfnd@physx@@KAXPEAUSharpEdgeRange@GrbTrimeshCookerHelper@3@0AEBU453@@Z 0000000180024d60 f i TriangleMeshBuilder.obj
 0001:00023dc0       ?deallocate@?$AlignedAllocator@$0IA@VNonTrackingAllocator@shdfnd@physx@@@shdfnd@physx@@QEAAXPEAX@Z 0000000180024dc0 f i TriangleMeshBuilder.obj
 0001:00023e10       ?deallocate@?$Array@USharpEdgeRange@GrbTrimeshCookerHelper@physx@@VNamedAllocator@shdfnd@3@@shdfnd@physx@@IEAAXPEAX@Z 0000000180024e10 f i TriangleMeshBuilder.obj
 0001:00023e40       ?deallocate@?$Array@USortedNeighbor@GrbTrimeshCookerHelper@physx@@VNamedAllocator@shdfnd@3@@shdfnd@physx@@IEAAXPEAX@Z 0000000180024e40 f i TriangleMeshBuilder.obj
 0001:00023e70       ?destroy@?$Array@USharpEdgeRange@GrbTrimeshCookerHelper@physx@@VNamedAllocator@shdfnd@3@@shdfnd@physx@@KAXPEAUSharpEdgeRange@GrbTrimeshCookerHelper@3@0@Z 0000000180024e70 f i TriangleMeshBuilder.obj
 0001:00023ea0       ?destroy@?$Array@USortedNeighbor@GrbTrimeshCookerHelper@physx@@VNamedAllocator@shdfnd@3@@shdfnd@physx@@KAXPEAUSortedNeighbor@GrbTrimeshCookerHelper@3@0@Z 0000000180024ea0 f i TriangleMeshBuilder.obj
 0001:00023ed0       ?findEdgeCCW@?$TriangleT@I@Gu@physx@@QEBAEII@Z 0000000180024ed0 f i TriangleMeshBuilder.obj
 0001:00024030       ?getMidphaseID@BV4TriangleMeshBuilder@physx@@UEBA?AW4Enum@PxMeshMidPhase@2@XZ 0000000180025030 f i TriangleMeshBuilder.obj
 0001:00024040       ?getMidphaseID@RTreeTriangleMeshBuilder@physx@@UEBA?AW4Enum@PxMeshMidPhase@2@XZ 0000000180025040 f i TriangleMeshBuilder.obj
 0001:00024050       ?getName@?$ReflectionAllocator@E@shdfnd@physx@@CAPEBDXZ 0000000180025050 f i TriangleMeshBuilder.obj
 0001:00024090       ?getName@?$ReflectionAllocator@G@shdfnd@physx@@CAPEBDXZ 0000000180025090 f i TriangleMeshBuilder.obj
 0001:000240d0       ?getName@?$ReflectionAllocator@VBV32Tree@Gu@physx@@@shdfnd@physx@@CAPEBDXZ 00000001800250d0 f i TriangleMeshBuilder.obj
 0001:00024110       ?getName@?$ReflectionAllocator@VEdgeListBuilder@Gu@physx@@@shdfnd@physx@@CAPEBDXZ 0000000180025110 f i TriangleMeshBuilder.obj
 0001:00024150       ?getNbFaces@EdgeList@Gu@physx@@QEBAIXZ 0000000180025150 f i TriangleMeshBuilder.obj
 0001:00024160       ?getRemap@SourceMeshBase@Gu@physx@@QEBAPEBIXZ 0000000180025160 f i TriangleMeshBuilder.obj
 0001:00024170       ?grow@?$Array@USharpEdgeRange@GrbTrimeshCookerHelper@physx@@VNamedAllocator@shdfnd@3@@shdfnd@physx@@IEAAXI@Z 0000000180025170 f i TriangleMeshBuilder.obj
 0001:000241f0       ?grow@?$Array@USortedNeighbor@GrbTrimeshCookerHelper@physx@@VNamedAllocator@shdfnd@3@@shdfnd@physx@@IEAAXI@Z 00000001800251f0 f i TriangleMeshBuilder.obj
 0001:00024270       ?growAndPushBack@?$Array@USortedNeighbor@GrbTrimeshCookerHelper@physx@@VNamedAllocator@shdfnd@3@@shdfnd@physx@@IEAAAEAUSortedNeighbor@GrbTrimeshCookerHelper@3@AEBU453@@Z 0000000180025270 f i TriangleMeshBuilder.obj
 0001:00024440       ?has16BitIndices@MeshDataBase@Gu@physx@@QEBA_NXZ 0000000180025440 f i TriangleMeshBuilder.obj
 0001:00024470       ?initRemap@SourceMeshBase@Gu@physx@@QEAAXXZ 0000000180025470 f i TriangleMeshBuilder.obj
 0001:00024490       ?isInUserMemory@?$Array@USharpEdgeRange@GrbTrimeshCookerHelper@physx@@VNamedAllocator@shdfnd@3@@shdfnd@physx@@QEBAIXZ 0000000180025490 f i TriangleMeshBuilder.obj
 0001:000244b0       ?isInUserMemory@?$Array@USortedNeighbor@GrbTrimeshCookerHelper@physx@@VNamedAllocator@shdfnd@3@@shdfnd@physx@@QEBAIXZ 00000001800254b0 f i TriangleMeshBuilder.obj
 0001:000244d0       ?isValid@PxBVH33MidphaseDesc@physx@@QEBA_NXZ 00000001800254d0 f i TriangleMeshBuilder.obj
 0001:00024500       ?isValid@PxBVH34MidphaseDesc@physx@@QEBA_NXZ 0000000180025500 f i TriangleMeshBuilder.obj
 0001:00024520       ?isValid@PxMidphaseDesc@physx@@QEBA_NXZ 0000000180025520 f i TriangleMeshBuilder.obj
 0001:00024570       ?onMeshIndexFormatChange@TriangleMeshBuilder@physx@@UEAAXXZ 0000000180025570 f i TriangleMeshBuilder.obj
 0001:00024580       ?pushBack@?$Array@USortedNeighbor@GrbTrimeshCookerHelper@physx@@VNamedAllocator@shdfnd@3@@shdfnd@physx@@QEAAAEAUSortedNeighbor@GrbTrimeshCookerHelper@3@AEBU453@@Z 0000000180025580 f i TriangleMeshBuilder.obj
 0001:00024630       ?recreate@?$Array@USharpEdgeRange@GrbTrimeshCookerHelper@physx@@VNamedAllocator@shdfnd@3@@shdfnd@physx@@IEAAXI@Z 0000000180025630 f i TriangleMeshBuilder.obj
 0001:00024740       ?recreate@?$Array@USortedNeighbor@GrbTrimeshCookerHelper@physx@@VNamedAllocator@shdfnd@3@@shdfnd@physx@@IEAAXI@Z 0000000180025740 f i TriangleMeshBuilder.obj
 0001:00024860       ?release@RTree@Gu@physx@@QEAAXXZ 0000000180025860 f i TriangleMeshBuilder.obj
 0001:000248d0       ?releaseRemap@SourceMeshBase@Gu@physx@@QEAAXXZ 00000001800258d0 f i TriangleMeshBuilder.obj
 0001:00024910       ?remap@RTreeCookerRemap@physx@@UEAAXPEAIII@Z 0000000180025910 f i TriangleMeshBuilder.obj
 0001:00024b00       ?reserve@?$Array@USharpEdgeRange@GrbTrimeshCookerHelper@physx@@VNamedAllocator@shdfnd@3@@shdfnd@physx@@QEAAXI@Z 0000000180025b00 f i TriangleMeshBuilder.obj
 0001:00024b40       ?reserve@?$Array@USortedNeighbor@GrbTrimeshCookerHelper@physx@@VNamedAllocator@shdfnd@3@@shdfnd@physx@@QEAAXI@Z 0000000180025b40 f i TriangleMeshBuilder.obj
 0001:00024b80       ?resize@?$Array@USharpEdgeRange@GrbTrimeshCookerHelper@physx@@VNamedAllocator@shdfnd@3@@shdfnd@physx@@QEAAXIAEBUSharpEdgeRange@GrbTrimeshCookerHelper@3@@Z 0000000180025b80 f i TriangleMeshBuilder.obj
 0001:00024c10       ?resizeUninitialized@?$Array@USortedNeighbor@GrbTrimeshCookerHelper@physx@@VNamedAllocator@shdfnd@3@@shdfnd@physx@@QEAAXI@Z 0000000180025c10 f i TriangleMeshBuilder.obj
 0001:00024c40       ?setNbTriangles@SourceMesh@Gu@physx@@QEAAXI@Z 0000000180025c40 f i TriangleMeshBuilder.obj
 0001:00024c60       ?setNbVertices@SourceMeshBase@Gu@physx@@QEAAXI@Z 0000000180025c60 f i TriangleMeshBuilder.obj
 0001:00024c80       ?setPointers@SourceMesh@Gu@physx@@QEAAXPEAVIndTri32@23@PEAVIndTri16@23@PEBVPxVec3@3@@Z 0000000180025c80 f i TriangleMeshBuilder.obj
 0001:00024cc0       ?setTriangleAdjacency@TriangleMeshData@Gu@physx@@QEAAXIII@Z 0000000180025cc0 f i TriangleMeshBuilder.obj
 0001:00024d50       ?size@?$Array@USortedNeighbor@GrbTrimeshCookerHelper@physx@@VNamedAllocator@shdfnd@3@@shdfnd@physx@@QEBAIXZ 0000000180025d50 f i TriangleMeshBuilder.obj
 0001:00024d60       ?to16@shdfnd@physx@@YAGI@Z 0000000180025d60 f i TriangleMeshBuilder.obj
 0001:00024dd0       ?writeChunk@physx@@YAXCCCCAEAVPxOutputStream@1@@Z 0000000180025dd0 f i TriangleMeshBuilder.obj
 0001:00024e60       ?writeIntBuffer@physx@@YAXPEBII_NAEAVPxOutputStream@1@@Z 0000000180025e60 f i TriangleMeshBuilder.obj
 0001:00024ea0       ??0BigConvexDataBuilder@physx@@QEAA@PEBUConvexHullData@Gu@1@PEAVBigConvexData@1@PEBVPxVec3@1@@Z 0000000180025ea0 f   BigConvexDataBuilder.obj
 0001:00024ef0       ??1BigConvexDataBuilder@physx@@QEAA@XZ 0000000180025ef0 f   BigConvexDataBuilder.obj
 0001:00024f00       ?precompute@BigConvexDataBuilder@physx@@QEAA_NI@Z 0000000180025f00 f   BigConvexDataBuilder.obj
 0001:00025520       ?initialize@BigConvexDataBuilder@physx@@QEAA_NXZ 0000000180026520 f   BigConvexDataBuilder.obj
 0001:00025590       ?save@BigConvexDataBuilder@physx@@QEBA_NAEAVPxOutputStream@2@_N@Z 0000000180026590 f   BigConvexDataBuilder.obj
 0001:000256c0       ?computeValencies@BigConvexDataBuilder@physx@@QEAA_NAEBVConvexHullBuilder@2@@Z 00000001800266c0 f   BigConvexDataBuilder.obj
 0001:00025f00       ?saveValencies@BigConvexDataBuilder@physx@@QEBA_NAEAVPxOutputStream@2@_N@Z 0000000180026f00 f   BigConvexDataBuilder.obj
 0001:00026140       ??0BigConvexData@physx@@QEAA@W4PxEMPTY@1@@Z 0000000180027140 f i BigConvexDataBuilder.obj
 0001:00026150       ??4BigConvexData@physx@@QEAAAEAV01@AEBV01@@Z 0000000180027150 f i BigConvexDataBuilder.obj
 0001:00026180       ?GetAdjacentVerts@BigConvexData@physx@@QEBAPEBEXZ 0000000180027180 f i BigConvexDataBuilder.obj
 0001:00026190       ?GetNbNeighbors@BigConvexData@physx@@QEBAGI@Z 0000000180027190 f i BigConvexDataBuilder.obj
 0001:000261b0       ?GetNbSamples@BigConvexData@physx@@QEBAIXZ 00000001800271b0 f i BigConvexDataBuilder.obj
 0001:000261c0       ?GetNbVerts@BigConvexData@physx@@QEBAIXZ 00000001800271c0 f i BigConvexDataBuilder.obj
 0001:000261d0       ?GetNeighbors@BigConvexData@physx@@QEBAPEBEI@Z 00000001800271d0 f i BigConvexDataBuilder.obj
 0001:00026200       ?GetOffset@BigConvexData@physx@@QEBAGI@Z 0000000180027200 f i BigConvexDataBuilder.obj
 0001:00026220       ?GetSubdiv@BigConvexData@physx@@QEBAIXZ 0000000180027220 f i BigConvexDataBuilder.obj
 0001:00026230       ?GetValencies@BigConvexData@physx@@QEBAPEBUValency@Gu@2@XZ 0000000180027230 f i BigConvexDataBuilder.obj
 0001:00026240       ?GetValency@BigConvexData@physx@@QEBAGI@Z 0000000180027240 f i BigConvexDataBuilder.obj
 0001:00026260       ?precomputeSample@BigConvexDataBuilder@physx@@IEAAXAEBVPxVec3@2@AEAEM@Z 0000000180027260 f i BigConvexDataBuilder.obj
 0001:000265c0       ??0ConvexHullBuilder@physx@@QEAA@PEAUConvexHullData@Gu@1@_N@Z 00000001800275c0 f   ConvexHullBuilder.obj
 0001:00026650       ??1ConvexHullBuilder@physx@@QEAA@XZ 0000000180027650 f   ConvexHullBuilder.obj
 0001:00026790       ?init@ConvexHullBuilder@physx@@QEAA_NIPEBVPxVec3@2@PEBIIIPEBUPxHullPolygon@2@_NPEAVConvexHullLib@2@@Z 0000000180027790 f   ConvexHullBuilder.obj
 0001:00027050       ?save@ConvexHullBuilder@physx@@QEBA_NAEAVPxOutputStream@2@_N@Z 0000000180028050 f   ConvexHullBuilder.obj
 0001:00027440       ?copy@ConvexHullBuilder@physx@@QEAA_NAEAUConvexHullData@Gu@2@AEAI@Z 0000000180028440 f   ConvexHullBuilder.obj
 0001:00027bc0       ?createEdgeList@ConvexHullBuilder@physx@@QEAA_N_NI@Z 0000000180028bc0 f   ConvexHullBuilder.obj
 0001:000289b0       ?checkHullPolygons@ConvexHullBuilder@physx@@QEBA_NXZ 00000001800299b0 f   ConvexHullBuilder.obj
 0001:00029260       ?calculateVertexMapTable@ConvexHullBuilder@physx@@QEAA_NI_N@Z 000000018002a260 f   ConvexHullBuilder.obj
 0001:00029510       ?computeGeomCenter@ConvexHullBuilder@physx@@IEBA_NAEAVPxVec3@2@IPEAUHullTriangleData@2@@Z 000000018002a510 f   ConvexHullBuilder.obj
 0001:000296c0       ??$?_UUEdgeDescData@Gu@physx@@@@YAPEAX_KV?$ReflectionAllocator@UEdgeDescData@Gu@physx@@@shdfnd@physx@@PEBDH@Z 000000018002a6c0 f i ConvexHullBuilder.obj
 0001:00029700       ??$?_U_N@@YAPEAX_KV?$ReflectionAllocator@_N@shdfnd@physx@@PEBDH@Z 000000018002a700 f i ConvexHullBuilder.obj
 0001:00029740       ??0?$PxBitAndDataT@G$0IAAA@@physx@@QEAA@G_N@Z 000000018002a740 f i ConvexHullBuilder.obj
 0001:00029790       ??0?$ReflectionAllocator@UEdgeDescData@Gu@physx@@@shdfnd@physx@@QEAA@PEBD@Z 000000018002a790 f i ConvexHullBuilder.obj
 0001:000297a0       ??0?$ReflectionAllocator@_N@shdfnd@physx@@QEAA@PEBD@Z 000000018002a7a0 f i ConvexHullBuilder.obj
 0001:000297b0       ??0?$TriangleT@I@Gu@physx@@QEAA@III@Z 000000018002a7b0 f i ConvexHullBuilder.obj
 0001:00029810       ??0HullPolygonData@Gu@physx@@QEAA@AEBU012@@Z 000000018002a810 f i ConvexHullBuilder.obj
 0001:00029870       ??0PxPlane@physx@@QEAA@AEBV01@@Z 000000018002a870 f i ConvexHullBuilder.obj
 0001:000298b0       ??0PxPlane@physx@@QEAA@MMMM@Z 000000018002a8b0 f i ConvexHullBuilder.obj
 0001:00029910       ??4PxPlane@physx@@QEAAAEAV01@$$QEAV01@@Z 000000018002a910 f i ConvexHullBuilder.obj
 0001:00029950       ?PxMemSet@physx@@YAPEAXPEAXHI@Z 000000018002a950 f i ConvexHullBuilder.obj
 0001:00029980       ?allocate@?$ReflectionAllocator@UEdgeDescData@Gu@physx@@@shdfnd@physx@@QEAAPEAX_KPEBDH@Z 000000018002a980 f i ConvexHullBuilder.obj
 0001:00029a00       ?allocate@?$ReflectionAllocator@_N@shdfnd@physx@@QEAAPEAX_KPEBDH@Z 000000018002aa00 f i ConvexHullBuilder.obj
 0001:00029a80       ?area@?$TriangleT@I@Gu@physx@@QEBAMPEBVPxVec3@3@@Z 000000018002aa80 f i ConvexHullBuilder.obj
 0001:00029b70       ?center@?$TriangleT@I@Gu@physx@@QEBAXPEBVPxVec3@3@AEAV43@@Z 000000018002ab70 f i ConvexHullBuilder.obj
 0001:00029c50       ?computeBufferSize@Gu@physx@@YAIAEBUConvexHullData@12@I@Z 000000018002ac50 f i ConvexHullBuilder.obj
 0001:00029d70       ?computeNbPolygons@ConvexHullBuilder@physx@@QEBAIXZ 000000018002ad70 f i ConvexHullBuilder.obj
 0001:00029df0       ?flip@physx@@YAXAEAG@Z     000000018002adf0 f i ConvexHullBuilder.obj
 0001:00029e60       ?flip@physx@@YAXAEAM@Z     000000018002ae60 f i ConvexHullBuilder.obj
 0001:00029f20       ?flipData@Gu@physx@@YAXAEAUHullPolygonData@12@@Z 000000018002af20 f i ConvexHullBuilder.obj
 0001:00029f80       ?getName@?$ReflectionAllocator@UEdgeDescData@Gu@physx@@@shdfnd@physx@@CAPEBDXZ 000000018002af80 f i ConvexHullBuilder.obj
 0001:00029fc0       ?getName@?$ReflectionAllocator@_N@shdfnd@physx@@CAPEBDXZ 000000018002afc0 f i ConvexHullBuilder.obj
 0001:0002a000       ?memSet@intrinsics@physx@@YAPEAXPEAXHI@Z 000000018002b000 f i ConvexHullBuilder.obj
 0001:0002a030       ?to8@shdfnd@physx@@YAEI@Z  000000018002b030 f i ConvexHullBuilder.obj
 0001:0002a0a0       ??1ConvexHullLib@physx@@UEAA@XZ 000000018002b0a0 f   ConvexHullLib.obj
 0001:0002a120       ?cleanupVertices@ConvexHullLib@physx@@IEAA_NIPEBVPxVec3@2@IAEAIPEAV32@AEAV32@3@Z 000000018002b120 f   ConvexHullLib.obj
 0001:0002a830       ?shiftAndcleanupVertices@ConvexHullLib@physx@@IEAA_NIPEBVPxVec3@2@IAEAIPEAV32@AEAV32@3@Z 000000018002b830 f   ConvexHullLib.obj
 0001:0002aa40       ?swapLargestFace@ConvexHullLib@physx@@IEAAXAEAVPxConvexMeshDesc@2@@Z 000000018002ba40 f   ConvexHullLib.obj
 0001:0002ae30       ?shiftConvexMeshDesc@ConvexHullLib@physx@@IEAAXAEAVPxConvexMeshDesc@2@@Z 000000018002be30 f   ConvexHullLib.obj
 0001:0002b680       ??_EConvexHullLib@physx@@UEAAPEAXI@Z 000000018002c680 f i ConvexHullLib.obj
 0001:0002b680       ??_GConvexHullLib@physx@@UEAAPEAXI@Z 000000018002c680 f i ConvexHullLib.obj
 0001:0002b6c0       ??0ConvexHull@physx@@QEAA@AEBVPxVec3@1@0AEBV?$Array@VPxPlane@physx@@VNamedAllocator@shdfnd@2@@shdfnd@1@@Z 000000018002c6c0 f   ConvexHullUtils.obj
 0001:0002bfa0       ??0ConvexHull@physx@@QEAA@AEBVPxVec3@1@AEBVPxTransform@1@AEBV?$Array@VPxPlane@physx@@VNamedAllocator@shdfnd@2@@shdfnd@1@@Z 000000018002cfa0 f   ConvexHullUtils.obj
 0001:0002ca00       ?findCandidatePlane@ConvexHull@physx@@QEBAHMM@Z 000000018002da00 f   ConvexHullUtils.obj
 0001:0002ce00       ?assertIntact@ConvexHull@physx@@QEBA_NM@Z 000000018002de00 f   ConvexHullUtils.obj
 0001:0002d600       ?maxNumVertsPerFace@ConvexHull@physx@@QEBAIXZ 000000018002e600 f   ConvexHullUtils.obj
 0001:0002d6d0       ?convexHullCrop@physx@@YAPEAVConvexHull@1@AEBV21@AEBVPxPlane@1@M@Z 000000018002e6d0 f   ConvexHullUtils.obj
 0001:0002ed50       ?computeOBBFromConvex@physx@@YA_NAEBVPxConvexMeshDesc@1@AEAVPxVec3@1@AEAVPxTransform@1@@Z 000000018002fd50 f   ConvexHullUtils.obj
 0001:0002f6a0       ?computeOBBSIMD@local@@YAXIPEBT__m128@@AEAT2@AEBT2@1@Z 00000001800306a0 f   ConvexHullUtils.obj
 0001:0002fd00       ??$?2V?$ReflectionAllocator@VConvexHull@physx@@@shdfnd@physx@@@UserAllocated@shdfnd@physx@@SAPEAX_KV?$ReflectionAllocator@VConvexHull@physx@@@12@PEBDH@Z 0000000180030d00 f i ConvexHullUtils.obj
 0001:0002fd40       ??0?$Array@VHalfEdge@ConvexHull@physx@@VNamedAllocator@shdfnd@3@@shdfnd@physx@@QEAA@AEBVNamedAllocator@12@@Z 0000000180030d40 f i ConvexHullUtils.obj
 0001:0002fd90       ??0?$Array@VPxPlane@physx@@VNamedAllocator@shdfnd@2@@shdfnd@physx@@QEAA@AEBVNamedAllocator@12@@Z 0000000180030d90 f i ConvexHullUtils.obj
 0001:0002fde0       ??0?$ReflectionAllocator@VConvexHull@physx@@@shdfnd@physx@@QEAA@PEBD@Z 0000000180030de0 f i ConvexHullUtils.obj
 0001:0002fdf0       ??0Box@Gu@physx@@QEAA@AEBV012@@Z 0000000180030df0 f i ConvexHullUtils.obj
 0001:0002fe50       ??0Box@Gu@physx@@QEAA@AEBVPxVec3@2@0AEBVPxMat33@2@@Z 0000000180030e50 f i ConvexHullUtils.obj
 0001:0002fec0       ??0Box@Gu@physx@@QEAA@XZ   0000000180030ec0 f i ConvexHullUtils.obj
 0001:0002ff10       ??0ConvexHull@physx@@QEAA@AEBV01@@Z 0000000180030f10 f i ConvexHullUtils.obj
 0001:0002ffc0       ??0ConvexHull@physx@@QEAA@AEBV?$Array@VPxPlane@physx@@VNamedAllocator@shdfnd@2@@shdfnd@1@@Z 0000000180030fc0 f i ConvexHullUtils.obj
 0001:00030060       ??0HalfEdge@ConvexHull@physx@@QEAA@FEE@Z 0000000180031060 f i ConvexHullUtils.obj
 0001:000300b0       ??0HalfEdge@ConvexHull@physx@@QEAA@XZ 00000001800310b0 f i ConvexHullUtils.obj
 0001:000300c0       ??0Mat33V@aos@shdfnd@physx@@QEAA@XZ 00000001800310c0 f i ConvexHullUtils.obj
 0001:000300d0       ??0PxBoundedData@physx@@QEAA@XZ 00000001800310d0 f i ConvexHullUtils.obj
 0001:00030100       ??0PxConvexMeshDesc@physx@@QEAA@XZ 0000000180031100 f i ConvexHullUtils.obj
 0001:00030170       ??0PxIntegrals@physx@@QEAA@XZ 0000000180031170 f i ConvexHullUtils.obj
 0001:000301a0       ??0PxMat33@physx@@QEAA@AEBV01@@Z 00000001800311a0 f i ConvexHullUtils.obj
 0001:00030200       ??0PxMat33@physx@@QEAA@AEBVPxQuat@1@@Z 0000000180031200 f i ConvexHullUtils.obj
 0001:000304a0       ??0PxMat33@physx@@QEAA@AEBVPxVec3@1@00@Z 00000001800314a0 f i ConvexHullUtils.obj
 0001:00030510       ??0PxMat33@physx@@QEAA@W4PxIDENTITY@1@@Z 0000000180031510 f i ConvexHullUtils.obj
 0001:00030590       ??0PxPlane@physx@@QEAA@AEBVPxVec3@1@M@Z 0000000180031590 f i ConvexHullUtils.obj
 0001:000305d0       ??0PxPlane@physx@@QEAA@XZ  00000001800315d0 f i ConvexHullUtils.obj
 0001:00030600       ??0PxQuat@physx@@QEAA@AEBV01@@Z 0000000180031600 f i ConvexHullUtils.obj
 0001:00030660       ??0PxQuat@physx@@QEAA@AEBVPxMat33@1@@Z 0000000180031660 f i ConvexHullUtils.obj
 0001:00030ac0       ??0PxQuat@physx@@QEAA@MAEBVPxVec3@1@@Z 0000000180031ac0 f i ConvexHullUtils.obj
 0001:00030bb0       ??0PxQuat@physx@@QEAA@MMMM@Z 0000000180031bb0 f i ConvexHullUtils.obj
 0001:00030c10       ??0PxQuat@physx@@QEAA@XZ   0000000180031c10 f i ConvexHullUtils.obj
 0001:00030c20       ??0PxStridedData@physx@@QEAA@XZ 0000000180031c20 f i ConvexHullUtils.obj
 0001:00030c50       ??0PxTransform@physx@@QEAA@AEBVPxVec3@1@AEBVPxQuat@1@@Z 0000000180031c50 f i ConvexHullUtils.obj
 0001:00030cd0       ??1Box@Gu@physx@@QEAA@XZ   0000000180031cd0 f i ConvexHullUtils.obj
 0001:00030ce0       ??4Box@Gu@physx@@QEAAAEBV012@AEBV012@@Z 0000000180031ce0 f i ConvexHullUtils.obj
 0001:00030d40       ??4PxMat33@physx@@QEAAAEAV01@AEBV01@@Z 0000000180031d40 f i ConvexHullUtils.obj
 0001:00030da0       ??4PxPlane@physx@@QEAAAEAV01@AEBV01@@Z 0000000180031da0 f i ConvexHullUtils.obj
 0001:00030de0       ??4PxQuat@physx@@QEAAAEAV01@AEBV01@@Z 0000000180031de0 f i ConvexHullUtils.obj
 0001:00030e40       ??8PxPlane@physx@@QEBA_NAEBV01@@Z 0000000180031e40 f i ConvexHullUtils.obj
 0001:00030ea0       ??8PxVec3@physx@@QEBA_NAEBV01@@Z 0000000180031ea0 f i ConvexHullUtils.obj
 0001:00030f10       ??A?$Array@VHalfEdge@ConvexHull@physx@@VNamedAllocator@shdfnd@3@@shdfnd@physx@@QEAAAEAVHalfEdge@ConvexHull@2@I@Z 0000000180031f10 f i ConvexHullUtils.obj
 0001:00030f90       ??A?$Array@VHalfEdge@ConvexHull@physx@@VNamedAllocator@shdfnd@3@@shdfnd@physx@@QEBAAEBVHalfEdge@ConvexHull@2@I@Z 0000000180031f90 f i ConvexHullUtils.obj
 0001:00031010       ??A?$Array@VPxPlane@physx@@VNamedAllocator@shdfnd@2@@shdfnd@physx@@QEBAAEBVPxPlane@2@I@Z 0000000180032010 f i ConvexHullUtils.obj
 0001:00031090       ??A?$Array@VPxVec3@physx@@VNamedAllocator@shdfnd@2@@shdfnd@physx@@QEBAAEBVPxVec3@2@I@Z 0000000180032090 f i ConvexHullUtils.obj
 0001:00031110       ??APxMat33@physx@@QEAAAEAVPxVec3@1@I@Z 0000000180032110 f i ConvexHullUtils.obj
 0001:00031130       ??APxMat33@physx@@QEBAAEBVPxVec3@1@I@Z 0000000180032130 f i ConvexHullUtils.obj
 0001:00031150       ??DPxMat33@physx@@QEBA?BVPxVec3@1@AEBV21@@Z 0000000180032150 f i ConvexHullUtils.obj
 0001:00031190       ??DPxQuat@physx@@QEBA?AV01@M@Z 0000000180032190 f i ConvexHullUtils.obj
 0001:00031210       ??GPxVec3@physx@@QEBA?AV01@XZ 0000000180032210 f i ConvexHullUtils.obj
 0001:00031280       ??RPxMat33@physx@@QEAAAEAMII@Z 0000000180032280 f i ConvexHullUtils.obj
 0001:000312c0       ?FAdd@aos@shdfnd@physx@@YA?AT__m128@@T4@0@Z 00000001800322c0 f i ConvexHullUtils.obj
 0001:000313d0       ?FMul@aos@shdfnd@physx@@YA?AT__m128@@T4@0@Z 00000001800323d0 f i ConvexHullUtils.obj
 0001:000314e0       ?FScaleAdd@aos@shdfnd@physx@@YA?AT__m128@@T4@00@Z 00000001800324e0 f i ConvexHullUtils.obj
 0001:000316d0       ?PxCos@physx@@YAMM@Z       00000001800326d0 f i ConvexHullUtils.obj
 0001:000316f0       ?PxSin@physx@@YAMM@Z       00000001800326f0 f i ConvexHullUtils.obj
 0001:00031710       ?QuatGetMat33V@aos@shdfnd@physx@@YAXAEBT__m128@@AEAT4@11@Z 0000000180032710 f i ConvexHullUtils.obj
 0001:00031ac0       ?QuatRotateInv@aos@shdfnd@physx@@YA?AT__m128@@T4@0@Z 0000000180032ac0 f i ConvexHullUtils.obj
 0001:00031da0       ?QuatVLoadU@aos@shdfnd@physx@@YA?AT__m128@@PEBM@Z 0000000180032da0 f i ConvexHullUtils.obj
 0001:00031dd0       ?V3Cross@aos@shdfnd@physx@@YA?AT__m128@@T4@0@Z 0000000180032dd0 f i ConvexHullUtils.obj
 0001:00031fc0       ?V3NegScaleSub@aos@shdfnd@physx@@YA?AT__m128@@T4@00@Z 0000000180032fc0 f i ConvexHullUtils.obj
 0001:000321b0       ?V3Scale@aos@shdfnd@physx@@YA?AT__m128@@T4@0@Z 00000001800331b0 f i ConvexHullUtils.obj
 0001:000322c0       ?V3ScaleAdd@aos@shdfnd@physx@@YA?AT__m128@@T4@00@Z 00000001800332c0 f i ConvexHullUtils.obj
 0001:000324b0       ?V4GetW@aos@shdfnd@physx@@YA?AT__m128@@T4@@Z 00000001800334b0 f i ConvexHullUtils.obj
 0001:000324e0       ?V4GetX@aos@shdfnd@physx@@YA?AT__m128@@T4@@Z 00000001800334e0 f i ConvexHullUtils.obj
 0001:00032510       ?V4GetY@aos@shdfnd@physx@@YA?AT__m128@@T4@@Z 0000000180033510 f i ConvexHullUtils.obj
 0001:00032540       ?V4GetZ@aos@shdfnd@physx@@YA?AT__m128@@T4@@Z 0000000180033540 f i ConvexHullUtils.obj
 0001:00032570       ?V4Max@aos@shdfnd@physx@@YA?AT__m128@@T4@0@Z 0000000180033570 f i ConvexHullUtils.obj
 0001:000325a0       ?V4Min@aos@shdfnd@physx@@YA?AT__m128@@T4@0@Z 00000001800335a0 f i ConvexHullUtils.obj
 0001:000325d0       ?V4Mul@aos@shdfnd@physx@@YA?AT__m128@@T4@0@Z 00000001800335d0 f i ConvexHullUtils.obj
 0001:00032600       ?V4MulAdd@aos@shdfnd@physx@@YA?AT__m128@@T4@00@Z 0000000180033600 f i ConvexHullUtils.obj
 0001:00032690       ?V4Neg@aos@shdfnd@physx@@YA?AT__m128@@T4@@Z 0000000180033690 f i ConvexHullUtils.obj
 0001:000326c0       ?Vec4V_From_Vec3V@aos@shdfnd@physx@@YA?AT__m128@@T4@@Z 00000001800336c0 f i ConvexHullUtils.obj
 0001:000326d0       ?allocate@?$Array@VHalfEdge@ConvexHull@physx@@VNamedAllocator@shdfnd@3@@shdfnd@physx@@IEAAPEAVHalfEdge@ConvexHull@3@I@Z 00000001800336d0 f i ConvexHullUtils.obj
 0001:00032760       ?allocate@?$Array@VPxPlane@physx@@VNamedAllocator@shdfnd@2@@shdfnd@physx@@IEAAPEAVPxPlane@3@I@Z 0000000180033760 f i ConvexHullUtils.obj
 0001:000327f0       ?allocate@?$ReflectionAllocator@VConvexHull@physx@@@shdfnd@physx@@QEAAPEAX_KPEBDH@Z 00000001800337f0 f i ConvexHullUtils.obj
 0001:00032870       ?begin@?$Array@VHalfEdge@ConvexHull@physx@@VNamedAllocator@shdfnd@3@@shdfnd@physx@@QEAAPEAVHalfEdge@ConvexHull@3@XZ 0000000180033870 f i ConvexHullUtils.obj
 0001:00032880       ?begin@?$Array@VHalfEdge@ConvexHull@physx@@VNamedAllocator@shdfnd@3@@shdfnd@physx@@QEBAPEBVHalfEdge@ConvexHull@3@XZ 0000000180033880 f i ConvexHullUtils.obj
 0001:00032890       ?begin@?$Array@VPxPlane@physx@@VNamedAllocator@shdfnd@2@@shdfnd@physx@@QEAAPEAVPxPlane@3@XZ 0000000180033890 f i ConvexHullUtils.obj
 0001:000328a0       ?begin@?$Array@VPxPlane@physx@@VNamedAllocator@shdfnd@2@@shdfnd@physx@@QEBAPEBVPxPlane@3@XZ 00000001800338a0 f i ConvexHullUtils.obj
 0001:000328b0       ?begin@?$Array@VPxVec3@physx@@VNamedAllocator@shdfnd@2@@shdfnd@physx@@QEBAPEBVPxVec3@3@XZ 00000001800338b0 f i ConvexHullUtils.obj
 0001:000328c0       ?capacity@?$Array@VHalfEdge@ConvexHull@physx@@VNamedAllocator@shdfnd@3@@shdfnd@physx@@QEBAIXZ 00000001800338c0 f i ConvexHullUtils.obj
 0001:000328e0       ?capacity@?$Array@VPxPlane@physx@@VNamedAllocator@shdfnd@2@@shdfnd@physx@@QEBAIXZ 00000001800338e0 f i ConvexHullUtils.obj
 0001:00032900       ?capacityIncrement@?$Array@VHalfEdge@ConvexHull@physx@@VNamedAllocator@shdfnd@3@@shdfnd@physx@@IEBAIXZ 0000000180033900 f i ConvexHullUtils.obj
 0001:00032940       ?capacityIncrement@?$Array@VPxPlane@physx@@VNamedAllocator@shdfnd@2@@shdfnd@physx@@IEBAIXZ 0000000180033940 f i ConvexHullUtils.obj
 0001:00032980       ?computeAABBExtent@Box@Gu@physx@@QEBA?AVPxVec3@3@XZ 0000000180033980 f i ConvexHullUtils.obj
 0001:00032c00       ?computeBoxPoints@Box@Gu@physx@@QEBAXPEIAVPxVec3@3@@Z 0000000180033c00 f i ConvexHullUtils.obj
 0001:00032c70       ?copy@?$Array@VHalfEdge@ConvexHull@physx@@VNamedAllocator@shdfnd@3@@shdfnd@physx@@KAXPEAVHalfEdge@ConvexHull@3@0PEBV453@@Z 0000000180033c70 f i ConvexHullUtils.obj
 0001:00032cf0       ?copy@?$Array@VPxPlane@physx@@VNamedAllocator@shdfnd@2@@shdfnd@physx@@KAXPEAVPxPlane@3@0PEBV43@@Z 0000000180033cf0 f i ConvexHullUtils.obj
 0001:00032d70       ?copyHull@ConvexHull@physx@@QEAAXAEBV12@@Z 0000000180033d70 f i ConvexHullUtils.obj
 0001:00032f70       ?cos@intrinsics@physx@@YAMM@Z 0000000180033f70 f i ConvexHullUtils.obj
 0001:00032f90       ?create@?$Array@VHalfEdge@ConvexHull@physx@@VNamedAllocator@shdfnd@3@@shdfnd@physx@@KAXPEAVHalfEdge@ConvexHull@3@0AEBV453@@Z 0000000180033f90 f i ConvexHullUtils.obj
 0001:00032ff0       ?create@?$Array@VPxPlane@physx@@VNamedAllocator@shdfnd@2@@shdfnd@physx@@KAXPEAVPxPlane@3@0AEBV43@@Z 0000000180033ff0 f i ConvexHullUtils.obj
 0001:00033050       ?create@?$Array@VPxVec3@physx@@VNamedAllocator@shdfnd@2@@shdfnd@physx@@KAXPEAVPxVec3@3@0AEBV43@@Z 0000000180034050 f i ConvexHullUtils.obj
 0001:000330b0       ?deallocate@?$Array@VHalfEdge@ConvexHull@physx@@VNamedAllocator@shdfnd@3@@shdfnd@physx@@IEAAXPEAX@Z 00000001800340b0 f i ConvexHullUtils.obj
 0001:000330e0       ?deallocate@?$Array@VPxPlane@physx@@VNamedAllocator@shdfnd@2@@shdfnd@physx@@IEAAXPEAX@Z 00000001800340e0 f i ConvexHullUtils.obj
 0001:00033110       ?degToRad@shdfnd@physx@@YAMM@Z 0000000180034110 f i ConvexHullUtils.obj
 0001:00033130       ?destroy@?$Array@VHalfEdge@ConvexHull@physx@@VNamedAllocator@shdfnd@3@@shdfnd@physx@@KAXPEAVHalfEdge@ConvexHull@3@0@Z 0000000180034130 f i ConvexHullUtils.obj
 0001:00033160       ?destroy@?$Array@VPxPlane@physx@@VNamedAllocator@shdfnd@2@@shdfnd@physx@@KAXPEAVPxPlane@3@0@Z 0000000180034160 f i ConvexHullUtils.obj
 0001:00033190       ?getDeterminant@PxMat33@physx@@QEBAMXZ 0000000180034190 f i ConvexHullUtils.obj
 0001:000331d0       ?getEdges@ConvexHull@physx@@QEAAAEAV?$Array@VHalfEdge@ConvexHull@physx@@VNamedAllocator@shdfnd@3@@shdfnd@2@XZ 00000001800341d0 f i ConvexHullUtils.obj
 0001:000331e0       ?getEdges@ConvexHull@physx@@QEBAAEBV?$Array@VHalfEdge@ConvexHull@physx@@VNamedAllocator@shdfnd@3@@shdfnd@2@XZ 00000001800341e0 f i ConvexHullUtils.obj
 0001:000331f0       ?getFacets@ConvexHull@physx@@QEAAAEAV?$Array@VPxPlane@physx@@VNamedAllocator@shdfnd@2@@shdfnd@2@XZ 00000001800341f0 f i ConvexHullUtils.obj
 0001:00033200       ?getFacets@ConvexHull@physx@@QEBAAEBV?$Array@VPxPlane@physx@@VNamedAllocator@shdfnd@2@@shdfnd@2@XZ 0000000180034200 f i ConvexHullUtils.obj
 0001:00033210       ?getInputPlanes@ConvexHull@physx@@QEBAAEBV?$Array@VPxPlane@physx@@VNamedAllocator@shdfnd@2@@shdfnd@2@XZ 0000000180034210 f i ConvexHullUtils.obj
 0001:00033220       ?getInverse@PxMat33@physx@@QEBA?BV12@XZ 0000000180034220 f i ConvexHullUtils.obj
 0001:000334f0       ?getName@?$ReflectionAllocator@VConvexHull@physx@@@shdfnd@physx@@CAPEBDXZ 00000001800344f0 f i ConvexHullUtils.obj
 0001:00033530       ?getOriginInertia@PxIntegrals@physx@@QEAAXAEAVPxMat33@2@@Z 0000000180034530 f i ConvexHullUtils.obj
 0001:000335c0       ?getTransform@Box@Gu@physx@@QEBA?AVPxTransform@3@XZ 00000001800345c0 f i ConvexHullUtils.obj
 0001:00033610       ?getTranspose@PxMat33@physx@@QEBA?BV12@XZ 0000000180034610 f i ConvexHullUtils.obj
 0001:000336c0       ?getVertices@ConvexHull@physx@@QEAAAEAV?$Array@VPxVec3@physx@@VNamedAllocator@shdfnd@2@@shdfnd@2@XZ 00000001800346c0 f i ConvexHullUtils.obj
 0001:000336d0       ?getVertices@ConvexHull@physx@@QEBAAEBV?$Array@VPxVec3@physx@@VNamedAllocator@shdfnd@2@@shdfnd@2@XZ 00000001800346d0 f i ConvexHullUtils.obj
 0001:000336e0       ?grow@?$Array@VHalfEdge@ConvexHull@physx@@VNamedAllocator@shdfnd@3@@shdfnd@physx@@IEAAXI@Z 00000001800346e0 f i ConvexHullUtils.obj
 0001:00033760       ?grow@?$Array@VPxPlane@physx@@VNamedAllocator@shdfnd@2@@shdfnd@physx@@IEAAXI@Z 0000000180034760 f i ConvexHullUtils.obj
 0001:000337e0       ?growAndPushBack@?$Array@VHalfEdge@ConvexHull@physx@@VNamedAllocator@shdfnd@3@@shdfnd@physx@@IEAAAEAVHalfEdge@ConvexHull@3@AEBV453@@Z 00000001800347e0 f i ConvexHullUtils.obj
 0001:00033960       ?growAndPushBack@?$Array@VPxPlane@physx@@VNamedAllocator@shdfnd@2@@shdfnd@physx@@IEAAAEAVPxPlane@3@AEBV43@@Z 0000000180034960 f i ConvexHullUtils.obj
 0001:00033af0       ?isFinite@PxQuat@physx@@QEBA_NXZ 0000000180034af0 f i ConvexHullUtils.obj
 0001:00033b70       ?isInUserMemory@?$Array@VHalfEdge@ConvexHull@physx@@VNamedAllocator@shdfnd@3@@shdfnd@physx@@QEBAIXZ 0000000180034b70 f i ConvexHullUtils.obj
 0001:00033b90       ?isInUserMemory@?$Array@VPxPlane@physx@@VNamedAllocator@shdfnd@2@@shdfnd@physx@@QEBAIXZ 0000000180034b90 f i ConvexHullUtils.obj
 0001:00033bb0       ?isSane@PxQuat@physx@@QEBA_NXZ 0000000180034bb0 f i ConvexHullUtils.obj
 0001:00033c20       ?isValid@Box@Gu@physx@@QEBA_NXZ 0000000180034c20 f i ConvexHullUtils.obj
 0001:00033c60       ?magnitude@PxQuat@physx@@QEBAMXZ 0000000180034c60 f i ConvexHullUtils.obj
 0001:00033c80       ?magnitudeSquared@PxQuat@physx@@QEBAMXZ 0000000180034c80 f i ConvexHullUtils.obj
 0001:00033ce0       ?pushBack@?$Array@VHalfEdge@ConvexHull@physx@@VNamedAllocator@shdfnd@3@@shdfnd@physx@@QEAAAEAVHalfEdge@ConvexHull@3@AEBV453@@Z 0000000180034ce0 f i ConvexHullUtils.obj
 0001:00033d80       ?pushBack@?$Array@VPxPlane@physx@@VNamedAllocator@shdfnd@2@@shdfnd@physx@@QEAAAEAVPxPlane@3@AEBV43@@Z 0000000180034d80 f i ConvexHullUtils.obj
 0001:00033e20       ?recreate@?$Array@VHalfEdge@ConvexHull@physx@@VNamedAllocator@shdfnd@3@@shdfnd@physx@@IEAAXI@Z 0000000180034e20 f i ConvexHullUtils.obj
 0001:00033f30       ?recreate@?$Array@VPxPlane@physx@@VNamedAllocator@shdfnd@2@@shdfnd@physx@@IEAAXI@Z 0000000180034f30 f i ConvexHullUtils.obj
 0001:00034050       ?reserve@?$Array@VHalfEdge@ConvexHull@physx@@VNamedAllocator@shdfnd@3@@shdfnd@physx@@QEAAXI@Z 0000000180035050 f i ConvexHullUtils.obj
 0001:00034090       ?reserve@?$Array@VPxPlane@physx@@VNamedAllocator@shdfnd@2@@shdfnd@physx@@QEAAXI@Z 0000000180035090 f i ConvexHullUtils.obj
 0001:000340d0       ?resize@?$Array@VHalfEdge@ConvexHull@physx@@VNamedAllocator@shdfnd@3@@shdfnd@physx@@QEAAXIAEBVHalfEdge@ConvexHull@3@@Z 00000001800350d0 f i ConvexHullUtils.obj
 0001:00034160       ?resize@?$Array@VPxPlane@physx@@VNamedAllocator@shdfnd@2@@shdfnd@physx@@QEAAXIAEBVPxPlane@3@@Z 0000000180035160 f i ConvexHullUtils.obj
 0001:000341f0       ?resize@?$Array@VPxVec3@physx@@VNamedAllocator@shdfnd@2@@shdfnd@physx@@QEAAXIAEBVPxVec3@3@@Z 00000001800351f0 f i ConvexHullUtils.obj
 0001:00034280       ?rotate@Box@Gu@physx@@QEBA?AVPxVec3@3@AEBV43@@Z 0000000180035280 f i ConvexHullUtils.obj
 0001:000342c0       ?rotateInv@Box@Gu@physx@@QEBA?AVPxVec3@3@AEBV43@@Z 00000001800352c0 f i ConvexHullUtils.obj
 0001:00034300       ?setAxes@Box@Gu@physx@@QEAAXAEBVPxVec3@3@00@Z 0000000180035300 f i ConvexHullUtils.obj
 0001:00034360       ?setEmpty@Box@Gu@physx@@QEAAXXZ 0000000180035360 f i ConvexHullUtils.obj
 0001:000343e0       ?sin@intrinsics@physx@@YAMM@Z 00000001800353e0 f i ConvexHullUtils.obj
 0001:00034400       ?size@?$Array@VHalfEdge@ConvexHull@physx@@VNamedAllocator@shdfnd@3@@shdfnd@physx@@QEBAIXZ 0000000180035400 f i ConvexHullUtils.obj
 0001:00034410       ?size@?$Array@VPxPlane@physx@@VNamedAllocator@shdfnd@2@@shdfnd@physx@@QEBAIXZ 0000000180035410 f i ConvexHullUtils.obj
 0001:00034420       ?threePlaneIntersection@physx@@YA?AVPxVec3@1@AEBVPxPlane@1@00@Z 0000000180035420 f i ConvexHullUtils.obj
 0001:000344f0       ?to8@shdfnd@physx@@YAEG@Z  00000001800354f0 f i ConvexHullUtils.obj
 0001:00034560       ?transform@Box@Gu@physx@@QEBA?AVPxVec3@3@AEBV43@@Z 0000000180035560 f i ConvexHullUtils.obj
 0001:000345c0       ?transform@PxMat33@physx@@QEBA?BVPxVec3@2@AEBV32@@Z 00000001800355c0 f i ConvexHullUtils.obj
 0001:00034670       ?transformTranspose@PxMat33@physx@@QEBA?BVPxVec3@2@AEBV32@@Z 0000000180035670 f i ConvexHullUtils.obj
 0001:000347b0       ??0ConvexMeshBuilder@physx@@QEAA@_N@Z 00000001800357b0 f   ConvexMeshBuilder.obj
 0001:00034830       ??1ConvexMeshBuilder@physx@@QEAA@XZ 0000000180035830 f   ConvexMeshBuilder.obj
 0001:000348b0       ?build@ConvexMeshBuilder@physx@@QEAA_NAEBVPxConvexMeshDesc@2@I_NPEAVConvexHullLib@2@@Z 00000001800358b0 f   ConvexMeshBuilder.obj
 0001:000349e0       ?save@ConvexMeshBuilder@physx@@QEBA_NAEAVPxOutputStream@2@_N@Z 00000001800359e0 f   ConvexMeshBuilder.obj
 0001:00034d20       ?copy@ConvexMeshBuilder@physx@@QEAA_NAEAUConvexHullInitData@Gu@2@@Z 0000000180035d20 f   ConvexMeshBuilder.obj
 0001:00034ed0       ?loadConvexHull@ConvexMeshBuilder@physx@@QEAA_NAEBVPxConvexMeshDesc@2@PEAVConvexHullLib@2@@Z 0000000180035ed0 f   ConvexMeshBuilder.obj
 0001:00035300       ?computeHullPolygons@ConvexMeshBuilder@physx@@QEAA_NAEBIPEBVPxVec3@2@0PEBIAEAVPxAllocatorCallback@2@AEAIAEAPEAV32@4AEAPEAI4AEAPEAUPxHullPolygon@2@@Z 0000000180036300 f   ConvexMeshBuilder.obj
 0001:00035740       ?computeGaussMaps@ConvexMeshBuilder@physx@@QEAA_NXZ 0000000180036740 f   ConvexMeshBuilder.obj
 0001:00035890       ?computeMassInfo@ConvexMeshBuilder@physx@@QEAAX_N@Z 0000000180036890 f   ConvexMeshBuilder.obj
 0001:00035be0       ?computeInternalObjects@ConvexMeshBuilder@physx@@QEAAXXZ 0000000180036be0 f   ConvexMeshBuilder.obj
 0001:000364e0       ??0?$ReflectionAllocator@VBigConvexData@physx@@@shdfnd@physx@@QEAA@PEBD@Z 00000001800374e0 f i ConvexMeshBuilder.obj
 0001:000364f0       ??0CenterExtents@Gu@physx@@QEAA@AEBVPxBounds3@2@@Z 00000001800374f0 f i ConvexMeshBuilder.obj
 0001:00036570       ??GPxMat33@physx@@QEBA?BV01@XZ 0000000180037570 f i ConvexMeshBuilder.obj
 0001:000365f0       ??_GBigConvexData@physx@@QEAAPEAXI@Z 00000001800375f0 f i ConvexMeshBuilder.obj
 0001:00036650       ?allocate@?$ReflectionAllocator@VBigConvexData@physx@@@shdfnd@physx@@QEAAPEAX_KPEBDH@Z 0000000180037650 f i ConvexMeshBuilder.obj
 0001:000366d0       ?getExtents@PxBounds3@physx@@QEBA?AVPxVec3@2@XZ 00000001800376d0 f i ConvexMeshBuilder.obj
 0001:00036740       ?getMax@CenterExtents@Gu@physx@@QEBA?AVPxVec3@3@XZ 0000000180037740 f i ConvexMeshBuilder.obj
 0001:00036780       ?getMin@CenterExtents@Gu@physx@@QEBA?AVPxVec3@3@XZ 0000000180037780 f i ConvexMeshBuilder.obj
 0001:000367c0       ?getName@?$ReflectionAllocator@VBigConvexData@physx@@@shdfnd@physx@@CAPEBDXZ 00000001800377c0 f i ConvexMeshBuilder.obj
 0001:00036800       ?getNextIndex3@shdfnd@physx@@YAII@Z 0000000180037800 f i ConvexMeshBuilder.obj
 0001:00036820       ?largestAxis@shdfnd@physx@@YAIAEBVPxVec3@2@@Z 0000000180037820 f i ConvexMeshBuilder.obj
 0001:00036890       ??0ConvexPolygonsBuilder@physx@@QEAA@PEAUConvexHullData@Gu@1@_N@Z 0000000180037890 f   ConvexPolygonsBuilder.obj
 0001:000368f0       ??1ConvexPolygonsBuilder@physx@@QEAA@XZ 00000001800378f0 f   ConvexPolygonsBuilder.obj
 0001:00036940       ?computeHullPolygons@ConvexPolygonsBuilder@physx@@QEAA_NAEBIPEBVPxVec3@2@0PEBI@Z 0000000180037940 f   ConvexPolygonsBuilder.obj
 0001:00036eb0       ?createPolygonData@ConvexPolygonsBuilder@physx@@AEAA_NXZ 0000000180037eb0 f   ConvexPolygonsBuilder.obj
 0001:00037e00       ?createTrianglesFromPolygons@ConvexPolygonsBuilder@physx@@AEAA_NXZ 0000000180038e00 f   ConvexPolygonsBuilder.obj
 0001:0003adf0       ??$?4VNamedAllocator@shdfnd@physx@@@?$Array@IVNamedAllocator@shdfnd@physx@@@shdfnd@physx@@QEAAAEAV012@AEBV012@@Z 000000018003bdf0 f i ConvexPolygonsBuilder.obj
 0001:0003ae80       ??$?_UUHullTriangleData@physx@@@@YAPEAX_KV?$ReflectionAllocator@UHullTriangleData@physx@@@shdfnd@physx@@PEBDH@Z 000000018003be80 f i ConvexPolygonsBuilder.obj
 0001:0003aec0       ??$PlaneEquation@U?$TriangleT@I@Gu@physx@@@@YA?AVPxPlane@physx@@AEBU?$TriangleT@I@Gu@1@PEBVPxVec3@1@@Z 000000018003bec0 f i ConvexPolygonsBuilder.obj
 0001:0003af70       ??$copy@VNamedAllocator@shdfnd@physx@@@?$Array@VPair@@VNamedAllocator@shdfnd@physx@@@shdfnd@physx@@IEAAXAEBV012@@Z 000000018003bf70 f i ConvexPolygonsBuilder.obj
 0001:0003b030       ??$swap@E@shdfnd@physx@@YAXAEAE0@Z 000000018003c030 f i ConvexPolygonsBuilder.obj
 0001:0003b070       ??0?$Array@VPair@@VNamedAllocator@shdfnd@physx@@@shdfnd@physx@@QEAA@AEBV012@AEBVNamedAllocator@12@@Z 000000018003c070 f i ConvexPolygonsBuilder.obj
 0001:0003b0b0       ??0?$Array@VPair@@VNamedAllocator@shdfnd@physx@@@shdfnd@physx@@QEAA@AEBVNamedAllocator@12@@Z 000000018003c0b0 f i ConvexPolygonsBuilder.obj
 0001:0003b100       ??0?$ReflectionAllocator@UHullTriangleData@physx@@@shdfnd@physx@@QEAA@PEBD@Z 000000018003c100 f i ConvexPolygonsBuilder.obj
 0001:0003b110       ??0ADJACENCIESCREATE@physx@@QEAA@XZ 000000018003c110 f i ConvexPolygonsBuilder.obj
 0001:0003b160       ??0Pair@@QEAA@II@Z         000000018003c160 f i ConvexPolygonsBuilder.obj
 0001:0003b190       ??1?$Array@VPair@@VNamedAllocator@shdfnd@physx@@@shdfnd@physx@@QEAA@XZ 000000018003c190 f i ConvexPolygonsBuilder.obj
 0001:0003b200       ??1Pair@@QEAA@XZ           000000018003c200 f i ConvexPolygonsBuilder.obj
 0001:0003b210       ??4?$Array@IVNamedAllocator@shdfnd@physx@@@shdfnd@physx@@QEAAAEAV012@AEBV012@@Z 000000018003c210 f i ConvexPolygonsBuilder.obj
 0001:0003b240       ??A?$Array@VPair@@VNamedAllocator@shdfnd@physx@@@shdfnd@physx@@QEAAAEAVPair@@I@Z 000000018003c240 f i ConvexPolygonsBuilder.obj
 0001:0003b2c0       ??_GPair@@QEAAPEAXI@Z      000000018003c2c0 f i ConvexPolygonsBuilder.obj
 0001:0003b320       ?GetAdjTri@AdjTriangle@physx@@QEBAIW4SharedEdgeIndex@2@@Z 000000018003c320 f i ConvexPolygonsBuilder.obj
 0001:0003b340       ?HasActiveEdge@AdjTriangle@physx@@QEBAHI@Z 000000018003c340 f i ConvexPolygonsBuilder.obj
 0001:0003b360       ?allocate@?$Array@VPair@@VNamedAllocator@shdfnd@physx@@@shdfnd@physx@@IEAAPEAVPair@@I@Z 000000018003c360 f i ConvexPolygonsBuilder.obj
 0001:0003b3f0       ?allocate@?$ReflectionAllocator@UHullTriangleData@physx@@@shdfnd@physx@@QEAAPEAX_KPEBDH@Z 000000018003c3f0 f i ConvexPolygonsBuilder.obj
 0001:0003b470       ?begin@?$Array@VPair@@VNamedAllocator@shdfnd@physx@@@shdfnd@physx@@QEAAPEAVPair@@XZ 000000018003c470 f i ConvexPolygonsBuilder.obj
 0001:0003b480       ?begin@?$Array@VPair@@VNamedAllocator@shdfnd@physx@@@shdfnd@physx@@QEBAPEBVPair@@XZ 000000018003c480 f i ConvexPolygonsBuilder.obj
 0001:0003b490       ?capacity@?$Array@VPair@@VNamedAllocator@shdfnd@physx@@@shdfnd@physx@@QEBAIXZ 000000018003c490 f i ConvexPolygonsBuilder.obj
 0001:0003b4b0       ?capacityIncrement@?$Array@VPair@@VNamedAllocator@shdfnd@physx@@@shdfnd@physx@@IEBAIXZ 000000018003c4b0 f i ConvexPolygonsBuilder.obj
 0001:0003b4f0       ?clear@?$Array@IVNamedAllocator@shdfnd@physx@@@shdfnd@physx@@QEAAXXZ 000000018003c4f0 f i ConvexPolygonsBuilder.obj
 0001:0003b530       ?copy@?$Array@VPair@@VNamedAllocator@shdfnd@physx@@@shdfnd@physx@@KAXPEAVPair@@0PEBV4@@Z 000000018003c530 f i ConvexPolygonsBuilder.obj
 0001:0003b5b0       ?deallocate@?$Array@VPair@@VNamedAllocator@shdfnd@physx@@@shdfnd@physx@@IEAAXPEAX@Z 000000018003c5b0 f i ConvexPolygonsBuilder.obj
 0001:0003b5e0       ?destroy@?$Array@VPair@@VNamedAllocator@shdfnd@physx@@@shdfnd@physx@@KAXPEAVPair@@0@Z 000000018003c5e0 f i ConvexPolygonsBuilder.obj
 0001:0003b620       ?empty@?$Array@VPair@@VNamedAllocator@shdfnd@physx@@@shdfnd@physx@@QEBA_NXZ 000000018003c620 f i ConvexPolygonsBuilder.obj
 0001:0003b650       ?end@?$Array@IVNamedAllocator@shdfnd@physx@@@shdfnd@physx@@QEAAPEAIXZ 000000018003c650 f i ConvexPolygonsBuilder.obj
 0001:0003b670       ?find@?$Array@IVNamedAllocator@shdfnd@physx@@@shdfnd@physx@@QEAAPEAIAEBI@Z 000000018003c670 f i ConvexPolygonsBuilder.obj
 0001:0003b6d0       ?flip@?$TriangleT@I@Gu@physx@@QEAAXXZ 000000018003c6d0 f i ConvexPolygonsBuilder.obj
 0001:0003b710       ?forceSize_Unsafe@?$Array@IVNamedAllocator@shdfnd@physx@@@shdfnd@physx@@QEAAXI@Z 000000018003c710 f i ConvexPolygonsBuilder.obj
 0001:0003b790       ?getFaces@ConvexPolygonsBuilder@physx@@QEBAPEBUHullTriangleData@2@XZ 000000018003c790 f i ConvexPolygonsBuilder.obj
 0001:0003b7a0       ?getName@?$ReflectionAllocator@UHullTriangleData@physx@@@shdfnd@physx@@CAPEBDXZ 000000018003c7a0 f i ConvexPolygonsBuilder.obj
 0001:0003b7e0       ?getNbFaces@ConvexPolygonsBuilder@physx@@QEBAIXZ 000000018003c7e0 f i ConvexPolygonsBuilder.obj
 0001:0003b7f0       ?growAndPushBack@?$Array@VPair@@VNamedAllocator@shdfnd@physx@@@shdfnd@physx@@IEAAAEAVPair@@AEBV4@@Z 000000018003c7f0 f i ConvexPolygonsBuilder.obj
 0001:0003b990       ?isInUserMemory@?$Array@VPair@@VNamedAllocator@shdfnd@physx@@@shdfnd@physx@@QEBAIXZ 000000018003c990 f i ConvexPolygonsBuilder.obj
 0001:0003b9b0       ?pushBack@?$Array@VPair@@VNamedAllocator@shdfnd@physx@@@shdfnd@physx@@QEAAAEAVPair@@AEBV4@@Z 000000018003c9b0 f i ConvexPolygonsBuilder.obj
 0001:0003ba70       ?remove@?$Array@IVNamedAllocator@shdfnd@physx@@@shdfnd@physx@@QEAAXI@Z 000000018003ca70 f i ConvexPolygonsBuilder.obj
 0001:0003bb50       ?remove@?$Array@VPair@@VNamedAllocator@shdfnd@physx@@@shdfnd@physx@@QEAAXI@Z 000000018003cb50 f i ConvexPolygonsBuilder.obj
 0001:0003bc70       ?size@?$Array@VPair@@VNamedAllocator@shdfnd@physx@@@shdfnd@physx@@QEBAIXZ 000000018003cc70 f i ConvexPolygonsBuilder.obj
 0001:0003bd00       ??0QuickHullConvexHullLib@physx@@QEAA@AEBVPxConvexMeshDesc@1@AEBUPxCookingParams@1@@Z 000000018003cd00 f   QuickHullConvexHullLib.obj
 0001:0003be00       ??1QuickHullConvexHullLib@physx@@UEAA@XZ 000000018003ce00 f   QuickHullConvexHullLib.obj
 0001:0003bee0       ?createConvexHull@QuickHullConvexHullLib@physx@@UEAA?AW4Enum@PxConvexMeshCookingResult@2@XZ 000000018003cee0 f   QuickHullConvexHullLib.obj
 0001:0003c480       ?fillConvexMeshDesc@QuickHullConvexHullLib@physx@@UEAAXAEAVPxConvexMeshDesc@2@@Z 000000018003d480 f   QuickHullConvexHullLib.obj
 0001:0003c510       ?createEdgeList@QuickHullConvexHullLib@physx@@UEAA_NIPEBEPEAPEAEPEAPEAG2@Z 000000018003d510 f   QuickHullConvexHullLib.obj
 0001:0003ca60       ?expandHullOBB@QuickHullConvexHullLib@physx@@IEAA?AW4Enum@PxConvexMeshCookingResult@2@XZ 000000018003da60 f   QuickHullConvexHullLib.obj
 0001:0003d030       ?expandHull@QuickHullConvexHullLib@physx@@IEAA?AW4Enum@PxConvexMeshCookingResult@2@XZ 000000018003e030 f   QuickHullConvexHullLib.obj
 0001:0003d7c0       ?cleanupForSimplex@QuickHullConvexHullLib@physx@@IEAA_NPEAVPxVec3@2@IPEAUQuickHullVertex@local@@1AEAM2@Z 000000018003e7c0 f   QuickHullConvexHullLib.obj
 0001:0003e240       ?fillConvexMeshDescFromQuickHull@QuickHullConvexHullLib@physx@@IEAAXAEAVPxConvexMeshDesc@2@@Z 000000018003f240 f   QuickHullConvexHullLib.obj
 0001:0003ea20       ?fillConvexMeshDescFromCroppedHull@QuickHullConvexHullLib@physx@@IEAAXAEAVPxConvexMeshDesc@2@@Z 000000018003fa20 f   QuickHullConvexHullLib.obj
 0001:0003efb0       ?getOppositeFaceDistance@QuickHullHalfEdge@local@@QEBAMXZ 000000018003ffb0 f   QuickHullConvexHullLib.obj
 0001:0003f0b0       ?mergeAdjacentFace@QuickHullFace@local@@QEAA_NPEAUQuickHullHalfEdge@2@AEAV?$Array@PEAUQuickHullFace@local@@VNamedAllocator@shdfnd@physx@@@shdfnd@physx@@@Z 00000001800400b0 f   QuickHullConvexHullLib.obj
 0001:0003f330       ?checkFaceConsistency@QuickHullFace@local@@QEAA_NXZ 0000000180040330 f   QuickHullConvexHullLib.obj
 0001:0003f5e0       ?connectHalfEdges@QuickHullFace@local@@AEAAPEAU12@PEAUQuickHullHalfEdge@2@0@Z 00000001800405e0 f   QuickHullConvexHullLib.obj
 0001:0003f760       ??0QuickHull@local@@QEAA@AEBUPxCookingParams@physx@@AEBVPxConvexMeshDesc@3@@Z 0000000180040760 f   QuickHullConvexHullLib.obj
 0001:0003f990       ??1QuickHull@local@@QEAA@XZ 0000000180040990 f   QuickHullConvexHullLib.obj
 0001:0003fa40       ?preallocate@QuickHull@local@@QEAAXI@Z 0000000180040a40 f   QuickHullConvexHullLib.obj
 0001:0003fc00       ?parseInputVertices@QuickHull@local@@QEAAXPEBVPxVec3@physx@@I@Z 0000000180040c00 f   QuickHullConvexHullLib.obj
 0001:0003fd40       ?releaseHull@QuickHull@local@@QEAAXXZ 0000000180040d40 f   QuickHullConvexHullLib.obj
 0001:0003fda0       ?setPrecomputedMinMax@QuickHull@local@@QEAAXPEBUQuickHullVertex@2@0MM@Z 0000000180040da0 f   QuickHullConvexHullLib.obj
 0001:0003fe80       ?buildHull@QuickHull@local@@QEAA?AW4Enum@QuickHullResult@2@XZ 0000000180040e80 f   QuickHullConvexHullLib.obj
 0001:000401b0       ?maxNumVertsPerFace@QuickHull@local@@QEBAIXZ 00000001800411b0 f   QuickHullConvexHullLib.obj
 0001:00040250       ?computeMinMaxVerts@QuickHull@local@@IEAAXXZ 0000000180041250 f   QuickHullConvexHullLib.obj
 0001:000405b0       ?findSimplex@QuickHull@local@@IEAA_NXZ 00000001800415b0 f   QuickHullConvexHullLib.obj
 0001:00040b00       ?addSimplex@QuickHull@local@@IEAAXPEAUQuickHullVertex@2@_N@Z 0000000180041b00 f   QuickHullConvexHullLib.obj
 0001:00041340       ?nextPointToAdd@QuickHull@local@@IEAAPEAUQuickHullVertex@2@AEAPEAUQuickHullFace@2@@Z 0000000180042340 f   QuickHullConvexHullLib.obj
 0001:00041490       ?addPointToHull@QuickHull@local@@IEAA_NPEBUQuickHullVertex@2@AEAUQuickHullFace@2@AEA_N@Z 0000000180042490 f   QuickHullConvexHullLib.obj
 0001:000417d0       ?createTriangle@QuickHull@local@@IEAAPEAUQuickHullFace@2@AEBUQuickHullVertex@2@00@Z 00000001800427d0 f   QuickHullConvexHullLib.obj
 0001:00041910       ?addPointToFace@QuickHull@local@@IEAAXAEAUQuickHullFace@2@PEAUQuickHullVertex@2@M@Z 0000000180042910 f   QuickHullConvexHullLib.obj
 0001:00041a40       ?removeEyePointFromFace@QuickHull@local@@IEAAXAEAUQuickHullFace@2@PEBUQuickHullVertex@2@@Z 0000000180042a40 f   QuickHullConvexHullLib.obj
 0001:00041ae0       ?calculateHorizon@QuickHull@local@@IEAAXAEBVPxVec3@physx@@PEAUQuickHullHalfEdge@2@AEAUQuickHullFace@2@AEAV?$Array@PEAUQuickHullHalfEdge@local@@VNamedAllocator@shdfnd@physx@@@shdfnd@4@AEAV?$Array@PEAUQuickHullFace@local@@VNamedAllocator@shdfnd@physx@@@84@@Z 0000000180042ae0 f   QuickHullConvexHullLib.obj
 0001:00041c90       ?addNewFacesFromHorizon@QuickHull@local@@IEAAXPEBUQuickHullVertex@2@AEBV?$Array@PEAUQuickHullHalfEdge@local@@VNamedAllocator@shdfnd@physx@@@shdfnd@physx@@AEAV?$Array@PEAUQuickHullFace@local@@VNamedAllocator@shdfnd@physx@@@56@@Z 0000000180042c90 f   QuickHullConvexHullLib.obj
 0001:00041e00       ?doAdjacentMerge@QuickHull@local@@IEAA_NAEAUQuickHullFace@2@_NAEA_N@Z 0000000180042e00 f   QuickHullConvexHullLib.obj
 0001:000420e0       ?doPostAdjacentMerge@QuickHull@local@@IEAA_NAEAUQuickHullFace@2@M@Z 00000001800430e0 f   QuickHullConvexHullLib.obj
 0001:00042300       ?deleteFacePoints@QuickHull@local@@IEAAXAEAUQuickHullFace@2@PEAU32@@Z 0000000180043300 f   QuickHullConvexHullLib.obj
 0001:00042430       ?resolveUnclaimedPoints@QuickHull@local@@IEAAXAEBV?$Array@PEAUQuickHullFace@local@@VNamedAllocator@shdfnd@physx@@@shdfnd@physx@@@Z 0000000180043430 f   QuickHullConvexHullLib.obj
 0001:000425a0       ?postMergeHull@QuickHull@local@@IEAAXXZ 00000001800435a0 f   QuickHullConvexHullLib.obj
 0001:00042690       ?canMergeFaces@QuickHull@local@@IEAA_NAEBUQuickHullHalfEdge@2@@Z 0000000180043690 f   QuickHullConvexHullLib.obj
 0001:00042f80       ?getExpandPoint@local@@YAXAEBUQuickHullHalfEdge@1@AEAUExpandPoint@1@PEBV?$Array@IVNamedAllocator@shdfnd@physx@@@shdfnd@physx@@@Z 0000000180043f80 f   QuickHullConvexHullLib.obj
 0001:000431d0       ?addExpandPoint@local@@YAXAEBUExpandPoint@1@AEAV?$Array@UExpandPoint@local@@VNamedAllocator@shdfnd@physx@@@shdfnd@physx@@@Z 00000001800441d0 f   QuickHullConvexHullLib.obj
 0001:00043320       ??$?2V?$ReflectionAllocator@VQuickHull@local@@@shdfnd@physx@@@UserAllocated@shdfnd@physx@@SAPEAX_KV?$ReflectionAllocator@VQuickHull@local@@@12@PEBDH@Z 0000000180044320 f i QuickHullConvexHullLib.obj
 0001:00043360       ??$PX_UNUSED@PEAUQuickHullFace@local@@@@YAXAEBQEAUQuickHullFace@local@@@Z 0000000180044360 f i QuickHullConvexHullLib.obj
 0001:00043370       ??$PX_UNUSED@PEBUQuickHullVertex@local@@@@YAXAEBQEBUQuickHullVertex@local@@@Z 0000000180044370 f i QuickHullConvexHullLib.obj
 0001:00043380       ??0?$Array@PEAUQuickHullFace@local@@VNamedAllocator@shdfnd@physx@@@shdfnd@physx@@QEAA@AEBVNamedAllocator@12@@Z 0000000180044380 f i QuickHullConvexHullLib.obj
 0001:000433d0       ??0?$Array@PEAUQuickHullHalfEdge@local@@VNamedAllocator@shdfnd@physx@@@shdfnd@physx@@QEAA@AEBVNamedAllocator@12@@Z 00000001800443d0 f i QuickHullConvexHullLib.obj
 0001:00043420       ??0?$Array@PEAUQuickHullVertex@local@@VNamedAllocator@shdfnd@physx@@@shdfnd@physx@@QEAA@AEBVNamedAllocator@12@@Z 0000000180044420 f i QuickHullConvexHullLib.obj
 0001:00043470       ??0?$Array@UExpandPoint@local@@VNamedAllocator@shdfnd@physx@@@shdfnd@physx@@QEAA@AEBVNamedAllocator@12@@Z 0000000180044470 f i QuickHullConvexHullLib.obj
 0001:000434c0       ??0?$MemBlock@UQuickHullFace@local@@$00@local@@QEAA@XZ 00000001800444c0 f i QuickHullConvexHullLib.obj
 0001:00043520       ??0?$MemBlock@UQuickHullHalfEdge@local@@$0A@@local@@QEAA@XZ 0000000180044520 f i QuickHullConvexHullLib.obj
 0001:00043580       ??0?$ReflectionAllocator@VQuickHull@local@@@shdfnd@physx@@QEAA@PEBD@Z 0000000180044580 f i QuickHullConvexHullLib.obj
 0001:00043590       ??0?$ScopedPointer@UQuickHullHalfEdge@local@@VTempAllocator@shdfnd@physx@@@shdfnd@physx@@QEAA@XZ 0000000180044590 f i QuickHullConvexHullLib.obj
 0001:000435b0       ??0?$ScopedPointer@VPxVec3@physx@@VTempAllocator@shdfnd@2@@shdfnd@physx@@QEAA@XZ 00000001800445b0 f i QuickHullConvexHullLib.obj
 0001:000435d0       ??0ConvexHullLib@physx@@QEAA@AEBVPxConvexMeshDesc@1@AEBUPxCookingParams@1@@Z 00000001800445d0 f i QuickHullConvexHullLib.obj
 0001:00043650       ??0ExpandPoint@local@@QEAA@AEBU01@@Z 0000000180044650 f i QuickHullConvexHullLib.obj
 0001:000436b0       ??0ExpandPoint@local@@QEAA@XZ 00000001800446b0 f i QuickHullConvexHullLib.obj
 0001:000436f0       ??0PxTransform@physx@@QEAA@XZ 00000001800446f0 f i QuickHullConvexHullLib.obj
 0001:00043730       ??0QuickHullFace@local@@QEAA@I@Z 0000000180044730 f i QuickHullConvexHullLib.obj
 0001:000437f0       ??0QuickHullFace@local@@QEAA@XZ 00000001800447f0 f i QuickHullConvexHullLib.obj
 0001:000438a0       ??0QuickHullHalfEdge@local@@QEAA@I@Z 00000001800448a0 f i QuickHullConvexHullLib.obj
 0001:00043910       ??0QuickHullVertex@local@@QEAA@XZ 0000000180044910 f i QuickHullConvexHullLib.obj
 0001:00043940       ??1?$Array@PEAUQuickHullFace@local@@VNamedAllocator@shdfnd@physx@@@shdfnd@physx@@QEAA@XZ 0000000180044940 f i QuickHullConvexHullLib.obj
 0001:000439b0       ??1?$Array@PEAUQuickHullHalfEdge@local@@VNamedAllocator@shdfnd@physx@@@shdfnd@physx@@QEAA@XZ 00000001800449b0 f i QuickHullConvexHullLib.obj
 0001:00043a20       ??1?$Array@PEAUQuickHullVertex@local@@VNamedAllocator@shdfnd@physx@@@shdfnd@physx@@QEAA@XZ 0000000180044a20 f i QuickHullConvexHullLib.obj
 0001:00043a90       ??1?$Array@UExpandPoint@local@@VNamedAllocator@shdfnd@physx@@@shdfnd@physx@@QEAA@XZ 0000000180044a90 f i QuickHullConvexHullLib.obj
 0001:00043b00       ??1?$Array@VHalfEdge@ConvexHull@physx@@VNamedAllocator@shdfnd@3@@shdfnd@physx@@QEAA@XZ 0000000180044b00 f i QuickHullConvexHullLib.obj
 0001:00043b70       ??1?$Array@VPxPlane@physx@@VNamedAllocator@shdfnd@2@@shdfnd@physx@@QEAA@XZ 0000000180044b70 f i QuickHullConvexHullLib.obj
 0001:00043be0       ??1?$MemBlock@UQuickHullFace@local@@$00@local@@QEAA@XZ 0000000180044be0 f i QuickHullConvexHullLib.obj
 0001:00043c80       ??1?$MemBlock@UQuickHullHalfEdge@local@@$0A@@local@@QEAA@XZ 0000000180044c80 f i QuickHullConvexHullLib.obj
 0001:00043d20       ??1?$ScopedPointer@UQuickHullHalfEdge@local@@VTempAllocator@shdfnd@physx@@@shdfnd@physx@@QEAA@XZ 0000000180044d20 f i QuickHullConvexHullLib.obj
 0001:00043d50       ??1?$ScopedPointer@VPxVec3@physx@@VTempAllocator@shdfnd@2@@shdfnd@physx@@QEAA@XZ 0000000180044d50 f i QuickHullConvexHullLib.obj
 0001:00043d80       ??1ConvexHull@physx@@QEAA@XZ 0000000180044d80 f i QuickHullConvexHullLib.obj
 0001:00043dc0       ??1QuickHullFace@local@@QEAA@XZ 0000000180044dc0 f i QuickHullConvexHullLib.obj
 0001:00043dd0       ??4?$PxFlags@W4Enum@PxConvexFlag@physx@@G@physx@@QEAAAEAV01@AEBV01@@Z 0000000180044dd0 f i QuickHullConvexHullLib.obj
 0001:00043df0       ??4QuickHullVertex@local@@QEAAAEAU01@AEBU01@@Z 0000000180044df0 f i QuickHullConvexHullLib.obj
 0001:00043e50       ??8ExpandPoint@local@@QEBA_NAEBU01@@Z 0000000180044e50 f i QuickHullConvexHullLib.obj
 0001:00043ee0       ??8QuickHullVertex@local@@QEBA_NAEBU01@@Z 0000000180044ee0 f i QuickHullConvexHullLib.obj
 0001:00043f20       ??A?$Array@IVNamedAllocator@shdfnd@physx@@@shdfnd@physx@@QEBAAEBII@Z 0000000180044f20 f i QuickHullConvexHullLib.obj
 0001:00043fa0       ??A?$Array@PEAUQuickHullFace@local@@VNamedAllocator@shdfnd@physx@@@shdfnd@physx@@QEAAAEAPEAUQuickHullFace@local@@I@Z 0000000180044fa0 f i QuickHullConvexHullLib.obj
 0001:00044020       ??A?$Array@PEAUQuickHullFace@local@@VNamedAllocator@shdfnd@physx@@@shdfnd@physx@@QEBAAEBQEAUQuickHullFace@local@@I@Z 0000000180045020 f i QuickHullConvexHullLib.obj
 0001:000440a0       ??A?$Array@PEAUQuickHullHalfEdge@local@@VNamedAllocator@shdfnd@physx@@@shdfnd@physx@@QEAAAEAPEAUQuickHullHalfEdge@local@@I@Z 00000001800450a0 f i QuickHullConvexHullLib.obj
 0001:00044120       ??A?$Array@PEAUQuickHullHalfEdge@local@@VNamedAllocator@shdfnd@physx@@@shdfnd@physx@@QEBAAEBQEAUQuickHullHalfEdge@local@@I@Z 0000000180045120 f i QuickHullConvexHullLib.obj
 0001:000441a0       ??A?$Array@PEAUQuickHullVertex@local@@VNamedAllocator@shdfnd@physx@@@shdfnd@physx@@QEAAAEAPEAUQuickHullVertex@local@@I@Z 00000001800451a0 f i QuickHullConvexHullLib.obj
 0001:00044220       ??A?$Array@UExpandPoint@local@@VNamedAllocator@shdfnd@physx@@@shdfnd@physx@@QEAAAEAUExpandPoint@local@@I@Z 0000000180045220 f i QuickHullConvexHullLib.obj
 0001:000442a0       ??A?$Array@VPxPlane@physx@@VNamedAllocator@shdfnd@2@@shdfnd@physx@@QEAAAEAVPxPlane@2@I@Z 00000001800452a0 f i QuickHullConvexHullLib.obj
 0001:00044320       ??B?$ScopedPointer@UQuickHullHalfEdge@local@@VTempAllocator@shdfnd@physx@@@shdfnd@physx@@QEBAPEAUQuickHullHalfEdge@local@@XZ 0000000180045320 f i QuickHullConvexHullLib.obj
 0001:00044330       ??B?$ScopedPointer@VPxVec3@physx@@VTempAllocator@shdfnd@2@@shdfnd@physx@@QEBAPEAVPxVec3@2@XZ 0000000180045330 f i QuickHullConvexHullLib.obj
 0001:00044340       ??KPxVec3@physx@@QEBA?AV01@M@Z 0000000180045340 f i QuickHullConvexHullLib.obj
 0001:000443c0       ??_GConvexHull@physx@@QEAAPEAXI@Z 00000001800453c0 f i QuickHullConvexHullLib.obj
 0001:00044420       ??_GQuickHull@local@@QEAAPEAXI@Z 0000000180045420 f i QuickHullConvexHullLib.obj
 0001:00044480       ??_EQuickHullConvexHullLib@physx@@UEAAPEAXI@Z 0000000180045480 f i QuickHullConvexHullLib.obj
 0001:00044480       ??_GQuickHullConvexHullLib@physx@@UEAAPEAXI@Z 0000000180045480 f i QuickHullConvexHullLib.obj
 0001:000444e0       ??__G@YAXPEAX0_K1P6APEAX00@Z@Z 00000001800454e0 f i QuickHullConvexHullLib.obj
 0001:00044570       ?allocate@?$Array@PEAUQuickHullFace@local@@VNamedAllocator@shdfnd@physx@@@shdfnd@physx@@IEAAPEAPEAUQuickHullFace@local@@I@Z 0000000180045570 f i QuickHullConvexHullLib.obj
 0001:00044600       ?allocate@?$Array@PEAUQuickHullHalfEdge@local@@VNamedAllocator@shdfnd@physx@@@shdfnd@physx@@IEAAPEAPEAUQuickHullHalfEdge@local@@I@Z 0000000180045600 f i QuickHullConvexHullLib.obj
 0001:00044690       ?allocate@?$Array@PEAUQuickHullVertex@local@@VNamedAllocator@shdfnd@physx@@@shdfnd@physx@@IEAAPEAPEAUQuickHullVertex@local@@I@Z 0000000180045690 f i QuickHullConvexHullLib.obj
 0001:00044720       ?allocate@?$Array@UExpandPoint@local@@VNamedAllocator@shdfnd@physx@@@shdfnd@physx@@IEAAPEAUExpandPoint@local@@I@Z 0000000180045720 f i QuickHullConvexHullLib.obj
 0001:000447b0       ?allocate@?$ReflectionAllocator@VQuickHull@local@@@shdfnd@physx@@QEAAPEAX_KPEBDH@Z 00000001800457b0 f i QuickHullConvexHullLib.obj
 0001:00044830       ?capacity@?$Array@PEAUQuickHullFace@local@@VNamedAllocator@shdfnd@physx@@@shdfnd@physx@@QEBAIXZ 0000000180045830 f i QuickHullConvexHullLib.obj
 0001:00044850       ?capacity@?$Array@PEAUQuickHullHalfEdge@local@@VNamedAllocator@shdfnd@physx@@@shdfnd@physx@@QEBAIXZ 0000000180045850 f i QuickHullConvexHullLib.obj
 0001:00044870       ?capacity@?$Array@PEAUQuickHullVertex@local@@VNamedAllocator@shdfnd@physx@@@shdfnd@physx@@QEBAIXZ 0000000180045870 f i QuickHullConvexHullLib.obj
 0001:00044890       ?capacity@?$Array@UExpandPoint@local@@VNamedAllocator@shdfnd@physx@@@shdfnd@physx@@QEBAIXZ 0000000180045890 f i QuickHullConvexHullLib.obj
 0001:000448b0       ?capacityIncrement@?$Array@PEAUQuickHullFace@local@@VNamedAllocator@shdfnd@physx@@@shdfnd@physx@@IEBAIXZ 00000001800458b0 f i QuickHullConvexHullLib.obj
 0001:000448f0       ?capacityIncrement@?$Array@PEAUQuickHullHalfEdge@local@@VNamedAllocator@shdfnd@physx@@@shdfnd@physx@@IEBAIXZ 00000001800458f0 f i QuickHullConvexHullLib.obj
 0001:00044930       ?capacityIncrement@?$Array@PEAUQuickHullVertex@local@@VNamedAllocator@shdfnd@physx@@@shdfnd@physx@@IEBAIXZ 0000000180045930 f i QuickHullConvexHullLib.obj
 0001:00044970       ?capacityIncrement@?$Array@UExpandPoint@local@@VNamedAllocator@shdfnd@physx@@@shdfnd@physx@@IEBAIXZ 0000000180045970 f i QuickHullConvexHullLib.obj
 0001:000449b0       ?clear@?$Array@PEAUQuickHullFace@local@@VNamedAllocator@shdfnd@physx@@@shdfnd@physx@@QEAAXXZ 00000001800459b0 f i QuickHullConvexHullLib.obj
 0001:000449f0       ?clear@?$Array@PEAUQuickHullHalfEdge@local@@VNamedAllocator@shdfnd@physx@@@shdfnd@physx@@QEAAXXZ 00000001800459f0 f i QuickHullConvexHullLib.obj
 0001:00044a30       ?clear@?$Array@PEAUQuickHullVertex@local@@VNamedAllocator@shdfnd@physx@@@shdfnd@physx@@QEAAXXZ 0000000180045a30 f i QuickHullConvexHullLib.obj
 0001:00044a70       ?computeNormalAndCentroid@QuickHullFace@local@@QEAAXXZ 0000000180045a70 f i QuickHullConvexHullLib.obj
 0001:00044d70       ?copy@?$Array@PEAUQuickHullFace@local@@VNamedAllocator@shdfnd@physx@@@shdfnd@physx@@KAXPEAPEAUQuickHullFace@local@@0PEBQEAU45@@Z 0000000180045d70 f i QuickHullConvexHullLib.obj
 0001:00044df0       ?copy@?$Array@PEAUQuickHullHalfEdge@local@@VNamedAllocator@shdfnd@physx@@@shdfnd@physx@@KAXPEAPEAUQuickHullHalfEdge@local@@0PEBQEAU45@@Z 0000000180045df0 f i QuickHullConvexHullLib.obj
 0001:00044e70       ?copy@?$Array@PEAUQuickHullVertex@local@@VNamedAllocator@shdfnd@physx@@@shdfnd@physx@@KAXPEAPEAUQuickHullVertex@local@@0PEBQEAU45@@Z 0000000180045e70 f i QuickHullConvexHullLib.obj
 0001:00044ef0       ?copy@?$Array@UExpandPoint@local@@VNamedAllocator@shdfnd@physx@@@shdfnd@physx@@KAXPEAUExpandPoint@local@@0PEBU45@@Z 0000000180045ef0 f i QuickHullConvexHullLib.obj
 0001:00044f70       ?deallocate@?$Array@PEAUQuickHullFace@local@@VNamedAllocator@shdfnd@physx@@@shdfnd@physx@@IEAAXPEAX@Z 0000000180045f70 f i QuickHullConvexHullLib.obj
 0001:00044fa0       ?deallocate@?$Array@PEAUQuickHullHalfEdge@local@@VNamedAllocator@shdfnd@physx@@@shdfnd@physx@@IEAAXPEAX@Z 0000000180045fa0 f i QuickHullConvexHullLib.obj
 0001:00044fd0       ?deallocate@?$Array@PEAUQuickHullVertex@local@@VNamedAllocator@shdfnd@physx@@@shdfnd@physx@@IEAAXPEAX@Z 0000000180045fd0 f i QuickHullConvexHullLib.obj
 0001:00045000       ?deallocate@?$Array@UExpandPoint@local@@VNamedAllocator@shdfnd@physx@@@shdfnd@physx@@IEAAXPEAX@Z 0000000180046000 f i QuickHullConvexHullLib.obj
 0001:00045030       ?destroy@?$Array@PEAUQuickHullFace@local@@VNamedAllocator@shdfnd@physx@@@shdfnd@physx@@KAXPEAPEAUQuickHullFace@local@@0@Z 0000000180046030 f i QuickHullConvexHullLib.obj
 0001:00045060       ?destroy@?$Array@PEAUQuickHullHalfEdge@local@@VNamedAllocator@shdfnd@physx@@@shdfnd@physx@@KAXPEAPEAUQuickHullHalfEdge@local@@0@Z 0000000180046060 f i QuickHullConvexHullLib.obj
 0001:00045090       ?destroy@?$Array@PEAUQuickHullVertex@local@@VNamedAllocator@shdfnd@physx@@@shdfnd@physx@@KAXPEAPEAUQuickHullVertex@local@@0@Z 0000000180046090 f i QuickHullConvexHullLib.obj
 0001:000450c0       ?destroy@?$Array@UExpandPoint@local@@VNamedAllocator@shdfnd@physx@@@shdfnd@physx@@KAXPEAUExpandPoint@local@@0@Z 00000001800460c0 f i QuickHullConvexHullLib.obj
 0001:000450f0       ?distanceToPlane@QuickHullFace@local@@QEBAMVPxVec3@physx@@@Z 00000001800460f0 f i QuickHullConvexHullLib.obj
 0001:00045130       ?getEdge@QuickHullFace@local@@QEBAPEAUQuickHullHalfEdge@2@I@Z 0000000180046130 f i QuickHullConvexHullLib.obj
 0001:00045180       ?getFreeHullFace@QuickHull@local@@IEAAPEAUQuickHullFace@2@XZ 0000000180046180 f i QuickHullConvexHullLib.obj
 0001:000451a0       ?getFreeHullHalfEdge@QuickHull@local@@IEAAPEAUQuickHullHalfEdge@2@XZ 00000001800461a0 f i QuickHullConvexHullLib.obj
 0001:000451c0       ?getFreeItem@?$MemBlock@UQuickHullFace@local@@$00@local@@QEAAPEAUQuickHullFace@2@XZ 00000001800461c0 f i QuickHullConvexHullLib.obj
 0001:00045400       ?getFreeItem@?$MemBlock@UQuickHullHalfEdge@local@@$0A@@local@@QEAAPEAUQuickHullHalfEdge@2@XZ 0000000180046400 f i QuickHullConvexHullLib.obj
 0001:00045640       ?getHead@QuickHullHalfEdge@local@@QEBAAEBUQuickHullVertex@2@XZ 0000000180046640 f i QuickHullConvexHullLib.obj
 0001:000456b0       ?getItem@?$MemBlock@UQuickHullFace@local@@$00@local@@QEAAPEAUQuickHullFace@2@I@Z 00000001800466b0 f i QuickHullConvexHullLib.obj
 0001:000457c0       ?getName@?$ReflectionAllocator@VQuickHull@local@@@shdfnd@physx@@CAPEBDXZ 00000001800467c0 f i QuickHullConvexHullLib.obj
 0001:00045800       ?getNbHullVerts@QuickHull@local@@IEAAIXZ 0000000180046800 f i QuickHullConvexHullLib.obj
 0001:00045810       ?getOppositeFace@QuickHullHalfEdge@local@@QEBAPEAUQuickHullFace@2@XZ 0000000180046810 f i QuickHullConvexHullLib.obj
 0001:00045830       ?getTail@QuickHullHalfEdge@local@@QEBAAEBUQuickHullVertex@2@XZ 0000000180046830 f i QuickHullConvexHullLib.obj
 0001:00045840       ?grow@?$Array@PEAUQuickHullFace@local@@VNamedAllocator@shdfnd@physx@@@shdfnd@physx@@IEAAXI@Z 0000000180046840 f i QuickHullConvexHullLib.obj
 0001:000458c0       ?grow@?$Array@PEAUQuickHullHalfEdge@local@@VNamedAllocator@shdfnd@physx@@@shdfnd@physx@@IEAAXI@Z 00000001800468c0 f i QuickHullConvexHullLib.obj
 0001:00045940       ?grow@?$Array@PEAUQuickHullVertex@local@@VNamedAllocator@shdfnd@physx@@@shdfnd@physx@@IEAAXI@Z 0000000180046940 f i QuickHullConvexHullLib.obj
 0001:000459c0       ?grow@?$Array@UExpandPoint@local@@VNamedAllocator@shdfnd@physx@@@shdfnd@physx@@IEAAXI@Z 00000001800469c0 f i QuickHullConvexHullLib.obj
 0001:00045a40       ?growAndPushBack@?$Array@PEAUQuickHullFace@local@@VNamedAllocator@shdfnd@physx@@@shdfnd@physx@@IEAAAEAPEAUQuickHullFace@local@@AEBQEAU45@@Z 0000000180046a40 f i QuickHullConvexHullLib.obj
 0001:00045bd0       ?growAndPushBack@?$Array@PEAUQuickHullHalfEdge@local@@VNamedAllocator@shdfnd@physx@@@shdfnd@physx@@IEAAAEAPEAUQuickHullHalfEdge@local@@AEBQEAU45@@Z 0000000180046bd0 f i QuickHullConvexHullLib.obj
 0001:00045d60       ?growAndPushBack@?$Array@PEAUQuickHullVertex@local@@VNamedAllocator@shdfnd@physx@@@shdfnd@physx@@IEAAAEAPEAUQuickHullVertex@local@@AEBQEAU45@@Z 0000000180046d60 f i QuickHullConvexHullLib.obj
 0001:00045ef0       ?growAndPushBack@?$Array@UExpandPoint@local@@VNamedAllocator@shdfnd@physx@@@shdfnd@physx@@IEAAAEAUExpandPoint@local@@AEBU45@@Z 0000000180046ef0 f i QuickHullConvexHullLib.obj
 0001:00046080       ?init@?$MemBlock@UQuickHullFace@local@@$00@local@@QEAAXI@Z 0000000180047080 f i QuickHullConvexHullLib.obj
 0001:000461b0       ?init@?$MemBlock@UQuickHullHalfEdge@local@@$0A@@local@@QEAAXI@Z 00000001800471b0 f i QuickHullConvexHullLib.obj
 0001:000462e0       ?isInUserMemory@?$Array@PEAUQuickHullFace@local@@VNamedAllocator@shdfnd@physx@@@shdfnd@physx@@QEBAIXZ 00000001800472e0 f i QuickHullConvexHullLib.obj
 0001:00046300       ?isInUserMemory@?$Array@PEAUQuickHullHalfEdge@local@@VNamedAllocator@shdfnd@physx@@@shdfnd@physx@@QEBAIXZ 0000000180047300 f i QuickHullConvexHullLib.obj
 0001:00046320       ?isInUserMemory@?$Array@PEAUQuickHullVertex@local@@VNamedAllocator@shdfnd@physx@@@shdfnd@physx@@QEBAIXZ 0000000180047320 f i QuickHullConvexHullLib.obj
 0001:00046340       ?isInUserMemory@?$Array@UExpandPoint@local@@VNamedAllocator@shdfnd@physx@@@shdfnd@physx@@QEBAIXZ 0000000180047340 f i QuickHullConvexHullLib.obj
 0001:00046360       ?isTriangle@QuickHullFace@local@@AEBA_NXZ 0000000180047360 f i QuickHullConvexHullLib.obj
 0001:00046390       ?pushBack@?$Array@PEAUQuickHullFace@local@@VNamedAllocator@shdfnd@physx@@@shdfnd@physx@@QEAAAEAPEAUQuickHullFace@local@@AEBQEAU45@@Z 0000000180047390 f i QuickHullConvexHullLib.obj
 0001:00046430       ?pushBack@?$Array@PEAUQuickHullHalfEdge@local@@VNamedAllocator@shdfnd@physx@@@shdfnd@physx@@QEAAAEAPEAUQuickHullHalfEdge@local@@AEBQEAU45@@Z 0000000180047430 f i QuickHullConvexHullLib.obj
 0001:000464d0       ?pushBack@?$Array@PEAUQuickHullVertex@local@@VNamedAllocator@shdfnd@physx@@@shdfnd@physx@@QEAAAEAPEAUQuickHullVertex@local@@AEBQEAU45@@Z 00000001800474d0 f i QuickHullConvexHullLib.obj
 0001:00046570       ?pushBack@?$Array@UExpandPoint@local@@VNamedAllocator@shdfnd@physx@@@shdfnd@physx@@QEAAAEAUExpandPoint@local@@AEBU45@@Z 0000000180047570 f i QuickHullConvexHullLib.obj
 0001:00046610       ?recreate@?$Array@PEAUQuickHullFace@local@@VNamedAllocator@shdfnd@physx@@@shdfnd@physx@@IEAAXI@Z 0000000180047610 f i QuickHullConvexHullLib.obj
 0001:00046720       ?recreate@?$Array@PEAUQuickHullHalfEdge@local@@VNamedAllocator@shdfnd@physx@@@shdfnd@physx@@IEAAXI@Z 0000000180047720 f i QuickHullConvexHullLib.obj
 0001:00046830       ?recreate@?$Array@PEAUQuickHullVertex@local@@VNamedAllocator@shdfnd@physx@@@shdfnd@physx@@IEAAXI@Z 0000000180047830 f i QuickHullConvexHullLib.obj
 0001:00046940       ?recreate@?$Array@UExpandPoint@local@@VNamedAllocator@shdfnd@physx@@@shdfnd@physx@@IEAAXI@Z 0000000180047940 f i QuickHullConvexHullLib.obj
 0001:00046a60       ?reserve@?$Array@PEAUQuickHullFace@local@@VNamedAllocator@shdfnd@physx@@@shdfnd@physx@@QEAAXI@Z 0000000180047a60 f i QuickHullConvexHullLib.obj
 0001:00046aa0       ?reserve@?$Array@PEAUQuickHullHalfEdge@local@@VNamedAllocator@shdfnd@physx@@@shdfnd@physx@@QEAAXI@Z 0000000180047aa0 f i QuickHullConvexHullLib.obj
 0001:00046ae0       ?reserve@?$Array@PEAUQuickHullVertex@local@@VNamedAllocator@shdfnd@physx@@@shdfnd@physx@@QEAAXI@Z 0000000180047ae0 f i QuickHullConvexHullLib.obj
 0001:00046b20       ?reserve@?$Array@UExpandPoint@local@@VNamedAllocator@shdfnd@physx@@@shdfnd@physx@@QEAAXI@Z 0000000180047b20 f i QuickHullConvexHullLib.obj
 0001:00046b60       ?reset@?$MemBlock@UQuickHullFace@local@@$00@local@@QEAAXXZ 0000000180047b60 f i QuickHullConvexHullLib.obj
 0001:00046c10       ?reset@?$MemBlock@UQuickHullHalfEdge@local@@$0A@@local@@QEAAXXZ 0000000180047c10 f i QuickHullConvexHullLib.obj
 0001:00046cc0       ?setTwin@QuickHullHalfEdge@local@@QEAAXPEAU12@@Z 0000000180047cc0 f i QuickHullConvexHullLib.obj
 0001:00046cf0       ?size@?$Array@PEAUQuickHullFace@local@@VNamedAllocator@shdfnd@physx@@@shdfnd@physx@@QEBAIXZ 0000000180047cf0 f i QuickHullConvexHullLib.obj
 0001:00046d00       ?size@?$Array@PEAUQuickHullHalfEdge@local@@VNamedAllocator@shdfnd@physx@@@shdfnd@physx@@QEBAIXZ 0000000180047d00 f i QuickHullConvexHullLib.obj
 0001:00046d10       ?size@?$Array@PEAUQuickHullVertex@local@@VNamedAllocator@shdfnd@physx@@@shdfnd@physx@@QEBAIXZ 0000000180047d10 f i QuickHullConvexHullLib.obj
 0001:00046d20       ?size@?$Array@UExpandPoint@local@@VNamedAllocator@shdfnd@physx@@@shdfnd@physx@@QEBAIXZ 0000000180047d20 f i QuickHullConvexHullLib.obj
 0001:00046db0       ?computeVolumeIntegrals@physx@@YA_NAEBVPxSimpleTriangleMesh@1@MAEAUPxIntegrals@1@@Z 0000000180047db0 f   VolumeIntegration.obj
 0001:00046e40       ?computeVolumeIntegralsEberly@physx@@YA_NAEBVPxConvexMeshDesc@1@MAEAUPxIntegrals@1@AEBVPxVec3@1@@Z 0000000180047e40 f   VolumeIntegration.obj
 0001:00046eb0       ?computeVolumeIntegralsEberlySIMD@physx@@YA_NAEBVPxConvexMeshDesc@1@MAEAUPxIntegrals@1@AEBVPxVec3@1@@Z 0000000180047eb0 f   VolumeIntegration.obj
 0001:0004c770       ??$swap@VPxVec3@physx@@@shdfnd@physx@@YAXAEAVPxVec3@1@0@Z 000000018004d770 f i VolumeIntegration.obj
 0001:0004c7c0       ??0PxSimpleTriangleMesh@physx@@QEAA@XZ 000000018004d7c0 f i VolumeIntegration.obj
 0001:0004c810       ??4?$PxFlags@W4Enum@PxMeshFlag@physx@@G@physx@@QEAAAEAV01@AEBV01@@Z 000000018004d810 f i VolumeIntegration.obj
 0001:0004c830       ??4PxSimpleTriangleMesh@physx@@QEAAAEAV01@AEBV01@@Z 000000018004d830 f i VolumeIntegration.obj
 0001:0004c890       ?FAllGrtr@aos@shdfnd@physx@@YAIT__m128@@0@Z 000000018004d890 f i VolumeIntegration.obj
 0001:0004c990       ?V4Cross@aos@shdfnd@physx@@YA?AT__m128@@T4@0@Z 000000018004d990 f i VolumeIntegration.obj
 0001:0004ca90       ?V4Dot3@aos@shdfnd@physx@@YA?AT__m128@@T4@0@Z 000000018004da90 f i VolumeIntegration.obj
 0001:0004cb50       ?V4PermYZXW@aos@shdfnd@physx@@YA?AT__m128@@T4@@Z 000000018004db50 f i VolumeIntegration.obj
 0001:0004cb80       ?V4ScaleInv@aos@shdfnd@physx@@YA?AT__m128@@T4@0@Z 000000018004db80 f i VolumeIntegration.obj
 0001:0004cc20       ?Vec4V_From_PxVec3_WUndefined@aos@shdfnd@physx@@YA?AT__m128@@AEBVPxVec3@3@@Z 000000018004dc20 f i VolumeIntegration.obj
 0001:0004cc70       ?isZero@PxVec3@physx@@QEBA_NXZ 000000018004dc70 f i VolumeIntegration.obj
 0001:0004ccc0       PxSetPhysXCookingDelayLoadHook 000000018004dcc0 f   WindowsCookingDelayLoadHook.obj
 0001:0004cce0       ?cookingDelayHook@@YAP6A_JXZIPEAUDelayLoadInfo@@@Z 000000018004dce0 f   WindowsCookingDelayLoadHook.obj
 0001:0004cd60       ?loadLibrary@Cm@physx@@YAPEAUHINSTANCE__@@PEBD@Z 000000018004dd60 f i WindowsCookingDelayLoadHook.obj
 0001:0004cd80       ?physXCommonDliNotePreLoadLibrary@Cm@physx@@YAP6A_JXZPEBDPEBVPxDelayLoadHook@2@@Z 000000018004dd80 f i WindowsCookingDelayLoadHook.obj
 0001:0004ce0b       ??0RadixSortBuffered@Cm@physx@@QEAA@XZ 000000018004de0b f   PhysXCommon_64:PhysXCommon_64.dll
 0001:0004ce11       __tailMerge_physxcommon_64_dll 000000018004de11     PhysXCommon_64:PhysXCommon_64.dll
 0001:0004ce8a       __imp_load_??0RadixSortBuffered@Cm@physx@@QEAA@XZ 000000018004de8a f   PhysXCommon_64:PhysXCommon_64.dll
 0001:0004ce96       ??1RadixSortBuffered@Cm@physx@@UEAA@XZ 000000018004de96 f   PhysXCommon_64:PhysXCommon_64.dll
 0001:0004ce9c       __imp_load_??1RadixSortBuffered@Cm@physx@@UEAA@XZ 000000018004de9c f   PhysXCommon_64:PhysXCommon_64.dll
 0001:0004cea8       ?Sort@RadixSortBuffered@Cm@physx@@QEAAAEAV123@PEBIIW4RadixHint@23@@Z 000000018004dea8 f   PhysXCommon_64:PhysXCommon_64.dll
 0001:0004ceae       __imp_load_?Sort@RadixSortBuffered@Cm@physx@@QEAAAEAV123@PEBIIW4RadixHint@23@@Z 000000018004deae f   PhysXCommon_64:PhysXCommon_64.dll
 0001:0004ceba       ?readDword@physx@@YAI_NAEAVPxInputStream@1@@Z 000000018004deba f   PhysXCommon_64:PhysXCommon_64.dll
 0001:0004cec0       __imp_load_?readDword@physx@@YAI_NAEAVPxInputStream@1@@Z 000000018004dec0 f   PhysXCommon_64:PhysXCommon_64.dll
 0001:0004cecc       ?ReadHeader@Gu@physx@@YA_NEEEEAEAIAEA_NAEAVPxInputStream@2@@Z 000000018004decc f   PhysXCommon_64:PhysXCommon_64.dll
 0001:0004ced2       __imp_load_?ReadHeader@Gu@physx@@YA_NEEEEAEAIAEA_NAEAVPxInputStream@2@@Z 000000018004ded2 f   PhysXCommon_64:PhysXCommon_64.dll
 0001:0004cede       ??0HeightField@Gu@physx@@QEAA@PEAVGuMeshFactory@2@@Z 000000018004dede f   PhysXCommon_64:PhysXCommon_64.dll
 0001:0004cee4       __imp_load_??0HeightField@Gu@physx@@QEAA@PEAVGuMeshFactory@2@@Z 000000018004dee4 f   PhysXCommon_64:PhysXCommon_64.dll
 0001:0004cef0       ?loadFromDesc@HeightField@Gu@physx@@QEAA_NAEBVPxHeightFieldDesc@3@@Z 000000018004def0 f   PhysXCommon_64:PhysXCommon_64.dll
 0001:0004cef6       __imp_load_?loadFromDesc@HeightField@Gu@physx@@QEAA_NAEBVPxHeightFieldDesc@3@@Z 000000018004def6 f   PhysXCommon_64:PhysXCommon_64.dll
 0001:0004cf02       ?computeCellCoordinates@HeightField@Gu@physx@@QEBAIMMAEAM0@Z 000000018004df02 f   PhysXCommon_64:PhysXCommon_64.dll
 0001:0004cf08       __imp_load_?computeCellCoordinates@HeightField@Gu@physx@@QEBAIMMAEAM0@Z 000000018004df08 f   PhysXCommon_64:PhysXCommon_64.dll
 0001:0004cf14       ?releaseMemory@HeightField@Gu@physx@@QEAAXXZ 000000018004df14 f   PhysXCommon_64:PhysXCommon_64.dll
 0001:0004cf1a       __imp_load_?releaseMemory@HeightField@Gu@physx@@QEAAXXZ 000000018004df1a f   PhysXCommon_64:PhysXCommon_64.dll
 0001:0004cf26       ??1HeightField@Gu@physx@@UEAA@XZ 000000018004df26 f   PhysXCommon_64:PhysXCommon_64.dll
 0001:0004cf2c       __imp_load_??1HeightField@Gu@physx@@UEAA@XZ 000000018004df2c f   PhysXCommon_64:PhysXCommon_64.dll
 0001:0004cf38       ??0NodeAllocator@Gu@physx@@QEAA@XZ 000000018004df38 f   PhysXCommon_64:PhysXCommon_64.dll
 0001:0004cf3e       __imp_load_??0NodeAllocator@Gu@physx@@QEAA@XZ 000000018004df3e f   PhysXCommon_64:PhysXCommon_64.dll
 0001:0004cf4a       ??1NodeAllocator@Gu@physx@@QEAA@XZ 000000018004df4a f   PhysXCommon_64:PhysXCommon_64.dll
 0001:0004cf50       __imp_load_??1NodeAllocator@Gu@physx@@QEAA@XZ 000000018004df50 f   PhysXCommon_64:PhysXCommon_64.dll
 0001:0004cf5c       ?release@NodeAllocator@Gu@physx@@QEAAXXZ 000000018004df5c f   PhysXCommon_64:PhysXCommon_64.dll
 0001:0004cf62       __imp_load_?release@NodeAllocator@Gu@physx@@QEAAXXZ 000000018004df62 f   PhysXCommon_64:PhysXCommon_64.dll
 0001:0004cf6e       ?buildAABBTree@Gu@physx@@YA_NAEAVAABBTreeBuildParams@12@AEAVNodeAllocator@12@AEAUBuildStats@12@AEAPEAI@Z 000000018004df6e f   PhysXCommon_64:PhysXCommon_64.dll
 0001:0004cf74       __imp_load_?buildAABBTree@Gu@physx@@YA_NAEAVAABBTreeBuildParams@12@AEAVNodeAllocator@12@AEAUBuildStats@12@AEAPEAI@Z 000000018004df74 f   PhysXCommon_64:PhysXCommon_64.dll
 0001:0004cf80       ?writeDword@physx@@YAXI_NAEAVPxOutputStream@1@@Z 000000018004df80 f   PhysXCommon_64:PhysXCommon_64.dll
 0001:0004cf86       __imp_load_?writeDword@physx@@YAXI_NAEAVPxOutputStream@1@@Z 000000018004df86 f   PhysXCommon_64:PhysXCommon_64.dll
 0001:0004cf92       ?writeFloatBuffer@physx@@YAXPEBMI_NAEAVPxOutputStream@1@@Z 000000018004df92 f   PhysXCommon_64:PhysXCommon_64.dll
 0001:0004cf98       __imp_load_?writeFloatBuffer@physx@@YAXPEBMI_NAEAVPxOutputStream@1@@Z 000000018004df98 f   PhysXCommon_64:PhysXCommon_64.dll
 0001:0004cfa4       ?writeHeader@physx@@YA_NCCCCI_NAEAVPxOutputStream@1@@Z 000000018004dfa4 f   PhysXCommon_64:PhysXCommon_64.dll
 0001:0004cfaa       __imp_load_?writeHeader@physx@@YA_NCCCCI_NAEAVPxOutputStream@1@@Z 000000018004dfaa f   PhysXCommon_64:PhysXCommon_64.dll
 0001:0004cfb6       ?writeWord@physx@@YAXG_NAEAVPxOutputStream@1@@Z 000000018004dfb6 f   PhysXCommon_64:PhysXCommon_64.dll
 0001:0004cfbc       __imp_load_?writeWord@physx@@YAXG_NAEAVPxOutputStream@1@@Z 000000018004dfbc f   PhysXCommon_64:PhysXCommon_64.dll
 0001:0004cfc8       ?writeFloat@physx@@YAXM_NAEAVPxOutputStream@1@@Z 000000018004dfc8 f   PhysXCommon_64:PhysXCommon_64.dll
 0001:0004cfce       __imp_load_?writeFloat@physx@@YAXM_NAEAVPxOutputStream@1@@Z 000000018004dfce f   PhysXCommon_64:PhysXCommon_64.dll
 0001:0004cfda       ?validate@RTree@Gu@physx@@QEAAXPEAUCallbackRefit@123@@Z 000000018004dfda f   PhysXCommon_64:PhysXCommon_64.dll
 0001:0004cfe0       __imp_load_?validate@RTree@Gu@physx@@QEAAXPEAUCallbackRefit@123@@Z 000000018004dfe0 f   PhysXCommon_64:PhysXCommon_64.dll
 0001:0004cfec       ?computeBoundsAroundVertices@Gu@physx@@YAXAEAVPxBounds3@2@IPEIBVPxVec3@2@@Z 000000018004dfec f   PhysXCommon_64:PhysXCommon_64.dll
 0001:0004cff2       __imp_load_?computeBoundsAroundVertices@Gu@physx@@YAXAEAVPxBounds3@2@IPEIBVPxVec3@2@@Z 000000018004dff2 f   PhysXCommon_64:PhysXCommon_64.dll
 0001:0004cffe       ??0SourceMesh@Gu@physx@@QEAA@XZ 000000018004dffe f   PhysXCommon_64:PhysXCommon_64.dll
 0001:0004d004       __imp_load_??0SourceMesh@Gu@physx@@QEAA@XZ 000000018004e004 f   PhysXCommon_64:PhysXCommon_64.dll
 0001:0004d010       ??1SourceMesh@Gu@physx@@QEAA@XZ 000000018004e010 f   PhysXCommon_64:PhysXCommon_64.dll
 0001:0004d016       __imp_load_??1SourceMesh@Gu@physx@@QEAA@XZ 000000018004e016 f   PhysXCommon_64:PhysXCommon_64.dll
 0001:0004d022       ??0BV4Tree@Gu@physx@@QEAA@XZ 000000018004e022 f   PhysXCommon_64:PhysXCommon_64.dll
 0001:0004d028       __imp_load_??0BV4Tree@Gu@physx@@QEAA@XZ 000000018004e028 f   PhysXCommon_64:PhysXCommon_64.dll
 0001:0004d034       ??1BV4Tree@Gu@physx@@QEAA@XZ 000000018004e034 f   PhysXCommon_64:PhysXCommon_64.dll
 0001:0004d03a       __imp_load_??1BV4Tree@Gu@physx@@QEAA@XZ 000000018004e03a f   PhysXCommon_64:PhysXCommon_64.dll
 0001:0004d046       ??0BV32Tree@Gu@physx@@QEAA@XZ 000000018004e046 f   PhysXCommon_64:PhysXCommon_64.dll
 0001:0004d04c       __imp_load_??0BV32Tree@Gu@physx@@QEAA@XZ 000000018004e04c f   PhysXCommon_64:PhysXCommon_64.dll
 0001:0004d058       ??1BV32Tree@Gu@physx@@QEAA@XZ 000000018004e058 f   PhysXCommon_64:PhysXCommon_64.dll
 0001:0004d05e       __imp_load_??1BV32Tree@Gu@physx@@QEAA@XZ 000000018004e05e f   PhysXCommon_64:PhysXCommon_64.dll
 0001:0004d06a       ?writeWordBuffer@physx@@YAXPEBGI_NAEAVPxOutputStream@1@@Z 000000018004e06a f   PhysXCommon_64:PhysXCommon_64.dll
 0001:0004d070       __imp_load_?writeWordBuffer@physx@@YAXPEBGI_NAEAVPxOutputStream@1@@Z 000000018004e070 f   PhysXCommon_64:PhysXCommon_64.dll
 0001:0004d07c       ?computeMaxIndex@physx@@YAIPEBII@Z 000000018004e07c f   PhysXCommon_64:PhysXCommon_64.dll
 0001:0004d082       __imp_load_?computeMaxIndex@physx@@YAIPEBII@Z 000000018004e082 f   PhysXCommon_64:PhysXCommon_64.dll
 0001:0004d08e       ?storeIndices@physx@@YAXIIPEBIAEAVPxOutputStream@1@_N@Z 000000018004e08e f   PhysXCommon_64:PhysXCommon_64.dll
 0001:0004d094       __imp_load_?storeIndices@physx@@YAXIIPEBIAEAVPxOutputStream@1@_N@Z 000000018004e094 f   PhysXCommon_64:PhysXCommon_64.dll
 0001:0004d0a0       ?BuildBV4Ex@Gu@physx@@YA_NAEAVBV4Tree@12@AEAVSourceMesh@12@MI@Z 000000018004e0a0 f   PhysXCommon_64:PhysXCommon_64.dll
 0001:0004d0a6       __imp_load_?BuildBV4Ex@Gu@physx@@YA_NAEAVBV4Tree@12@AEAVSourceMesh@12@MI@Z 000000018004e0a6 f   PhysXCommon_64:PhysXCommon_64.dll
 0001:0004d0b2       ?BuildBV32Ex@Gu@physx@@YA_NAEAVBV32Tree@12@AEAVSourceMesh@12@MI@Z 000000018004e0b2 f   PhysXCommon_64:PhysXCommon_64.dll
 0001:0004d0b8       __imp_load_?BuildBV32Ex@Gu@physx@@YA_NAEAVBV32Tree@12@AEAVSourceMesh@12@MI@Z 000000018004e0b8 f   PhysXCommon_64:PhysXCommon_64.dll
 0001:0004d0c4       ?computeMaxIndex@physx@@YAGPEBGI@Z 000000018004e0c4 f   PhysXCommon_64:PhysXCommon_64.dll
 0001:0004d0ca       __imp_load_?computeMaxIndex@physx@@YAGPEBGI@Z 000000018004e0ca f   PhysXCommon_64:PhysXCommon_64.dll
 0001:0004d0d6       ?WriteHeader@Gu@physx@@YA_NEEEEI_NAEAVPxOutputStream@2@@Z 000000018004e0d6 f   PhysXCommon_64:PhysXCommon_64.dll
 0001:0004d0dc       __imp_load_?WriteHeader@Gu@physx@@YA_NEEEEI_NAEAVPxOutputStream@2@@Z 000000018004e0dc f   PhysXCommon_64:PhysXCommon_64.dll
 0001:0004d0e8       ?StoreIndices@Gu@physx@@YAXGIPEBGAEAVPxOutputStream@2@_N@Z 000000018004e0e8 f   PhysXCommon_64:PhysXCommon_64.dll
 0001:0004d0ee       __imp_load_?StoreIndices@Gu@physx@@YAXGIPEBGAEAVPxOutputStream@2@_N@Z 000000018004e0ee f   PhysXCommon_64:PhysXCommon_64.dll
 0001:0004d0fa       ?CreateOffsets@BigConvexData@physx@@IEAAXXZ 000000018004e0fa f   PhysXCommon_64:PhysXCommon_64.dll
 0001:0004d100       __imp_load_?CreateOffsets@BigConvexData@physx@@IEAAXXZ 000000018004e100 f   PhysXCommon_64:PhysXCommon_64.dll
 0001:0004d10c       ?computeOBBPoints@Gu@physx@@YAXPEIAVPxVec3@2@AEBV32@1111@Z 000000018004e10c f   PhysXCommon_64:PhysXCommon_64.dll
 0001:0004d112       __imp_load_?computeOBBPoints@Gu@physx@@YAXPEIAVPxVec3@2@AEBV32@1111@Z 000000018004e112 f   PhysXCommon_64:PhysXCommon_64.dll
 0001:0004d11e       ??0BigConvexData@physx@@QEAA@XZ 000000018004e11e f   PhysXCommon_64:PhysXCommon_64.dll
 0001:0004d124       __imp_load_??0BigConvexData@physx@@QEAA@XZ 000000018004e124 f   PhysXCommon_64:PhysXCommon_64.dll
 0001:0004d130       ??1BigConvexData@physx@@QEAA@XZ 000000018004e130 f   PhysXCommon_64:PhysXCommon_64.dll
 0001:0004d136       __imp_load_??1BigConvexData@physx@@QEAA@XZ 000000018004e136 f   PhysXCommon_64:PhysXCommon_64.dll
 0001:0004d142       ?PxGetAssertHandler@physx@@YAAEAVPxAssertHandler@1@XZ 000000018004e142 f   PhysXFoundation_64:PhysXFoundation_64.dll
 0001:0004d148       __tailMerge_physxfoundation_64_dll 000000018004e148     PhysXFoundation_64:PhysXFoundation_64.dll
 0001:0004d1c1       __imp_load_?PxGetAssertHandler@physx@@YAAEAVPxAssertHandler@1@XZ 000000018004e1c1 f   PhysXFoundation_64:PhysXFoundation_64.dll
 0001:0004d1cd       PxGetFoundation            000000018004e1cd f   PhysXFoundation_64:PhysXFoundation_64.dll
 0001:0004d1d3       __imp_load_PxGetFoundation 000000018004e1d3 f   PhysXFoundation_64:PhysXFoundation_64.dll
 0001:0004d1df       ?getAllocator@shdfnd@physx@@YAAEAVPxAllocatorCallback@2@XZ 000000018004e1df f   PhysXFoundation_64:PhysXFoundation_64.dll
 0001:0004d1e5       __imp_load_?getAllocator@shdfnd@physx@@YAAEAVPxAllocatorCallback@2@XZ 000000018004e1e5 f   PhysXFoundation_64:PhysXFoundation_64.dll
 0001:0004d1f1       ??0NamedAllocator@shdfnd@physx@@QEAA@PEBD@Z 000000018004e1f1 f   PhysXFoundation_64:PhysXFoundation_64.dll
 0001:0004d1f7       __imp_load_??0NamedAllocator@shdfnd@physx@@QEAA@PEBD@Z 000000018004e1f7 f   PhysXFoundation_64:PhysXFoundation_64.dll
 0001:0004d203       ?getInstance@Foundation@shdfnd@physx@@SAAEAV123@XZ 000000018004e203 f   PhysXFoundation_64:PhysXFoundation_64.dll
 0001:0004d209       __imp_load_?getInstance@Foundation@shdfnd@physx@@SAAEAV123@XZ 000000018004e209 f   PhysXFoundation_64:PhysXFoundation_64.dll
 0001:0004d215       ?error@Foundation@shdfnd@physx@@QEAAXW4Enum@PxErrorCode@3@PEBDH1ZZ 000000018004e215 f   PhysXFoundation_64:PhysXFoundation_64.dll
 0001:0004d21b       __imp_load_?error@Foundation@shdfnd@physx@@QEAAXW4Enum@PxErrorCode@3@PEBDH1ZZ 000000018004e21b f   PhysXFoundation_64:PhysXFoundation_64.dll
 0001:0004d227       ?allocate@NamedAllocator@shdfnd@physx@@QEAAPEAX_KPEBDH@Z 000000018004e227 f   PhysXFoundation_64:PhysXFoundation_64.dll
 0001:0004d22d       __imp_load_?allocate@NamedAllocator@shdfnd@physx@@QEAAPEAX_KPEBDH@Z 000000018004e22d f   PhysXFoundation_64:PhysXFoundation_64.dll
 0001:0004d239       ?deallocate@NamedAllocator@shdfnd@physx@@QEAAXPEAX@Z 000000018004e239 f   PhysXFoundation_64:PhysXFoundation_64.dll
 0001:0004d23f       __imp_load_?deallocate@NamedAllocator@shdfnd@physx@@QEAAXPEAX@Z 000000018004e23f f   PhysXFoundation_64:PhysXFoundation_64.dll
 0001:0004d24b       ?incRefCount@Foundation@shdfnd@physx@@SAXXZ 000000018004e24b f   PhysXFoundation_64:PhysXFoundation_64.dll
 0001:0004d251       __imp_load_?incRefCount@Foundation@shdfnd@physx@@SAXXZ 000000018004e251 f   PhysXFoundation_64:PhysXFoundation_64.dll
 0001:0004d25d       ?decRefCount@Foundation@shdfnd@physx@@SAXXZ 000000018004e25d f   PhysXFoundation_64:PhysXFoundation_64.dll
 0001:0004d263       __imp_load_?decRefCount@Foundation@shdfnd@physx@@SAXXZ 000000018004e263 f   PhysXFoundation_64:PhysXFoundation_64.dll
 0001:0004d26f       ??0FPUGuard@shdfnd@physx@@QEAA@XZ 000000018004e26f f   PhysXFoundation_64:PhysXFoundation_64.dll
 0001:0004d275       __imp_load_??0FPUGuard@shdfnd@physx@@QEAA@XZ 000000018004e275 f   PhysXFoundation_64:PhysXFoundation_64.dll
 0001:0004d281       ??1FPUGuard@shdfnd@physx@@QEAA@XZ 000000018004e281 f   PhysXFoundation_64:PhysXFoundation_64.dll
 0001:0004d287       __imp_load_??1FPUGuard@shdfnd@physx@@QEAA@XZ 000000018004e287 f   PhysXFoundation_64:PhysXFoundation_64.dll
 0001:0004d293       ??1NamedAllocator@shdfnd@physx@@QEAA@XZ 000000018004e293 f   PhysXFoundation_64:PhysXFoundation_64.dll
 0001:0004d299       __imp_load_??1NamedAllocator@shdfnd@physx@@QEAA@XZ 000000018004e299 f   PhysXFoundation_64:PhysXFoundation_64.dll
 0001:0004d2a5       ??0NamedAllocator@shdfnd@physx@@QEAA@AEBV012@@Z 000000018004e2a5 f   PhysXFoundation_64:PhysXFoundation_64.dll
 0001:0004d2ab       __imp_load_??0NamedAllocator@shdfnd@physx@@QEAA@AEBV012@@Z 000000018004e2ab f   PhysXFoundation_64:PhysXFoundation_64.dll
 0001:0004d2b7       ?allocate@TempAllocator@shdfnd@physx@@QEAAPEAX_KPEBDH@Z 000000018004e2b7 f   PhysXFoundation_64:PhysXFoundation_64.dll
 0001:0004d2bd       __imp_load_?allocate@TempAllocator@shdfnd@physx@@QEAAPEAX_KPEBDH@Z 000000018004e2bd f   PhysXFoundation_64:PhysXFoundation_64.dll
 0001:0004d2c9       ?deallocate@TempAllocator@shdfnd@physx@@QEAAXPEAX@Z 000000018004e2c9 f   PhysXFoundation_64:PhysXFoundation_64.dll
 0001:0004d2cf       __imp_load_?deallocate@TempAllocator@shdfnd@physx@@QEAAXPEAX@Z 000000018004e2cf f   PhysXFoundation_64:PhysXFoundation_64.dll
 0001:0004d2db       ?PxDiagonalize@physx@@YA?AVPxVec3@1@AEBVPxMat33@1@AEAVPxQuat@1@@Z 000000018004e2db f   PhysXFoundation_64:PhysXFoundation_64.dll
 0001:0004d2e1       __imp_load_?PxDiagonalize@physx@@YA?AVPxVec3@1@AEBVPxMat33@1@AEAVPxQuat@1@@Z 000000018004e2e1 f   PhysXFoundation_64:PhysXFoundation_64.dll
 0001:0004d2ed       LoadLibraryA               000000018004e2ed f   kernel32:KERNEL32.dll
 0001:0004d4fc       ??$PFromRva@PEAP6A_JXZ@@YAPEAP6A_JXZK@Z 000000018004e4fc f i Delayimp:delayhlp.obj
 0001:0004d50c       ??$PFromRva@PEAPEAUHINSTANCE__@@@@YAPEAPEAUHINSTANCE__@@K@Z 000000018004e50c f i Delayimp:delayhlp.obj
 0001:0004d51c       ??$PFromRva@PEAU_IMAGE_IMPORT_BY_NAME@@@@YAPEAU_IMAGE_IMPORT_BY_NAME@@K@Z 000000018004e51c f i Delayimp:delayhlp.obj
 0001:0004d52c       ??$PFromRva@PEAU_IMAGE_THUNK_DATA64@@@@YAPEAU_IMAGE_THUNK_DATA64@@K@Z 000000018004e52c f i Delayimp:delayhlp.obj
 0001:0004d53c       ??$PFromRva@PEBD@@YAPEBDK@Z 000000018004e53c f i Delayimp:delayhlp.obj
 0001:0004d54c       ??$PFromRva@PEBUImgDelayDescr@@@@YAPEBUImgDelayDescr@@K@Z 000000018004e54c f i Delayimp:delayhlp.obj
 0001:0004d55c       ??$PFromRva@PEBU_IMAGE_THUNK_DATA64@@@@YAPEBU_IMAGE_THUNK_DATA64@@K@Z 000000018004e55c f i Delayimp:delayhlp.obj
 0001:0004d5d0       ?CountOfImports@@YAIPEBU_IMAGE_THUNK_DATA64@@@Z 000000018004e5d0 f i Delayimp:delayhlp.obj
 0001:0004d5e4       ?DloadAcquireSectionWriteAccess@@YAXXZ 000000018004e5e4 f i Delayimp:delayhlp.obj
 0001:0004d6a0       ?DloadGetSRWLockFunctionPointers@@YAEXZ 000000018004e6a0 f i Delayimp:delayhlp.obj
 0001:0004d740       ?DloadLock@@YAXXZ          000000018004e740 f i Delayimp:delayhlp.obj
 0001:0004d788       ?DloadMakePermanentImageCommit@@YAXPEAX_K@Z 000000018004e788 f i Delayimp:delayhlp.obj
 0001:0004d820       ?DloadObtainSection@@YAPEAXPEAK0@Z 000000018004e820 f i Delayimp:delayhlp.obj
 0001:0004d8bc       ?DloadProtectSection@@YAXPEAX_KKPEAK@Z 000000018004e8bc f i Delayimp:delayhlp.obj
 0001:0004d9b4       ?DloadReleaseSectionWriteAccess@@YAXXZ 000000018004e9b4 f i Delayimp:delayhlp.obj
 0001:0004da60       ?DloadUnlock@@YAXXZ        000000018004ea60 f i Delayimp:delayhlp.obj
 0001:0004daa0       ?IndexFromPImgThunkData@@YAIPEBU_IMAGE_THUNK_DATA64@@0@Z 000000018004eaa0 f i Delayimp:delayhlp.obj
 0001:0004daac       ?IsBufferInBounds@@YAEPEAX_K01@Z 000000018004eaac f i Delayimp:delayhlp.obj
 0001:0004dbd0       HRESULT_FROM_WIN32         000000018004ebd0 f i Delayimp:delayhlp.obj
 0001:0004dbe0       ReadAcquire64              000000018004ebe0 f i Delayimp:delayhlp.obj
 0001:0004dbe4       ReadPointerAcquire         000000018004ebe4 f i Delayimp:delayhlp.obj
 0001:0004dbe8       WritePointerRelease        000000018004ebe8 f i Delayimp:delayhlp.obj
 0001:0004dbec       WriteRelease64             000000018004ebec f i Delayimp:delayhlp.obj
 0001:0004dbf0       __FUnloadDelayLoadedDLL2   000000018004ebf0 f   Delayimp:delayhlp.obj
 0001:0004dca8       __HrLoadAllImportsForDll   000000018004eca8 f   Delayimp:delayhlp.obj
 0001:0004dd1c       __delayLoadHelper2         000000018004ed1c f   Delayimp:delayhlp.obj
 0001:0004e020       ??3@YAXPEAX_K@Z            000000018004f020 f   LIBCMTD:delete_scalar_size.obj
 0001:0004e040       ??_V@YAXPEAX_K@Z           000000018004f040 f   LIBCMTD:delete_array_size.obj
 0001:0004e060       _CRT_RTC_INIT              000000018004f060 f   LIBCMTD:init.obj
 0001:0004e070       _CRT_RTC_INITW             000000018004f070 f   LIBCMTD:init.obj
 0001:0004e080       _RTC_InitBase              000000018004f080 f   LIBCMTD:init.obj
 0001:0004e0c0       _RTC_Shutdown              000000018004f0c0 f   LIBCMTD:init.obj
 0001:0004e0f0       ??1type_info@@UEAA@XZ      000000018004f0f0 f   LIBCMTD:std_type_info_static.obj
 0001:0004e110       ??_Etype_info@@UEAAPEAXI@Z 000000018004f110 f i LIBCMTD:std_type_info_static.obj
 0001:0004e110       ??_Gtype_info@@UEAAPEAXI@Z 000000018004f110 f i LIBCMTD:std_type_info_static.obj
 0001:0004e150       ?__scrt_initialize_type_info@@YAXXZ 000000018004f150 f   LIBCMTD:tncleanup.obj
 0001:0004e170       ?__scrt_uninitialize_type_info@@YAXXZ 000000018004f170 f   LIBCMTD:tncleanup.obj
 0001:0004e1a0       __chkstk                   000000018004f1a0 f   LIBCMTD:chkstk.obj
 0001:0004e1a0       _alloca_probe              000000018004f1a0 f   LIBCMTD:chkstk.obj
 0001:0004e1f0       ??3@YAXPEAX@Z              000000018004f1f0 f   LIBCMTD:delete_scalar.obj
 0001:0004e210       ??_V@YAXPEAX@Z             000000018004f210 f   LIBCMTD:delete_array.obj
 0001:0004e640       _CRT_INIT                  000000018004f640 f   LIBCMTD:dll_dllmain.obj
 0001:0004e670       _DllMainCRTStartup         000000018004f670 f   LIBCMTD:dll_dllmain.obj
 0001:0004e6b0       _guard_check_icall_nop     000000018004f6b0 f i LIBCMTD:guard_support.obj
 0001:0004e6c0       ReadNoFence64              000000018004f6c0 f i LIBCMTD:guard_support.obj
 0001:0004e6e0       ReadPointerNoFence         000000018004f6e0 f i LIBCMTD:guard_support.obj
 0001:0004e700       __castguard_check_failure_debugbreak 000000018004f700 f i LIBCMTD:guard_support.obj
 0001:0004e720       __castguard_check_failure_fastfail 000000018004f720 f i LIBCMTD:guard_support.obj
 0001:0004e750       __castguard_check_failure_nop 000000018004f750 f i LIBCMTD:guard_support.obj
 0001:0004e760       __castguard_check_failure_os_handled 000000018004f760 f i LIBCMTD:guard_support.obj
 0001:0004e7d0       __castguard_check_failure_user_handled 000000018004f7d0 f i LIBCMTD:guard_support.obj
 0001:0004e8c0       __castguard_set_user_handler 000000018004f8c0 f i LIBCMTD:guard_support.obj
 0001:0004e8f0       __castguard_slow_path_check_debugbreak 000000018004f8f0 f i LIBCMTD:guard_support.obj
 0001:0004e930       __castguard_slow_path_check_fastfail 000000018004f930 f i LIBCMTD:guard_support.obj
 0001:0004e980       __castguard_slow_path_check_nop 000000018004f980 f i LIBCMTD:guard_support.obj
 0001:0004e990       __castguard_slow_path_check_os_handled 000000018004f990 f i LIBCMTD:guard_support.obj
 0001:0004e9e0       __castguard_slow_path_check_user_handled 000000018004f9e0 f i LIBCMTD:guard_support.obj
 0001:0004eaa0       _guard_icall_checks_enforced 000000018004faa0 f i LIBCMTD:guard_support.obj
 0001:0004eae0       _guard_rf_checks_enforced  000000018004fae0 f i LIBCMTD:guard_support.obj
 0001:0004eaf0       ?_RTC_GetErrorFunc@@YAP6AHHPEBDH00ZZPEBX@Z 000000018004faf0 f   LIBCMTD:userapi.obj
 0001:0004eb00       ?_RTC_GetErrorFuncW@@YAP6AHHPEB_WH00ZZPEBX@Z 000000018004fb00 f   LIBCMTD:userapi.obj
 0001:0004eb10       _RTC_GetErrDesc            000000018004fb10 f   LIBCMTD:userapi.obj
 0001:0004eb30       _RTC_NumErrors             000000018004fb30 f   LIBCMTD:userapi.obj
 0001:0004eb40       _RTC_SetErrorFunc          000000018004fb40 f   LIBCMTD:userapi.obj
 0001:0004eb60       _RTC_SetErrorFuncW         000000018004fb60 f   LIBCMTD:userapi.obj
 0001:0004eb80       _RTC_SetErrorType          000000018004fb80 f   LIBCMTD:userapi.obj
 0001:0004ec60       __security_init_cookie     000000018004fc60 f   LIBCMTD:gs_support.obj
 0001:0004ece0       DllMain                    000000018004fce0 f   LIBCMTD:dll_dllmain_stub.obj
 0001:0004ed00       __local_stdio_printf_options 000000018004fd00 f i LIBCMTD:default_local_stdio_options.obj
 0001:0004ed10       __local_stdio_scanf_options 000000018004fd10 f i LIBCMTD:default_local_stdio_options.obj
 0001:0004ed20       __scrt_initialize_default_local_stdio_options 000000018004fd20 f   LIBCMTD:default_local_stdio_options.obj
 0001:0004ed70       ?configure_argv@__scrt_narrow_argv_policy@@SAHXZ 000000018004fd70 f i LIBCMTD:utility.obj
 0001:0004ee60       ?initialize_environment@__scrt_narrow_environment_policy@@SAHXZ 000000018004fe60 f i LIBCMTD:utility.obj
 0001:0004ef00       NtCurrentTeb               000000018004ff00 f i LIBCMTD:utility.obj
 0001:0004ef10       __scrt_acquire_startup_lock 000000018004ff10 f   LIBCMTD:utility.obj
 0001:0004ef80       __scrt_dllmain_after_initialize_c 000000018004ff80 f   LIBCMTD:utility.obj
 0001:0004efb0       __scrt_dllmain_before_initialize_c 000000018004ffb0 f   LIBCMTD:utility.obj
 0001:0004efd0       __scrt_dllmain_crt_thread_attach 000000018004ffd0 f   LIBCMTD:utility.obj
 0001:0004f000       __scrt_dllmain_crt_thread_detach 0000000180050000 f   LIBCMTD:utility.obj
 0001:0004f020       __scrt_dllmain_exception_filter 0000000180050020 f   LIBCMTD:utility.obj
 0001:0004f090       __scrt_dllmain_uninitialize_c 0000000180050090 f   LIBCMTD:utility.obj
 0001:0004f0c0       __scrt_dllmain_uninitialize_critical 00000001800500c0 f   LIBCMTD:utility.obj
 0001:0004f0e0       __scrt_initialize_crt      00000001800500e0 f   LIBCMTD:utility.obj
 0001:0004f130       __scrt_initialize_onexit_tables 0000000180050130 f   LIBCMTD:utility.obj
 0001:0004f240       __scrt_is_nonwritable_in_current_image 0000000180050240 f   LIBCMTD:utility.obj
 0001:0004f2d0       __scrt_release_startup_lock 00000001800502d0 f   LIBCMTD:utility.obj
 0001:0004f300       __scrt_uninitialize_crt    0000000180050300 f   LIBCMTD:utility.obj
 0001:0004f340       _onexit                    0000000180050340 f   LIBCMTD:utility.obj
 0001:0004f3c0       at_quick_exit              00000001800503c0 f   LIBCMTD:utility.obj
 0001:0004f410       atexit                     0000000180050410 f   LIBCMTD:utility.obj
 0001:0004f450       __scrt_get_dyn_tls_init_callback 0000000180050450 f   LIBCMTD:dyn_tls_init.obj
 0001:0004f460       __crt_debugger_hook        0000000180050460 f   LIBCMTD:utility_desktop.obj
 0001:0004f470       __scrt_fastfail            0000000180050470 f   LIBCMTD:utility_desktop.obj
 0001:0004f610       __scrt_get_show_window_mode 0000000180050610 f   LIBCMTD:utility_desktop.obj
 0001:0004f670       __scrt_initialize_mta      0000000180050670 f   LIBCMTD:utility_desktop.obj
 0001:0004f680       __scrt_initialize_winrt    0000000180050680 f   LIBCMTD:utility_desktop.obj
 0001:0004f690       __scrt_is_managed_app      0000000180050690 f   LIBCMTD:utility_desktop.obj
 0001:0004f740       __scrt_set_unhandled_exception_filter 0000000180050740 f   LIBCMTD:utility_desktop.obj
 0001:0004f760       __scrt_exe_initialize_mta  0000000180050760 f   LIBCMTD:utility_desktop.obj
 0001:0004f760       __scrt_stub_for_initialize_mta 0000000180050760 f   LIBCMTD:utility_desktop.obj
 0001:0004f770       __scrt_unhandled_exception_filter 0000000180050770 f   LIBCMTD:utility_desktop.obj
 0001:0004f810       _RTC_Initialize            0000000180050810 f   LIBCMTD:initsect.obj
 0001:0004f860       _RTC_Terminate             0000000180050860 f   LIBCMTD:initsect.obj
 0001:0004f940       ?_RTC_AllocaFailure@@YAXPEAXPEAU_RTC_ALLOCA_NODE@@H@Z 0000000180050940 f   LIBCMTD:error.obj
 0001:0004faa0       ?_RTC_Failure@@YAXPEAXH@Z  0000000180050aa0 f   LIBCMTD:error.obj
 0001:0004faf0       ?_RTC_StackFailure@@YAXPEAXPEBD@Z 0000000180050af0 f   LIBCMTD:error.obj
 0001:0004ff40       _RTC_UninitUse             0000000180050f40 f   LIBCMTD:error.obj
 0001:00050010       _vsprintf_s_l              0000000180051010 f i LIBCMTD:error.obj
 0001:00050080       sprintf_s                  0000000180051080 f i LIBCMTD:error.obj
 0001:000500b0       __isa_available_init       00000001800510b0 f   LIBCMTD:cpu_disp.obj
 0001:000505a0       _get_startup_argv_mode     00000001800515a0 f   LIBCMTD:argv_mode.obj
 0001:000505b0       __scrt_is_ucrt_dll_in_use  00000001800515b0 f   LIBCMTD:ucrt_detection.obj
 0001:00050b00       ?_RTC_GetSrcLine@@YAHPEAEPEA_WKPEAH1K@Z 0000000180051b00 f   LIBCMTD:pdblkup.obj
 0001:00050ed0       __GSHandlerCheck           0000000180051ed0 f   LIBCMTD:gshandler.obj
 0001:00050f10       __GSHandlerCheckCommon     0000000180051f10 f   LIBCMTD:gshandler.obj
 0001:00051020       __security_check_cookie    0000000180052020 f   LIBCMTD:amdsecgs.obj
 0001:00051040       __raise_securityfailure    0000000180052040 f   LIBCMTD:gs_report.obj
 0001:00051080       __report_gsfailure         0000000180052080 f   LIBCMTD:gs_report.obj
 0001:00051160       __report_rangecheckfailure 0000000180052160 f   LIBCMTD:gs_report.obj
 0001:00051180       __report_securityfailure   0000000180052180 f   LIBCMTD:gs_report.obj
 0001:00051220       __report_securityfailureEx 0000000180052220 f   LIBCMTD:gs_report.obj
 0001:00051490       ??$__crt_interlocked_exchange_pointer@$$A6AXXZP6AXXZ@@YAP6AXXZPEDS6AXXZQ6AXXZ@Z 0000000180052490 f i libvcruntimed:purevirt.obj
 0001:000514b0       ??$__crt_interlocked_read_pointer@$$A6AXXZ@@YAP6AXXZPEDS6AXXZ@Z 00000001800524b0 f i libvcruntimed:purevirt.obj
 0001:000514d0       ?__crt_interlocked_read_64@@YA_JPED_J@Z 00000001800524d0 f i libvcruntimed:purevirt.obj
 0001:000514f0       _get_purecall_handler      00000001800524f0 f   libvcruntimed:purevirt.obj
 0001:00051510       _purecall                  0000000180052510 f   libvcruntimed:purevirt.obj
 0001:00051550       _set_purecall_handler      0000000180052550 f   libvcruntimed:purevirt.obj
 0001:000515b0       ??$?RD@__crt_internal_free_policy@@QEBAXQEBD@Z 00000001800525b0 f i libvcruntimed:std_type_info.obj
 0001:000515e0       ??$?RX@__crt_internal_free_policy@@QEBAXQEBX@Z 00000001800525e0 f i libvcruntimed:std_type_info.obj
 0001:00051610       ??$__crt_interlocked_compare_exchange_pointer@$$CBDPEAD$$T@@YAPEBDPEDSEBDQEAD$$T@Z 0000000180052610 f i libvcruntimed:std_type_info.obj
 0001:00051650       ??$__crt_interlocked_read_pointer@$$CBD@@YAPEBDPEDSEBD@Z 0000000180052650 f i libvcruntimed:std_type_info.obj
 0001:00051670       ??0?$__crt_unique_heap_ptr@DU__crt_internal_free_policy@@@@QEAA@QEAD@Z 0000000180052670 f i libvcruntimed:std_type_info.obj
 0001:00051690       ??0?$__crt_unique_heap_ptr@XU__crt_internal_free_policy@@@@QEAA@QEAX@Z 0000000180052690 f i libvcruntimed:std_type_info.obj
 0001:000516b0       ??1?$__crt_unique_heap_ptr@DU__crt_internal_free_policy@@@@QEAA@XZ 00000001800526b0 f i libvcruntimed:std_type_info.obj
 0001:000516d0       ??1?$__crt_unique_heap_ptr@XU__crt_internal_free_policy@@@@QEAA@XZ 00000001800526d0 f i libvcruntimed:std_type_info.obj
 0001:000516f0       ??B?$__crt_unique_heap_ptr@DU__crt_internal_free_policy@@@@QEBA_NXZ 00000001800526f0 f i libvcruntimed:std_type_info.obj
 0001:00051710       ??B?$__crt_unique_heap_ptr@XU__crt_internal_free_policy@@@@QEBA_NXZ 0000000180052710 f i libvcruntimed:std_type_info.obj
 0001:00051790       ?detach@?$__crt_unique_heap_ptr@XU__crt_internal_free_policy@@@@QEAAPEAXXZ 0000000180052790 f i libvcruntimed:std_type_info.obj
 0001:000517c0       ?get@?$__crt_unique_heap_ptr@DU__crt_internal_free_policy@@@@QEBAPEADXZ 00000001800527c0 f i libvcruntimed:std_type_info.obj
 0001:000517d0       ?get@?$__crt_unique_heap_ptr@XU__crt_internal_free_policy@@@@QEBAPEAXXZ 00000001800527d0 f i libvcruntimed:std_type_info.obj
 0001:000517e0       ?is_valid@?$__crt_unique_heap_ptr@DU__crt_internal_free_policy@@@@QEBA_NXZ 00000001800527e0 f i libvcruntimed:std_type_info.obj
 0001:00051810       ?is_valid@?$__crt_unique_heap_ptr@XU__crt_internal_free_policy@@@@QEBA_NXZ 0000000180052810 f i libvcruntimed:std_type_info.obj
 0001:00051840       ?release@?$__crt_unique_heap_ptr@DU__crt_internal_free_policy@@@@QEAAXXZ 0000000180052840 f i libvcruntimed:std_type_info.obj
 0001:00051870       ?release@?$__crt_unique_heap_ptr@XU__crt_internal_free_policy@@@@QEAAXXZ 0000000180052870 f i libvcruntimed:std_type_info.obj
 0001:000518a0       __std_type_info_compare    00000001800528a0 f   libvcruntimed:std_type_info.obj
 0001:000518e0       __std_type_info_destroy_list 00000001800528e0 f   libvcruntimed:std_type_info.obj
 0001:00051940       __std_type_info_hash       0000000180052940 f   libvcruntimed:std_type_info.obj
 0001:000519f0       __std_type_info_name       00000001800529f0 f   libvcruntimed:std_type_info.obj
 0001:00051c80       strstr                     0000000180052c80 f   libvcruntimed:strstr.obj
 0001:000522c0       __C_specific_handler       00000001800532c0 f   libvcruntimed:riscchandler.obj
 0001:00052730       __vcrt_initialize          0000000180053730 f   libvcruntimed:initialization.obj
 0001:00052770       __vcrt_thread_attach       0000000180053770 f   libvcruntimed:initialization.obj
 0001:00052790       __vcrt_thread_detach       0000000180053790 f   libvcruntimed:initialization.obj
 0001:000527a0       __vcrt_uninitialize        00000001800537a0 f   libvcruntimed:initialization.obj
 0001:000527c0       __vcrt_uninitialize_critical 00000001800537c0 f   libvcruntimed:initialization.obj
 0001:000527e0       __DestructExceptionObject  00000001800537e0 f   libvcruntimed:ehhelpers.obj
 0001:000528e0       ?_CallMemberFunction0@@YAXQEAX0@Z 00000001800538e0 f i libvcruntimed:ehhelpers.obj
 0001:000529c0       ?raw_name@type_info@@QEBAPEBDXZ 00000001800539c0 f i libvcruntimed:ehhelpers.obj
 0001:000529d0       _IsExceptionObjectToBeDestroyed 00000001800539d0 f   libvcruntimed:ehhelpers.obj
 0001:00052a20       _SetWinRTOutOfMemoryExceptionCallback 0000000180053a20 f   libvcruntimed:ehhelpers.obj
 0001:00052a40       __AdjustPointer            0000000180053a40 f   libvcruntimed:ehhelpers.obj
 0001:00052ac0       __FrameUnwindFilter        0000000180053ac0 f   libvcruntimed:ehhelpers.obj
 0001:00052b70       __GetPlatformExceptionInfo 0000000180053b70 f   libvcruntimed:ehhelpers.obj
 0001:00052c20       __current_exception        0000000180053c20 f   libvcruntimed:ehhelpers.obj
 0001:00052c40       __current_exception_context 0000000180053c40 f   libvcruntimed:ehhelpers.obj
 0001:00052c60       __processing_throw         0000000180053c60 f   libvcruntimed:ehhelpers.obj
 0001:00052c80       __std_terminate            0000000180053c80 f   libvcruntimed:ehhelpers.obj
 0001:00052c90       _is_exception_typeof       0000000180053c90 f   libvcruntimed:ehhelpers.obj
 0001:00052de0       __C_specific_handler_noexcept 0000000180053de0 f   libvcruntimed:chandler_noexcept.obj
 0001:00052e70       __vcrt_GetModuleFileNameW  0000000180053e70 f   libvcruntimed:winapi_thunks.obj
 0001:00052ea0       __vcrt_GetModuleHandleW    0000000180053ea0 f   libvcruntimed:winapi_thunks.obj
 0001:00052ec0       __vcrt_LoadLibraryExW      0000000180053ec0 f   libvcruntimed:winapi_thunks.obj
 0001:00052ef0       ??$?0$00@DName@@QEAA@PEBDU?$StringLifeSelector@$00@@@Z 0000000180053ef0 f i libvcruntimed:undname.obj
 0001:00052f60       ??$?0$00@pcharNode@@QEAA@PEBDHU?$StringLifeSelector@$00@@@Z 0000000180053f60 f i libvcruntimed:undname.obj
 0001:00052fc0       ??$?0$01@DName@@QEAA@PEBDU?$StringLifeSelector@$01@@@Z 0000000180053fc0 f i libvcruntimed:undname.obj
 0001:00053030       ??$?0$01@pcharNode@@QEAA@PEBDHU?$StringLifeSelector@$01@@@Z 0000000180054030 f i libvcruntimed:undname.obj
 0001:000530e0       ??$?0$0A@@DName@@QEAA@PEBDU?$StringLifeSelector@$0A@@@@Z 00000001800540e0 f i libvcruntimed:undname.obj
 0001:00053150       ??$?0$0A@@pcharNode@@QEAA@PEBDHU?$StringLifeSelector@$0A@@@@Z 0000000180054150 f i libvcruntimed:undname.obj
 0001:00053200       ??$?0_K$0A@@?$optional@_K@std@@QEAA@$$QEA_K@Z 0000000180054200 f i libvcruntimed:undname.obj
 0001:00053230       ??$?0_K@?$_Optional_construct_base@_K@std@@QEAA@Uin_place_t@1@$$QEA_K@Z 0000000180054230 f i libvcruntimed:undname.obj
 0001:00053270       ??$?0_K@?$_Optional_destruct_base@_K$00@std@@QEAA@Uin_place_t@1@$$QEA_K@Z 0000000180054270 f i libvcruntimed:undname.obj
 0001:000532a0       ??$append@VDNameNode@@@DName@@AEAAXPEBVDNameNode@@@Z 00000001800542a0 f i libvcruntimed:undname.obj
 0001:00053350       ??$append@VDNameStatusNode@@@DName@@AEAAXPEBVDNameStatusNode@@@Z 0000000180054350 f i libvcruntimed:undname.obj
 0001:00053400       ??$append@VcharNode@@@DName@@AEAAXPEBVcharNode@@@Z 0000000180054400 f i libvcruntimed:undname.obj
 0001:000534b0       ??$append@VpDNameNode@@@DName@@AEAAXPEBVpDNameNode@@@Z 00000001800544b0 f i libvcruntimed:undname.obj
 0001:00053560       ??$append@VpcharNode@@@DName@@AEAAXPEBVpcharNode@@@Z 0000000180054560 f i libvcruntimed:undname.obj
 0001:00053610       ??$doPchar@$00@DName@@AEAAXPEBDH@Z 0000000180054610 f i libvcruntimed:undname.obj
 0001:00053770       ??$doPchar@$01@DName@@AEAAXPEBDH@Z 0000000180054770 f i libvcruntimed:undname.obj
 0001:000538d0       ??$doPchar@$0A@@DName@@AEAAXPEBDH@Z 00000001800548d0 f i libvcruntimed:undname.obj
 0001:00053bb0       ??0?$_Optional_construct_base@_K@std@@QEAA@XZ 0000000180054bb0 f i libvcruntimed:undname.obj
 0001:00053bd0       ??0?$_Optional_destruct_base@_K$00@std@@QEAA@XZ 0000000180054bd0 f i libvcruntimed:undname.obj
 0001:00053c00       ??0?$optional@_K@std@@QEAA@XZ 0000000180054c00 f i libvcruntimed:undname.obj
 0001:00053c20       ??0Block@_HeapManager@@QEAA@XZ 0000000180054c20 f i libvcruntimed:undname.obj
 0001:00053c40       ??0DName@@QEAA@AEAPEBDD@Z  0000000180054c40 f   libvcruntimed:undname.obj
 0001:00053e10       ??0DName@@QEAA@AEBUStringLiteral@@@Z 0000000180054e10 f   libvcruntimed:undname.obj
 0001:00053e70       ??0DName@@QEAA@AEBV0@@Z    0000000180054e70 f i libvcruntimed:undname.obj
 0001:00053ea0       ??0DName@@QEAA@D@Z         0000000180054ea0 f   libvcruntimed:undname.obj
 0001:00053ee0       ??0DName@@QEAA@PEAV0@@Z    0000000180054ee0 f   libvcruntimed:undname.obj
 0001:00053fc0       ??0DName@@QEAA@W4DNameStatus@@@Z 0000000180054fc0 f   libvcruntimed:undname.obj
 0001:00054070       ??0DName@@QEAA@XZ          0000000180055070 f i libvcruntimed:undname.obj
 0001:000540a0       ??0DName@@QEAA@_J@Z        00000001800550a0 f   libvcruntimed:undname.obj
 0001:000541b0       ??0DName@@QEAA@_K@Z        00000001800551b0 f   libvcruntimed:undname.obj
 0001:00054280       ??0DNameNode@@IEAA@XZ      0000000180055280 f i libvcruntimed:undname.obj
 0001:000542a0       ??0Replicator@@QEAA@XZ     00000001800552a0 f i libvcruntimed:undname.obj
 0001:000542f0       ??0UnDecorator@@QEAA@PEBDP6APEADJ@ZK@Z 00000001800552f0 f i libvcruntimed:undname.obj
 0001:000543a0       ??0_Nontrivial_dummy_type@std@@QEAA@XZ 00000001800553a0 f i libvcruntimed:undname.obj
 0001:000543b0       ??0charNode@@QEAA@D@Z      00000001800553b0 f i libvcruntimed:undname.obj
 0001:000543f0       ??0pDNameNode@@QEAA@PEAVDName@@@Z 00000001800553f0 f   libvcruntimed:undname.obj
 0001:00054470       ??0pairNode@@QEAA@PEBVDNameNode@@0@Z 0000000180055470 f i libvcruntimed:undname.obj
 0001:000544f0       ??2@YAPEAX_KAEAV_HeapManager@@H@Z 00000001800554f0 f   libvcruntimed:undname.obj
 0001:00054550       ??4DName@@QEAAAEAV0@AEBUStringLiteral@@@Z 0000000180055550 f   libvcruntimed:undname.obj
 0001:000545a0       ??4DName@@QEAAAEAV0@AEBV0@@Z 00000001800555a0 f   libvcruntimed:undname.obj
 0001:000545d0       ??4DName@@QEAAAEAV0@D@Z    00000001800555d0 f i libvcruntimed:undname.obj
 0001:00054610       ??4DName@@QEAAAEAV0@PEAV0@@Z 0000000180055610 f   libvcruntimed:undname.obj
 0001:000546e0       ??4DName@@QEAAAEAV0@W4DNameStatus@@@Z 00000001800556e0 f   libvcruntimed:undname.obj
 0001:00054770       ??AReplicator@@QEBA?AVDName@@H@Z 0000000180055770 f   libvcruntimed:undname.obj
 0001:00054800       ??B?$optional@_K@std@@QEBA_NXZ 0000000180055800 f i libvcruntimed:undname.obj
 0001:00054810       ??D?$_Optional_construct_base@_K@std@@QEGAAAEA_KXZ 0000000180055810 f i libvcruntimed:undname.obj
 0001:000548b0       ??H@YA?AVDName@@AEBUStringLiteral@@AEBV0@@Z 00000001800558b0 f i libvcruntimed:undname.obj
 0001:00054900       ??H@YA?AVDName@@DAEBV0@@Z  0000000180055900 f i libvcruntimed:undname.obj
 0001:00054950       ??H@YA?AVDName@@W4DNameStatus@@AEBV0@@Z 0000000180055950 f i libvcruntimed:undname.obj
 0001:000549a0       ??HDName@@QEBA?AV0@AEBUStringLiteral@@@Z 00000001800559a0 f   libvcruntimed:undname.obj
 0001:000549e0       ??HDName@@QEBA?AV0@AEBV0@@Z 00000001800559e0 f   libvcruntimed:undname.obj
 0001:00054a20       ??HDName@@QEBA?AV0@D@Z     0000000180055a20 f   libvcruntimed:undname.obj
 0001:00054a60       ??HDName@@QEBA?AV0@PEAV0@@Z 0000000180055a60 f   libvcruntimed:undname.obj
 0001:00054aa0       ??HDName@@QEBA?AV0@W4DNameStatus@@@Z 0000000180055aa0 f   libvcruntimed:undname.obj
 0001:00054ae0       ??HStringLiteral@@QEBA?AU0@H@Z 0000000180055ae0 f i libvcruntimed:undname.obj
 0001:00054b20       ??YDName@@QEAAAEAV0@AEBUStringLiteral@@@Z 0000000180055b20 f   libvcruntimed:undname.obj
 0001:00054bf0       ??YDName@@QEAAAEAV0@AEBV0@@Z 0000000180055bf0 f   libvcruntimed:undname.obj
 0001:00054cb0       ??YDName@@QEAAAEAV0@D@Z    0000000180055cb0 f   libvcruntimed:undname.obj
 0001:00054d50       ??YDName@@QEAAAEAV0@PEAV0@@Z 0000000180055d50 f   libvcruntimed:undname.obj
 0001:00054e30       ??YDName@@QEAAAEAV0@W4DNameStatus@@@Z 0000000180055e30 f   libvcruntimed:undname.obj
 0001:00054eb0       ??YReplicator@@QEAAAEAV0@AEBVDName@@@Z 0000000180055eb0 f   libvcruntimed:undname.obj
 0001:00054f70       ??_5DName@@QEAAAEAV0@AEBV0@@Z 0000000180055f70 f   libvcruntimed:undname.obj
 0001:00054ff0       ??__K_l@@YA?AUStringLiteral@@PEBD_K@Z 0000000180055ff0 f i libvcruntimed:undname.obj
 0001:00055020       ?Constructor@_HeapManager@@QEAAXP6APEAX_K@ZP6AXPEAX@Z@Z 0000000180056020 f i libvcruntimed:undname.obj
 0001:00055080       ?Destructor@_HeapManager@@QEAAXXZ 0000000180056080 f i libvcruntimed:undname.obj
 0001:00055120       ?UScore@UnDecorator@@SA?AUStringLiteral@@W4Tokens@@@Z 0000000180056120 f   libvcruntimed:undname.obj
 0001:000551b0       ?composeDeclaration@UnDecorator@@CA?AVDName@@AEBV2@@Z 00000001800561b0 f i libvcruntimed:undname.obj
 0001:00057720       ?doAccessSpecifiers@UnDecorator@@SAHXZ 0000000180058720 f i libvcruntimed:undname.obj
 0001:00057750       ?doAllocationLanguage@UnDecorator@@SAHXZ 0000000180058750 f i libvcruntimed:undname.obj
 0001:00057780       ?doAllocationModel@UnDecorator@@SAHXZ 0000000180058780 f i libvcruntimed:undname.obj
 0001:000577b0       ?doEcsu@UnDecorator@@SAHXZ 00000001800587b0 f i libvcruntimed:undname.obj
 0001:000577e0       ?doEllipsis@UnDecorator@@SAHXZ 00000001800587e0 f i libvcruntimed:undname.obj
 0001:00057810       ?doFunctionReturns@UnDecorator@@SAHXZ 0000000180058810 f i libvcruntimed:undname.obj
 0001:00057840       ?doMSKeywords@UnDecorator@@SAHXZ 0000000180058840 f i libvcruntimed:undname.obj
 0001:00057870       ?doMemberTypes@UnDecorator@@SAHXZ 0000000180058870 f i libvcruntimed:undname.obj
 0001:000578a0       ?doNameOnly@UnDecorator@@SAHXZ 00000001800588a0 f i libvcruntimed:undname.obj
 0001:000578b0       ?doNoIdentCharCheck@UnDecorator@@SAHXZ 00000001800588b0 f i libvcruntimed:undname.obj
 0001:000578c0       ?doPchar@DName@@AEAAXD@Z   00000001800588c0 f   libvcruntimed:undname.obj
 0001:00057950       ?doPtr64@UnDecorator@@SAHXZ 0000000180058950 f i libvcruntimed:undname.obj
 0001:00057980       ?doRestrictionSpec@UnDecorator@@SAHXZ 0000000180058980 f i libvcruntimed:undname.obj
 0001:000579b0       ?doThisTypes@UnDecorator@@SAHXZ 00000001800589b0 f i libvcruntimed:undname.obj
 0001:000579e0       ?doThrowTypes@UnDecorator@@SAHXZ 00000001800589e0 f i libvcruntimed:undname.obj
 0001:00057a10       ?doTypeOnly@UnDecorator@@SAHXZ 0000000180058a10 f i libvcruntimed:undname.obj
 0001:00057a20       ?doUnderScore@UnDecorator@@SAHXZ 0000000180058a20 f i libvcruntimed:undname.obj
 0001:00057a50       ?getAddressOf@UnDecorator@@CA?AVDName@@XZ 0000000180058a50 f   libvcruntimed:undname.obj
 0001:00057af0       ?getArgumentList@UnDecorator@@CA?AVDName@@XZ 0000000180058af0 f   libvcruntimed:undname.obj
 0001:00057c80       ?getArgumentTypes@UnDecorator@@CA?AVDName@@XZ 0000000180058c80 f   libvcruntimed:undname.obj
 0001:00057f30       ?getArrayAccess@UnDecorator@@CA?AVDName@@XZ 0000000180058f30 f   libvcruntimed:undname.obj
 0001:00057fe0       ?getArrayObject@UnDecorator@@CA?AVDName@@XZ 0000000180058fe0 f   libvcruntimed:undname.obj
 0001:00058110       ?getArrayType@UnDecorator@@CA?AVDName@@AEBV2@@Z 0000000180059110 f i libvcruntimed:undname.obj
 0001:000584d0       ?getBasedType@UnDecorator@@CA?AVDName@@XZ 00000001800594d0 f   libvcruntimed:undname.obj
 0001:00058620       ?getBasicDataType@UnDecorator@@CA?AVDName@@AEBV2@@Z 0000000180059620 f   libvcruntimed:undname.obj
 0001:00059430       ?getCHPEName@UnDecorator@@QEAAPEADPEADH@Z 000000018005a430 f i libvcruntimed:undname.obj
 0001:00059600       ?getCallIndex@UnDecorator@@CA?AVDName@@XZ 000000018005a600 f i libvcruntimed:undname.obj
 0001:00059620       ?getCallingConvention@UnDecorator@@CA?AVDName@@XZ 000000018005a620 f   libvcruntimed:undname.obj
 0001:000599f0       ?getDataIndirectType@UnDecorator@@CA?AVDName@@AEBV2@W4IndirectionKind@@0H@Z 000000018005a9f0 f   libvcruntimed:undname.obj
 0001:0005a6b0       ?getDataIndirectType@UnDecorator@@CA?AVDName@@XZ 000000018005b6b0 f i libvcruntimed:undname.obj
 0001:0005a710       ?getDataType@UnDecorator@@CA?AVDName@@PEAV2@@Z 000000018005b710 f   libvcruntimed:undname.obj
 0001:0005a8c0       ?getDecoratedName@UnDecorator@@CA?AVDName@@XZ 000000018005b8c0 f   libvcruntimed:undname.obj
 0001:0005ada0       ?getDimension@UnDecorator@@CA?AVDName@@_N@Z 000000018005bda0 f   libvcruntimed:undname.obj
 0001:0005b060       ?getDispatchTarget@UnDecorator@@CA?AVDName@@XZ 000000018005c060 f   libvcruntimed:undname.obj
 0001:0005b100       ?getDisplacement@UnDecorator@@CA?AVDName@@XZ 000000018005c100 f i libvcruntimed:undname.obj
 0001:0005b120       ?getECSUDataType@UnDecorator@@CA?AVDName@@XZ 000000018005c120 f   libvcruntimed:undname.obj
 0001:0005b550       ?getECSUName@UnDecorator@@CA?AVDName@@XZ 000000018005c550 f i libvcruntimed:undname.obj
 0001:0005b570       ?getEnumType@UnDecorator@@CA?AVDName@@XZ 000000018005c570 f i libvcruntimed:undname.obj
 0001:0005b7e0       ?getExtendedDataIndirectType@UnDecorator@@CA?AVDName@@AEAW4IndirectionKind@@AEA_NH@Z 000000018005c7e0 f   libvcruntimed:undname.obj
 0001:0005bb40       ?getExternalDataType@UnDecorator@@CA?AVDName@@AEBV2@@Z 000000018005cb40 f i libvcruntimed:undname.obj
 0001:0005bc10       ?getFloatingPoint@UnDecorator@@CA?AVDName@@H@Z 000000018005cc10 f   libvcruntimed:undname.obj
 0001:0005bd90       ?getFunctionIndirectType@UnDecorator@@CA?AVDName@@AEBV2@@Z 000000018005cd90 f   libvcruntimed:undname.obj
 0001:0005c390       ?getGuardNumber@UnDecorator@@CA?AVDName@@XZ 000000018005d390 f i libvcruntimed:undname.obj
 0001:0005c3b0       ?getLastChar@DName@@QEBADXZ 000000018005d3b0 f i libvcruntimed:undname.obj
 0001:0005c400       ?getLastChar@DNameStatusNode@@UEBADXZ 000000018005d400 f i libvcruntimed:undname.obj
 0001:0005c440       ?getLastChar@charNode@@UEBADXZ 000000018005d440 f i libvcruntimed:undname.obj
 0001:0005c450       ?getLastChar@pDNameNode@@UEBADXZ 000000018005d450 f i libvcruntimed:undname.obj
 0001:0005c490       ?getLastChar@pairNode@@UEBADXZ 000000018005d490 f i libvcruntimed:undname.obj
 0001:0005c510       ?getLastChar@pcharNode@@UEBADXZ 000000018005d510 f i libvcruntimed:undname.obj
 0001:0005c550       ?getLexicalFrame@UnDecorator@@CA?AVDName@@XZ 000000018005d550 f i libvcruntimed:undname.obj
 0001:0005c5a0       ?getMemberAccess@UnDecorator@@CA?AVDName@@XZ 000000018005d5a0 f   libvcruntimed:undname.obj
 0001:0005c650       ?getMemoryWithBuffer@_HeapManager@@QEAAPEAX_K@Z 000000018005d650 f   libvcruntimed:undname.obj
 0001:0005c7a0       ?getMemoryWithoutBuffer@_HeapManager@@QEAAPEAX_K@Z 000000018005d7a0 f   libvcruntimed:undname.obj
 0001:0005c7f0       ?getNoexcept@UnDecorator@@CA?AVDName@@XZ 000000018005d7f0 f   libvcruntimed:undname.obj
 0001:0005c880       ?getNumberOfDimensions@UnDecorator@@CAHXZ 000000018005d880 f   libvcruntimed:undname.obj
 0001:0005c950       ?getOperatorName@UnDecorator@@CA?AVDName@@_NPEA_N@Z 000000018005d950 f i libvcruntimed:undname.obj
 0001:0005d830       ?getPointerToMember@UnDecorator@@CA?AVDName@@XZ 000000018005e830 f   libvcruntimed:undname.obj
 0001:0005d960       ?getPointerType@UnDecorator@@CA?AVDName@@AEBV2@0@Z 000000018005e960 f i libvcruntimed:undname.obj
 0001:0005d9a0       ?getPointerTypeArray@UnDecorator@@CA?AVDName@@AEBV2@0@Z 000000018005e9a0 f i libvcruntimed:undname.obj
 0001:0005d9e0       ?getPrimaryDataType@UnDecorator@@CA?AVDName@@AEBV2@@Z 000000018005e9e0 f   libvcruntimed:undname.obj
 0001:0005dfa0       ?getPtrRefDataType@UnDecorator@@CA?AVDName@@AEBV2@H@Z 000000018005efa0 f   libvcruntimed:undname.obj
 0001:0005e370       ?getPtrRefType@UnDecorator@@CA?AVDName@@AEBV2@0W4IndirectionKind@@@Z 000000018005f370 f   libvcruntimed:undname.obj
 0001:0005e5b0       ?getReferenceType@UnDecorator@@CA?AVDName@@AEBV2@0W4IndirectionKind@@@Z 000000018005f5b0 f i libvcruntimed:undname.obj
 0001:0005e5f0       ?getRestrictionSpec@UnDecorator@@CA?AVDName@@XZ 000000018005f5f0 f   libvcruntimed:undname.obj
 0001:0005e850       ?getReturnType@UnDecorator@@CA?AVDName@@PEAV2@@Z 000000018005f850 f   libvcruntimed:undname.obj
 0001:0005e8b0       ?getScope@UnDecorator@@CA?AVDName@@XZ 000000018005f8b0 f   libvcruntimed:undname.obj
 0001:0005f000       ?getScopedName@UnDecorator@@CA?AVDName@@XZ 0000000180060000 f   libvcruntimed:undname.obj
 0001:0005f200       ?getSignedDimension@UnDecorator@@CA?AVDName@@XZ 0000000180060200 f   libvcruntimed:undname.obj
 0001:0005f280       ?getStorageConvention@UnDecorator@@CA?AVDName@@XZ 0000000180060280 f i libvcruntimed:undname.obj
 0001:0005f2a0       ?getString@DName@@QEBAPEADPEAD0@Z 00000001800602a0 f i libvcruntimed:undname.obj
 0001:0005f320       ?getString@DName@@QEBAPEADPEADH@Z 0000000180060320 f i libvcruntimed:undname.obj
 0001:0005f3e0       ?getString@DNameStatusNode@@UEBAPEADPEAD0@Z 00000001800603e0 f i libvcruntimed:undname.obj
 0001:0005f430       ?getString@charNode@@UEBAPEADPEAD0@Z 0000000180060430 f i libvcruntimed:undname.obj
 0001:0005f470       ?getString@pDNameNode@@UEBAPEADPEAD0@Z 0000000180060470 f i libvcruntimed:undname.obj
 0001:0005f4d0       ?getString@pairNode@@UEBAPEADPEAD0@Z 00000001800604d0 f i libvcruntimed:undname.obj
 0001:0005f5a0       ?getString@pcharNode@@UEBAPEADPEAD0@Z 00000001800605a0 f i libvcruntimed:undname.obj
 0001:0005f5e0       ?getStringEncoding@UnDecorator@@CA?AVDName@@W4PrefixKind@@H@Z 00000001800605e0 f   libvcruntimed:undname.obj
 0001:0005f710       ?getStringHelper@@YAPEADPEADPEBD1H@Z 0000000180060710 f i libvcruntimed:undname.obj
 0001:0005f780       ?getStringObject@UnDecorator@@CA?AVDName@@XZ 0000000180060780 f   libvcruntimed:undname.obj
 0001:0005f830       ?getSymbolName@UnDecorator@@CA?AVDName@@XZ 0000000180060830 f i libvcruntimed:undname.obj
 0001:0005f8c0       ?getTemplateArgumentList@UnDecorator@@CA?AVDName@@XZ 00000001800608c0 f   libvcruntimed:undname.obj
 0001:0005fbd0       ?getTemplateName@UnDecorator@@CA?AVDName@@_N@Z 0000000180060bd0 f   libvcruntimed:undname.obj
 0001:0005fdf0       ?getTemplateNonTypeArgument@UnDecorator@@CA?AVDName@@XZ 0000000180060df0 f   libvcruntimed:undname.obj
 0001:00060670       ?getTemplateTypeArgument@UnDecorator@@CA?AVDName@@XZ 0000000180061670 f   libvcruntimed:undname.obj
 0001:000608f0       ?getThisType@UnDecorator@@CA?AVDName@@XZ 00000001800618f0 f i libvcruntimed:undname.obj
 0001:00060950       ?getThrowTypes@UnDecorator@@CA?AVDName@@XZ 0000000180061950 f   libvcruntimed:undname.obj
 0001:00060990       ?getTypeEncoding@UnDecorator@@CAHXZ 0000000180061990 f i libvcruntimed:undname.obj
 0001:00061560       ?getUndecoratedName@UnDecorator@@QEAAPEADPEADH@Z 0000000180062560 f i libvcruntimed:undname.obj
 0001:00061750       ?getUnionObject@UnDecorator@@CA?AVDName@@XZ 0000000180062750 f   libvcruntimed:undname.obj
 0001:00061860       ?getVCallThunkType@UnDecorator@@CA?AVDName@@XZ 0000000180062860 f i libvcruntimed:undname.obj
 0001:00061900       ?getValue@UnDecorator@@CA?AV?$optional@_K@std@@XZ 0000000180062900 f   libvcruntimed:undname.obj
 0001:000619d0       ?getValueObject@UnDecorator@@CA?AVDName@@XZ 00000001800629d0 f   libvcruntimed:undname.obj
 0001:00061c20       ?getVbTableType@UnDecorator@@CA?AVDName@@AEBV2@@Z 0000000180062c20 f i libvcruntimed:undname.obj
 0001:00061c50       ?getVdispMapType@UnDecorator@@CA?AVDName@@AEBV2@@Z 0000000180062c50 f i libvcruntimed:undname.obj
 0001:00061cf0       ?getVfTableType@UnDecorator@@CA?AVDName@@AEBV2@@Z 0000000180062cf0 f i libvcruntimed:undname.obj
 0001:00061fa0       ?getZName@UnDecorator@@CA?AVDName@@_N0@Z 0000000180062fa0 f   libvcruntimed:undname.obj
 0001:000623e0       ?get_current_character_and_increment_buffer@UnDecorator@@CADXZ 00000001800633e0 f i libvcruntimed:undname.obj
 0001:00062420       ?haveTemplateParameters@UnDecorator@@SAHXZ 0000000180063420 f i libvcruntimed:undname.obj
 0001:00062430       ?increment_buffer@UnDecorator@@CA_N_K@Z 0000000180063430 f i libvcruntimed:undname.obj
 0001:00062490       ?increment_buffer_no_check@UnDecorator@@CAXXZ 0000000180063490 f i libvcruntimed:undname.obj
 0001:000624b0       ?increment_buffer_no_check@UnDecorator@@CAX_K@Z 00000001800634b0 f i libvcruntimed:undname.obj
 0001:00062500       ?isArray@DName@@QEBAHXZ    0000000180063500 f i libvcruntimed:undname.obj
 0001:00062520       ?isComArray@DName@@QEBAHXZ 0000000180063520 f i libvcruntimed:undname.obj
 0001:00062540       ?isEmpty@DName@@QEBAHXZ    0000000180063540 f i libvcruntimed:undname.obj
 0001:00062570       ?isFull@Replicator@@QEBAHXZ 0000000180063570 f i libvcruntimed:undname.obj
 0001:000625a0       ?isNoTE@DName@@QEBAHXZ     00000001800635a0 f i libvcruntimed:undname.obj
 0001:000625c0       ?isPinPtr@DName@@QEBAHXZ   00000001800635c0 f i libvcruntimed:undname.obj
 0001:000625e0       ?isPtrRef@DName@@QEBAHXZ   00000001800635e0 f i libvcruntimed:undname.obj
 0001:00062600       ?isUDC@DName@@QEBAHXZ      0000000180063600 f i libvcruntimed:undname.obj
 0001:00062650       ?isUDTThunk@DName@@QEBAHXZ 0000000180063650 f i libvcruntimed:undname.obj
 0001:000626a0       ?isVCallThunk@DName@@QEBAHXZ 00000001800636a0 f i libvcruntimed:undname.obj
 0001:000626c0       ?isValid@DName@@QEBAHXZ    00000001800636c0 f i libvcruntimed:undname.obj
 0001:00062700       ?length@DName@@QEBAHXZ     0000000180063700 f i libvcruntimed:undname.obj
 0001:00062750       ?length@DNameStatusNode@@UEBAHXZ 0000000180063750 f i libvcruntimed:undname.obj
 0001:00062760       ?length@charNode@@UEBAHXZ  0000000180063760 f i libvcruntimed:undname.obj
 0001:00062770       ?length@pDNameNode@@UEBAHXZ 0000000180063770 f i libvcruntimed:undname.obj
 0001:000627b0       ?length@pairNode@@UEBAHXZ  00000001800637b0 f i libvcruntimed:undname.obj
 0001:00062840       ?length@pcharNode@@UEBAHXZ 0000000180063840 f i libvcruntimed:undname.obj
 0001:00062850       ?make@DNameStatusNode@@SAPEBV1@W4DNameStatus@@@Z 0000000180063850 f i libvcruntimed:undname.obj
 0001:000628a0       ?parseDecoratedName@UnDecorator@@CA?AVDName@@XZ 00000001800638a0 f   libvcruntimed:undname.obj
 0001:00062aa0       ?raw_length@DNameStatusNode@@UEBAHXZ 0000000180063aa0 f i libvcruntimed:undname.obj
 0001:00062ac0       ?raw_length@charNode@@UEBAHXZ 0000000180063ac0 f i libvcruntimed:undname.obj
 0001:00062ae0       ?raw_length@pDNameNode@@UEBAHXZ 0000000180063ae0 f i libvcruntimed:undname.obj
 0001:00062af0       ?raw_length@pairNode@@UEBAHXZ 0000000180063af0 f i libvcruntimed:undname.obj
 0001:00062b00       ?raw_length@pcharNode@@UEBAHXZ 0000000180063b00 f i libvcruntimed:undname.obj
 0001:00062b20       ?setIsArray@DName@@QEAAXXZ 0000000180063b20 f i libvcruntimed:undname.obj
 0001:00062b40       ?setIsComArray@DName@@QEAAXXZ 0000000180063b40 f i libvcruntimed:undname.obj
 0001:00062b60       ?setIsNoTE@DName@@QEAAXXZ  0000000180063b60 f i libvcruntimed:undname.obj
 0001:00062b80       ?setIsPinPtr@DName@@QEAAXXZ 0000000180063b80 f i libvcruntimed:undname.obj
 0001:00062ba0       ?setIsUDC@DName@@QEAAXXZ   0000000180063ba0 f i libvcruntimed:undname.obj
 0001:00062bd0       ?setIsVCallThunk@DName@@QEAAXXZ 0000000180063bd0 f i libvcruntimed:undname.obj
 0001:00062bf0       ?setPtrRef@DName@@QEAAAEAV1@XZ 0000000180063bf0 f i libvcruntimed:undname.obj
 0001:00062c10       ?status@DName@@QEBA?AW4DNameStatus@@XZ 0000000180063c10 f i libvcruntimed:undname.obj
 0001:00062d40       __unDName                  0000000180063d40 f   libvcruntimed:undname.obj
 0001:00062da0       __unDNameEx                0000000180063da0 f   libvcruntimed:undname.obj
 0001:00062e60       snprintf                   0000000180063e60 f i libvcruntimed:undname.obj
 0001:00062ec0       unDNameGenerateCHPE        0000000180063ec0 f   libvcruntimed:undname.obj
 0001:00062f70       vsnprintf                  0000000180063f70 f i libvcruntimed:undname.obj
 0001:00063020       _NLG_Notify                0000000180064020 f   libvcruntimed:notify.obj
 0001:00063040       __NLG_Dispatch2            0000000180064040 f   libvcruntimed:notify.obj
 0001:00063050       __NLG_Return2              0000000180064050 f   libvcruntimed:notify.obj
 0001:00063070       __except_validate_context_record 0000000180064070 f   libvcruntimed:jbcxrval.obj
 0001:000630d0       __except_validate_jump_buffer 00000001800640d0 f   libvcruntimed:jbcxrval.obj
 0001:000630f0       __except_validate_jump_buffer_common 00000001800640f0 f i libvcruntimed:jbcxrval.obj
 0001:00063170       ??$?RU__vcrt_ptd@@@__crt_internal_free_policy@@QEBAXQEBU__vcrt_ptd@@@Z 0000000180064170 f i libvcruntimed:per_thread_data.obj
 0001:000631a0       ??0?$__crt_unique_heap_ptr@U__vcrt_ptd@@U__crt_internal_free_policy@@@@QEAA@QEAU__vcrt_ptd@@@Z 00000001800641a0 f i libvcruntimed:per_thread_data.obj
 0001:000631e0       ??1?$__crt_unique_heap_ptr@U__vcrt_ptd@@U__crt_internal_free_policy@@@@QEAA@XZ 00000001800641e0 f i libvcruntimed:per_thread_data.obj
 0001:00063220       ??B?$__crt_unique_heap_ptr@U__vcrt_ptd@@U__crt_internal_free_policy@@@@QEBA_NXZ 0000000180064220 f i libvcruntimed:per_thread_data.obj
 0001:00063240       ?detach@?$__crt_unique_heap_ptr@U__vcrt_ptd@@U__crt_internal_free_policy@@@@QEAAPEAU__vcrt_ptd@@XZ 0000000180064240 f i libvcruntimed:per_thread_data.obj
 0001:00063270       ?get@?$__crt_unique_heap_ptr@U__vcrt_ptd@@U__crt_internal_free_policy@@@@QEBAPEAU__vcrt_ptd@@XZ 0000000180064270 f i libvcruntimed:per_thread_data.obj
 0001:00063280       ?is_valid@?$__crt_unique_heap_ptr@U__vcrt_ptd@@U__crt_internal_free_policy@@@@QEBA_NXZ 0000000180064280 f i libvcruntimed:per_thread_data.obj
 0001:000632b0       ?release@?$__crt_unique_heap_ptr@U__vcrt_ptd@@U__crt_internal_free_policy@@@@QEAAXXZ 00000001800642b0 f i libvcruntimed:per_thread_data.obj
 0001:00063320       __vcrt_freefls             0000000180064320 f   libvcruntimed:per_thread_data.obj
 0001:00063360       __vcrt_freeptd_for_this_thread 0000000180064360 f   libvcruntimed:per_thread_data.obj
 0001:000633a0       __vcrt_getptd              00000001800643a0 f   libvcruntimed:per_thread_data.obj
 0001:000633d0       __vcrt_getptd_noexit       00000001800643d0 f   libvcruntimed:per_thread_data.obj
 0001:00063570       __vcrt_getptd_noinit       0000000180064570 f   libvcruntimed:per_thread_data.obj
 0001:000635d0       __vcrt_initialize_ptd      00000001800645d0 f   libvcruntimed:per_thread_data.obj
 0001:00063620       __vcrt_uninitialize_ptd    0000000180064620 f   libvcruntimed:per_thread_data.obj
 0001:00063650       __vcrt_initialize_locks    0000000180064650 f   libvcruntimed:locks.obj
 0001:000636c0       __vcrt_lock                00000001800646c0 f   libvcruntimed:locks.obj
 0001:000636f0       __vcrt_uninitialize_locks  00000001800646f0 f   libvcruntimed:locks.obj
 0001:00063750       __vcrt_unlock              0000000180064750 f   libvcruntimed:locks.obj
 0001:00063780       ??$?0AEAViterator@TryBlockMap4@FH4@@AEAV012@$0A@@?$pair@Viterator@TryBlockMap4@FH4@@V123@@std@@QEAA@AEAViterator@TryBlockMap4@FH4@@0@Z 0000000180064780 f i libvcruntimed:risctrnsctrl.obj
 0001:000637c0       ??$?0AEAViterator@TryBlockMap@__FrameHandler3@@AEAV012@$0A@@?$pair@Viterator@TryBlockMap@__FrameHandler3@@V123@@std@@QEAA@AEAViterator@TryBlockMap@__FrameHandler3@@0@Z 00000001800647c0 f i libvcruntimed:risctrnsctrl.obj
 0001:000639b0       ??$_CallSETranslator@V__FrameHandler3@@@@YAHPEAUEHExceptionRecord@@PEA_KPEAU_CONTEXT@@PEAU_xDISPATCHER_CONTEXT@@PEBU_s_FuncInfo@@K1H@Z 00000001800649b0 f i libvcruntimed:risctrnsctrl.obj
 0001:00063a40       ??$_CallSETranslator@V__FrameHandler4@@@@YAHPEAUEHExceptionRecord@@PEA_KPEAU_CONTEXT@@PEAU_xDISPATCHER_CONTEXT@@PEAUFuncInfo4@FH4@@K1H@Z 0000000180064a40 f i libvcruntimed:risctrnsctrl.obj
 0001:00063ad0       ??0FuncInfo4@FH4@@QEAA@XZ  0000000180064ad0 f i libvcruntimed:risctrnsctrl.obj
 0001:00063b40       ??0FuncInfoHeader@FH4@@QEAA@XZ 0000000180064b40 f i libvcruntimed:risctrnsctrl.obj
 0001:00063b60       ??0iterator@TryBlockMap4@FH4@@QEAA@AEAV12@I@Z 0000000180064b60 f i libvcruntimed:risctrnsctrl.obj
 0001:00063b90       ??0iterator@TryBlockMap@__FrameHandler3@@QEAA@AEAV12@I@Z 0000000180064b90 f i libvcruntimed:risctrnsctrl.obj
 0001:00063bc0       ??4iterator@TryBlockMap4@FH4@@QEAAAEAV012@AEBV012@@Z 0000000180064bc0 f i libvcruntimed:risctrnsctrl.obj
 0001:00063be0       ??9iterator@TryBlockMap4@FH4@@QEBA_NAEBV012@@Z 0000000180064be0 f i libvcruntimed:risctrnsctrl.obj
 0001:00063c20       ??Diterator@TryBlockMap4@FH4@@QEAA?AUTryBlockMapEntry4@2@XZ 0000000180064c20 f i libvcruntimed:risctrnsctrl.obj
 0001:00063c50       ??Eiterator@TryBlockMap4@FH4@@QEAAAEAV012@XZ 0000000180064c50 f i libvcruntimed:risctrnsctrl.obj
 0001:00063c90       ?CatchTryBlock@__FrameHandler3@@SAPEBU_s_TryBlockMapEntry@@PEBU_s_FuncInfo@@H@Z 0000000180064c90 f   libvcruntimed:risctrnsctrl.obj
 0001:00063d20       ?DecompFuncInfo@FH4@@YA_JPEAEAEAUFuncInfo4@1@_KH@Z 0000000180064d20 f i libvcruntimed:risctrnsctrl.obj
 0001:00063d60       ?DecompFuncInfo@FH4@@YA_JPEAEAEAUFuncInfo4@1@_KH_N@Z 0000000180064d60 f i libvcruntimed:risctrnsctrl.obj
 0001:00063f40       ?DecompTryBlock@TryBlockMap4@FH4@@AEAAXXZ 0000000180064f40 f i libvcruntimed:risctrnsctrl.obj
 0001:00063fc0       ?ExecutionInCatch@__FrameHandler3@@SA_NPEAU_xDISPATCHER_CONTEXT@@PEBU_s_FuncInfo@@@Z 0000000180064fc0 f   libvcruntimed:risctrnsctrl.obj
 0001:00064010       ?ExecutionInCatch@__FrameHandler4@@SA_NPEAU_xDISPATCHER_CONTEXT@@PEAUFuncInfo4@FH4@@@Z 0000000180065010 f   libvcruntimed:risctrnsctrl.obj
 0001:00064030       ?FrameUnwindToEmptyState@__FrameHandler3@@SAXPEA_KPEAU_xDISPATCHER_CONTEXT@@PEBU_s_FuncInfo@@@Z 0000000180065030 f   libvcruntimed:risctrnsctrl.obj
 0001:000640d0       ?FrameUnwindToEmptyState@__FrameHandler4@@SAXPEA_KPEAU_xDISPATCHER_CONTEXT@@PEAUFuncInfo4@FH4@@@Z 00000001800650d0 f   libvcruntimed:risctrnsctrl.obj
 0001:00064130       ?GetEstablisherFrame@__FrameHandler3@@SAPEA_KPEA_KPEAU_xDISPATCHER_CONTEXT@@PEBU_s_FuncInfo@@0@Z 0000000180065130 f   libvcruntimed:risctrnsctrl.obj
 0001:000642a0       ?GetEstablisherFrame@__FrameHandler4@@SAPEA_KPEA_KPEAU_xDISPATCHER_CONTEXT@@PEAUFuncInfo4@FH4@@0@Z 00000001800652a0 f   libvcruntimed:risctrnsctrl.obj
 0001:00064310       ?GetRangeOfTrysToCheck@__FrameHandler3@@SA?AU?$pair@Viterator@TryBlockMap@__FrameHandler3@@V123@@std@@AEAVTryBlockMap@1@HPEAU_xDISPATCHER_CONTEXT@@PEBU_s_FuncInfo@@H@Z 0000000180065310 f   libvcruntimed:risctrnsctrl.obj
 0001:00064550       ?GetRangeOfTrysToCheck@__FrameHandler4@@SA?AU?$pair@Viterator@TryBlockMap4@FH4@@V123@@std@@AEAVTryBlockMap4@FH4@@HPEAU_xDISPATCHER_CONTEXT@@PEAUFuncInfo4@5@H@Z 0000000180065550 f   libvcruntimed:risctrnsctrl.obj
 0001:00064710       ?ReadInt@FH4@@YAHPEAPEAE@Z 0000000180065710 f i libvcruntimed:risctrnsctrl.obj
 0001:00064750       ?ReadUnsigned@FH4@@YAIPEAPEAE@Z 0000000180065750 f i libvcruntimed:risctrnsctrl.obj
 0001:000647e0       ?UnwindNestedFrames@__FrameHandler3@@SAXPEA_KPEAUEHExceptionRecord@@PEAU_CONTEXT@@0PEAXPEBU_s_FuncInfo@@HHPEBU_s_HandlerType@@PEAU_xDISPATCHER_CONTEXT@@E@Z 00000001800657e0 f   libvcruntimed:risctrnsctrl.obj
 0001:00064950       ?UnwindNestedFrames@__FrameHandler4@@SAXPEA_KPEAUEHExceptionRecord@@PEAU_CONTEXT@@0PEAXPEAUFuncInfo4@FH4@@HHPEAUHandlerType4@5@PEAU_xDISPATCHER_CONTEXT@@E@Z 0000000180065950 f   libvcruntimed:risctrnsctrl.obj
 0001:00064b20       ?begin@TryBlockMap4@FH4@@QEAA?AViterator@12@XZ 0000000180065b20 f i libvcruntimed:risctrnsctrl.obj
 0001:00064b50       ?end@TryBlockMap4@FH4@@QEAA?AViterator@12@XZ 0000000180065b50 f i libvcruntimed:risctrnsctrl.obj
 0001:00064b80       ?imageRelToByteBuffer@FH4@@YAPEAE_KH@Z 0000000180065b80 f i libvcruntimed:risctrnsctrl.obj
 0001:00064ba0       ?incrementToSentinel@iterator@TryBlockMap4@FH4@@QEAAXXZ 0000000180065ba0 f i libvcruntimed:risctrnsctrl.obj
 0001:00064bc0       ?setBuffer@TryBlockMap4@FH4@@QEAAXViterator@12@@Z 0000000180065bc0 f i libvcruntimed:risctrnsctrl.obj
 0001:00064c30       _CreateFrameInfo           0000000180065c30 f   libvcruntimed:risctrnsctrl.obj
 0001:00064ca0       _FindAndUnlinkFrame        0000000180065ca0 f   libvcruntimed:risctrnsctrl.obj
 0001:00064d20       _GetImageBase              0000000180065d20 f   libvcruntimed:risctrnsctrl.obj
 0001:00064d40       _GetThrowImageBase         0000000180065d40 f   libvcruntimed:risctrnsctrl.obj
 0001:00064d60       _SetImageBase              0000000180065d60 f   libvcruntimed:risctrnsctrl.obj
 0001:00064d80       _SetThrowImageBase         0000000180065d80 f   libvcruntimed:risctrnsctrl.obj
 0001:00064da0       __CxxFrameHandler          0000000180065da0 f   libvcruntimed:risctrnsctrl.obj
 0001:00064de0       __CxxFrameHandler2         0000000180065de0 f   libvcruntimed:risctrnsctrl.obj
 0001:00064e20       __CxxFrameHandler3         0000000180065e20 f   libvcruntimed:risctrnsctrl.obj
 0001:00064f00       __CxxFrameHandler4         0000000180065f00 f   libvcruntimed:risctrnsctrl.obj
 0001:00065010       ??$__crt_interlocked_exchange_pointer@UHINSTANCE__@@PEAU1@@@YAPEAUHINSTANCE__@@PEDSEAU0@QEAU0@@Z 0000000180066010 f i libvcruntimed:winapi_downlevel.obj
 0001:00065030       ??$__crt_interlocked_exchange_pointer@UHINSTANCE__@@PEAX@@YAPEAUHINSTANCE__@@PEDSEAU0@QEAX@Z 0000000180066030 f i libvcruntimed:winapi_downlevel.obj
 0001:00065050       ??$__crt_interlocked_exchange_pointer@XPEAX@@YAPEAXPEDSEAXQEAX@Z 0000000180066050 f i libvcruntimed:winapi_downlevel.obj
 0001:00065070       ??$__crt_interlocked_read_pointer@UHINSTANCE__@@@@YAPEAUHINSTANCE__@@PEDSEAU0@@Z 0000000180066070 f i libvcruntimed:winapi_downlevel.obj
 0001:00065090       ??$__crt_interlocked_read_pointer@X@@YAPEAXPEDSEAX@Z 0000000180066090 f i libvcruntimed:winapi_downlevel.obj
 0001:000655a0       __vcrt_FlsAlloc            00000001800665a0 f   libvcruntimed:winapi_downlevel.obj
 0001:000655f0       __vcrt_FlsFree             00000001800665f0 f   libvcruntimed:winapi_downlevel.obj
 0001:00065640       __vcrt_FlsGetValue         0000000180066640 f   libvcruntimed:winapi_downlevel.obj
 0001:00065690       __vcrt_FlsSetValue         0000000180066690 f   libvcruntimed:winapi_downlevel.obj
 0001:000656f0       __vcrt_InitializeCriticalSectionEx 00000001800666f0 f   libvcruntimed:winapi_downlevel.obj
 0001:00065760       ?GetCurrentState@__FrameHandler3@@SAHPEA_KPEAU_xDISPATCHER_CONTEXT@@PEBU_s_FuncInfo@@@Z 0000000180066760 f   libvcruntimed:ehstate.obj
 0001:000657c0       ?GetUnwindTryBlock@__FrameHandler3@@SAHPEA_KPEAU_xDISPATCHER_CONTEXT@@PEBU_s_FuncInfo@@@Z 00000001800667c0 f   libvcruntimed:ehstate.obj
 0001:00065810       ?SetState@__FrameHandler3@@SAXPEA_KPEBU_s_FuncInfo@@H@Z 0000000180066810 f   libvcruntimed:ehstate.obj
 0001:00065840       ?SetUnwindTryBlock@__FrameHandler3@@SAXPEA_KPEAU_xDISPATCHER_CONTEXT@@PEBU_s_FuncInfo@@H@Z 0000000180066840 f   libvcruntimed:ehstate.obj
 0001:000658b0       ?StateFromControlPc@__FrameHandler3@@SAHPEBU_s_FuncInfo@@PEAU_xDISPATCHER_CONTEXT@@@Z 00000001800668b0 f   libvcruntimed:ehstate.obj
 0001:000658f0       ?StateFromControlPc@__FrameHandler4@@SAHPEAUFuncInfo4@FH4@@PEAU_xDISPATCHER_CONTEXT@@@Z 00000001800668f0 f   libvcruntimed:ehstate.obj
 0001:00065930       ?StateFromIp@__FrameHandler3@@SAHPEBU_s_FuncInfo@@PEAU_xDISPATCHER_CONTEXT@@_K@Z 0000000180066930 f   libvcruntimed:ehstate.obj
 0001:00065a30       ?StateFromIp@__FrameHandler4@@SAHPEAUFuncInfo4@FH4@@PEAU_xDISPATCHER_CONTEXT@@_K@Z 0000000180066a30 f   libvcruntimed:ehstate.obj
 0001:00065b20       ?__FuncRelToRealOffset@@YA_KPEAU_xDISPATCHER_CONTEXT@@I@Z 0000000180066b20 f i libvcruntimed:ehstate.obj
 0001:00065b50       ?__RVAtoRealOffset@@YA_KPEAU_xDISPATCHER_CONTEXT@@H@Z 0000000180066b50 f i libvcruntimed:ehstate.obj
 0001:00067df0       ??$TypeMatchHelper@V__FrameHandler3@@@@YAHPEBU_s_HandlerType@@PEBU_s_CatchableType@@PEBU_s_ThrowInfo@@@Z 0000000180068df0 f i libvcruntimed:frame.obj
 0001:00067ff0       ??$TypeMatchHelper@V__FrameHandler4@@@@YAHPEAUHandlerType4@FH4@@PEBU_s_CatchableType@@PEBU_s_ThrowInfo@@@Z 0000000180068ff0 f i libvcruntimed:frame.obj
 0001:00068200       ??$__InternalCxxFrameHandler@V__FrameHandler3@@@@YA?AW4_EXCEPTION_DISPOSITION@@PEAUEHExceptionRecord@@PEA_KPEAU_CONTEXT@@PEAU_xDISPATCHER_CONTEXT@@PEBU_s_FuncInfo@@H1E@Z 0000000180069200 f i libvcruntimed:frame.obj
 0001:00068680       ??$__InternalCxxFrameHandler@V__FrameHandler4@@@@YA?AW4_EXCEPTION_DISPOSITION@@PEAUEHExceptionRecord@@PEA_KPEAU_CONTEXT@@PEAU_xDISPATCHER_CONTEXT@@PEAUFuncInfo4@FH4@@H1E@Z 0000000180069680 f i libvcruntimed:frame.obj
 0001:00068b20       ??$__InternalCxxFrameHandlerWrapper@V__FrameHandler3@@@@YA?AW4_EXCEPTION_DISPOSITION@@PEAUEHExceptionRecord@@PEA_KPEAU_CONTEXT@@PEAU_xDISPATCHER_CONTEXT@@PEBU_s_FuncInfo@@H1E@Z 0000000180069b20 f i libvcruntimed:frame.obj
 0001:00068b90       ??$__InternalCxxFrameHandlerWrapper@V__FrameHandler4@@@@YA?AW4_EXCEPTION_DISPOSITION@@PEAUEHExceptionRecord@@PEA_KPEAU_CONTEXT@@PEAU_xDISPATCHER_CONTEXT@@PEAUFuncInfo4@FH4@@H1E@Z 0000000180069b90 f i libvcruntimed:frame.obj
 0001:00068c20       ??0HandlerMap4@FH4@@QEAA@PEBUTryBlockMapEntry4@1@_KH@Z 0000000180069c20 f i libvcruntimed:frame.obj
 0001:00068d00       ??0HandlerMap@__FrameHandler3@@QEAA@PEBU_s_TryBlockMapEntry@@_KI@Z 0000000180069d00 f i libvcruntimed:frame.obj
 0001:00068d50       ??0HandlerType4@FH4@@QEAA@XZ 0000000180069d50 f i libvcruntimed:frame.obj
 0001:00068d70       ??0TryBlockMap4@FH4@@QEAA@PEBUFuncInfo4@1@_K@Z 0000000180069d70 f i libvcruntimed:frame.obj
 0001:00068e30       ??0TryBlockMap@__FrameHandler3@@QEAA@PEBU_s_FuncInfo@@_K@Z 0000000180069e30 f i libvcruntimed:frame.obj
 0001:00068e60       ??0UWMap4@FH4@@QEAA@PEBUFuncInfo4@1@_K@Z 0000000180069e60 f i libvcruntimed:frame.obj
 0001:00068ef0       ??0bad_exception@std@@QEAA@AEBV01@@Z 0000000180069ef0 f i libvcruntimed:frame.obj
 0001:00068f30       ??0bad_exception@std@@QEAA@XZ 0000000180069f30 f i libvcruntimed:frame.obj
 0001:00068f70       ??0exception@std@@QEAA@AEBV01@@Z 0000000180069f70 f i libvcruntimed:frame.obj
 0001:00068fd0       ??0exception@std@@QEAA@QEBDH@Z 0000000180069fd0 f i libvcruntimed:frame.obj
 0001:00069020       ??0iterator@HandlerMap4@FH4@@QEAA@AEAV12@I@Z 000000018006a020 f i libvcruntimed:frame.obj
 0001:00069050       ??0iterator@HandlerMap@__FrameHandler3@@QEAA@AEAV12@I@Z 000000018006a050 f i libvcruntimed:frame.obj
 0001:00069080       ??0iterator@UWMap4@FH4@@QEAA@AEAV12@PEAE@Z 000000018006a080 f i libvcruntimed:frame.obj
 0001:000690b0       ??1bad_exception@std@@UEAA@XZ 000000018006a0b0 f i libvcruntimed:frame.obj
 0001:000690d0       ??1exception@std@@UEAA@XZ  000000018006a0d0 f i libvcruntimed:frame.obj
 0001:00069100       ??4iterator@UWMap4@FH4@@QEAAAEAV012@AEBV012@@Z 000000018006a100 f i libvcruntimed:frame.obj
 0001:00069150       ??8iterator@HandlerMap4@FH4@@QEBA_NAEBV012@@Z 000000018006a150 f i libvcruntimed:frame.obj
 0001:00069190       ??8iterator@HandlerMap@__FrameHandler3@@QEBA_NAEBV012@@Z 000000018006a190 f i libvcruntimed:frame.obj
 0001:000691d0       ??8type_info@@QEBA_NAEBV0@@Z 000000018006a1d0 f i libvcruntimed:frame.obj
 0001:00069250       ??9iterator@HandlerMap4@FH4@@QEBA_NAEBV012@@Z 000000018006a250 f i libvcruntimed:frame.obj
 0001:00069290       ??9iterator@HandlerMap@__FrameHandler3@@QEBA_NAEBV012@@Z 000000018006a290 f i libvcruntimed:frame.obj
 0001:000692d0       ??Diterator@HandlerMap4@FH4@@QEAA?AUHandlerType4@2@XZ 000000018006a2d0 f i libvcruntimed:frame.obj
 0001:00069300       ??Diterator@HandlerMap@__FrameHandler3@@QEAA?BU_s_HandlerType@@XZ 000000018006a300 f i libvcruntimed:frame.obj
 0001:00069340       ??Diterator@TryBlockMap@__FrameHandler3@@QEAA?BU_s_TryBlockMapEntry@@XZ 000000018006a340 f i libvcruntimed:frame.obj
 0001:00069390       ??Diterator@UWMap4@FH4@@QEAA?AUUnwindMapEntry4@2@XZ 000000018006a390 f i libvcruntimed:frame.obj
 0001:00069410       ??Eiterator@HandlerMap4@FH4@@QEAAAEAV012@XZ 000000018006a410 f i libvcruntimed:frame.obj
 0001:00069450       ??Eiterator@HandlerMap@__FrameHandler3@@QEAAAEAV012@XZ 000000018006a450 f i libvcruntimed:frame.obj
 0001:00069470       ??Eiterator@TryBlockMap@__FrameHandler3@@QEAAAEAV012@XZ 000000018006a470 f i libvcruntimed:frame.obj
 0001:00069490       ??Eiterator@UWMap4@FH4@@QEAAAEAV012@XZ 000000018006a490 f i libvcruntimed:frame.obj
 0001:000694d0       ??Giterator@UWMap4@FH4@@QEBA_JAEBV012@@Z 000000018006a4d0 f i libvcruntimed:frame.obj
 0001:000694f0       ??Miterator@TryBlockMap4@FH4@@QEBA_NAEBV012@@Z 000000018006a4f0 f i libvcruntimed:frame.obj
 0001:00069530       ??Miterator@TryBlockMap@__FrameHandler3@@QEBA_NAEBV012@@Z 000000018006a530 f i libvcruntimed:frame.obj
 0001:00069570       ??Oiterator@UWMap4@FH4@@QEBA_NAEBV012@@Z 000000018006a570 f i libvcruntimed:frame.obj
 0001:000695b0       ??Piterator@UWMap4@FH4@@QEBA_NAEBV012@@Z 000000018006a5b0 f i libvcruntimed:frame.obj
 0001:000695f0       ??_Ebad_exception@std@@UEAAPEAXI@Z 000000018006a5f0 f i libvcruntimed:frame.obj
 0001:000695f0       ??_Gbad_exception@std@@UEAAPEAXI@Z 000000018006a5f0 f i libvcruntimed:frame.obj
 0001:00069630       ??_Eexception@std@@UEAAPEAXI@Z 000000018006a630 f i libvcruntimed:frame.obj
 0001:00069630       ??_Gexception@std@@UEAAPEAXI@Z 000000018006a630 f i libvcruntimed:frame.obj
 0001:00069670       ?BuildCatchObject@__FrameHandler3@@SAXPEAUEHExceptionRecord@@PEAXPEBU_s_HandlerType@@PEBU_s_CatchableType@@@Z 000000018006a670 f   libvcruntimed:frame.obj
 0001:000696b0       ?BuildCatchObject@__FrameHandler4@@SAXPEAUEHExceptionRecord@@PEAXPEAUHandlerType4@FH4@@PEBU_s_CatchableType@@@Z 000000018006a6b0 f   libvcruntimed:frame.obj
 0001:000696f0       ?BuildCatchObjectHelper@__FrameHandler3@@SAHPEAUEHExceptionRecord@@PEAXPEBU_s_HandlerType@@PEBU_s_CatchableType@@@Z 000000018006a6f0 f   libvcruntimed:frame.obj
 0001:00069730       ?BuildCatchObjectHelper@__FrameHandler4@@SAHPEAUEHExceptionRecord@@PEAXPEAUHandlerType4@FH4@@PEBU_s_CatchableType@@@Z 000000018006a730 f   libvcruntimed:frame.obj
 0001:00069770       ?CxxCallCatchBlock@__FrameHandler3@@SAPEAXPEAU_EXCEPTION_RECORD@@@Z 000000018006a770 f   libvcruntimed:frame.obj
 0001:000699d0       ?CxxCallCatchBlock@__FrameHandler4@@SAPEAXPEAU_EXCEPTION_RECORD@@@Z 000000018006a9d0 f   libvcruntimed:frame.obj
 0001:00069d00       ?DecompHandler@HandlerMap4@FH4@@AEAAXXZ 000000018006ad00 f i libvcruntimed:frame.obj
 0001:0006a0d0       ?FrameUnwindToState@__FrameHandler3@@SAXPEA_KPEAU_xDISPATCHER_CONTEXT@@PEBU_s_FuncInfo@@H@Z 000000018006b0d0 f   libvcruntimed:frame.obj
 0001:0006a320       ?FrameUnwindToState@__FrameHandler4@@SAXPEA_KPEAU_xDISPATCHER_CONTEXT@@PEAUFuncInfo4@FH4@@H@Z 000000018006b320 f   libvcruntimed:frame.obj
 0001:0006a640       ?GetHandlerSearchState@__FrameHandler3@@SAHPEA_KPEAU_xDISPATCHER_CONTEXT@@PEBU_s_FuncInfo@@@Z 000000018006b640 f i libvcruntimed:frame.obj
 0001:0006a6f0       ?GetHandlerSearchState@__FrameHandler4@@SAHPEA_KPEAU_xDISPATCHER_CONTEXT@@PEAUFuncInfo4@FH4@@@Z 000000018006b6f0 f i libvcruntimed:frame.obj
 0001:0006a780       ?GetMaxState@__FrameHandler3@@SAHPEAU_xDISPATCHER_CONTEXT@@PEBU_s_FuncInfo@@@Z 000000018006b780 f i libvcruntimed:frame.obj
 0001:0006a7a0       ?GetMaxState@__FrameHandler4@@SAHPEAU_xDISPATCHER_CONTEXT@@PEAUFuncInfo4@FH4@@@Z 000000018006b7a0 f i libvcruntimed:frame.obj
 0001:0006a9d0       ?ReadEntry@UWMap4@FH4@@AEAAXPEAPEAE@Z 000000018006b9d0 f i libvcruntimed:frame.obj
 0001:0006aa80       ?TypeMatch@__FrameHandler3@@SAHPEBU_s_HandlerType@@PEBU_s_CatchableType@@PEBU_s_ThrowInfo@@@Z 000000018006ba80 f   libvcruntimed:frame.obj
 0001:0006aab0       ?TypeMatch@__FrameHandler4@@SAHPEAUHandlerType4@FH4@@PEBU_s_CatchableType@@PEBU_s_ThrowInfo@@@Z 000000018006bab0 f   libvcruntimed:frame.obj
 0001:0006aae0       ?WalkBack@UWMap4@FH4@@AEAAXPEAPEAE@Z 000000018006bae0 f i libvcruntimed:frame.obj
 0001:0006ab30       ?WalkBack@iterator@UWMap4@FH4@@QEAAXXZ 000000018006bb30 f i libvcruntimed:frame.obj
 0001:0006ab70       ?WalkForward@UWMap4@FH4@@AEAAXPEAPEAE@Z 000000018006bb70 f i libvcruntimed:frame.obj
 0001:0006aba0       ?_CallMemberFunction1@@YAXQEAX00@Z 000000018006bba0 f i libvcruntimed:frame.obj
 0001:0006abe0       ?_CallMemberFunction2@@YAXQEAX00H@Z 000000018006bbe0 f i libvcruntimed:frame.obj
 0001:0006ac70       ?begin@HandlerMap4@FH4@@QEAA?AViterator@12@XZ 000000018006bc70 f i libvcruntimed:frame.obj
 0001:0006aca0       ?begin@HandlerMap@__FrameHandler3@@QEAA?AViterator@12@XZ 000000018006bca0 f i libvcruntimed:frame.obj
 0001:0006acd0       ?begin@UWMap4@FH4@@QEAA?AViterator@12@XZ 000000018006bcd0 f i libvcruntimed:frame.obj
 0001:0006ad00       ?end@HandlerMap4@FH4@@QEAA?AViterator@12@XZ 000000018006bd00 f i libvcruntimed:frame.obj
 0001:0006ad30       ?end@HandlerMap@__FrameHandler3@@QEAA?AViterator@12@XZ 000000018006bd30 f i libvcruntimed:frame.obj
 0001:0006ad60       ?getESTypes@__FrameHandler3@@SAPEBU_s_ESTypeList@@PEBU_s_FuncInfo@@@Z 000000018006bd60 f i libvcruntimed:frame.obj
 0001:0006ada0       ?getESTypes@__FrameHandler4@@SAPEBU_s_ESTypeList@@PEAUFuncInfo4@FH4@@@Z 000000018006bda0 f i libvcruntimed:frame.obj
 0001:0006adb0       ?getLastEntry@HandlerMap4@FH4@@QEAAPEAUHandlerType4@2@XZ 000000018006bdb0 f i libvcruntimed:frame.obj
 0001:0006adf0       ?getLastEntry@HandlerMap@__FrameHandler3@@QEAAPEBU_s_HandlerType@@XZ 000000018006bdf0 f i libvcruntimed:frame.obj
 0001:0006ae10       ?getMagicNum@__FrameHandler3@@SAIPEBU_s_FuncInfo@@@Z 000000018006be10 f i libvcruntimed:frame.obj
 0001:0006ae30       ?getMagicNum@__FrameHandler4@@SAIPEAUFuncInfo4@FH4@@@Z 000000018006be30 f i libvcruntimed:frame.obj
 0001:0006ae40       ?getNumTryBlocks@TryBlockMap4@FH4@@QEAAIXZ 000000018006be40 f i libvcruntimed:frame.obj
 0001:0006ae50       ?getNumTryBlocks@TryBlockMap@__FrameHandler3@@QEAAIXZ 000000018006be50 f i libvcruntimed:frame.obj
 0001:0006ae70       ?getStartStop@UWMap4@FH4@@QEAAXHHAEAViterator@12@0@Z 000000018006be70 f i libvcruntimed:frame.obj
 0001:0006af90       ?getStateFromIterators@UWMap4@FH4@@SAHAEBViterator@12@H0H0@Z 000000018006bf90 f i libvcruntimed:frame.obj
 0001:0006b0d0       ?isEHs@__FrameHandler3@@SA_NPEBU_s_FuncInfo@@@Z 000000018006c0d0 f i libvcruntimed:frame.obj
 0001:0006b110       ?isEHs@__FrameHandler4@@SA_NPEAUFuncInfo4@FH4@@@Z 000000018006c110 f i libvcruntimed:frame.obj
 0001:0006b130       ?isNoExcept@__FrameHandler3@@SA_NPEBU_s_FuncInfo@@@Z 000000018006c130 f i libvcruntimed:frame.obj
 0001:0006b170       ?isNoExcept@__FrameHandler4@@SA_NPEAUFuncInfo4@FH4@@@Z 000000018006c170 f i libvcruntimed:frame.obj
 0001:0006b190       ?reset@HandlerType4@FH4@@QEAAXXZ 000000018006c190 f i libvcruntimed:frame.obj
 0001:0006b1f0       ?resetBuffer@HandlerMap4@FH4@@QEAAXXZ 000000018006c1f0 f i libvcruntimed:frame.obj
 0001:0006b210       ?setBuffer@HandlerMap4@FH4@@QEAAXI@Z 000000018006c210 f i libvcruntimed:frame.obj
 0001:0006b270       ?what@exception@std@@UEBAPEBDXZ 000000018006c270 f i libvcruntimed:frame.obj
 0001:0006b2b0       __BuildCatchObject         000000018006c2b0 f   libvcruntimed:frame.obj
 0001:0006b2f0       __BuildCatchObjectHelper   000000018006c2f0 f   libvcruntimed:frame.obj
 0001:0006b330       __TypeMatch                000000018006c330 f   libvcruntimed:frame.obj
 0001:0006b360       __vcrt_EncodePointer       000000018006c360 f i libvcruntimed:frame.obj
 0001:0006b3c0       _CallSettingFrame          000000018006c3c0 f   libvcruntimed:handlers.obj
 0001:0006b400       _CallSettingFrame_LookupContinuationIndex 000000018006c400 f   libvcruntimed:handlers.obj
 0001:0006b430       _CallSettingFrame_NotifyContinuationAddr 000000018006c430 f   libvcruntimed:handlers.obj
 0001:0006b460       _CallSettingFrameEncoded   000000018006c460 f   libvcruntimed:handlers.obj
 0001:0006b4b0       ??$?RD@__crt_public_free_policy@@QEBAXQEBD@Z 000000018006c4b0 f i libvcruntimed:std_exception.obj
 0001:0006b4d0       ??0?$__crt_unique_heap_ptr@DU__crt_public_free_policy@@@@QEAA@QEAD@Z 000000018006c4d0 f i libvcruntimed:std_exception.obj
 0001:0006b4f0       ??1?$__crt_unique_heap_ptr@DU__crt_public_free_policy@@@@QEAA@XZ 000000018006c4f0 f i libvcruntimed:std_exception.obj
 0001:0006b510       ??B?$__crt_unique_heap_ptr@DU__crt_public_free_policy@@@@QEBA_NXZ 000000018006c510 f i libvcruntimed:std_exception.obj
 0001:0006b530       ?detach@?$__crt_unique_heap_ptr@DU__crt_public_free_policy@@@@QEAAPEADXZ 000000018006c530 f i libvcruntimed:std_exception.obj
 0001:0006b560       ?get@?$__crt_unique_heap_ptr@DU__crt_public_free_policy@@@@QEBAPEADXZ 000000018006c560 f i libvcruntimed:std_exception.obj
 0001:0006b570       ?is_valid@?$__crt_unique_heap_ptr@DU__crt_public_free_policy@@@@QEBA_NXZ 000000018006c570 f i libvcruntimed:std_exception.obj
 0001:0006b5a0       ?release@?$__crt_unique_heap_ptr@DU__crt_public_free_policy@@@@QEAAXXZ 000000018006c5a0 f i libvcruntimed:std_exception.obj
 0001:0006b5d0       __std_exception_copy       000000018006c5d0 f   libvcruntimed:std_exception.obj
 0001:0006b710       __std_exception_destroy    000000018006c710 f   libvcruntimed:std_exception.obj
 0001:0006b750       _CxxThrowException         000000018006c750 f   libvcruntimed:throw.obj
 0001:0006b8a0       strcmp                     000000018006c8a0 f   libucrtd:strcmp.obj
 0001:0006b930       fabs                       000000018006c930 f   libucrtd:fabs.obj
 0001:0006b950       atan2f                     000000018006c950 f   libucrtd:atan2f.obj
 0001:0006c450       sqrtf                      000000018006d450 f   libucrtd:sqrtf.obj
 0001:0006c590       floorf                     000000018006d590 f   libucrtd:floorf.obj
 0001:0006c6e0       _fpclass                   000000018006d6e0 f   libucrtd:ieeemisc.obj
 0001:0006c8a0       _fpclassf                  000000018006d8a0 f   libucrtd:ieeemisc.obj
 0001:0006c9d0       _isnan                     000000018006d9d0 f   libucrtd:ieeemisc.obj
 0001:0006ca30       _isnanf                    000000018006da30 f   libucrtd:ieeemisc.obj
 0001:0006ca80       _nextafter                 000000018006da80 f   libucrtd:ieeemisc.obj
 0001:0006cab0       _nextafterf                000000018006dab0 f   libucrtd:ieeemisc.obj
 0001:0006cae0       _scalb                     000000018006dae0 f   libucrtd:ieeemisc.obj
 0001:0006cef0       _scalbf                    000000018006def0 f   libucrtd:ieeemisc.obj
 0001:0006d260       ??$__crt_interlocked_read@J@@YAJPEDJ@Z 000000018006e260 f i libucrtd:assert.obj
 0001:0006f3f0       ??$ftprintf@PEAU_iobuf@@PEBDAEBQEBDAEBQEBDAEBI@?$__crt_char_traits@D@@SAH$$QEAPEAU_iobuf@@$$QEAPEBDAEBQEBD2AEBI@Z 00000001800703f0 f i libucrtd:assert.obj
 0001:0006f440       ??$ftprintf@PEAU_iobuf@@PEB_WAEBQEB_WAEBQEB_WAEBI@?$__crt_char_traits@_W@@SAH$$QEAPEAU_iobuf@@$$QEAPEB_WAEBQEB_W2AEBI@Z 0000000180070440 f i libucrtd:assert.obj
 0001:0006f490       ??$get_module_file_name@AEAPEAUHINSTANCE__@@AEAY0BAF@DK@?$__crt_char_traits@D@@SAKAEAPEAUHINSTANCE__@@AEAY0BAF@D$$QEAK@Z 0000000180070490 f i libucrtd:assert.obj
 0001:0006f4d0       ??$get_module_file_name@AEAPEAUHINSTANCE__@@AEAY0BAF@_WK@?$__crt_char_traits@_W@@SAKAEAPEAUHINSTANCE__@@AEAY0BAF@_W$$QEAK@Z 00000001800704d0 f i libucrtd:assert.obj
 0001:0006f510       ??$itot_s@AEBIPEAD_KH@?$__crt_char_traits@D@@SAHAEBI$$QEAPEAD$$QEA_K$$QEAH@Z 0000000180070510 f i libucrtd:assert.obj
 0001:0006f560       ??$itot_s@AEBIPEA_W_KH@?$__crt_char_traits@_W@@SAHAEBI$$QEAPEA_W$$QEA_K$$QEAH@Z 0000000180070560 f i libucrtd:assert.obj
 0001:0006f5b0       ??$show_message_box@AEAY0CEA@DPEBDJ@?$__crt_char_traits@D@@SAHAEAY0CEA@D$$QEAPEBD$$QEAJ@Z 00000001800705b0 f i libucrtd:assert.obj
 0001:0006f5f0       ??$show_message_box@AEAY0CEA@_WPEB_WJ@?$__crt_char_traits@_W@@SAHAEAY0CEA@_W$$QEAPEB_W$$QEAJ@Z 00000001800705f0 f i libucrtd:assert.obj
 0001:0006f630       ??$tcscat_s@AEBQEADAEB_KAEAPEAD@?$__crt_char_traits@D@@SAHAEBQEADAEB_KAEAPEAD@Z 0000000180070630 f i libucrtd:assert.obj
 0001:0006f670       ??$tcscat_s@AEBQEADAEB_KAEBQEBD@?$__crt_char_traits@D@@SAHAEBQEADAEB_KAEBQEBD@Z 0000000180070670 f i libucrtd:assert.obj
 0001:0006f6b0       ??$tcscat_s@AEBQEADAEB_KPEBD@?$__crt_char_traits@D@@SAHAEBQEADAEB_K$$QEAPEBD@Z 00000001800706b0 f i libucrtd:assert.obj
 0001:0006f6f0       ??$tcscat_s@AEBQEA_WAEB_KAEAPEA_W@?$__crt_char_traits@_W@@SAHAEBQEA_WAEB_KAEAPEA_W@Z 00000001800706f0 f i libucrtd:assert.obj
 0001:0006f730       ??$tcscat_s@AEBQEA_WAEB_KAEBQEB_W@?$__crt_char_traits@_W@@SAHAEBQEA_WAEB_KAEBQEB_W@Z 0000000180070730 f i libucrtd:assert.obj
 0001:0006f770       ??$tcscat_s@AEBQEA_WAEB_KPEB_W@?$__crt_char_traits@_W@@SAHAEBQEA_WAEB_K$$QEAPEB_W@Z 0000000180070770 f i libucrtd:assert.obj
 0001:0006f7b0       ??$tcscpy_s@AEAY0BAF@D_KPEBD@?$__crt_char_traits@D@@SAHAEAY0BAF@D$$QEA_K$$QEAPEBD@Z 00000001800707b0 f i libucrtd:assert.obj
 0001:0006f7f0       ??$tcscpy_s@AEAY0BAF@_W_KPEB_W@?$__crt_char_traits@_W@@SAHAEAY0BAF@_W$$QEA_K$$QEAPEB_W@Z 00000001800707f0 f i libucrtd:assert.obj
 0001:0006f830       ??$tcscpy_s@AEBQEADAEB_KPEBD@?$__crt_char_traits@D@@SAHAEBQEADAEB_K$$QEAPEBD@Z 0000000180070830 f i libucrtd:assert.obj
 0001:0006f870       ??$tcscpy_s@AEBQEA_WAEB_KPEB_W@?$__crt_char_traits@_W@@SAHAEBQEA_WAEB_K$$QEAPEB_W@Z 0000000180070870 f i libucrtd:assert.obj
 0001:0006f8b0       ??$tcslen@AEAY0BAF@D@?$__crt_char_traits@D@@SA_KAEAY0BAF@D@Z 00000001800708b0 f i libucrtd:assert.obj
 0001:0006f8d0       ??$tcslen@AEAY0BAF@_W@?$__crt_char_traits@_W@@SA_KAEAY0BAF@_W@Z 00000001800708d0 f i libucrtd:assert.obj
 0001:0006f8f0       ??$tcslen@AEBQEAD@?$__crt_char_traits@D@@SA_KAEBQEAD@Z 00000001800708f0 f i libucrtd:assert.obj
 0001:0006f910       ??$tcslen@AEBQEA_W@?$__crt_char_traits@_W@@SA_KAEBQEA_W@Z 0000000180070910 f i libucrtd:assert.obj
 0001:0006f930       ??$tcslen@AEBQEBD@?$__crt_char_traits@D@@SA_KAEBQEBD@Z 0000000180070930 f i libucrtd:assert.obj
 0001:0006f950       ??$tcslen@AEBQEB_W@?$__crt_char_traits@_W@@SA_KAEBQEB_W@Z 0000000180070950 f i libucrtd:assert.obj
 0001:0006f970       ??$tcsncat_s@AEBQEADAEB_KAEAPEBD_K@?$__crt_char_traits@D@@SAHAEBQEADAEB_KAEAPEBD$$QEA_K@Z 0000000180070970 f i libucrtd:assert.obj
 0001:0006f9c0       ??$tcsncat_s@AEBQEADAEB_KAEBQEBDAEB_K@?$__crt_char_traits@D@@SAHAEBQEADAEB_KAEBQEBD1@Z 00000001800709c0 f i libucrtd:assert.obj
 0001:0006fa10       ??$tcsncat_s@AEBQEADAEB_KPEBD_K@?$__crt_char_traits@D@@SAHAEBQEADAEB_K$$QEAPEBD$$QEA_K@Z 0000000180070a10 f i libucrtd:assert.obj
 0001:0006fa60       ??$tcsncat_s@AEBQEA_WAEB_KAEAPEB_W_K@?$__crt_char_traits@_W@@SAHAEBQEA_WAEB_KAEAPEB_W$$QEA_K@Z 0000000180070a60 f i libucrtd:assert.obj
 0001:0006fab0       ??$tcsncat_s@AEBQEA_WAEB_KAEBQEB_WAEB_K@?$__crt_char_traits@_W@@SAHAEBQEA_WAEB_KAEBQEB_W1@Z 0000000180070ab0 f i libucrtd:assert.obj
 0001:0006fb00       ??$tcsncat_s@AEBQEA_WAEB_KPEB_W_K@?$__crt_char_traits@_W@@SAHAEBQEA_WAEB_K$$QEAPEB_W$$QEA_K@Z 0000000180070b00 f i libucrtd:assert.obj
 0001:0006fb50       ??0__crt_stdio_stream@@QEAA@QEAU_iobuf@@@Z 0000000180070b50 f i libucrtd:assert.obj
 0001:0006fb70       ?__crt_interlocked_read_32@@YAHPEDH@Z 0000000180070b70 f i libucrtd:assert.obj
 0001:0006fd80       ?get_flags@__crt_stdio_stream@@QEBAJXZ 0000000180070d80 f i libucrtd:assert.obj
 0001:0006fe70       ?has_any_buffer@__crt_stdio_stream@@QEBA_NXZ 0000000180070e70 f i libucrtd:assert.obj
 0001:0006fe90       ?has_any_of@__crt_stdio_stream@@QEBA_NJ@Z 0000000180070e90 f i libucrtd:assert.obj
 0001:0006fed0       _assert                    0000000180070ed0 f   libucrtd:assert.obj
 0001:0006ff10       _invoke_watson_if_error    0000000180070f10 f i libucrtd:assert.obj
 0001:0006ff60       _vfprintf_l                0000000180070f60 f i libucrtd:assert.obj
 0001:0006ffb0       _vfwprintf_l               0000000180070fb0 f i libucrtd:assert.obj
 0001:00070000       _vswprintf_c_l             0000000180071000 f i libucrtd:assert.obj
 0001:00070070       _wassert                   0000000180071070 f   libucrtd:assert.obj
 0001:000700b0       fprintf                    00000001800710b0 f i libucrtd:assert.obj
 0001:00070100       fwprintf                   0000000180071100 f i libucrtd:assert.obj
 0001:00070290       swprintf                   0000000180071290 f i libucrtd:assert.obj
 0001:000702f0       _abs64                     00000001800712f0 f   libucrtd:abs.obj
 0001:00070330       abs                        0000000180071330 f   libucrtd:abs.obj
 0001:00070360       powf                       0000000180071360 f   libucrtd:powf.obj
 0001:00071230       cosf                       0000000180072230 f   libucrtd:cosf.obj
 0001:00071730       sinf                       0000000180072730 f   libucrtd:sinf.obj
 0001:00071e30       ??$?RU?$__crt_report_hook_node@D@@@__crt_internal_free_policy@@QEBAXQEBU?$__crt_report_hook_node@D@@@Z 0000000180072e30 f i libucrtd:dbgrpt.obj
 0001:00071e60       ??$?RU?$__crt_report_hook_node@_W@@@__crt_internal_free_policy@@QEBAXQEBU?$__crt_report_hook_node@_W@@@Z 0000000180072e60 f i libucrtd:dbgrpt.obj
 0001:000731c0       ??0?$__crt_unique_heap_ptr@U?$__crt_report_hook_node@D@@U__crt_internal_free_policy@@@@QEAA@QEAU?$__crt_report_hook_node@D@@@Z 00000001800741c0 f i libucrtd:dbgrpt.obj
 0001:000731e0       ??0?$__crt_unique_heap_ptr@U?$__crt_report_hook_node@_W@@U__crt_internal_free_policy@@@@QEAA@QEAU?$__crt_report_hook_node@_W@@@Z 00000001800741e0 f i libucrtd:dbgrpt.obj
 0001:00073200       ??1?$__crt_unique_heap_ptr@U?$__crt_report_hook_node@D@@U__crt_internal_free_policy@@@@QEAA@XZ 0000000180074200 f i libucrtd:dbgrpt.obj
 0001:00073220       ??1?$__crt_unique_heap_ptr@U?$__crt_report_hook_node@_W@@U__crt_internal_free_policy@@@@QEAA@XZ 0000000180074220 f i libucrtd:dbgrpt.obj
 0001:00073240       ??B?$__crt_unique_heap_ptr@U?$__crt_report_hook_node@D@@U__crt_internal_free_policy@@@@QEBA_NXZ 0000000180074240 f i libucrtd:dbgrpt.obj
 0001:00073260       ??B?$__crt_unique_heap_ptr@U?$__crt_report_hook_node@_W@@U__crt_internal_free_policy@@@@QEBA_NXZ 0000000180074260 f i libucrtd:dbgrpt.obj
 0001:00073980       ?detach@?$__crt_unique_heap_ptr@U?$__crt_report_hook_node@D@@U__crt_internal_free_policy@@@@QEAAPEAU?$__crt_report_hook_node@D@@XZ 0000000180074980 f i libucrtd:dbgrpt.obj
 0001:000739b0       ?detach@?$__crt_unique_heap_ptr@U?$__crt_report_hook_node@_W@@U__crt_internal_free_policy@@@@QEAAPEAU?$__crt_report_hook_node@_W@@XZ 00000001800749b0 f i libucrtd:dbgrpt.obj
 0001:000739e0       ?get@?$__crt_unique_heap_ptr@U?$__crt_report_hook_node@D@@U__crt_internal_free_policy@@@@QEBAPEAU?$__crt_report_hook_node@D@@XZ 00000001800749e0 f i libucrtd:dbgrpt.obj
 0001:000739f0       ?get@?$__crt_unique_heap_ptr@U?$__crt_report_hook_node@_W@@U__crt_internal_free_policy@@@@QEBAPEAU?$__crt_report_hook_node@_W@@XZ 00000001800749f0 f i libucrtd:dbgrpt.obj
 0001:00073a60       ?is_valid@?$__crt_unique_heap_ptr@U?$__crt_report_hook_node@D@@U__crt_internal_free_policy@@@@QEBA_NXZ 0000000180074a60 f i libucrtd:dbgrpt.obj
 0001:00073a90       ?is_valid@?$__crt_unique_heap_ptr@U?$__crt_report_hook_node@_W@@U__crt_internal_free_policy@@@@QEBA_NXZ 0000000180074a90 f i libucrtd:dbgrpt.obj
 0001:00073ac0       ?release@?$__crt_unique_heap_ptr@U?$__crt_report_hook_node@D@@U__crt_internal_free_policy@@@@QEAAXXZ 0000000180074ac0 f i libucrtd:dbgrpt.obj
 0001:00073af0       ?release@?$__crt_unique_heap_ptr@U?$__crt_report_hook_node@_W@@U__crt_internal_free_policy@@@@QEAAXXZ 0000000180074af0 f i libucrtd:dbgrpt.obj
 0001:00073b20       _CrtDbgReport              0000000180074b20 f   libucrtd:dbgrpt.obj
 0001:00073ba0       _CrtDbgReportW             0000000180074ba0 f   libucrtd:dbgrpt.obj
 0001:00073c20       _CrtSetReportHook2         0000000180074c20 f   libucrtd:dbgrpt.obj
 0001:00073c40       _CrtSetReportHookW2        0000000180074c40 f   libucrtd:dbgrpt.obj
 0001:00073c60       __acrt_MessageWindowA      0000000180074c60 f   libucrtd:dbgrpt.obj
 0001:00073cb0       __acrt_MessageWindowW      0000000180074cb0 f   libucrtd:dbgrpt.obj
 0001:00073d00       _invoke_watson_if_oneof    0000000180074d00 f i libucrtd:dbgrpt.obj
 0001:00073d60       _snwprintf_s               0000000180074d60 f i libucrtd:dbgrpt.obj
 0001:00073dd0       _vsnwprintf_s_l            0000000180074dd0 f i libucrtd:dbgrpt.obj
 0001:00073e50       ??0_LocaleUpdate@@QEAA@QEAU__crt_locale_pointers@@@Z 0000000180074e50 f i libucrtd:debug_heap.obj
 0001:00073f70       ??1_LocaleUpdate@@QEAA@XZ  0000000180074f70 f i libucrtd:debug_heap.obj
 0001:00073fa0       ?GetLocaleT@_LocaleUpdate@@QEAAPEAU__crt_locale_pointers@@XZ 0000000180074fa0 f i libucrtd:debug_heap.obj
 0001:00076350       _CrtCheckMemory            0000000180077350 f   libucrtd:debug_heap.obj
 0001:000764e0       _CrtDoForAllClientObjects  00000001800774e0 f   libucrtd:debug_heap.obj
 0001:00076630       _CrtDumpMemoryLeaks        0000000180077630 f   libucrtd:debug_heap.obj
 0001:000766f0       _CrtGetAllocHook           00000001800776f0 f   libucrtd:debug_heap.obj
 0001:00076700       _CrtGetDumpClient          0000000180077700 f   libucrtd:debug_heap.obj
 0001:00076710       _CrtIsMemoryBlock          0000000180077710 f   libucrtd:debug_heap.obj
 0001:00076850       _CrtIsValidHeapPointer     0000000180077850 f   libucrtd:debug_heap.obj
 0001:000768a0       _CrtIsValidPointer         00000001800778a0 f   libucrtd:debug_heap.obj
 0001:000768e0       _CrtMemCheckpoint          00000001800778e0 f   libucrtd:debug_heap.obj
 0001:00076b60       _CrtMemDifference          0000000180077b60 f   libucrtd:debug_heap.obj
 0001:00076ec0       _CrtMemDumpAllObjectsSince 0000000180077ec0 f   libucrtd:debug_heap.obj
 0001:00076f20       _CrtMemDumpStatistics      0000000180077f20 f   libucrtd:debug_heap.obj
 0001:000770c0       _CrtReportBlockType        00000001800780c0 f   libucrtd:debug_heap.obj
 0001:000770f0       _CrtSetAllocHook           00000001800780f0 f   libucrtd:debug_heap.obj
 0001:00077120       _CrtSetBreakAlloc          0000000180078120 f   libucrtd:debug_heap.obj
 0001:00077150       _CrtSetDbgBlockType        0000000180078150 f   libucrtd:debug_heap.obj
 0001:000771f0       _CrtSetDbgFlag             00000001800781f0 f   libucrtd:debug_heap.obj
 0001:00077350       _CrtSetDumpClient          0000000180078350 f   libucrtd:debug_heap.obj
 0001:00077380       __acrt_disable_global_locale_sync 0000000180078380 f i libucrtd:debug_heap.obj
 0001:000773b0       __acrt_enable_global_locale_sync 00000001800783b0 f i libucrtd:debug_heap.obj
 0001:000773e0       __acrt_get_locale_data_prefix 00000001800783e0 f i libucrtd:debug_heap.obj
 0001:00077400       __acrt_locale_changed      0000000180078400 f i libucrtd:debug_heap.obj
 0001:00077430       __p__crtBreakAlloc         0000000180078430 f   libucrtd:debug_heap.obj
 0001:00077440       __p__crtDbgFlag            0000000180078440 f   libucrtd:debug_heap.obj
 0001:00077450       _aligned_free_dbg          0000000180078450 f   libucrtd:debug_heap.obj
 0001:00077540       _aligned_malloc_dbg        0000000180078540 f   libucrtd:debug_heap.obj
 0001:00077580       _aligned_msize_dbg         0000000180078580 f   libucrtd:debug_heap.obj
 0001:00077750       _aligned_offset_malloc_dbg 0000000180078750 f   libucrtd:debug_heap.obj
 0001:00077a40       _aligned_offset_realloc_dbg 0000000180078a40 f   libucrtd:debug_heap.obj
 0001:00077ef0       _aligned_offset_recalloc_dbg 0000000180078ef0 f   libucrtd:debug_heap.obj
 0001:00078010       _aligned_realloc_dbg       0000000180079010 f   libucrtd:debug_heap.obj
 0001:00078060       _aligned_recalloc_dbg      0000000180079060 f   libucrtd:debug_heap.obj
 0001:000780c0       _calloc_dbg                00000001800790c0 f   libucrtd:debug_heap.obj
 0001:00078160       _chvalidchk_l              0000000180079160 f i libucrtd:debug_heap.obj
 0001:00078190       _expand_dbg                0000000180079190 f   libucrtd:debug_heap.obj
 0001:000782c0       _free_dbg                  00000001800792c0 f   libucrtd:debug_heap.obj
 0001:00078330       _ischartype_l              0000000180079330 f i libucrtd:debug_heap.obj
 0001:000783c0       _malloc_dbg                00000001800793c0 f   libucrtd:debug_heap.obj
 0001:00078400       _msize_dbg                 0000000180079400 f   libucrtd:debug_heap.obj
 0001:000785a0       _realloc_dbg               00000001800795a0 f   libucrtd:debug_heap.obj
 0001:00078610       _recalloc_dbg              0000000180079610 f   libucrtd:debug_heap.obj
 0001:00078710       _initterm                  0000000180079710 f   libucrtd:initterm.obj
 0001:00078780       _initterm_e                0000000180079780 f   libucrtd:initterm.obj
 0001:00078870       _seh_filter_dll            0000000180079870 f   libucrtd:exception_filter.obj
 0001:000788a0       _seh_filter_exe            00000001800798a0 f   libucrtd:exception_filter.obj
 0001:00078b70       ??$?B$$A6AXPEAXK0@Z@__crt_fast_encoded_nullptr_t@@QEBAP6AXPEAXK0@ZXZ 0000000180079b70 f i libucrtd:exit.obj
 0001:00078c30       ??$__crt_fast_decode_pointer@P6AXPEAXK0@Z@@YAP6AXPEAXK0@ZQ6AX0K0@Z@Z 0000000180079c30 f i libucrtd:exit.obj
 0001:00078c70       ??$__crt_fast_encode_pointer@P6AXPEAXK0@Z@@YAP6AXPEAXK0@ZQ6AX0K0@Z@Z 0000000180079c70 f i libucrtd:exit.obj
 0001:00078cb0       ??$__crt_get_proc_address@P6AXI@Z@@YAP6AXI@ZQEAUHINSTANCE__@@QEBD@Z 0000000180079cb0 f i libucrtd:exit.obj
 0001:00078d70       ??0?$__crt_unique_handle_t@U__crt_hmodule_traits@@@@QEAA@QEAUHINSTANCE__@@@Z 0000000180079d70 f i libucrtd:exit.obj
 0001:00078d90       ??1?$__crt_unique_handle_t@U__crt_hmodule_traits@@@@QEAA@XZ 0000000180079d90 f i libucrtd:exit.obj
 0001:00078f10       ?__acrt_select_exit_lock@@YA?AW4__acrt_lock_id@@XZ 0000000180079f10 f i libucrtd:exit.obj
 0001:00078f20       ?__crt_fast_encode_pointer@@YA?AU__crt_fast_encoded_nullptr_t@@$$T@Z 0000000180079f20 f i libucrtd:exit.obj
 0001:00078f40       ?__crt_rotate_pointer_value@@YA_K_KH@Z 0000000180079f40 f i libucrtd:exit.obj
 0001:00078f80       ?close@?$__crt_unique_handle_t@U__crt_hmodule_traits@@@@QEAAXXZ 0000000180079f80 f i libucrtd:exit.obj
 0001:00078fc0       ?close@__crt_hmodule_traits@@SA_NPEAUHINSTANCE__@@@Z 0000000180079fc0 f i libucrtd:exit.obj
 0001:000790e0       ?get@?$__crt_unique_handle_t@U__crt_hmodule_traits@@@@QEBAPEAUHINSTANCE__@@XZ 000000018007a0e0 f i libucrtd:exit.obj
 0001:000790f0       ?get_address_of@?$__crt_unique_handle_t@U__crt_hmodule_traits@@@@QEAAPEAPEAUHINSTANCE__@@XZ 000000018007a0f0 f i libucrtd:exit.obj
 0001:00079100       ?get_invalid_value@__crt_hmodule_traits@@SAPEAUHINSTANCE__@@XZ 000000018007a100 f i libucrtd:exit.obj
 0001:000792b0       _Exit                      000000018007a2b0 f   libucrtd:exit.obj
 0001:000792d0       __acrt_initialize_thread_local_exit_callback 000000018007a2d0 f   libucrtd:exit.obj
 0001:000792f0       _c_exit                    000000018007a2f0 f   libucrtd:exit.obj
 0001:00079310       _cexit                     000000018007a310 f   libucrtd:exit.obj
 0001:00079330       _exit                      000000018007a330 f   libucrtd:exit.obj
 0001:00079350       _is_c_termination_complete 000000018007a350 f   libucrtd:exit.obj
 0001:00079370       _register_thread_local_exe_atexit_callback 000000018007a370 f   libucrtd:exit.obj
 0001:000793c0       exit                       000000018007a3c0 f   libucrtd:exit.obj
 0001:000793e0       quick_exit                 000000018007a3e0 f   libucrtd:exit.obj
 0001:00079400       ??$?RE@__crt_internal_free_policy@@QEBAXQEBE@Z 000000018007a400 f i libucrtd:argv_parsing.obj
 0001:00079430       ??$?RPEAD@__crt_internal_free_policy@@QEBAXQEBQEAD@Z 000000018007a430 f i libucrtd:argv_parsing.obj
 0001:00079460       ??$?RPEA_W@__crt_internal_free_policy@@QEBAXQEBQEA_W@Z 000000018007a460 f i libucrtd:argv_parsing.obj
 0001:00079bb0       ??$get_module_file_name@$$TAEAY0BAF@DH@?$__crt_char_traits@D@@SAK$$QEA$$TAEAY0BAF@D$$QEAH@Z 000000018007abb0 f i libucrtd:argv_parsing.obj
 0001:00079bf0       ??$get_module_file_name@$$TAEAY0BAF@_WH@?$__crt_char_traits@_W@@SAK$$QEA$$TAEAY0BAF@_W$$QEAH@Z 000000018007abf0 f i libucrtd:argv_parsing.obj
 0001:0007a5f0       ??$set_program_name@PEAD@?$__crt_char_traits@D@@SAX$$QEAPEAD@Z 000000018007b5f0 f i libucrtd:argv_parsing.obj
 0001:0007a610       ??$set_program_name@PEA_W@?$__crt_char_traits@_W@@SAX$$QEAPEA_W@Z 000000018007b610 f i libucrtd:argv_parsing.obj
 0001:0007a670       ??0?$__crt_unique_heap_ptr@EU__crt_internal_free_policy@@@@QEAA@QEAE@Z 000000018007b670 f i libucrtd:argv_parsing.obj
 0001:0007a690       ??0?$__crt_unique_heap_ptr@PEADU__crt_internal_free_policy@@@@QEAA@QEAPEAD@Z 000000018007b690 f i libucrtd:argv_parsing.obj
 0001:0007a6b0       ??0?$__crt_unique_heap_ptr@PEA_WU__crt_internal_free_policy@@@@QEAA@QEAPEA_W@Z 000000018007b6b0 f i libucrtd:argv_parsing.obj
 0001:0007a6d0       ??1?$__crt_unique_heap_ptr@EU__crt_internal_free_policy@@@@QEAA@XZ 000000018007b6d0 f i libucrtd:argv_parsing.obj
 0001:0007a6f0       ??1?$__crt_unique_heap_ptr@PEADU__crt_internal_free_policy@@@@QEAA@XZ 000000018007b6f0 f i libucrtd:argv_parsing.obj
 0001:0007a710       ??1?$__crt_unique_heap_ptr@PEA_WU__crt_internal_free_policy@@@@QEAA@XZ 000000018007b710 f i libucrtd:argv_parsing.obj
 0001:0007a730       ??B?$__crt_unique_heap_ptr@EU__crt_internal_free_policy@@@@QEBA_NXZ 000000018007b730 f i libucrtd:argv_parsing.obj
 0001:0007a810       ?detach@?$__crt_unique_heap_ptr@EU__crt_internal_free_policy@@@@QEAAPEAEXZ 000000018007b810 f i libucrtd:argv_parsing.obj
 0001:0007a840       ?detach@?$__crt_unique_heap_ptr@PEADU__crt_internal_free_policy@@@@QEAAPEAPEADXZ 000000018007b840 f i libucrtd:argv_parsing.obj
 0001:0007a870       ?detach@?$__crt_unique_heap_ptr@PEA_WU__crt_internal_free_policy@@@@QEAAPEAPEA_WXZ 000000018007b870 f i libucrtd:argv_parsing.obj
 0001:0007a930       ?get@?$__crt_unique_heap_ptr@EU__crt_internal_free_policy@@@@QEBAPEAEXZ 000000018007b930 f i libucrtd:argv_parsing.obj
 0001:0007a940       ?get@?$__crt_unique_heap_ptr@PEADU__crt_internal_free_policy@@@@QEBAPEAPEADXZ 000000018007b940 f i libucrtd:argv_parsing.obj
 0001:0007a950       ?get@?$__crt_unique_heap_ptr@PEA_WU__crt_internal_free_policy@@@@QEBAPEAPEA_WXZ 000000018007b950 f i libucrtd:argv_parsing.obj
 0001:0007a960       ?get_address_of@?$__crt_unique_heap_ptr@PEADU__crt_internal_free_policy@@@@QEAAPEAPEAPEADXZ 000000018007b960 f i libucrtd:argv_parsing.obj
 0001:0007a970       ?get_address_of@?$__crt_unique_heap_ptr@PEA_WU__crt_internal_free_policy@@@@QEAAPEAPEAPEA_WXZ 000000018007b970 f i libucrtd:argv_parsing.obj
 0001:0007a9c0       ?is_valid@?$__crt_unique_heap_ptr@EU__crt_internal_free_policy@@@@QEBA_NXZ 000000018007b9c0 f i libucrtd:argv_parsing.obj
 0001:0007a9f0       ?release@?$__crt_unique_heap_ptr@EU__crt_internal_free_policy@@@@QEAAXXZ 000000018007b9f0 f i libucrtd:argv_parsing.obj
 0001:0007aa20       ?release@?$__crt_unique_heap_ptr@PEADU__crt_internal_free_policy@@@@QEAAXXZ 000000018007ba20 f i libucrtd:argv_parsing.obj
 0001:0007aa50       ?release@?$__crt_unique_heap_ptr@PEA_WU__crt_internal_free_policy@@@@QEAAXXZ 000000018007ba50 f i libucrtd:argv_parsing.obj
 0001:0007aad0       __acrt_allocate_buffer_for_argv 000000018007bad0 f   libucrtd:argv_parsing.obj
 0001:0007abf0       _configure_narrow_argv     000000018007bbf0 f   libucrtd:argv_parsing.obj
 0001:0007ac10       _configure_wide_argv       000000018007bc10 f   libucrtd:argv_parsing.obj
 0001:0007ac30       _set_pgmptr                000000018007bc30 f i libucrtd:argv_parsing.obj
 0001:0007ac50       _set_wpgmptr               000000018007bc50 f i libucrtd:argv_parsing.obj
 0001:0007ac70       ??$?R_W@__crt_internal_free_policy@@QEBAXQEB_W@Z 000000018007bc70 f i libucrtd:environment_initialization.obj
 0001:0007b630       ??$get_environment_from_os@$$V@?$__crt_char_traits@D@@SAPEADXZ 000000018007c630 f i libucrtd:environment_initialization.obj
 0001:0007b640       ??$get_environment_from_os@$$V@?$__crt_char_traits@_W@@SAPEA_WXZ 000000018007c640 f i libucrtd:environment_initialization.obj
 0001:0007b950       ??$set_variable_in_environment_nolock@PEADH@?$__crt_char_traits@D@@SAH$$QEAPEAD$$QEAH@Z 000000018007c950 f i libucrtd:environment_initialization.obj
 0001:0007b980       ??$set_variable_in_environment_nolock@PEA_WH@?$__crt_char_traits@_W@@SAH$$QEAPEA_W$$QEAH@Z 000000018007c980 f i libucrtd:environment_initialization.obj
 0001:0007b9b0       ??$tcscpy_s@PEADAEB_KAEAPEAD@?$__crt_char_traits@D@@SAH$$QEAPEADAEB_KAEAPEAD@Z 000000018007c9b0 f i libucrtd:environment_initialization.obj
 0001:0007b9f0       ??$tcscpy_s@PEA_WAEB_KAEAPEA_W@?$__crt_char_traits@_W@@SAH$$QEAPEA_WAEB_KAEAPEA_W@Z 000000018007c9f0 f i libucrtd:environment_initialization.obj
 0001:0007ba30       ??$tcslen@AEAPEAD@?$__crt_char_traits@D@@SA_KAEAPEAD@Z 000000018007ca30 f i libucrtd:environment_initialization.obj
 0001:0007ba50       ??$tcslen@AEAPEA_W@?$__crt_char_traits@_W@@SA_KAEAPEA_W@Z 000000018007ca50 f i libucrtd:environment_initialization.obj
 0001:0007ba70       ??$uninitialize@A6AXAEAPEAPEAD@_E@?$dual_state_global@PEAPEAD@__crt_state_management@@QEAAXA6AXAEAPEAPEAD@_E@Z 000000018007ca70 f i libucrtd:environment_initialization.obj
 0001:0007baf0       ??$uninitialize@A6AXAEAPEAPEA_W@_E@?$dual_state_global@PEAPEA_W@__crt_state_management@@QEAAXA6AXAEAPEAPEA_W@_E@Z 000000018007caf0 f i libucrtd:environment_initialization.obj
 0001:0007bbf0       ??0?$__crt_unique_heap_ptr@_WU__crt_internal_free_policy@@@@QEAA@QEA_W@Z 000000018007cbf0 f i libucrtd:environment_initialization.obj
 0001:0007bc10       ??1?$__crt_unique_heap_ptr@_WU__crt_internal_free_policy@@@@QEAA@XZ 000000018007cc10 f i libucrtd:environment_initialization.obj
 0001:0007bc30       ??B?$__crt_unique_heap_ptr@PEADU__crt_internal_free_policy@@@@QEBA_NXZ 000000018007cc30 f i libucrtd:environment_initialization.obj
 0001:0007bc50       ??B?$__crt_unique_heap_ptr@PEA_WU__crt_internal_free_policy@@@@QEBA_NXZ 000000018007cc50 f i libucrtd:environment_initialization.obj
 0001:0007bc70       ??B?$__crt_unique_heap_ptr@_WU__crt_internal_free_policy@@@@QEBA_NXZ 000000018007cc70 f i libucrtd:environment_initialization.obj
 0001:0007bc90       ?__crt_compute_required_transform_buffer_count@@YA_KIQEBD@Z 000000018007cc90 f i libucrtd:environment_initialization.obj
 0001:0007bcd0       ?__crt_compute_required_transform_buffer_count@@YA_KIQEB_W@Z 000000018007ccd0 f i libucrtd:environment_initialization.obj
 0001:0007bd20       ?__crt_transform_string@@YA_KIQEBDQEA_W_K@Z 000000018007cd20 f i libucrtd:environment_initialization.obj
 0001:0007bd70       ?__crt_transform_string@@YA_KIQEB_WQEAD_K@Z 000000018007cd70 f i libucrtd:environment_initialization.obj
 0001:0007bdd0       ?detach@?$__crt_unique_heap_ptr@DU__crt_internal_free_policy@@@@QEAAPEADXZ 000000018007cdd0 f i libucrtd:environment_initialization.obj
 0001:0007be00       ?detach@?$__crt_unique_heap_ptr@_WU__crt_internal_free_policy@@@@QEAAPEA_WXZ 000000018007ce00 f i libucrtd:environment_initialization.obj
 0001:0007be30       ?get@?$__crt_unique_heap_ptr@_WU__crt_internal_free_policy@@@@QEBAPEA_WXZ 000000018007ce30 f i libucrtd:environment_initialization.obj
 0001:0007be40       ?get_current_state_index@__crt_state_management@@YA_KXZ 000000018007ce40 f i libucrtd:environment_initialization.obj
 0001:0007bed0       ?initialize@?$dual_state_global@PEAPEAD@__crt_state_management@@QEAAXQEAPEAD@Z 000000018007ced0 f i libucrtd:environment_initialization.obj
 0001:0007bf20       ?initialize@?$dual_state_global@PEAPEA_W@__crt_state_management@@QEAAXQEAPEA_W@Z 000000018007cf20 f i libucrtd:environment_initialization.obj
 0001:0007bf70       ?is_valid@?$__crt_unique_heap_ptr@PEADU__crt_internal_free_policy@@@@QEBA_NXZ 000000018007cf70 f i libucrtd:environment_initialization.obj
 0001:0007bfa0       ?is_valid@?$__crt_unique_heap_ptr@PEA_WU__crt_internal_free_policy@@@@QEBA_NXZ 000000018007cfa0 f i libucrtd:environment_initialization.obj
 0001:0007bfd0       ?is_valid@?$__crt_unique_heap_ptr@_WU__crt_internal_free_policy@@@@QEBA_NXZ 000000018007cfd0 f i libucrtd:environment_initialization.obj
 0001:0007c030       ?release@?$__crt_unique_heap_ptr@_WU__crt_internal_free_policy@@@@QEAAXXZ 000000018007d030 f i libucrtd:environment_initialization.obj
 0001:0007c060       ?value@?$dual_state_global@PEAPEAD@__crt_state_management@@QEAAAEAPEAPEADXZ 000000018007d060 f i libucrtd:environment_initialization.obj
 0001:0007c080       ?value@?$dual_state_global@PEAPEA_W@__crt_state_management@@QEAAAEAPEAPEA_WXZ 000000018007d080 f i libucrtd:environment_initialization.obj
 0001:0007c0a0       __dcrt_get_or_create_narrow_environment_nolock 000000018007d0a0 f   libucrtd:environment_initialization.obj
 0001:0007c0b0       __dcrt_get_or_create_wide_environment_nolock 000000018007d0b0 f   libucrtd:environment_initialization.obj
 0001:0007c0c0       __dcrt_uninitialize_environments_nolock 000000018007d0c0 f   libucrtd:environment_initialization.obj
 0001:0007c110       __p__environ               000000018007d110 f   libucrtd:environment_initialization.obj
 0001:0007c130       __p__wenviron              000000018007d130 f   libucrtd:environment_initialization.obj
 0001:0007c150       _get_initial_narrow_environment 000000018007d150 f   libucrtd:environment_initialization.obj
 0001:0007c160       _get_initial_wide_environment 000000018007d160 f   libucrtd:environment_initialization.obj
 0001:0007c170       _initialize_narrow_environment 000000018007d170 f   libucrtd:environment_initialization.obj
 0001:0007c180       _initialize_wide_environment 000000018007d180 f   libucrtd:environment_initialization.obj
 0001:0007c190       ??$?B$$A6AXXZ@__crt_fast_encoded_nullptr_t@@QEBAP6AXXZXZ 000000018007d190 f i libucrtd:onexit.obj
 0001:0007c1b0       ??$?BP6AXXZ@__crt_fast_encoded_nullptr_t@@QEBAPEAP6AXXZXZ 000000018007d1b0 f i libucrtd:onexit.obj
 0001:0007c1d0       ??$?RP6AXXZ@__crt_internal_free_policy@@QEBAXQEBQ6AXXZ@Z 000000018007d1d0 f i libucrtd:onexit.obj
 0001:0007c360       ??$__crt_fast_decode_pointer@P6AXXZ@@YAP6AXXZQ6AXXZ@Z 000000018007d360 f i libucrtd:onexit.obj
 0001:0007c3a0       ??$__crt_fast_decode_pointer@PEAP6AXXZ@@YAPEAP6AXXZQEAP6AXXZ@Z 000000018007d3a0 f i libucrtd:onexit.obj
 0001:0007c3e0       ??$__crt_fast_encode_pointer@P6AHXZ@@YAP6AHXZQ6AHXZ@Z 000000018007d3e0 f i libucrtd:onexit.obj
 0001:0007c420       ??$__crt_fast_encode_pointer@P6AXXZ@@YAP6AXXZQ6AXXZ@Z 000000018007d420 f i libucrtd:onexit.obj
 0001:0007c460       ??$__crt_fast_encode_pointer@PEAP6AXXZ@@YAPEAP6AXXZQEAP6AXXZ@Z 000000018007d460 f i libucrtd:onexit.obj
 0001:0007c570       ??0?$__crt_unique_heap_ptr@P6AXXZU__crt_internal_free_policy@@@@QEAA@QEAP6AXXZ@Z 000000018007d570 f i libucrtd:onexit.obj
 0001:0007c590       ??1?$__crt_unique_heap_ptr@P6AXXZU__crt_internal_free_policy@@@@QEAA@XZ 000000018007d590 f i libucrtd:onexit.obj
 0001:0007c5b0       ??1scoped_global_state_reset@__crt_state_management@@QEAA@XZ 000000018007d5b0 f i libucrtd:onexit.obj
 0001:0007cbb0       ?detach@?$__crt_unique_heap_ptr@P6AXXZU__crt_internal_free_policy@@@@QEAAPEAP6AXXZXZ 000000018007dbb0 f i libucrtd:onexit.obj
 0001:0007cbe0       ?release@?$__crt_unique_heap_ptr@P6AXXZU__crt_internal_free_policy@@@@QEAAXXZ 000000018007dbe0 f i libucrtd:onexit.obj
 0001:0007cc10       _crt_at_quick_exit         000000018007dc10 f   libucrtd:onexit.obj
 0001:0007cc30       _crt_atexit                000000018007dc30 f   libucrtd:onexit.obj
 0001:0007cc50       _execute_onexit_table      000000018007dc50 f   libucrtd:onexit.obj
 0001:0007cc90       _initialize_onexit_table   000000018007dc90 f   libucrtd:onexit.obj
 0001:0007cd10       _register_onexit_function  000000018007dd10 f   libucrtd:onexit.obj
 0001:0007cf90       ??$?BX@__crt_fast_encoded_nullptr_t@@QEBAPEAXXZ 000000018007df90 f i libucrtd:initialization.obj
 0001:0007cfb0       ??$__crt_fast_encode_pointer@PEAX@@YAPEAXQEAX@Z 000000018007dfb0 f i libucrtd:initialization.obj
 0001:0007d0b0       ?initialize@?$dual_state_global@PEAU__crt_locale_data@@@__crt_state_management@@QEAAXQEAU__crt_locale_data@@@Z 000000018007e0b0 f i libucrtd:initialization.obj
 0001:0007d100       __acrt_initialize          000000018007e100 f   libucrtd:initialization.obj
 0001:0007d130       __acrt_thread_attach       000000018007e130 f   libucrtd:initialization.obj
 0001:0007d150       __acrt_thread_detach       000000018007e150 f   libucrtd:initialization.obj
 0001:0007d160       __acrt_uninitialize        000000018007e160 f   libucrtd:initialization.obj
 0001:0007d190       __acrt_uninitialize_critical 000000018007e190 f   libucrtd:initialization.obj
 0001:0007d1f0       _get_terminate             000000018007e1f0 f   libucrtd:terminate.obj
 0001:0007d210       set_terminate              000000018007e210 f   libucrtd:terminate.obj
 0001:0007d250       terminate                  000000018007e250 f   libucrtd:terminate.obj
 0001:0007d780       strcpy_s                   000000018007e780 f   libucrtd:strcpy_s.obj
 0001:0007de20       strcat_s                   000000018007ee20 f   libucrtd:strcat_s.obj
 0001:0007de50       ??$?0AEBV?$stream_output_adapter@D@__crt_stdio_output@@AEB_KAEBQEBDAEAV__crt_cached_ptd_host@@AEBQEAD@?$format_validation_base@DV?$stream_output_adapter@D@__crt_stdio_output@@@__crt_stdio_output@@IEAA@AEBV?$stream_output_adapter@D@1@AEB_KAEBQEBDAEAV__crt_cached_ptd_host@@AEBQEAD@Z 000000018007ee50 f i libucrtd:output.obj
 0001:0007dea0       ??$?0AEBV?$stream_output_adapter@D@__crt_stdio_output@@AEB_KAEBQEBDAEAV__crt_cached_ptd_host@@AEBQEAD@?$positional_parameter_base@DV?$stream_output_adapter@D@__crt_stdio_output@@@__crt_stdio_output@@IEAA@AEBV?$stream_output_adapter@D@1@AEB_KAEBQEBDAEAV__crt_cached_ptd_host@@AEBQEAD@Z 000000018007eea0 f i libucrtd:output.obj
 0001:0007df40       ??$?0AEBV?$stream_output_adapter@D@__crt_stdio_output@@AEB_KAEBQEBDAEAV__crt_cached_ptd_host@@AEBQEAD@?$standard_base@DV?$stream_output_adapter@D@__crt_stdio_output@@@__crt_stdio_output@@IEAA@AEBV?$stream_output_adapter@D@1@AEB_KAEBQEBDAEAV__crt_cached_ptd_host@@AEBQEAD@Z 000000018007ef40 f i libucrtd:output.obj
 0001:0007dfb0       ??$?0AEBV?$stream_output_adapter@_W@__crt_stdio_output@@AEB_KAEBQEB_WAEAV__crt_cached_ptd_host@@AEBQEAD@?$format_validation_base@_WV?$stream_output_adapter@_W@__crt_stdio_output@@@__crt_stdio_output@@IEAA@AEBV?$stream_output_adapter@_W@1@AEB_KAEBQEB_WAEAV__crt_cached_ptd_host@@AEBQEAD@Z 000000018007efb0 f i libucrtd:output.obj
 0001:0007e000       ??$?0AEBV?$stream_output_adapter@_W@__crt_stdio_output@@AEB_KAEBQEB_WAEAV__crt_cached_ptd_host@@AEBQEAD@?$positional_parameter_base@_WV?$stream_output_adapter@_W@__crt_stdio_output@@@__crt_stdio_output@@IEAA@AEBV?$stream_output_adapter@_W@1@AEB_KAEBQEB_WAEAV__crt_cached_ptd_host@@AEBQEAD@Z 000000018007f000 f i libucrtd:output.obj
 0001:0007e0a0       ??$?0AEBV?$stream_output_adapter@_W@__crt_stdio_output@@AEB_KAEBQEB_WAEAV__crt_cached_ptd_host@@AEBQEAD@?$standard_base@_WV?$stream_output_adapter@_W@__crt_stdio_output@@@__crt_stdio_output@@IEAA@AEBV?$stream_output_adapter@_W@1@AEB_KAEBQEB_WAEAV__crt_cached_ptd_host@@AEBQEAD@Z 000000018007f0a0 f i libucrtd:output.obj
 0001:0007e110       ??$?0AEBV?$string_output_adapter@D@__crt_stdio_output@@AEB_KAEBQEBDAEAV__crt_cached_ptd_host@@AEBQEAD@?$format_validation_base@DV?$string_output_adapter@D@__crt_stdio_output@@@__crt_stdio_output@@IEAA@AEBV?$string_output_adapter@D@1@AEB_KAEBQEBDAEAV__crt_cached_ptd_host@@AEBQEAD@Z 000000018007f110 f i libucrtd:output.obj
 0001:0007e160       ??$?0AEBV?$string_output_adapter@D@__crt_stdio_output@@AEB_KAEBQEBDAEAV__crt_cached_ptd_host@@AEBQEAD@?$positional_parameter_base@DV?$string_output_adapter@D@__crt_stdio_output@@@__crt_stdio_output@@IEAA@AEBV?$string_output_adapter@D@1@AEB_KAEBQEBDAEAV__crt_cached_ptd_host@@AEBQEAD@Z 000000018007f160 f i libucrtd:output.obj
 0001:0007e200       ??$?0AEBV?$string_output_adapter@D@__crt_stdio_output@@AEB_KAEBQEBDAEAV__crt_cached_ptd_host@@AEBQEAD@?$standard_base@DV?$string_output_adapter@D@__crt_stdio_output@@@__crt_stdio_output@@IEAA@AEBV?$string_output_adapter@D@1@AEB_KAEBQEBDAEAV__crt_cached_ptd_host@@AEBQEAD@Z 000000018007f200 f i libucrtd:output.obj
 0001:0007e270       ??$?0AEBV?$string_output_adapter@_W@__crt_stdio_output@@AEB_KAEBQEB_WAEAV__crt_cached_ptd_host@@AEBQEAD@?$format_validation_base@_WV?$string_output_adapter@_W@__crt_stdio_output@@@__crt_stdio_output@@IEAA@AEBV?$string_output_adapter@_W@1@AEB_KAEBQEB_WAEAV__crt_cached_ptd_host@@AEBQEAD@Z 000000018007f270 f i libucrtd:output.obj
 0001:0007e2c0       ??$?0AEBV?$string_output_adapter@_W@__crt_stdio_output@@AEB_KAEBQEB_WAEAV__crt_cached_ptd_host@@AEBQEAD@?$positional_parameter_base@_WV?$string_output_adapter@_W@__crt_stdio_output@@@__crt_stdio_output@@IEAA@AEBV?$string_output_adapter@_W@1@AEB_KAEBQEB_WAEAV__crt_cached_ptd_host@@AEBQEAD@Z 000000018007f2c0 f i libucrtd:output.obj
 0001:0007e360       ??$?0AEBV?$string_output_adapter@_W@__crt_stdio_output@@AEB_KAEBQEB_WAEAV__crt_cached_ptd_host@@AEBQEAD@?$standard_base@_WV?$string_output_adapter@_W@__crt_stdio_output@@@__crt_stdio_output@@IEAA@AEBV?$string_output_adapter@_W@1@AEB_KAEBQEB_WAEAV__crt_cached_ptd_host@@AEBQEAD@Z 000000018007f360 f i libucrtd:output.obj
 0001:0007e7f0       ??$_tcstol_internal@DPEAPEAD$0A@@@YAJAEAV__crt_cached_ptd_host@@QEBDQEAPEADH@Z 000000018007f7f0 f i libucrtd:output.obj
 0001:0007e840       ??$_tcstol_internal@_WPEAPEA_W$0A@@@YAJAEAV__crt_cached_ptd_host@@QEB_WQEAPEA_WH@Z 000000018007f840 f i libucrtd:output.obj
 0001:00082860       ??$count@D@formatting_buffer@__crt_stdio_output@@QEBA_KXZ 0000000180083860 f i libucrtd:output.obj
 0001:000828b0       ??$count@_W@formatting_buffer@__crt_stdio_output@@QEBA_KXZ 00000001800838b0 f i libucrtd:output.obj
 0001:00082900       ??$data@D@formatting_buffer@__crt_stdio_output@@QEAAPEADXZ 0000000180083900 f i libucrtd:output.obj
 0001:00082950       ??$data@_W@formatting_buffer@__crt_stdio_output@@QEAAPEA_WXZ 0000000180083950 f i libucrtd:output.obj
 0001:000829a0       ??$ensure_buffer_is_big_enough@D@formatting_buffer@__crt_stdio_output@@QEAA_N_KAEAV__crt_cached_ptd_host@@@Z 00000001800839a0 f i libucrtd:output.obj
 0001:00082ae0       ??$ensure_buffer_is_big_enough@_W@formatting_buffer@__crt_stdio_output@@QEAA_N_KAEAV__crt_cached_ptd_host@@@Z 0000000180083ae0 f i libucrtd:output.obj
 0001:00082c20       ??$extract_argument_from_va_list@C_J@?$positional_parameter_base@DV?$stream_output_adapter@D@__crt_stdio_output@@@__crt_stdio_output@@IEAA_NAEA_J@Z 0000000180083c20 f i libucrtd:output.obj
 0001:00082de0       ??$extract_argument_from_va_list@C_J@?$positional_parameter_base@DV?$string_output_adapter@D@__crt_stdio_output@@@__crt_stdio_output@@IEAA_NAEA_J@Z 0000000180083de0 f i libucrtd:output.obj
 0001:00082fa0       ??$extract_argument_from_va_list@C_J@?$positional_parameter_base@_WV?$stream_output_adapter@_W@__crt_stdio_output@@@__crt_stdio_output@@IEAA_NAEA_J@Z 0000000180083fa0 f i libucrtd:output.obj
 0001:00083160       ??$extract_argument_from_va_list@C_J@?$positional_parameter_base@_WV?$string_output_adapter@_W@__crt_stdio_output@@@__crt_stdio_output@@IEAA_NAEA_J@Z 0000000180084160 f i libucrtd:output.obj
 0001:00083320       ??$extract_argument_from_va_list@C_J@?$standard_base@DV?$stream_output_adapter@D@__crt_stdio_output@@@__crt_stdio_output@@IEAA_NAEA_J@Z 0000000180084320 f i libucrtd:output.obj
 0001:00083360       ??$extract_argument_from_va_list@C_J@?$standard_base@DV?$string_output_adapter@D@__crt_stdio_output@@@__crt_stdio_output@@IEAA_NAEA_J@Z 0000000180084360 f i libucrtd:output.obj
 0001:000833a0       ??$extract_argument_from_va_list@C_J@?$standard_base@_WV?$stream_output_adapter@_W@__crt_stdio_output@@@__crt_stdio_output@@IEAA_NAEA_J@Z 00000001800843a0 f i libucrtd:output.obj
 0001:000833e0       ??$extract_argument_from_va_list@C_J@?$standard_base@_WV?$string_output_adapter@_W@__crt_stdio_output@@@__crt_stdio_output@@IEAA_NAEA_J@Z 00000001800843e0 f i libucrtd:output.obj
 0001:00083420       ??$extract_argument_from_va_list@E_J@?$positional_parameter_base@DV?$stream_output_adapter@D@__crt_stdio_output@@@__crt_stdio_output@@IEAA_NAEA_J@Z 0000000180084420 f i libucrtd:output.obj
 0001:000835e0       ??$extract_argument_from_va_list@E_J@?$positional_parameter_base@DV?$string_output_adapter@D@__crt_stdio_output@@@__crt_stdio_output@@IEAA_NAEA_J@Z 00000001800845e0 f i libucrtd:output.obj
 0001:000837a0       ??$extract_argument_from_va_list@E_J@?$positional_parameter_base@_WV?$stream_output_adapter@_W@__crt_stdio_output@@@__crt_stdio_output@@IEAA_NAEA_J@Z 00000001800847a0 f i libucrtd:output.obj
 0001:00083960       ??$extract_argument_from_va_list@E_J@?$positional_parameter_base@_WV?$string_output_adapter@_W@__crt_stdio_output@@@__crt_stdio_output@@IEAA_NAEA_J@Z 0000000180084960 f i libucrtd:output.obj
 0001:00083b20       ??$extract_argument_from_va_list@E_J@?$standard_base@DV?$stream_output_adapter@D@__crt_stdio_output@@@__crt_stdio_output@@IEAA_NAEA_J@Z 0000000180084b20 f i libucrtd:output.obj
 0001:00083b60       ??$extract_argument_from_va_list@E_J@?$standard_base@DV?$string_output_adapter@D@__crt_stdio_output@@@__crt_stdio_output@@IEAA_NAEA_J@Z 0000000180084b60 f i libucrtd:output.obj
 0001:00083ba0       ??$extract_argument_from_va_list@E_J@?$standard_base@_WV?$stream_output_adapter@_W@__crt_stdio_output@@@__crt_stdio_output@@IEAA_NAEA_J@Z 0000000180084ba0 f i libucrtd:output.obj
 0001:00083be0       ??$extract_argument_from_va_list@E_J@?$standard_base@_WV?$string_output_adapter@_W@__crt_stdio_output@@@__crt_stdio_output@@IEAA_NAEA_J@Z 0000000180084be0 f i libucrtd:output.obj
 0001:00083c20       ??$extract_argument_from_va_list@F_J@?$positional_parameter_base@DV?$stream_output_adapter@D@__crt_stdio_output@@@__crt_stdio_output@@IEAA_NAEA_J@Z 0000000180084c20 f i libucrtd:output.obj
 0001:00083de0       ??$extract_argument_from_va_list@F_J@?$positional_parameter_base@DV?$string_output_adapter@D@__crt_stdio_output@@@__crt_stdio_output@@IEAA_NAEA_J@Z 0000000180084de0 f i libucrtd:output.obj
 0001:00083fa0       ??$extract_argument_from_va_list@F_J@?$positional_parameter_base@_WV?$stream_output_adapter@_W@__crt_stdio_output@@@__crt_stdio_output@@IEAA_NAEA_J@Z 0000000180084fa0 f i libucrtd:output.obj
 0001:00084160       ??$extract_argument_from_va_list@F_J@?$positional_parameter_base@_WV?$string_output_adapter@_W@__crt_stdio_output@@@__crt_stdio_output@@IEAA_NAEA_J@Z 0000000180085160 f i libucrtd:output.obj
 0001:00084320       ??$extract_argument_from_va_list@F_J@?$standard_base@DV?$stream_output_adapter@D@__crt_stdio_output@@@__crt_stdio_output@@IEAA_NAEA_J@Z 0000000180085320 f i libucrtd:output.obj
 0001:00084360       ??$extract_argument_from_va_list@F_J@?$standard_base@DV?$string_output_adapter@D@__crt_stdio_output@@@__crt_stdio_output@@IEAA_NAEA_J@Z 0000000180085360 f i libucrtd:output.obj
 0001:000843a0       ??$extract_argument_from_va_list@F_J@?$standard_base@_WV?$stream_output_adapter@_W@__crt_stdio_output@@@__crt_stdio_output@@IEAA_NAEA_J@Z 00000001800853a0 f i libucrtd:output.obj
 0001:000843e0       ??$extract_argument_from_va_list@F_J@?$standard_base@_WV?$string_output_adapter@_W@__crt_stdio_output@@@__crt_stdio_output@@IEAA_NAEA_J@Z 00000001800853e0 f i libucrtd:output.obj
 0001:00084420       ??$extract_argument_from_va_list@GD@?$positional_parameter_base@DV?$stream_output_adapter@D@__crt_stdio_output@@@__crt_stdio_output@@IEAA_NAEAD@Z 0000000180085420 f i libucrtd:output.obj
 0001:000845e0       ??$extract_argument_from_va_list@GD@?$positional_parameter_base@DV?$string_output_adapter@D@__crt_stdio_output@@@__crt_stdio_output@@IEAA_NAEAD@Z 00000001800855e0 f i libucrtd:output.obj
 0001:000847a0       ??$extract_argument_from_va_list@GD@?$standard_base@DV?$stream_output_adapter@D@__crt_stdio_output@@@__crt_stdio_output@@IEAA_NAEAD@Z 00000001800857a0 f i libucrtd:output.obj
 0001:000847d0       ??$extract_argument_from_va_list@GD@?$standard_base@DV?$string_output_adapter@D@__crt_stdio_output@@@__crt_stdio_output@@IEAA_NAEAD@Z 00000001800857d0 f i libucrtd:output.obj
 0001:00084800       ??$extract_argument_from_va_list@G_J@?$positional_parameter_base@DV?$stream_output_adapter@D@__crt_stdio_output@@@__crt_stdio_output@@IEAA_NAEA_J@Z 0000000180085800 f i libucrtd:output.obj
 0001:000849c0       ??$extract_argument_from_va_list@G_J@?$positional_parameter_base@DV?$string_output_adapter@D@__crt_stdio_output@@@__crt_stdio_output@@IEAA_NAEA_J@Z 00000001800859c0 f i libucrtd:output.obj
 0001:00084b80       ??$extract_argument_from_va_list@G_J@?$positional_parameter_base@_WV?$stream_output_adapter@_W@__crt_stdio_output@@@__crt_stdio_output@@IEAA_NAEA_J@Z 0000000180085b80 f i libucrtd:output.obj
 0001:00084d40       ??$extract_argument_from_va_list@G_J@?$positional_parameter_base@_WV?$string_output_adapter@_W@__crt_stdio_output@@@__crt_stdio_output@@IEAA_NAEA_J@Z 0000000180085d40 f i libucrtd:output.obj
 0001:00084f00       ??$extract_argument_from_va_list@G_J@?$standard_base@DV?$stream_output_adapter@D@__crt_stdio_output@@@__crt_stdio_output@@IEAA_NAEA_J@Z 0000000180085f00 f i libucrtd:output.obj
 0001:00084f40       ??$extract_argument_from_va_list@G_J@?$standard_base@DV?$string_output_adapter@D@__crt_stdio_output@@@__crt_stdio_output@@IEAA_NAEA_J@Z 0000000180085f40 f i libucrtd:output.obj
 0001:00084f80       ??$extract_argument_from_va_list@G_J@?$standard_base@_WV?$stream_output_adapter@_W@__crt_stdio_output@@@__crt_stdio_output@@IEAA_NAEA_J@Z 0000000180085f80 f i libucrtd:output.obj
 0001:00084fc0       ??$extract_argument_from_va_list@G_J@?$standard_base@_WV?$string_output_adapter@_W@__crt_stdio_output@@@__crt_stdio_output@@IEAA_NAEA_J@Z 0000000180085fc0 f i libucrtd:output.obj
 0001:00085000       ??$extract_argument_from_va_list@H_J@?$positional_parameter_base@DV?$stream_output_adapter@D@__crt_stdio_output@@@__crt_stdio_output@@IEAA_NAEA_J@Z 0000000180086000 f i libucrtd:output.obj
 0001:000851c0       ??$extract_argument_from_va_list@H_J@?$positional_parameter_base@DV?$string_output_adapter@D@__crt_stdio_output@@@__crt_stdio_output@@IEAA_NAEA_J@Z 00000001800861c0 f i libucrtd:output.obj
 0001:00085380       ??$extract_argument_from_va_list@H_J@?$positional_parameter_base@_WV?$stream_output_adapter@_W@__crt_stdio_output@@@__crt_stdio_output@@IEAA_NAEA_J@Z 0000000180086380 f i libucrtd:output.obj
 0001:00085540       ??$extract_argument_from_va_list@H_J@?$positional_parameter_base@_WV?$string_output_adapter@_W@__crt_stdio_output@@@__crt_stdio_output@@IEAA_NAEA_J@Z 0000000180086540 f i libucrtd:output.obj
 0001:00085700       ??$extract_argument_from_va_list@H_J@?$standard_base@DV?$stream_output_adapter@D@__crt_stdio_output@@@__crt_stdio_output@@IEAA_NAEA_J@Z 0000000180086700 f i libucrtd:output.obj
 0001:00085730       ??$extract_argument_from_va_list@H_J@?$standard_base@DV?$string_output_adapter@D@__crt_stdio_output@@@__crt_stdio_output@@IEAA_NAEA_J@Z 0000000180086730 f i libucrtd:output.obj
 0001:00085760       ??$extract_argument_from_va_list@H_J@?$standard_base@_WV?$stream_output_adapter@_W@__crt_stdio_output@@@__crt_stdio_output@@IEAA_NAEA_J@Z 0000000180086760 f i libucrtd:output.obj
 0001:00085790       ??$extract_argument_from_va_list@H_J@?$standard_base@_WV?$string_output_adapter@_W@__crt_stdio_output@@@__crt_stdio_output@@IEAA_NAEA_J@Z 0000000180086790 f i libucrtd:output.obj
 0001:000857c0       ??$extract_argument_from_va_list@I_J@?$positional_parameter_base@DV?$stream_output_adapter@D@__crt_stdio_output@@@__crt_stdio_output@@IEAA_NAEA_J@Z 00000001800867c0 f i libucrtd:output.obj
 0001:00085980       ??$extract_argument_from_va_list@I_J@?$positional_parameter_base@DV?$string_output_adapter@D@__crt_stdio_output@@@__crt_stdio_output@@IEAA_NAEA_J@Z 0000000180086980 f i libucrtd:output.obj
 0001:00085b40       ??$extract_argument_from_va_list@I_J@?$positional_parameter_base@_WV?$stream_output_adapter@_W@__crt_stdio_output@@@__crt_stdio_output@@IEAA_NAEA_J@Z 0000000180086b40 f i libucrtd:output.obj
 0001:00085d00       ??$extract_argument_from_va_list@I_J@?$positional_parameter_base@_WV?$string_output_adapter@_W@__crt_stdio_output@@@__crt_stdio_output@@IEAA_NAEA_J@Z 0000000180086d00 f i libucrtd:output.obj
 0001:00085ec0       ??$extract_argument_from_va_list@I_J@?$standard_base@DV?$stream_output_adapter@D@__crt_stdio_output@@@__crt_stdio_output@@IEAA_NAEA_J@Z 0000000180086ec0 f i libucrtd:output.obj
 0001:00085ef0       ??$extract_argument_from_va_list@I_J@?$standard_base@DV?$string_output_adapter@D@__crt_stdio_output@@@__crt_stdio_output@@IEAA_NAEA_J@Z 0000000180086ef0 f i libucrtd:output.obj
 0001:00085f20       ??$extract_argument_from_va_list@I_J@?$standard_base@_WV?$stream_output_adapter@_W@__crt_stdio_output@@@__crt_stdio_output@@IEAA_NAEA_J@Z 0000000180086f20 f i libucrtd:output.obj
 0001:00085f50       ??$extract_argument_from_va_list@I_J@?$standard_base@_WV?$string_output_adapter@_W@__crt_stdio_output@@@__crt_stdio_output@@IEAA_NAEA_J@Z 0000000180086f50 f i libucrtd:output.obj
 0001:00085f80       ??$extract_argument_from_va_list@PEADPEAD@?$positional_parameter_base@DV?$stream_output_adapter@D@__crt_stdio_output@@@__crt_stdio_output@@IEAA_NAEAPEAD@Z 0000000180086f80 f i libucrtd:output.obj
 0001:00086140       ??$extract_argument_from_va_list@PEADPEAD@?$positional_parameter_base@DV?$string_output_adapter@D@__crt_stdio_output@@@__crt_stdio_output@@IEAA_NAEAPEAD@Z 0000000180087140 f i libucrtd:output.obj
 0001:00086300       ??$extract_argument_from_va_list@PEADPEAD@?$positional_parameter_base@_WV?$stream_output_adapter@_W@__crt_stdio_output@@@__crt_stdio_output@@IEAA_NAEAPEAD@Z 0000000180087300 f i libucrtd:output.obj
 0001:000864c0       ??$extract_argument_from_va_list@PEADPEAD@?$positional_parameter_base@_WV?$string_output_adapter@_W@__crt_stdio_output@@@__crt_stdio_output@@IEAA_NAEAPEAD@Z 00000001800874c0 f i libucrtd:output.obj
 0001:00086680       ??$extract_argument_from_va_list@PEADPEAD@?$standard_base@DV?$stream_output_adapter@D@__crt_stdio_output@@@__crt_stdio_output@@IEAA_NAEAPEAD@Z 0000000180087680 f i libucrtd:output.obj
 0001:000866b0       ??$extract_argument_from_va_list@PEADPEAD@?$standard_base@DV?$string_output_adapter@D@__crt_stdio_output@@@__crt_stdio_output@@IEAA_NAEAPEAD@Z 00000001800876b0 f i libucrtd:output.obj
 0001:000866e0       ??$extract_argument_from_va_list@PEADPEAD@?$standard_base@_WV?$stream_output_adapter@_W@__crt_stdio_output@@@__crt_stdio_output@@IEAA_NAEAPEAD@Z 00000001800876e0 f i libucrtd:output.obj
 0001:00086710       ??$extract_argument_from_va_list@PEADPEAD@?$standard_base@_WV?$string_output_adapter@_W@__crt_stdio_output@@@__crt_stdio_output@@IEAA_NAEAPEAD@Z 0000000180087710 f i libucrtd:output.obj
 0001:00086740       ??$extract_argument_from_va_list@PEAUansi_string@?1??type_case_Z@?$output_processor@DV?$stream_output_adapter@D@__crt_stdio_output@@V?$format_validation_base@DV?$stream_output_adapter@D@__crt_stdio_output@@@2@@__crt_stdio_output@@AEAA_NXZ@PEAU1?1??234@AEAA_NXZ@@?$standard_base@DV?$stream_output_adapter@D@__crt_stdio_output@@@__crt_stdio_output@@IEAA_NAEAPEAUansi_string@?1??type_case_Z@?$output_processor@DV?$stream_output_adapter@D@__crt_stdio_output@@V?$format_validation_base@DV?$stream_output_adapter@D@__crt_stdio_output@@@2@@1@AEAA_NXZ@@Z 0000000180087740 f i libucrtd:output.obj
 0001:00086770       ??$extract_argument_from_va_list@PEAUansi_string@?1??type_case_Z@?$output_processor@DV?$stream_output_adapter@D@__crt_stdio_output@@V?$positional_parameter_base@DV?$stream_output_adapter@D@__crt_stdio_output@@@2@@__crt_stdio_output@@AEAA_NXZ@PEAU1?1??234@AEAA_NXZ@@?$positional_parameter_base@DV?$stream_output_adapter@D@__crt_stdio_output@@@__crt_stdio_output@@IEAA_NAEAPEAUansi_string@?1??type_case_Z@?$output_processor@DV?$stream_output_adapter@D@__crt_stdio_output@@V?$positional_parameter_base@DV?$stream_output_adapter@D@__crt_stdio_output@@@2@@1@AEAA_NXZ@@Z 0000000180087770 f i libucrtd:output.obj
 0001:00086930       ??$extract_argument_from_va_list@PEAUansi_string@?1??type_case_Z@?$output_processor@DV?$stream_output_adapter@D@__crt_stdio_output@@V?$positional_parameter_base@DV?$stream_output_adapter@D@__crt_stdio_output@@@2@@__crt_stdio_output@@AEAA_NXZ@PEAU1?1??234@AEAA_NXZ@@?$standard_base@DV?$stream_output_adapter@D@__crt_stdio_output@@@__crt_stdio_output@@IEAA_NAEAPEAUansi_string@?1??type_case_Z@?$output_processor@DV?$stream_output_adapter@D@__crt_stdio_output@@V?$positional_parameter_base@DV?$stream_output_adapter@D@__crt_stdio_output@@@2@@1@AEAA_NXZ@@Z 0000000180087930 f i libucrtd:output.obj
 0001:00086960       ??$extract_argument_from_va_list@PEAUansi_string@?1??type_case_Z@?$output_processor@DV?$stream_output_adapter@D@__crt_stdio_output@@V?$standard_base@DV?$stream_output_adapter@D@__crt_stdio_output@@@2@@__crt_stdio_output@@AEAA_NXZ@PEAU1?1??234@AEAA_NXZ@@?$standard_base@DV?$stream_output_adapter@D@__crt_stdio_output@@@__crt_stdio_output@@IEAA_NAEAPEAUansi_string@?1??type_case_Z@?$output_processor@DV?$stream_output_adapter@D@__crt_stdio_output@@V?$standard_base@DV?$stream_output_adapter@D@__crt_stdio_output@@@2@@1@AEAA_NXZ@@Z 0000000180087960 f i libucrtd:output.obj
 0001:00086990       ??$extract_argument_from_va_list@PEAUansi_string@?1??type_case_Z@?$output_processor@DV?$string_output_adapter@D@__crt_stdio_output@@V?$format_validation_base@DV?$string_output_adapter@D@__crt_stdio_output@@@2@@__crt_stdio_output@@AEAA_NXZ@PEAU1?1??234@AEAA_NXZ@@?$standard_base@DV?$string_output_adapter@D@__crt_stdio_output@@@__crt_stdio_output@@IEAA_NAEAPEAUansi_string@?1??type_case_Z@?$output_processor@DV?$string_output_adapter@D@__crt_stdio_output@@V?$format_validation_base@DV?$string_output_adapter@D@__crt_stdio_output@@@2@@1@AEAA_NXZ@@Z 0000000180087990 f i libucrtd:output.obj
 0001:000869c0       ??$extract_argument_from_va_list@PEAUansi_string@?1??type_case_Z@?$output_processor@DV?$string_output_adapter@D@__crt_stdio_output@@V?$positional_parameter_base@DV?$string_output_adapter@D@__crt_stdio_output@@@2@@__crt_stdio_output@@AEAA_NXZ@PEAU1?1??234@AEAA_NXZ@@?$positional_parameter_base@DV?$string_output_adapter@D@__crt_stdio_output@@@__crt_stdio_output@@IEAA_NAEAPEAUansi_string@?1??type_case_Z@?$output_processor@DV?$string_output_adapter@D@__crt_stdio_output@@V?$positional_parameter_base@DV?$string_output_adapter@D@__crt_stdio_output@@@2@@1@AEAA_NXZ@@Z 00000001800879c0 f i libucrtd:output.obj
 0001:00086b80       ??$extract_argument_from_va_list@PEAUansi_string@?1??type_case_Z@?$output_processor@DV?$string_output_adapter@D@__crt_stdio_output@@V?$positional_parameter_base@DV?$string_output_adapter@D@__crt_stdio_output@@@2@@__crt_stdio_output@@AEAA_NXZ@PEAU1?1??234@AEAA_NXZ@@?$standard_base@DV?$string_output_adapter@D@__crt_stdio_output@@@__crt_stdio_output@@IEAA_NAEAPEAUansi_string@?1??type_case_Z@?$output_processor@DV?$string_output_adapter@D@__crt_stdio_output@@V?$positional_parameter_base@DV?$string_output_adapter@D@__crt_stdio_output@@@2@@1@AEAA_NXZ@@Z 0000000180087b80 f i libucrtd:output.obj
 0001:00086bb0       ??$extract_argument_from_va_list@PEAUansi_string@?1??type_case_Z@?$output_processor@DV?$string_output_adapter@D@__crt_stdio_output@@V?$standard_base@DV?$string_output_adapter@D@__crt_stdio_output@@@2@@__crt_stdio_output@@AEAA_NXZ@PEAU1?1??234@AEAA_NXZ@@?$standard_base@DV?$string_output_adapter@D@__crt_stdio_output@@@__crt_stdio_output@@IEAA_NAEAPEAUansi_string@?1??type_case_Z@?$output_processor@DV?$string_output_adapter@D@__crt_stdio_output@@V?$standard_base@DV?$string_output_adapter@D@__crt_stdio_output@@@2@@1@AEAA_NXZ@@Z 0000000180087bb0 f i libucrtd:output.obj
 0001:00086be0       ??$extract_argument_from_va_list@PEAUansi_string@?1??type_case_Z@?$output_processor@_WV?$stream_output_adapter@_W@__crt_stdio_output@@V?$format_validation_base@_WV?$stream_output_adapter@_W@__crt_stdio_output@@@2@@__crt_stdio_output@@AEAA_NXZ@PEAU1?1??234@AEAA_NXZ@@?$standard_base@_WV?$stream_output_adapter@_W@__crt_stdio_output@@@__crt_stdio_output@@IEAA_NAEAPEAUansi_string@?1??type_case_Z@?$output_processor@_WV?$stream_output_adapter@_W@__crt_stdio_output@@V?$format_validation_base@_WV?$stream_output_adapter@_W@__crt_stdio_output@@@2@@1@AEAA_NXZ@@Z 0000000180087be0 f i libucrtd:output.obj
 0001:00086c10       ??$extract_argument_from_va_list@PEAUansi_string@?1??type_case_Z@?$output_processor@_WV?$stream_output_adapter@_W@__crt_stdio_output@@V?$positional_parameter_base@_WV?$stream_output_adapter@_W@__crt_stdio_output@@@2@@__crt_stdio_output@@AEAA_NXZ@PEAU1?1??234@AEAA_NXZ@@?$positional_parameter_base@_WV?$stream_output_adapter@_W@__crt_stdio_output@@@__crt_stdio_output@@IEAA_NAEAPEAUansi_string@?1??type_case_Z@?$output_processor@_WV?$stream_output_adapter@_W@__crt_stdio_output@@V?$positional_parameter_base@_WV?$stream_output_adapter@_W@__crt_stdio_output@@@2@@1@AEAA_NXZ@@Z 0000000180087c10 f i libucrtd:output.obj
 0001:00086dd0       ??$extract_argument_from_va_list@PEAUansi_string@?1??type_case_Z@?$output_processor@_WV?$stream_output_adapter@_W@__crt_stdio_output@@V?$positional_parameter_base@_WV?$stream_output_adapter@_W@__crt_stdio_output@@@2@@__crt_stdio_output@@AEAA_NXZ@PEAU1?1??234@AEAA_NXZ@@?$standard_base@_WV?$stream_output_adapter@_W@__crt_stdio_output@@@__crt_stdio_output@@IEAA_NAEAPEAUansi_string@?1??type_case_Z@?$output_processor@_WV?$stream_output_adapter@_W@__crt_stdio_output@@V?$positional_parameter_base@_WV?$stream_output_adapter@_W@__crt_stdio_output@@@2@@1@AEAA_NXZ@@Z 0000000180087dd0 f i libucrtd:output.obj
 0001:00086e00       ??$extract_argument_from_va_list@PEAUansi_string@?1??type_case_Z@?$output_processor@_WV?$stream_output_adapter@_W@__crt_stdio_output@@V?$standard_base@_WV?$stream_output_adapter@_W@__crt_stdio_output@@@2@@__crt_stdio_output@@AEAA_NXZ@PEAU1?1??234@AEAA_NXZ@@?$standard_base@_WV?$stream_output_adapter@_W@__crt_stdio_output@@@__crt_stdio_output@@IEAA_NAEAPEAUansi_string@?1??type_case_Z@?$output_processor@_WV?$stream_output_adapter@_W@__crt_stdio_output@@V?$standard_base@_WV?$stream_output_adapter@_W@__crt_stdio_output@@@2@@1@AEAA_NXZ@@Z 0000000180087e00 f i libucrtd:output.obj
 0001:00086e30       ??$extract_argument_from_va_list@PEAUansi_string@?1??type_case_Z@?$output_processor@_WV?$string_output_adapter@_W@__crt_stdio_output@@V?$format_validation_base@_WV?$string_output_adapter@_W@__crt_stdio_output@@@2@@__crt_stdio_output@@AEAA_NXZ@PEAU1?1??234@AEAA_NXZ@@?$standard_base@_WV?$string_output_adapter@_W@__crt_stdio_output@@@__crt_stdio_output@@IEAA_NAEAPEAUansi_string@?1??type_case_Z@?$output_processor@_WV?$string_output_adapter@_W@__crt_stdio_output@@V?$format_validation_base@_WV?$string_output_adapter@_W@__crt_stdio_output@@@2@@1@AEAA_NXZ@@Z 0000000180087e30 f i libucrtd:output.obj
 0001:00086e60       ??$extract_argument_from_va_list@PEAUansi_string@?1??type_case_Z@?$output_processor@_WV?$string_output_adapter@_W@__crt_stdio_output@@V?$positional_parameter_base@_WV?$string_output_adapter@_W@__crt_stdio_output@@@2@@__crt_stdio_output@@AEAA_NXZ@PEAU1?1??234@AEAA_NXZ@@?$positional_parameter_base@_WV?$string_output_adapter@_W@__crt_stdio_output@@@__crt_stdio_output@@IEAA_NAEAPEAUansi_string@?1??type_case_Z@?$output_processor@_WV?$string_output_adapter@_W@__crt_stdio_output@@V?$positional_parameter_base@_WV?$string_output_adapter@_W@__crt_stdio_output@@@2@@1@AEAA_NXZ@@Z 0000000180087e60 f i libucrtd:output.obj
 0001:00087020       ??$extract_argument_from_va_list@PEAUansi_string@?1??type_case_Z@?$output_processor@_WV?$string_output_adapter@_W@__crt_stdio_output@@V?$positional_parameter_base@_WV?$string_output_adapter@_W@__crt_stdio_output@@@2@@__crt_stdio_output@@AEAA_NXZ@PEAU1?1??234@AEAA_NXZ@@?$standard_base@_WV?$string_output_adapter@_W@__crt_stdio_output@@@__crt_stdio_output@@IEAA_NAEAPEAUansi_string@?1??type_case_Z@?$output_processor@_WV?$string_output_adapter@_W@__crt_stdio_output@@V?$positional_parameter_base@_WV?$string_output_adapter@_W@__crt_stdio_output@@@2@@1@AEAA_NXZ@@Z 0000000180088020 f i libucrtd:output.obj
 0001:00087050       ??$extract_argument_from_va_list@PEAUansi_string@?1??type_case_Z@?$output_processor@_WV?$string_output_adapter@_W@__crt_stdio_output@@V?$standard_base@_WV?$string_output_adapter@_W@__crt_stdio_output@@@2@@__crt_stdio_output@@AEAA_NXZ@PEAU1?1??234@AEAA_NXZ@@?$standard_base@_WV?$string_output_adapter@_W@__crt_stdio_output@@@__crt_stdio_output@@IEAA_NAEAPEAUansi_string@?1??type_case_Z@?$output_processor@_WV?$string_output_adapter@_W@__crt_stdio_output@@V?$standard_base@_WV?$string_output_adapter@_W@__crt_stdio_output@@@2@@1@AEAA_NXZ@@Z 0000000180088050 f i libucrtd:output.obj
 0001:00087080       ??$extract_argument_from_va_list@PEAXPEAX@?$positional_parameter_base@DV?$stream_output_adapter@D@__crt_stdio_output@@@__crt_stdio_output@@IEAA_NAEAPEAX@Z 0000000180088080 f i libucrtd:output.obj
 0001:00087240       ??$extract_argument_from_va_list@PEAXPEAX@?$positional_parameter_base@DV?$string_output_adapter@D@__crt_stdio_output@@@__crt_stdio_output@@IEAA_NAEAPEAX@Z 0000000180088240 f i libucrtd:output.obj
 0001:00087400       ??$extract_argument_from_va_list@PEAXPEAX@?$positional_parameter_base@_WV?$stream_output_adapter@_W@__crt_stdio_output@@@__crt_stdio_output@@IEAA_NAEAPEAX@Z 0000000180088400 f i libucrtd:output.obj
 0001:000875c0       ??$extract_argument_from_va_list@PEAXPEAX@?$positional_parameter_base@_WV?$string_output_adapter@_W@__crt_stdio_output@@@__crt_stdio_output@@IEAA_NAEAPEAX@Z 00000001800885c0 f i libucrtd:output.obj
 0001:00087780       ??$extract_argument_from_va_list@PEAXPEAX@?$standard_base@DV?$stream_output_adapter@D@__crt_stdio_output@@@__crt_stdio_output@@IEAA_NAEAPEAX@Z 0000000180088780 f i libucrtd:output.obj
 0001:000877b0       ??$extract_argument_from_va_list@PEAXPEAX@?$standard_base@DV?$string_output_adapter@D@__crt_stdio_output@@@__crt_stdio_output@@IEAA_NAEAPEAX@Z 00000001800887b0 f i libucrtd:output.obj
 0001:000877e0       ??$extract_argument_from_va_list@PEAXPEAX@?$standard_base@_WV?$stream_output_adapter@_W@__crt_stdio_output@@@__crt_stdio_output@@IEAA_NAEAPEAX@Z 00000001800887e0 f i libucrtd:output.obj
 0001:00087810       ??$extract_argument_from_va_list@PEAXPEAX@?$standard_base@_WV?$string_output_adapter@_W@__crt_stdio_output@@@__crt_stdio_output@@IEAA_NAEAPEAX@Z 0000000180088810 f i libucrtd:output.obj
 0001:00087840       ??$extract_argument_from_va_list@U_CRT_DOUBLE@@U1@@?$positional_parameter_base@DV?$stream_output_adapter@D@__crt_stdio_output@@@__crt_stdio_output@@IEAA_NAEAU_CRT_DOUBLE@@@Z 0000000180088840 f i libucrtd:output.obj
 0001:00087a60       ??$extract_argument_from_va_list@U_CRT_DOUBLE@@U1@@?$positional_parameter_base@DV?$string_output_adapter@D@__crt_stdio_output@@@__crt_stdio_output@@IEAA_NAEAU_CRT_DOUBLE@@@Z 0000000180088a60 f i libucrtd:output.obj
 0001:00087c80       ??$extract_argument_from_va_list@U_CRT_DOUBLE@@U1@@?$positional_parameter_base@_WV?$stream_output_adapter@_W@__crt_stdio_output@@@__crt_stdio_output@@IEAA_NAEAU_CRT_DOUBLE@@@Z 0000000180088c80 f i libucrtd:output.obj
 0001:00087ea0       ??$extract_argument_from_va_list@U_CRT_DOUBLE@@U1@@?$positional_parameter_base@_WV?$string_output_adapter@_W@__crt_stdio_output@@@__crt_stdio_output@@IEAA_NAEAU_CRT_DOUBLE@@@Z 0000000180088ea0 f i libucrtd:output.obj
 0001:000880c0       ??$extract_argument_from_va_list@U_CRT_DOUBLE@@U1@@?$standard_base@DV?$stream_output_adapter@D@__crt_stdio_output@@@__crt_stdio_output@@IEAA_NAEAU_CRT_DOUBLE@@@Z 00000001800890c0 f i libucrtd:output.obj
 0001:00088110       ??$extract_argument_from_va_list@U_CRT_DOUBLE@@U1@@?$standard_base@DV?$string_output_adapter@D@__crt_stdio_output@@@__crt_stdio_output@@IEAA_NAEAU_CRT_DOUBLE@@@Z 0000000180089110 f i libucrtd:output.obj
 0001:00088160       ??$extract_argument_from_va_list@U_CRT_DOUBLE@@U1@@?$standard_base@_WV?$stream_output_adapter@_W@__crt_stdio_output@@@__crt_stdio_output@@IEAA_NAEAU_CRT_DOUBLE@@@Z 0000000180089160 f i libucrtd:output.obj
 0001:000881b0       ??$extract_argument_from_va_list@U_CRT_DOUBLE@@U1@@?$standard_base@_WV?$string_output_adapter@_W@__crt_stdio_output@@@__crt_stdio_output@@IEAA_NAEAU_CRT_DOUBLE@@@Z 00000001800891b0 f i libucrtd:output.obj
 0001:00088200       ??$extract_argument_from_va_list@_J_J@?$positional_parameter_base@DV?$stream_output_adapter@D@__crt_stdio_output@@@__crt_stdio_output@@IEAA_NAEA_J@Z 0000000180089200 f i libucrtd:output.obj
 0001:000883c0       ??$extract_argument_from_va_list@_J_J@?$positional_parameter_base@DV?$string_output_adapter@D@__crt_stdio_output@@@__crt_stdio_output@@IEAA_NAEA_J@Z 00000001800893c0 f i libucrtd:output.obj
 0001:00088580       ??$extract_argument_from_va_list@_J_J@?$positional_parameter_base@_WV?$stream_output_adapter@_W@__crt_stdio_output@@@__crt_stdio_output@@IEAA_NAEA_J@Z 0000000180089580 f i libucrtd:output.obj
 0001:00088740       ??$extract_argument_from_va_list@_J_J@?$positional_parameter_base@_WV?$string_output_adapter@_W@__crt_stdio_output@@@__crt_stdio_output@@IEAA_NAEA_J@Z 0000000180089740 f i libucrtd:output.obj
 0001:00088900       ??$extract_argument_from_va_list@_J_J@?$standard_base@DV?$stream_output_adapter@D@__crt_stdio_output@@@__crt_stdio_output@@IEAA_NAEA_J@Z 0000000180089900 f i libucrtd:output.obj
 0001:00088930       ??$extract_argument_from_va_list@_J_J@?$standard_base@DV?$string_output_adapter@D@__crt_stdio_output@@@__crt_stdio_output@@IEAA_NAEA_J@Z 0000000180089930 f i libucrtd:output.obj
 0001:00088960       ??$extract_argument_from_va_list@_J_J@?$standard_base@_WV?$stream_output_adapter@_W@__crt_stdio_output@@@__crt_stdio_output@@IEAA_NAEA_J@Z 0000000180089960 f i libucrtd:output.obj
 0001:00088990       ??$extract_argument_from_va_list@_J_J@?$standard_base@_WV?$string_output_adapter@_W@__crt_stdio_output@@@__crt_stdio_output@@IEAA_NAEA_J@Z 0000000180089990 f i libucrtd:output.obj
 0001:000889c0       ??$extract_argument_from_va_list@_K_J@?$positional_parameter_base@DV?$stream_output_adapter@D@__crt_stdio_output@@@__crt_stdio_output@@IEAA_NAEA_J@Z 00000001800899c0 f i libucrtd:output.obj
 0001:00088b80       ??$extract_argument_from_va_list@_K_J@?$positional_parameter_base@DV?$string_output_adapter@D@__crt_stdio_output@@@__crt_stdio_output@@IEAA_NAEA_J@Z 0000000180089b80 f i libucrtd:output.obj
 0001:00088d40       ??$extract_argument_from_va_list@_K_J@?$positional_parameter_base@_WV?$stream_output_adapter@_W@__crt_stdio_output@@@__crt_stdio_output@@IEAA_NAEA_J@Z 0000000180089d40 f i libucrtd:output.obj
 0001:00088f00       ??$extract_argument_from_va_list@_K_J@?$positional_parameter_base@_WV?$string_output_adapter@_W@__crt_stdio_output@@@__crt_stdio_output@@IEAA_NAEA_J@Z 0000000180089f00 f i libucrtd:output.obj
 0001:000890c0       ??$extract_argument_from_va_list@_K_J@?$standard_base@DV?$stream_output_adapter@D@__crt_stdio_output@@@__crt_stdio_output@@IEAA_NAEA_J@Z 000000018008a0c0 f i libucrtd:output.obj
 0001:000890f0       ??$extract_argument_from_va_list@_K_J@?$standard_base@DV?$string_output_adapter@D@__crt_stdio_output@@@__crt_stdio_output@@IEAA_NAEA_J@Z 000000018008a0f0 f i libucrtd:output.obj
 0001:00089120       ??$extract_argument_from_va_list@_K_J@?$standard_base@_WV?$stream_output_adapter@_W@__crt_stdio_output@@@__crt_stdio_output@@IEAA_NAEA_J@Z 000000018008a120 f i libucrtd:output.obj
 0001:00089150       ??$extract_argument_from_va_list@_K_J@?$standard_base@_WV?$string_output_adapter@_W@__crt_stdio_output@@@__crt_stdio_output@@IEAA_NAEA_J@Z 000000018008a150 f i libucrtd:output.obj
 0001:00089180       ??$extract_argument_from_va_list@_W_W@?$positional_parameter_base@DV?$stream_output_adapter@D@__crt_stdio_output@@@__crt_stdio_output@@IEAA_NAEA_W@Z 000000018008a180 f i libucrtd:output.obj
 0001:00089340       ??$extract_argument_from_va_list@_W_W@?$positional_parameter_base@DV?$string_output_adapter@D@__crt_stdio_output@@@__crt_stdio_output@@IEAA_NAEA_W@Z 000000018008a340 f i libucrtd:output.obj
 0001:00089500       ??$extract_argument_from_va_list@_W_W@?$positional_parameter_base@_WV?$stream_output_adapter@_W@__crt_stdio_output@@@__crt_stdio_output@@IEAA_NAEA_W@Z 000000018008a500 f i libucrtd:output.obj
 0001:000896c0       ??$extract_argument_from_va_list@_W_W@?$positional_parameter_base@_WV?$string_output_adapter@_W@__crt_stdio_output@@@__crt_stdio_output@@IEAA_NAEA_W@Z 000000018008a6c0 f i libucrtd:output.obj
 0001:00089880       ??$extract_argument_from_va_list@_W_W@?$standard_base@DV?$stream_output_adapter@D@__crt_stdio_output@@@__crt_stdio_output@@IEAA_NAEA_W@Z 000000018008a880 f i libucrtd:output.obj
 0001:000898b0       ??$extract_argument_from_va_list@_W_W@?$standard_base@DV?$string_output_adapter@D@__crt_stdio_output@@@__crt_stdio_output@@IEAA_NAEA_W@Z 000000018008a8b0 f i libucrtd:output.obj
 0001:000898e0       ??$extract_argument_from_va_list@_W_W@?$standard_base@_WV?$stream_output_adapter@_W@__crt_stdio_output@@@__crt_stdio_output@@IEAA_NAEA_W@Z 000000018008a8e0 f i libucrtd:output.obj
 0001:00089910       ??$extract_argument_from_va_list@_W_W@?$standard_base@_WV?$string_output_adapter@_W@__crt_stdio_output@@@__crt_stdio_output@@IEAA_NAEA_W@Z 000000018008a910 f i libucrtd:output.obj
 0001:00089940       ??$get_parameter_type@D@?$positional_parameter_base@DV?$stream_output_adapter@D@__crt_stdio_output@@@__crt_stdio_output@@CA?AW4parameter_type@01@PEAD@Z 000000018008a940 f i libucrtd:output.obj
 0001:00089950       ??$get_parameter_type@D@?$positional_parameter_base@DV?$string_output_adapter@D@__crt_stdio_output@@@__crt_stdio_output@@CA?AW4parameter_type@01@PEAD@Z 000000018008a950 f i libucrtd:output.obj
 0001:00089960       ??$get_parameter_type@D@?$positional_parameter_base@_WV?$stream_output_adapter@_W@__crt_stdio_output@@@__crt_stdio_output@@CA?AW4parameter_type@01@PEAD@Z 000000018008a960 f i libucrtd:output.obj
 0001:00089970       ??$get_parameter_type@D@?$positional_parameter_base@_WV?$string_output_adapter@_W@__crt_stdio_output@@@__crt_stdio_output@@CA?AW4parameter_type@01@PEAD@Z 000000018008a970 f i libucrtd:output.obj
 0001:00089980       ??$get_parameter_type@Uansi_string@?1??type_case_Z@?$output_processor@DV?$stream_output_adapter@D@__crt_stdio_output@@V?$positional_parameter_base@DV?$stream_output_adapter@D@__crt_stdio_output@@@2@@__crt_stdio_output@@AEAA_NXZ@@?$positional_parameter_base@DV?$stream_output_adapter@D@__crt_stdio_output@@@__crt_stdio_output@@CA?AW4parameter_type@01@PEAUansi_string@?1??type_case_Z@?$output_processor@DV?$stream_output_adapter@D@__crt_stdio_output@@V?$positional_parameter_base@DV?$stream_output_adapter@D@__crt_stdio_output@@@2@@1@AEAA_NXZ@@Z 000000018008a980 f i libucrtd:output.obj
 0001:00089990       ??$get_parameter_type@Uansi_string@?1??type_case_Z@?$output_processor@DV?$string_output_adapter@D@__crt_stdio_output@@V?$positional_parameter_base@DV?$string_output_adapter@D@__crt_stdio_output@@@2@@__crt_stdio_output@@AEAA_NXZ@@?$positional_parameter_base@DV?$string_output_adapter@D@__crt_stdio_output@@@__crt_stdio_output@@CA?AW4parameter_type@01@PEAUansi_string@?1??type_case_Z@?$output_processor@DV?$string_output_adapter@D@__crt_stdio_output@@V?$positional_parameter_base@DV?$string_output_adapter@D@__crt_stdio_output@@@2@@1@AEAA_NXZ@@Z 000000018008a990 f i libucrtd:output.obj
 0001:000899a0       ??$get_parameter_type@Uansi_string@?1??type_case_Z@?$output_processor@_WV?$stream_output_adapter@_W@__crt_stdio_output@@V?$positional_parameter_base@_WV?$stream_output_adapter@_W@__crt_stdio_output@@@2@@__crt_stdio_output@@AEAA_NXZ@@?$positional_parameter_base@_WV?$stream_output_adapter@_W@__crt_stdio_output@@@__crt_stdio_output@@CA?AW4parameter_type@01@PEAUansi_string@?1??type_case_Z@?$output_processor@_WV?$stream_output_adapter@_W@__crt_stdio_output@@V?$positional_parameter_base@_WV?$stream_output_adapter@_W@__crt_stdio_output@@@2@@1@AEAA_NXZ@@Z 000000018008a9a0 f i libucrtd:output.obj
 0001:000899b0       ??$get_parameter_type@Uansi_string@?1??type_case_Z@?$output_processor@_WV?$string_output_adapter@_W@__crt_stdio_output@@V?$positional_parameter_base@_WV?$string_output_adapter@_W@__crt_stdio_output@@@2@@__crt_stdio_output@@AEAA_NXZ@@?$positional_parameter_base@_WV?$string_output_adapter@_W@__crt_stdio_output@@@__crt_stdio_output@@CA?AW4parameter_type@01@PEAUansi_string@?1??type_case_Z@?$output_processor@_WV?$string_output_adapter@_W@__crt_stdio_output@@V?$positional_parameter_base@_WV?$string_output_adapter@_W@__crt_stdio_output@@@2@@1@AEAA_NXZ@@Z 000000018008a9b0 f i libucrtd:output.obj
 0001:000899c0       ??$get_parameter_type@X@?$positional_parameter_base@DV?$stream_output_adapter@D@__crt_stdio_output@@@__crt_stdio_output@@CA?AW4parameter_type@01@PEAX@Z 000000018008a9c0 f i libucrtd:output.obj
 0001:000899d0       ??$get_parameter_type@X@?$positional_parameter_base@DV?$string_output_adapter@D@__crt_stdio_output@@@__crt_stdio_output@@CA?AW4parameter_type@01@PEAX@Z 000000018008a9d0 f i libucrtd:output.obj
 0001:000899e0       ??$get_parameter_type@X@?$positional_parameter_base@_WV?$stream_output_adapter@_W@__crt_stdio_output@@@__crt_stdio_output@@CA?AW4parameter_type@01@PEAX@Z 000000018008a9e0 f i libucrtd:output.obj
 0001:000899f0       ??$get_parameter_type@X@?$positional_parameter_base@_WV?$string_output_adapter@_W@__crt_stdio_output@@@__crt_stdio_output@@CA?AW4parameter_type@01@PEAX@Z 000000018008a9f0 f i libucrtd:output.obj
 0001:00089a00       ??$is_character_specifier@D@?$positional_parameter_base@DV?$stream_output_adapter@D@__crt_stdio_output@@@__crt_stdio_output@@CA_ND@Z 000000018008aa00 f i libucrtd:output.obj
 0001:00089a40       ??$is_character_specifier@D@?$positional_parameter_base@DV?$string_output_adapter@D@__crt_stdio_output@@@__crt_stdio_output@@CA_ND@Z 000000018008aa40 f i libucrtd:output.obj
 0001:00089a80       ??$is_character_specifier@_W@?$positional_parameter_base@_WV?$stream_output_adapter@_W@__crt_stdio_output@@@__crt_stdio_output@@CA_N_W@Z 000000018008aa80 f i libucrtd:output.obj
 0001:00089ac0       ??$is_character_specifier@_W@?$positional_parameter_base@_WV?$string_output_adapter@_W@__crt_stdio_output@@@__crt_stdio_output@@CA_N_W@Z 000000018008aac0 f i libucrtd:output.obj
 0001:00089b00       ??$is_integral_specifier@D@?$positional_parameter_base@DV?$stream_output_adapter@D@__crt_stdio_output@@@__crt_stdio_output@@CA_ND@Z 000000018008ab00 f i libucrtd:output.obj
 0001:00089b70       ??$is_integral_specifier@D@?$positional_parameter_base@DV?$string_output_adapter@D@__crt_stdio_output@@@__crt_stdio_output@@CA_ND@Z 000000018008ab70 f i libucrtd:output.obj
 0001:00089be0       ??$is_integral_specifier@_W@?$positional_parameter_base@_WV?$stream_output_adapter@_W@__crt_stdio_output@@@__crt_stdio_output@@CA_N_W@Z 000000018008abe0 f i libucrtd:output.obj
 0001:00089c50       ??$is_integral_specifier@_W@?$positional_parameter_base@_WV?$string_output_adapter@_W@__crt_stdio_output@@@__crt_stdio_output@@CA_N_W@Z 000000018008ac50 f i libucrtd:output.obj
 0001:00089cc0       ??$is_overflow_condition@K@__crt_strtox@@YA_NIK@Z 000000018008acc0 f i libucrtd:output.obj
 0001:00089d30       ??$is_pointer_specifier@D@?$positional_parameter_base@DV?$stream_output_adapter@D@__crt_stdio_output@@@__crt_stdio_output@@CA_ND@Z 000000018008ad30 f i libucrtd:output.obj
 0001:00089d60       ??$is_pointer_specifier@D@?$positional_parameter_base@DV?$string_output_adapter@D@__crt_stdio_output@@@__crt_stdio_output@@CA_ND@Z 000000018008ad60 f i libucrtd:output.obj
 0001:00089d90       ??$is_pointer_specifier@_W@?$positional_parameter_base@_WV?$stream_output_adapter@_W@__crt_stdio_output@@@__crt_stdio_output@@CA_N_W@Z 000000018008ad90 f i libucrtd:output.obj
 0001:00089dc0       ??$is_pointer_specifier@_W@?$positional_parameter_base@_WV?$string_output_adapter@_W@__crt_stdio_output@@@__crt_stdio_output@@CA_N_W@Z 000000018008adc0 f i libucrtd:output.obj
 0001:00089df0       ??$is_string_specifier@D@?$positional_parameter_base@DV?$stream_output_adapter@D@__crt_stdio_output@@@__crt_stdio_output@@CA_ND@Z 000000018008adf0 f i libucrtd:output.obj
 0001:00089e30       ??$is_string_specifier@D@?$positional_parameter_base@DV?$string_output_adapter@D@__crt_stdio_output@@@__crt_stdio_output@@CA_ND@Z 000000018008ae30 f i libucrtd:output.obj
 0001:00089e70       ??$is_string_specifier@_W@?$positional_parameter_base@_WV?$stream_output_adapter@_W@__crt_stdio_output@@@__crt_stdio_output@@CA_N_W@Z 000000018008ae70 f i libucrtd:output.obj
 0001:00089eb0       ??$is_string_specifier@_W@?$positional_parameter_base@_WV?$string_output_adapter@_W@__crt_stdio_output@@@__crt_stdio_output@@CA_N_W@Z 000000018008aeb0 f i libucrtd:output.obj
 0001:00089ef0       ??$is_wide_character_specifier@D@__crt_stdio_output@@YA_N_KDW4length_modifier@0@@Z 000000018008aef0 f i libucrtd:output.obj
 0001:00089f90       ??$is_wide_character_specifier@_W@__crt_stdio_output@@YA_N_K_WW4length_modifier@0@@Z 000000018008af90 f i libucrtd:output.obj
 0001:0008a060       ??$make_c_string_character_source@DPEAPEAD@__crt_strtox@@YA?AV?$c_string_character_source@D@0@QEBDQEAPEAD@Z 000000018008b060 f i libucrtd:output.obj
 0001:0008a0a0       ??$make_c_string_character_source@_WPEAPEA_W@__crt_strtox@@YA?AV?$c_string_character_source@_W@0@QEB_WQEAPEA_W@Z 000000018008b0a0 f i libucrtd:output.obj
 0001:0008a0e0       ??$parse_integer@KV?$c_string_character_source@D@__crt_strtox@@$0A@@__crt_strtox@@YAKAEAV__crt_cached_ptd_host@@V?$c_string_character_source@D@0@H_N@Z 000000018008b0e0 f i libucrtd:output.obj
 0001:0008a560       ??$parse_integer@KV?$c_string_character_source@_W@__crt_strtox@@$0A@@__crt_strtox@@YAKAEAV__crt_cached_ptd_host@@V?$c_string_character_source@_W@0@H_N@Z 000000018008b560 f i libucrtd:output.obj
 0001:0008a9e0       ??$peek_va_arg@C@__crt_stdio_output@@YACPEAD@Z 000000018008b9e0 f i libucrtd:output.obj
 0001:0008aa40       ??$peek_va_arg@E@__crt_stdio_output@@YAEPEAD@Z 000000018008ba40 f i libucrtd:output.obj
 0001:0008aaa0       ??$peek_va_arg@F@__crt_stdio_output@@YAFPEAD@Z 000000018008baa0 f i libucrtd:output.obj
 0001:0008ab00       ??$peek_va_arg@G@__crt_stdio_output@@YAGPEAD@Z 000000018008bb00 f i libucrtd:output.obj
 0001:0008ab60       ??$peek_va_arg@H@__crt_stdio_output@@YAHPEAD@Z 000000018008bb60 f i libucrtd:output.obj
 0001:0008abb0       ??$peek_va_arg@I@__crt_stdio_output@@YAIPEAD@Z 000000018008bbb0 f i libucrtd:output.obj
 0001:0008ac00       ??$peek_va_arg@PEAD@__crt_stdio_output@@YAPEADPEAD@Z 000000018008bc00 f i libucrtd:output.obj
 0001:0008ac60       ??$peek_va_arg@PEAUansi_string@?1??type_case_Z@?$output_processor@DV?$stream_output_adapter@D@__crt_stdio_output@@V?$positional_parameter_base@DV?$stream_output_adapter@D@__crt_stdio_output@@@2@@__crt_stdio_output@@AEAA_NXZ@@__crt_stdio_output@@YAPEAUansi_string@?1??type_case_Z@?$output_processor@DV?$stream_output_adapter@D@__crt_stdio_output@@V?$positional_parameter_base@DV?$stream_output_adapter@D@__crt_stdio_output@@@2@@0@AEAA_NXZ@PEAD@Z 000000018008bc60 f i libucrtd:output.obj
 0001:0008acc0       ??$peek_va_arg@PEAUansi_string@?1??type_case_Z@?$output_processor@DV?$string_output_adapter@D@__crt_stdio_output@@V?$positional_parameter_base@DV?$string_output_adapter@D@__crt_stdio_output@@@2@@__crt_stdio_output@@AEAA_NXZ@@__crt_stdio_output@@YAPEAUansi_string@?1??type_case_Z@?$output_processor@DV?$string_output_adapter@D@__crt_stdio_output@@V?$positional_parameter_base@DV?$string_output_adapter@D@__crt_stdio_output@@@2@@0@AEAA_NXZ@PEAD@Z 000000018008bcc0 f i libucrtd:output.obj
 0001:0008ad20       ??$peek_va_arg@PEAUansi_string@?1??type_case_Z@?$output_processor@_WV?$stream_output_adapter@_W@__crt_stdio_output@@V?$positional_parameter_base@_WV?$stream_output_adapter@_W@__crt_stdio_output@@@2@@__crt_stdio_output@@AEAA_NXZ@@__crt_stdio_output@@YAPEAUansi_string@?1??type_case_Z@?$output_processor@_WV?$stream_output_adapter@_W@__crt_stdio_output@@V?$positional_parameter_base@_WV?$stream_output_adapter@_W@__crt_stdio_output@@@2@@0@AEAA_NXZ@PEAD@Z 000000018008bd20 f i libucrtd:output.obj
 0001:0008ad80       ??$peek_va_arg@PEAUansi_string@?1??type_case_Z@?$output_processor@_WV?$string_output_adapter@_W@__crt_stdio_output@@V?$positional_parameter_base@_WV?$string_output_adapter@_W@__crt_stdio_output@@@2@@__crt_stdio_output@@AEAA_NXZ@@__crt_stdio_output@@YAPEAUansi_string@?1??type_case_Z@?$output_processor@_WV?$string_output_adapter@_W@__crt_stdio_output@@V?$positional_parameter_base@_WV?$string_output_adapter@_W@__crt_stdio_output@@@2@@0@AEAA_NXZ@PEAD@Z 000000018008bd80 f i libucrtd:output.obj
 0001:0008ade0       ??$peek_va_arg@PEAX@__crt_stdio_output@@YAPEAXPEAD@Z 000000018008bde0 f i libucrtd:output.obj
 0001:0008ae40       ??$peek_va_arg@U_CRT_DOUBLE@@@__crt_stdio_output@@YA?AU_CRT_DOUBLE@@PEAD@Z 000000018008be40 f i libucrtd:output.obj
 0001:0008aea0       ??$peek_va_arg@_J@__crt_stdio_output@@YA_JPEAD@Z 000000018008bea0 f i libucrtd:output.obj
 0001:0008af00       ??$peek_va_arg@_K@__crt_stdio_output@@YA_KPEAD@Z 000000018008bf00 f i libucrtd:output.obj
 0001:0008af60       ??$peek_va_arg@_W@__crt_stdio_output@@YA_WPEAD@Z 000000018008bf60 f i libucrtd:output.obj
 0001:0008afc0       ??$puttc_nolock_internal@AEBDPEAU_iobuf@@AEAV__crt_cached_ptd_host@@@?$__crt_char_traits@D@@SAHAEBD$$QEAPEAU_iobuf@@AEAV__crt_cached_ptd_host@@@Z 000000018008bfc0 f i libucrtd:output.obj
 0001:0008b000       ??$puttc_nolock_internal@AEB_WPEAU_iobuf@@AEAV__crt_cached_ptd_host@@@?$__crt_char_traits@_W@@SAGAEB_W$$QEAPEAU_iobuf@@AEAV__crt_cached_ptd_host@@@Z 000000018008c000 f i libucrtd:output.obj
 0001:0008b040       ??$read_va_arg@C@__crt_stdio_output@@YACAEAPEAD@Z 000000018008c040 f i libucrtd:output.obj
 0001:0008b0b0       ??$read_va_arg@E@__crt_stdio_output@@YAEAEAPEAD@Z 000000018008c0b0 f i libucrtd:output.obj
 0001:0008b120       ??$read_va_arg@F@__crt_stdio_output@@YAFAEAPEAD@Z 000000018008c120 f i libucrtd:output.obj
 0001:0008b190       ??$read_va_arg@G@__crt_stdio_output@@YAGAEAPEAD@Z 000000018008c190 f i libucrtd:output.obj
 0001:0008b200       ??$read_va_arg@H@__crt_stdio_output@@YAHAEAPEAD@Z 000000018008c200 f i libucrtd:output.obj
 0001:0008b260       ??$read_va_arg@I@__crt_stdio_output@@YAIAEAPEAD@Z 000000018008c260 f i libucrtd:output.obj
 0001:0008b2c0       ??$read_va_arg@PEAD@__crt_stdio_output@@YAPEADAEAPEAD@Z 000000018008c2c0 f i libucrtd:output.obj
 0001:0008b330       ??$read_va_arg@PEAUansi_string@?1??type_case_Z@?$output_processor@DV?$stream_output_adapter@D@__crt_stdio_output@@V?$format_validation_base@DV?$stream_output_adapter@D@__crt_stdio_output@@@2@@__crt_stdio_output@@AEAA_NXZ@@__crt_stdio_output@@YAPEAUansi_string@?1??type_case_Z@?$output_processor@DV?$stream_output_adapter@D@__crt_stdio_output@@V?$format_validation_base@DV?$stream_output_adapter@D@__crt_stdio_output@@@2@@0@AEAA_NXZ@AEAPEAD@Z 000000018008c330 f i libucrtd:output.obj
 0001:0008b3a0       ??$read_va_arg@PEAUansi_string@?1??type_case_Z@?$output_processor@DV?$stream_output_adapter@D@__crt_stdio_output@@V?$positional_parameter_base@DV?$stream_output_adapter@D@__crt_stdio_output@@@2@@__crt_stdio_output@@AEAA_NXZ@@__crt_stdio_output@@YAPEAUansi_string@?1??type_case_Z@?$output_processor@DV?$stream_output_adapter@D@__crt_stdio_output@@V?$positional_parameter_base@DV?$stream_output_adapter@D@__crt_stdio_output@@@2@@0@AEAA_NXZ@AEAPEAD@Z 000000018008c3a0 f i libucrtd:output.obj
 0001:0008b410       ??$read_va_arg@PEAUansi_string@?1??type_case_Z@?$output_processor@DV?$stream_output_adapter@D@__crt_stdio_output@@V?$standard_base@DV?$stream_output_adapter@D@__crt_stdio_output@@@2@@__crt_stdio_output@@AEAA_NXZ@@__crt_stdio_output@@YAPEAUansi_string@?1??type_case_Z@?$output_processor@DV?$stream_output_adapter@D@__crt_stdio_output@@V?$standard_base@DV?$stream_output_adapter@D@__crt_stdio_output@@@2@@0@AEAA_NXZ@AEAPEAD@Z 000000018008c410 f i libucrtd:output.obj
 0001:0008b480       ??$read_va_arg@PEAUansi_string@?1??type_case_Z@?$output_processor@DV?$string_output_adapter@D@__crt_stdio_output@@V?$format_validation_base@DV?$string_output_adapter@D@__crt_stdio_output@@@2@@__crt_stdio_output@@AEAA_NXZ@@__crt_stdio_output@@YAPEAUansi_string@?1??type_case_Z@?$output_processor@DV?$string_output_adapter@D@__crt_stdio_output@@V?$format_validation_base@DV?$string_output_adapter@D@__crt_stdio_output@@@2@@0@AEAA_NXZ@AEAPEAD@Z 000000018008c480 f i libucrtd:output.obj
 0001:0008b4f0       ??$read_va_arg@PEAUansi_string@?1??type_case_Z@?$output_processor@DV?$string_output_adapter@D@__crt_stdio_output@@V?$positional_parameter_base@DV?$string_output_adapter@D@__crt_stdio_output@@@2@@__crt_stdio_output@@AEAA_NXZ@@__crt_stdio_output@@YAPEAUansi_string@?1??type_case_Z@?$output_processor@DV?$string_output_adapter@D@__crt_stdio_output@@V?$positional_parameter_base@DV?$string_output_adapter@D@__crt_stdio_output@@@2@@0@AEAA_NXZ@AEAPEAD@Z 000000018008c4f0 f i libucrtd:output.obj
 0001:0008b560       ??$read_va_arg@PEAUansi_string@?1??type_case_Z@?$output_processor@DV?$string_output_adapter@D@__crt_stdio_output@@V?$standard_base@DV?$string_output_adapter@D@__crt_stdio_output@@@2@@__crt_stdio_output@@AEAA_NXZ@@__crt_stdio_output@@YAPEAUansi_string@?1??type_case_Z@?$output_processor@DV?$string_output_adapter@D@__crt_stdio_output@@V?$standard_base@DV?$string_output_adapter@D@__crt_stdio_output@@@2@@0@AEAA_NXZ@AEAPEAD@Z 000000018008c560 f i libucrtd:output.obj
 0001:0008b5d0       ??$read_va_arg@PEAUansi_string@?1??type_case_Z@?$output_processor@_WV?$stream_output_adapter@_W@__crt_stdio_output@@V?$format_validation_base@_WV?$stream_output_adapter@_W@__crt_stdio_output@@@2@@__crt_stdio_output@@AEAA_NXZ@@__crt_stdio_output@@YAPEAUansi_string@?1??type_case_Z@?$output_processor@_WV?$stream_output_adapter@_W@__crt_stdio_output@@V?$format_validation_base@_WV?$stream_output_adapter@_W@__crt_stdio_output@@@2@@0@AEAA_NXZ@AEAPEAD@Z 000000018008c5d0 f i libucrtd:output.obj
 0001:0008b640       ??$read_va_arg@PEAUansi_string@?1??type_case_Z@?$output_processor@_WV?$stream_output_adapter@_W@__crt_stdio_output@@V?$positional_parameter_base@_WV?$stream_output_adapter@_W@__crt_stdio_output@@@2@@__crt_stdio_output@@AEAA_NXZ@@__crt_stdio_output@@YAPEAUansi_string@?1??type_case_Z@?$output_processor@_WV?$stream_output_adapter@_W@__crt_stdio_output@@V?$positional_parameter_base@_WV?$stream_output_adapter@_W@__crt_stdio_output@@@2@@0@AEAA_NXZ@AEAPEAD@Z 000000018008c640 f i libucrtd:output.obj
 0001:0008b6b0       ??$read_va_arg@PEAUansi_string@?1??type_case_Z@?$output_processor@_WV?$stream_output_adapter@_W@__crt_stdio_output@@V?$standard_base@_WV?$stream_output_adapter@_W@__crt_stdio_output@@@2@@__crt_stdio_output@@AEAA_NXZ@@__crt_stdio_output@@YAPEAUansi_string@?1??type_case_Z@?$output_processor@_WV?$stream_output_adapter@_W@__crt_stdio_output@@V?$standard_base@_WV?$stream_output_adapter@_W@__crt_stdio_output@@@2@@0@AEAA_NXZ@AEAPEAD@Z 000000018008c6b0 f i libucrtd:output.obj
 0001:0008b720       ??$read_va_arg@PEAUansi_string@?1??type_case_Z@?$output_processor@_WV?$string_output_adapter@_W@__crt_stdio_output@@V?$format_validation_base@_WV?$string_output_adapter@_W@__crt_stdio_output@@@2@@__crt_stdio_output@@AEAA_NXZ@@__crt_stdio_output@@YAPEAUansi_string@?1??type_case_Z@?$output_processor@_WV?$string_output_adapter@_W@__crt_stdio_output@@V?$format_validation_base@_WV?$string_output_adapter@_W@__crt_stdio_output@@@2@@0@AEAA_NXZ@AEAPEAD@Z 000000018008c720 f i libucrtd:output.obj
 0001:0008b790       ??$read_va_arg@PEAUansi_string@?1??type_case_Z@?$output_processor@_WV?$string_output_adapter@_W@__crt_stdio_output@@V?$positional_parameter_base@_WV?$string_output_adapter@_W@__crt_stdio_output@@@2@@__crt_stdio_output@@AEAA_NXZ@@__crt_stdio_output@@YAPEAUansi_string@?1??type_case_Z@?$output_processor@_WV?$string_output_adapter@_W@__crt_stdio_output@@V?$positional_parameter_base@_WV?$string_output_adapter@_W@__crt_stdio_output@@@2@@0@AEAA_NXZ@AEAPEAD@Z 000000018008c790 f i libucrtd:output.obj
 0001:0008b800       ??$read_va_arg@PEAUansi_string@?1??type_case_Z@?$output_processor@_WV?$string_output_adapter@_W@__crt_stdio_output@@V?$standard_base@_WV?$string_output_adapter@_W@__crt_stdio_output@@@2@@__crt_stdio_output@@AEAA_NXZ@@__crt_stdio_output@@YAPEAUansi_string@?1??type_case_Z@?$output_processor@_WV?$string_output_adapter@_W@__crt_stdio_output@@V?$standard_base@_WV?$string_output_adapter@_W@__crt_stdio_output@@@2@@0@AEAA_NXZ@AEAPEAD@Z 000000018008c800 f i libucrtd:output.obj
 0001:0008b870       ??$read_va_arg@PEAX@__crt_stdio_output@@YAPEAXAEAPEAD@Z 000000018008c870 f i libucrtd:output.obj
 0001:0008b8e0       ??$read_va_arg@U_CRT_DOUBLE@@@__crt_stdio_output@@YA?AU_CRT_DOUBLE@@AEAPEAD@Z 000000018008c8e0 f i libucrtd:output.obj
 0001:0008b950       ??$read_va_arg@_J@__crt_stdio_output@@YA_JAEAPEAD@Z 000000018008c950 f i libucrtd:output.obj
 0001:0008b9c0       ??$read_va_arg@_K@__crt_stdio_output@@YA_KAEAPEAD@Z 000000018008c9c0 f i libucrtd:output.obj
 0001:0008ba30       ??$read_va_arg@_W@__crt_stdio_output@@YA_WAEAPEAD@Z 000000018008ca30 f i libucrtd:output.obj
 0001:0008baa0       ??$scratch_count@D@formatting_buffer@__crt_stdio_output@@QEBA_KXZ 000000018008caa0 f i libucrtd:output.obj
 0001:0008bac0       ??$scratch_data@D@formatting_buffer@__crt_stdio_output@@QEAAPEADXZ 000000018008cac0 f i libucrtd:output.obj
 0001:0008bb30       ??$type_case_integer@$07@?$output_processor@DV?$stream_output_adapter@D@__crt_stdio_output@@V?$format_validation_base@DV?$stream_output_adapter@D@__crt_stdio_output@@@2@@__crt_stdio_output@@AEAA_N_N@Z 000000018008cb30 f i libucrtd:output.obj
 0001:0008bfb0       ??$type_case_integer@$07@?$output_processor@DV?$stream_output_adapter@D@__crt_stdio_output@@V?$positional_parameter_base@DV?$stream_output_adapter@D@__crt_stdio_output@@@2@@__crt_stdio_output@@AEAA_N_N@Z 000000018008cfb0 f i libucrtd:output.obj
 0001:0008c430       ??$type_case_integer@$07@?$output_processor@DV?$stream_output_adapter@D@__crt_stdio_output@@V?$standard_base@DV?$stream_output_adapter@D@__crt_stdio_output@@@2@@__crt_stdio_output@@AEAA_N_N@Z 000000018008d430 f i libucrtd:output.obj
 0001:0008c8b0       ??$type_case_integer@$07@?$output_processor@DV?$string_output_adapter@D@__crt_stdio_output@@V?$format_validation_base@DV?$string_output_adapter@D@__crt_stdio_output@@@2@@__crt_stdio_output@@AEAA_N_N@Z 000000018008d8b0 f i libucrtd:output.obj
 0001:0008cd30       ??$type_case_integer@$07@?$output_processor@DV?$string_output_adapter@D@__crt_stdio_output@@V?$positional_parameter_base@DV?$string_output_adapter@D@__crt_stdio_output@@@2@@__crt_stdio_output@@AEAA_N_N@Z 000000018008dd30 f i libucrtd:output.obj
 0001:0008d1b0       ??$type_case_integer@$07@?$output_processor@DV?$string_output_adapter@D@__crt_stdio_output@@V?$standard_base@DV?$string_output_adapter@D@__crt_stdio_output@@@2@@__crt_stdio_output@@AEAA_N_N@Z 000000018008e1b0 f i libucrtd:output.obj
 0001:0008d630       ??$type_case_integer@$07@?$output_processor@_WV?$stream_output_adapter@_W@__crt_stdio_output@@V?$format_validation_base@_WV?$stream_output_adapter@_W@__crt_stdio_output@@@2@@__crt_stdio_output@@AEAA_N_N@Z 000000018008e630 f i libucrtd:output.obj
 0001:0008dab0       ??$type_case_integer@$07@?$output_processor@_WV?$stream_output_adapter@_W@__crt_stdio_output@@V?$positional_parameter_base@_WV?$stream_output_adapter@_W@__crt_stdio_output@@@2@@__crt_stdio_output@@AEAA_N_N@Z 000000018008eab0 f i libucrtd:output.obj
 0001:0008df30       ??$type_case_integer@$07@?$output_processor@_WV?$stream_output_adapter@_W@__crt_stdio_output@@V?$standard_base@_WV?$stream_output_adapter@_W@__crt_stdio_output@@@2@@__crt_stdio_output@@AEAA_N_N@Z 000000018008ef30 f i libucrtd:output.obj
 0001:0008e3b0       ??$type_case_integer@$07@?$output_processor@_WV?$string_output_adapter@_W@__crt_stdio_output@@V?$format_validation_base@_WV?$string_output_adapter@_W@__crt_stdio_output@@@2@@__crt_stdio_output@@AEAA_N_N@Z 000000018008f3b0 f i libucrtd:output.obj
 0001:0008e830       ??$type_case_integer@$07@?$output_processor@_WV?$string_output_adapter@_W@__crt_stdio_output@@V?$positional_parameter_base@_WV?$string_output_adapter@_W@__crt_stdio_output@@@2@@__crt_stdio_output@@AEAA_N_N@Z 000000018008f830 f i libucrtd:output.obj
 0001:0008ecb0       ??$type_case_integer@$07@?$output_processor@_WV?$string_output_adapter@_W@__crt_stdio_output@@V?$standard_base@_WV?$string_output_adapter@_W@__crt_stdio_output@@@2@@__crt_stdio_output@@AEAA_N_N@Z 000000018008fcb0 f i libucrtd:output.obj
 0001:0008f130       ??$type_case_integer@$09@?$output_processor@DV?$stream_output_adapter@D@__crt_stdio_output@@V?$format_validation_base@DV?$stream_output_adapter@D@__crt_stdio_output@@@2@@__crt_stdio_output@@AEAA_N_N@Z 0000000180090130 f i libucrtd:output.obj
 0001:0008f5b0       ??$type_case_integer@$09@?$output_processor@DV?$stream_output_adapter@D@__crt_stdio_output@@V?$positional_parameter_base@DV?$stream_output_adapter@D@__crt_stdio_output@@@2@@__crt_stdio_output@@AEAA_N_N@Z 00000001800905b0 f i libucrtd:output.obj
 0001:0008fa30       ??$type_case_integer@$09@?$output_processor@DV?$stream_output_adapter@D@__crt_stdio_output@@V?$standard_base@DV?$stream_output_adapter@D@__crt_stdio_output@@@2@@__crt_stdio_output@@AEAA_N_N@Z 0000000180090a30 f i libucrtd:output.obj
 0001:0008feb0       ??$type_case_integer@$09@?$output_processor@DV?$string_output_adapter@D@__crt_stdio_output@@V?$format_validation_base@DV?$string_output_adapter@D@__crt_stdio_output@@@2@@__crt_stdio_output@@AEAA_N_N@Z 0000000180090eb0 f i libucrtd:output.obj
 0001:00090330       ??$type_case_integer@$09@?$output_processor@DV?$string_output_adapter@D@__crt_stdio_output@@V?$positional_parameter_base@DV?$string_output_adapter@D@__crt_stdio_output@@@2@@__crt_stdio_output@@AEAA_N_N@Z 0000000180091330 f i libucrtd:output.obj
 0001:000907b0       ??$type_case_integer@$09@?$output_processor@DV?$string_output_adapter@D@__crt_stdio_output@@V?$standard_base@DV?$string_output_adapter@D@__crt_stdio_output@@@2@@__crt_stdio_output@@AEAA_N_N@Z 00000001800917b0 f i libucrtd:output.obj
 0001:00090c30       ??$type_case_integer@$09@?$output_processor@_WV?$stream_output_adapter@_W@__crt_stdio_output@@V?$format_validation_base@_WV?$stream_output_adapter@_W@__crt_stdio_output@@@2@@__crt_stdio_output@@AEAA_N_N@Z 0000000180091c30 f i libucrtd:output.obj
 0001:000910b0       ??$type_case_integer@$09@?$output_processor@_WV?$stream_output_adapter@_W@__crt_stdio_output@@V?$positional_parameter_base@_WV?$stream_output_adapter@_W@__crt_stdio_output@@@2@@__crt_stdio_output@@AEAA_N_N@Z 00000001800920b0 f i libucrtd:output.obj
 0001:00091530       ??$type_case_integer@$09@?$output_processor@_WV?$stream_output_adapter@_W@__crt_stdio_output@@V?$standard_base@_WV?$stream_output_adapter@_W@__crt_stdio_output@@@2@@__crt_stdio_output@@AEAA_N_N@Z 0000000180092530 f i libucrtd:output.obj
 0001:000919b0       ??$type_case_integer@$09@?$output_processor@_WV?$string_output_adapter@_W@__crt_stdio_output@@V?$format_validation_base@_WV?$string_output_adapter@_W@__crt_stdio_output@@@2@@__crt_stdio_output@@AEAA_N_N@Z 00000001800929b0 f i libucrtd:output.obj
 0001:00091e30       ??$type_case_integer@$09@?$output_processor@_WV?$string_output_adapter@_W@__crt_stdio_output@@V?$positional_parameter_base@_WV?$string_output_adapter@_W@__crt_stdio_output@@@2@@__crt_stdio_output@@AEAA_N_N@Z 0000000180092e30 f i libucrtd:output.obj
 0001:000922b0       ??$type_case_integer@$09@?$output_processor@_WV?$string_output_adapter@_W@__crt_stdio_output@@V?$standard_base@_WV?$string_output_adapter@_W@__crt_stdio_output@@@2@@__crt_stdio_output@@AEAA_N_N@Z 00000001800932b0 f i libucrtd:output.obj
 0001:00092730       ??$type_case_integer@$0BA@@?$output_processor@DV?$stream_output_adapter@D@__crt_stdio_output@@V?$format_validation_base@DV?$stream_output_adapter@D@__crt_stdio_output@@@2@@__crt_stdio_output@@AEAA_N_N@Z 0000000180093730 f i libucrtd:output.obj
 0001:00092bb0       ??$type_case_integer@$0BA@@?$output_processor@DV?$stream_output_adapter@D@__crt_stdio_output@@V?$positional_parameter_base@DV?$stream_output_adapter@D@__crt_stdio_output@@@2@@__crt_stdio_output@@AEAA_N_N@Z 0000000180093bb0 f i libucrtd:output.obj
 0001:00093030       ??$type_case_integer@$0BA@@?$output_processor@DV?$stream_output_adapter@D@__crt_stdio_output@@V?$standard_base@DV?$stream_output_adapter@D@__crt_stdio_output@@@2@@__crt_stdio_output@@AEAA_N_N@Z 0000000180094030 f i libucrtd:output.obj
 0001:000934b0       ??$type_case_integer@$0BA@@?$output_processor@DV?$string_output_adapter@D@__crt_stdio_output@@V?$format_validation_base@DV?$string_output_adapter@D@__crt_stdio_output@@@2@@__crt_stdio_output@@AEAA_N_N@Z 00000001800944b0 f i libucrtd:output.obj
 0001:00093930       ??$type_case_integer@$0BA@@?$output_processor@DV?$string_output_adapter@D@__crt_stdio_output@@V?$positional_parameter_base@DV?$string_output_adapter@D@__crt_stdio_output@@@2@@__crt_stdio_output@@AEAA_N_N@Z 0000000180094930 f i libucrtd:output.obj
 0001:00093db0       ??$type_case_integer@$0BA@@?$output_processor@DV?$string_output_adapter@D@__crt_stdio_output@@V?$standard_base@DV?$string_output_adapter@D@__crt_stdio_output@@@2@@__crt_stdio_output@@AEAA_N_N@Z 0000000180094db0 f i libucrtd:output.obj
 0001:00094230       ??$type_case_integer@$0BA@@?$output_processor@_WV?$stream_output_adapter@_W@__crt_stdio_output@@V?$format_validation_base@_WV?$stream_output_adapter@_W@__crt_stdio_output@@@2@@__crt_stdio_output@@AEAA_N_N@Z 0000000180095230 f i libucrtd:output.obj
 0001:000946b0       ??$type_case_integer@$0BA@@?$output_processor@_WV?$stream_output_adapter@_W@__crt_stdio_output@@V?$positional_parameter_base@_WV?$stream_output_adapter@_W@__crt_stdio_output@@@2@@__crt_stdio_output@@AEAA_N_N@Z 00000001800956b0 f i libucrtd:output.obj
 0001:00094b30       ??$type_case_integer@$0BA@@?$output_processor@_WV?$stream_output_adapter@_W@__crt_stdio_output@@V?$standard_base@_WV?$stream_output_adapter@_W@__crt_stdio_output@@@2@@__crt_stdio_output@@AEAA_N_N@Z 0000000180095b30 f i libucrtd:output.obj
 0001:00094fb0       ??$type_case_integer@$0BA@@?$output_processor@_WV?$string_output_adapter@_W@__crt_stdio_output@@V?$format_validation_base@_WV?$string_output_adapter@_W@__crt_stdio_output@@@2@@__crt_stdio_output@@AEAA_N_N@Z 0000000180095fb0 f i libucrtd:output.obj
 0001:00095430       ??$type_case_integer@$0BA@@?$output_processor@_WV?$string_output_adapter@_W@__crt_stdio_output@@V?$positional_parameter_base@_WV?$string_output_adapter@_W@__crt_stdio_output@@@2@@__crt_stdio_output@@AEAA_N_N@Z 0000000180096430 f i libucrtd:output.obj
 0001:000958b0       ??$type_case_integer@$0BA@@?$output_processor@_WV?$string_output_adapter@_W@__crt_stdio_output@@V?$standard_base@_WV?$string_output_adapter@_W@__crt_stdio_output@@@2@@__crt_stdio_output@@AEAA_N_N@Z 00000001800968b0 f i libucrtd:output.obj
 0001:00095d30       ??$type_case_integer_parse_into_buffer@I$07@?$output_processor@DV?$stream_output_adapter@D@__crt_stdio_output@@V?$format_validation_base@DV?$stream_output_adapter@D@__crt_stdio_output@@@2@@__crt_stdio_output@@AEAAXI_N@Z 0000000180096d30 f i libucrtd:output.obj
 0001:00095e60       ??$type_case_integer_parse_into_buffer@I$07@?$output_processor@DV?$stream_output_adapter@D@__crt_stdio_output@@V?$positional_parameter_base@DV?$stream_output_adapter@D@__crt_stdio_output@@@2@@__crt_stdio_output@@AEAAXI_N@Z 0000000180096e60 f i libucrtd:output.obj
 0001:00095f90       ??$type_case_integer_parse_into_buffer@I$07@?$output_processor@DV?$stream_output_adapter@D@__crt_stdio_output@@V?$standard_base@DV?$stream_output_adapter@D@__crt_stdio_output@@@2@@__crt_stdio_output@@AEAAXI_N@Z 0000000180096f90 f i libucrtd:output.obj
 0001:000960c0       ??$type_case_integer_parse_into_buffer@I$07@?$output_processor@DV?$string_output_adapter@D@__crt_stdio_output@@V?$format_validation_base@DV?$string_output_adapter@D@__crt_stdio_output@@@2@@__crt_stdio_output@@AEAAXI_N@Z 00000001800970c0 f i libucrtd:output.obj
 0001:000961f0       ??$type_case_integer_parse_into_buffer@I$07@?$output_processor@DV?$string_output_adapter@D@__crt_stdio_output@@V?$positional_parameter_base@DV?$string_output_adapter@D@__crt_stdio_output@@@2@@__crt_stdio_output@@AEAAXI_N@Z 00000001800971f0 f i libucrtd:output.obj
 0001:00096320       ??$type_case_integer_parse_into_buffer@I$07@?$output_processor@DV?$string_output_adapter@D@__crt_stdio_output@@V?$standard_base@DV?$string_output_adapter@D@__crt_stdio_output@@@2@@__crt_stdio_output@@AEAAXI_N@Z 0000000180097320 f i libucrtd:output.obj
 0001:00096450       ??$type_case_integer_parse_into_buffer@I$07@?$output_processor@_WV?$stream_output_adapter@_W@__crt_stdio_output@@V?$format_validation_base@_WV?$stream_output_adapter@_W@__crt_stdio_output@@@2@@__crt_stdio_output@@AEAAXI_N@Z 0000000180097450 f i libucrtd:output.obj
 0001:00096590       ??$type_case_integer_parse_into_buffer@I$07@?$output_processor@_WV?$stream_output_adapter@_W@__crt_stdio_output@@V?$positional_parameter_base@_WV?$stream_output_adapter@_W@__crt_stdio_output@@@2@@__crt_stdio_output@@AEAAXI_N@Z 0000000180097590 f i libucrtd:output.obj
 0001:000966d0       ??$type_case_integer_parse_into_buffer@I$07@?$output_processor@_WV?$stream_output_adapter@_W@__crt_stdio_output@@V?$standard_base@_WV?$stream_output_adapter@_W@__crt_stdio_output@@@2@@__crt_stdio_output@@AEAAXI_N@Z 00000001800976d0 f i libucrtd:output.obj
 0001:00096810       ??$type_case_integer_parse_into_buffer@I$07@?$output_processor@_WV?$string_output_adapter@_W@__crt_stdio_output@@V?$format_validation_base@_WV?$string_output_adapter@_W@__crt_stdio_output@@@2@@__crt_stdio_output@@AEAAXI_N@Z 0000000180097810 f i libucrtd:output.obj
 0001:00096950       ??$type_case_integer_parse_into_buffer@I$07@?$output_processor@_WV?$string_output_adapter@_W@__crt_stdio_output@@V?$positional_parameter_base@_WV?$string_output_adapter@_W@__crt_stdio_output@@@2@@__crt_stdio_output@@AEAAXI_N@Z 0000000180097950 f i libucrtd:output.obj
 0001:00096a90       ??$type_case_integer_parse_into_buffer@I$07@?$output_processor@_WV?$string_output_adapter@_W@__crt_stdio_output@@V?$standard_base@_WV?$string_output_adapter@_W@__crt_stdio_output@@@2@@__crt_stdio_output@@AEAAXI_N@Z 0000000180097a90 f i libucrtd:output.obj
 0001:00096bd0       ??$type_case_integer_parse_into_buffer@I$09@?$output_processor@DV?$stream_output_adapter@D@__crt_stdio_output@@V?$format_validation_base@DV?$stream_output_adapter@D@__crt_stdio_output@@@2@@__crt_stdio_output@@AEAAXI_N@Z 0000000180097bd0 f i libucrtd:output.obj
 0001:00096d00       ??$type_case_integer_parse_into_buffer@I$09@?$output_processor@DV?$stream_output_adapter@D@__crt_stdio_output@@V?$positional_parameter_base@DV?$stream_output_adapter@D@__crt_stdio_output@@@2@@__crt_stdio_output@@AEAAXI_N@Z 0000000180097d00 f i libucrtd:output.obj
 0001:00096e30       ??$type_case_integer_parse_into_buffer@I$09@?$output_processor@DV?$stream_output_adapter@D@__crt_stdio_output@@V?$standard_base@DV?$stream_output_adapter@D@__crt_stdio_output@@@2@@__crt_stdio_output@@AEAAXI_N@Z 0000000180097e30 f i libucrtd:output.obj
 0001:00096f60       ??$type_case_integer_parse_into_buffer@I$09@?$output_processor@DV?$string_output_adapter@D@__crt_stdio_output@@V?$format_validation_base@DV?$string_output_adapter@D@__crt_stdio_output@@@2@@__crt_stdio_output@@AEAAXI_N@Z 0000000180097f60 f i libucrtd:output.obj
 0001:00097090       ??$type_case_integer_parse_into_buffer@I$09@?$output_processor@DV?$string_output_adapter@D@__crt_stdio_output@@V?$positional_parameter_base@DV?$string_output_adapter@D@__crt_stdio_output@@@2@@__crt_stdio_output@@AEAAXI_N@Z 0000000180098090 f i libucrtd:output.obj
 0001:000971c0       ??$type_case_integer_parse_into_buffer@I$09@?$output_processor@DV?$string_output_adapter@D@__crt_stdio_output@@V?$standard_base@DV?$string_output_adapter@D@__crt_stdio_output@@@2@@__crt_stdio_output@@AEAAXI_N@Z 00000001800981c0 f i libucrtd:output.obj
 0001:000972f0       ??$type_case_integer_parse_into_buffer@I$09@?$output_processor@_WV?$stream_output_adapter@_W@__crt_stdio_output@@V?$format_validation_base@_WV?$stream_output_adapter@_W@__crt_stdio_output@@@2@@__crt_stdio_output@@AEAAXI_N@Z 00000001800982f0 f i libucrtd:output.obj
 0001:00097430       ??$type_case_integer_parse_into_buffer@I$09@?$output_processor@_WV?$stream_output_adapter@_W@__crt_stdio_output@@V?$positional_parameter_base@_WV?$stream_output_adapter@_W@__crt_stdio_output@@@2@@__crt_stdio_output@@AEAAXI_N@Z 0000000180098430 f i libucrtd:output.obj
 0001:00097570       ??$type_case_integer_parse_into_buffer@I$09@?$output_processor@_WV?$stream_output_adapter@_W@__crt_stdio_output@@V?$standard_base@_WV?$stream_output_adapter@_W@__crt_stdio_output@@@2@@__crt_stdio_output@@AEAAXI_N@Z 0000000180098570 f i libucrtd:output.obj
 0001:000976b0       ??$type_case_integer_parse_into_buffer@I$09@?$output_processor@_WV?$string_output_adapter@_W@__crt_stdio_output@@V?$format_validation_base@_WV?$string_output_adapter@_W@__crt_stdio_output@@@2@@__crt_stdio_output@@AEAAXI_N@Z 00000001800986b0 f i libucrtd:output.obj
 0001:000977f0       ??$type_case_integer_parse_into_buffer@I$09@?$output_processor@_WV?$string_output_adapter@_W@__crt_stdio_output@@V?$positional_parameter_base@_WV?$string_output_adapter@_W@__crt_stdio_output@@@2@@__crt_stdio_output@@AEAAXI_N@Z 00000001800987f0 f i libucrtd:output.obj
 0001:00097930       ??$type_case_integer_parse_into_buffer@I$09@?$output_processor@_WV?$string_output_adapter@_W@__crt_stdio_output@@V?$standard_base@_WV?$string_output_adapter@_W@__crt_stdio_output@@@2@@__crt_stdio_output@@AEAAXI_N@Z 0000000180098930 f i libucrtd:output.obj
 0001:00097a70       ??$type_case_integer_parse_into_buffer@I$0BA@@?$output_processor@DV?$stream_output_adapter@D@__crt_stdio_output@@V?$format_validation_base@DV?$stream_output_adapter@D@__crt_stdio_output@@@2@@__crt_stdio_output@@AEAAXI_N@Z 0000000180098a70 f i libucrtd:output.obj
 0001:00097ba0       ??$type_case_integer_parse_into_buffer@I$0BA@@?$output_processor@DV?$stream_output_adapter@D@__crt_stdio_output@@V?$positional_parameter_base@DV?$stream_output_adapter@D@__crt_stdio_output@@@2@@__crt_stdio_output@@AEAAXI_N@Z 0000000180098ba0 f i libucrtd:output.obj
 0001:00097cd0       ??$type_case_integer_parse_into_buffer@I$0BA@@?$output_processor@DV?$stream_output_adapter@D@__crt_stdio_output@@V?$standard_base@DV?$stream_output_adapter@D@__crt_stdio_output@@@2@@__crt_stdio_output@@AEAAXI_N@Z 0000000180098cd0 f i libucrtd:output.obj
 0001:00097e00       ??$type_case_integer_parse_into_buffer@I$0BA@@?$output_processor@DV?$string_output_adapter@D@__crt_stdio_output@@V?$format_validation_base@DV?$string_output_adapter@D@__crt_stdio_output@@@2@@__crt_stdio_output@@AEAAXI_N@Z 0000000180098e00 f i libucrtd:output.obj
 0001:00097f30       ??$type_case_integer_parse_into_buffer@I$0BA@@?$output_processor@DV?$string_output_adapter@D@__crt_stdio_output@@V?$positional_parameter_base@DV?$string_output_adapter@D@__crt_stdio_output@@@2@@__crt_stdio_output@@AEAAXI_N@Z 0000000180098f30 f i libucrtd:output.obj
 0001:00098060       ??$type_case_integer_parse_into_buffer@I$0BA@@?$output_processor@DV?$string_output_adapter@D@__crt_stdio_output@@V?$standard_base@DV?$string_output_adapter@D@__crt_stdio_output@@@2@@__crt_stdio_output@@AEAAXI_N@Z 0000000180099060 f i libucrtd:output.obj
 0001:00098190       ??$type_case_integer_parse_into_buffer@I$0BA@@?$output_processor@_WV?$stream_output_adapter@_W@__crt_stdio_output@@V?$format_validation_base@_WV?$stream_output_adapter@_W@__crt_stdio_output@@@2@@__crt_stdio_output@@AEAAXI_N@Z 0000000180099190 f i libucrtd:output.obj
 0001:000982d0       ??$type_case_integer_parse_into_buffer@I$0BA@@?$output_processor@_WV?$stream_output_adapter@_W@__crt_stdio_output@@V?$positional_parameter_base@_WV?$stream_output_adapter@_W@__crt_stdio_output@@@2@@__crt_stdio_output@@AEAAXI_N@Z 00000001800992d0 f i libucrtd:output.obj
 0001:00098410       ??$type_case_integer_parse_into_buffer@I$0BA@@?$output_processor@_WV?$stream_output_adapter@_W@__crt_stdio_output@@V?$standard_base@_WV?$stream_output_adapter@_W@__crt_stdio_output@@@2@@__crt_stdio_output@@AEAAXI_N@Z 0000000180099410 f i libucrtd:output.obj
 0001:00098550       ??$type_case_integer_parse_into_buffer@I$0BA@@?$output_processor@_WV?$string_output_adapter@_W@__crt_stdio_output@@V?$format_validation_base@_WV?$string_output_adapter@_W@__crt_stdio_output@@@2@@__crt_stdio_output@@AEAAXI_N@Z 0000000180099550 f i libucrtd:output.obj
 0001:00098690       ??$type_case_integer_parse_into_buffer@I$0BA@@?$output_processor@_WV?$string_output_adapter@_W@__crt_stdio_output@@V?$positional_parameter_base@_WV?$string_output_adapter@_W@__crt_stdio_output@@@2@@__crt_stdio_output@@AEAAXI_N@Z 0000000180099690 f i libucrtd:output.obj
 0001:000987d0       ??$type_case_integer_parse_into_buffer@I$0BA@@?$output_processor@_WV?$string_output_adapter@_W@__crt_stdio_output@@V?$standard_base@_WV?$string_output_adapter@_W@__crt_stdio_output@@@2@@__crt_stdio_output@@AEAAXI_N@Z 00000001800997d0 f i libucrtd:output.obj
 0001:00098910       ??$type_case_integer_parse_into_buffer@_K$07@?$output_processor@DV?$stream_output_adapter@D@__crt_stdio_output@@V?$format_validation_base@DV?$stream_output_adapter@D@__crt_stdio_output@@@2@@__crt_stdio_output@@AEAAX_K_N@Z 0000000180099910 f i libucrtd:output.obj
 0001:00098a50       ??$type_case_integer_parse_into_buffer@_K$07@?$output_processor@DV?$stream_output_adapter@D@__crt_stdio_output@@V?$positional_parameter_base@DV?$stream_output_adapter@D@__crt_stdio_output@@@2@@__crt_stdio_output@@AEAAX_K_N@Z 0000000180099a50 f i libucrtd:output.obj
 0001:00098b90       ??$type_case_integer_parse_into_buffer@_K$07@?$output_processor@DV?$stream_output_adapter@D@__crt_stdio_output@@V?$standard_base@DV?$stream_output_adapter@D@__crt_stdio_output@@@2@@__crt_stdio_output@@AEAAX_K_N@Z 0000000180099b90 f i libucrtd:output.obj
 0001:00098cd0       ??$type_case_integer_parse_into_buffer@_K$07@?$output_processor@DV?$string_output_adapter@D@__crt_stdio_output@@V?$format_validation_base@DV?$string_output_adapter@D@__crt_stdio_output@@@2@@__crt_stdio_output@@AEAAX_K_N@Z 0000000180099cd0 f i libucrtd:output.obj
 0001:00098e10       ??$type_case_integer_parse_into_buffer@_K$07@?$output_processor@DV?$string_output_adapter@D@__crt_stdio_output@@V?$positional_parameter_base@DV?$string_output_adapter@D@__crt_stdio_output@@@2@@__crt_stdio_output@@AEAAX_K_N@Z 0000000180099e10 f i libucrtd:output.obj
 0001:00098f50       ??$type_case_integer_parse_into_buffer@_K$07@?$output_processor@DV?$string_output_adapter@D@__crt_stdio_output@@V?$standard_base@DV?$string_output_adapter@D@__crt_stdio_output@@@2@@__crt_stdio_output@@AEAAX_K_N@Z 0000000180099f50 f i libucrtd:output.obj
 0001:00099090       ??$type_case_integer_parse_into_buffer@_K$07@?$output_processor@_WV?$stream_output_adapter@_W@__crt_stdio_output@@V?$format_validation_base@_WV?$stream_output_adapter@_W@__crt_stdio_output@@@2@@__crt_stdio_output@@AEAAX_K_N@Z 000000018009a090 f i libucrtd:output.obj
 0001:000991d0       ??$type_case_integer_parse_into_buffer@_K$07@?$output_processor@_WV?$stream_output_adapter@_W@__crt_stdio_output@@V?$positional_parameter_base@_WV?$stream_output_adapter@_W@__crt_stdio_output@@@2@@__crt_stdio_output@@AEAAX_K_N@Z 000000018009a1d0 f i libucrtd:output.obj
 0001:00099310       ??$type_case_integer_parse_into_buffer@_K$07@?$output_processor@_WV?$stream_output_adapter@_W@__crt_stdio_output@@V?$standard_base@_WV?$stream_output_adapter@_W@__crt_stdio_output@@@2@@__crt_stdio_output@@AEAAX_K_N@Z 000000018009a310 f i libucrtd:output.obj
 0001:00099450       ??$type_case_integer_parse_into_buffer@_K$07@?$output_processor@_WV?$string_output_adapter@_W@__crt_stdio_output@@V?$format_validation_base@_WV?$string_output_adapter@_W@__crt_stdio_output@@@2@@__crt_stdio_output@@AEAAX_K_N@Z 000000018009a450 f i libucrtd:output.obj
 0001:00099590       ??$type_case_integer_parse_into_buffer@_K$07@?$output_processor@_WV?$string_output_adapter@_W@__crt_stdio_output@@V?$positional_parameter_base@_WV?$string_output_adapter@_W@__crt_stdio_output@@@2@@__crt_stdio_output@@AEAAX_K_N@Z 000000018009a590 f i libucrtd:output.obj
 0001:000996d0       ??$type_case_integer_parse_into_buffer@_K$07@?$output_processor@_WV?$string_output_adapter@_W@__crt_stdio_output@@V?$standard_base@_WV?$string_output_adapter@_W@__crt_stdio_output@@@2@@__crt_stdio_output@@AEAAX_K_N@Z 000000018009a6d0 f i libucrtd:output.obj
 0001:00099810       ??$type_case_integer_parse_into_buffer@_K$09@?$output_processor@DV?$stream_output_adapter@D@__crt_stdio_output@@V?$format_validation_base@DV?$stream_output_adapter@D@__crt_stdio_output@@@2@@__crt_stdio_output@@AEAAX_K_N@Z 000000018009a810 f i libucrtd:output.obj
 0001:00099950       ??$type_case_integer_parse_into_buffer@_K$09@?$output_processor@DV?$stream_output_adapter@D@__crt_stdio_output@@V?$positional_parameter_base@DV?$stream_output_adapter@D@__crt_stdio_output@@@2@@__crt_stdio_output@@AEAAX_K_N@Z 000000018009a950 f i libucrtd:output.obj
 0001:00099a90       ??$type_case_integer_parse_into_buffer@_K$09@?$output_processor@DV?$stream_output_adapter@D@__crt_stdio_output@@V?$standard_base@DV?$stream_output_adapter@D@__crt_stdio_output@@@2@@__crt_stdio_output@@AEAAX_K_N@Z 000000018009aa90 f i libucrtd:output.obj
 0001:00099bd0       ??$type_case_integer_parse_into_buffer@_K$09@?$output_processor@DV?$string_output_adapter@D@__crt_stdio_output@@V?$format_validation_base@DV?$string_output_adapter@D@__crt_stdio_output@@@2@@__crt_stdio_output@@AEAAX_K_N@Z 000000018009abd0 f i libucrtd:output.obj
 0001:00099d10       ??$type_case_integer_parse_into_buffer@_K$09@?$output_processor@DV?$string_output_adapter@D@__crt_stdio_output@@V?$positional_parameter_base@DV?$string_output_adapter@D@__crt_stdio_output@@@2@@__crt_stdio_output@@AEAAX_K_N@Z 000000018009ad10 f i libucrtd:output.obj
 0001:00099e50       ??$type_case_integer_parse_into_buffer@_K$09@?$output_processor@DV?$string_output_adapter@D@__crt_stdio_output@@V?$standard_base@DV?$string_output_adapter@D@__crt_stdio_output@@@2@@__crt_stdio_output@@AEAAX_K_N@Z 000000018009ae50 f i libucrtd:output.obj
 0001:00099f90       ??$type_case_integer_parse_into_buffer@_K$09@?$output_processor@_WV?$stream_output_adapter@_W@__crt_stdio_output@@V?$format_validation_base@_WV?$stream_output_adapter@_W@__crt_stdio_output@@@2@@__crt_stdio_output@@AEAAX_K_N@Z 000000018009af90 f i libucrtd:output.obj
 0001:0009a0d0       ??$type_case_integer_parse_into_buffer@_K$09@?$output_processor@_WV?$stream_output_adapter@_W@__crt_stdio_output@@V?$positional_parameter_base@_WV?$stream_output_adapter@_W@__crt_stdio_output@@@2@@__crt_stdio_output@@AEAAX_K_N@Z 000000018009b0d0 f i libucrtd:output.obj
 0001:0009a210       ??$type_case_integer_parse_into_buffer@_K$09@?$output_processor@_WV?$stream_output_adapter@_W@__crt_stdio_output@@V?$standard_base@_WV?$stream_output_adapter@_W@__crt_stdio_output@@@2@@__crt_stdio_output@@AEAAX_K_N@Z 000000018009b210 f i libucrtd:output.obj
 0001:0009a350       ??$type_case_integer_parse_into_buffer@_K$09@?$output_processor@_WV?$string_output_adapter@_W@__crt_stdio_output@@V?$format_validation_base@_WV?$string_output_adapter@_W@__crt_stdio_output@@@2@@__crt_stdio_output@@AEAAX_K_N@Z 000000018009b350 f i libucrtd:output.obj
 0001:0009a490       ??$type_case_integer_parse_into_buffer@_K$09@?$output_processor@_WV?$string_output_adapter@_W@__crt_stdio_output@@V?$positional_parameter_base@_WV?$string_output_adapter@_W@__crt_stdio_output@@@2@@__crt_stdio_output@@AEAAX_K_N@Z 000000018009b490 f i libucrtd:output.obj
 0001:0009a5d0       ??$type_case_integer_parse_into_buffer@_K$09@?$output_processor@_WV?$string_output_adapter@_W@__crt_stdio_output@@V?$standard_base@_WV?$string_output_adapter@_W@__crt_stdio_output@@@2@@__crt_stdio_output@@AEAAX_K_N@Z 000000018009b5d0 f i libucrtd:output.obj
 0001:0009a710       ??$type_case_integer_parse_into_buffer@_K$0BA@@?$output_processor@DV?$stream_output_adapter@D@__crt_stdio_output@@V?$format_validation_base@DV?$stream_output_adapter@D@__crt_stdio_output@@@2@@__crt_stdio_output@@AEAAX_K_N@Z 000000018009b710 f i libucrtd:output.obj
 0001:0009a850       ??$type_case_integer_parse_into_buffer@_K$0BA@@?$output_processor@DV?$stream_output_adapter@D@__crt_stdio_output@@V?$positional_parameter_base@DV?$stream_output_adapter@D@__crt_stdio_output@@@2@@__crt_stdio_output@@AEAAX_K_N@Z 000000018009b850 f i libucrtd:output.obj
 0001:0009a990       ??$type_case_integer_parse_into_buffer@_K$0BA@@?$output_processor@DV?$stream_output_adapter@D@__crt_stdio_output@@V?$standard_base@DV?$stream_output_adapter@D@__crt_stdio_output@@@2@@__crt_stdio_output@@AEAAX_K_N@Z 000000018009b990 f i libucrtd:output.obj
 0001:0009aad0       ??$type_case_integer_parse_into_buffer@_K$0BA@@?$output_processor@DV?$string_output_adapter@D@__crt_stdio_output@@V?$format_validation_base@DV?$string_output_adapter@D@__crt_stdio_output@@@2@@__crt_stdio_output@@AEAAX_K_N@Z 000000018009bad0 f i libucrtd:output.obj
 0001:0009ac10       ??$type_case_integer_parse_into_buffer@_K$0BA@@?$output_processor@DV?$string_output_adapter@D@__crt_stdio_output@@V?$positional_parameter_base@DV?$string_output_adapter@D@__crt_stdio_output@@@2@@__crt_stdio_output@@AEAAX_K_N@Z 000000018009bc10 f i libucrtd:output.obj
 0001:0009ad50       ??$type_case_integer_parse_into_buffer@_K$0BA@@?$output_processor@DV?$string_output_adapter@D@__crt_stdio_output@@V?$standard_base@DV?$string_output_adapter@D@__crt_stdio_output@@@2@@__crt_stdio_output@@AEAAX_K_N@Z 000000018009bd50 f i libucrtd:output.obj
 0001:0009ae90       ??$type_case_integer_parse_into_buffer@_K$0BA@@?$output_processor@_WV?$stream_output_adapter@_W@__crt_stdio_output@@V?$format_validation_base@_WV?$stream_output_adapter@_W@__crt_stdio_output@@@2@@__crt_stdio_output@@AEAAX_K_N@Z 000000018009be90 f i libucrtd:output.obj
 0001:0009afd0       ??$type_case_integer_parse_into_buffer@_K$0BA@@?$output_processor@_WV?$stream_output_adapter@_W@__crt_stdio_output@@V?$positional_parameter_base@_WV?$stream_output_adapter@_W@__crt_stdio_output@@@2@@__crt_stdio_output@@AEAAX_K_N@Z 000000018009bfd0 f i libucrtd:output.obj
 0001:0009b110       ??$type_case_integer_parse_into_buffer@_K$0BA@@?$output_processor@_WV?$stream_output_adapter@_W@__crt_stdio_output@@V?$standard_base@_WV?$stream_output_adapter@_W@__crt_stdio_output@@@2@@__crt_stdio_output@@AEAAX_K_N@Z 000000018009c110 f i libucrtd:output.obj
 0001:0009b250       ??$type_case_integer_parse_into_buffer@_K$0BA@@?$output_processor@_WV?$string_output_adapter@_W@__crt_stdio_output@@V?$format_validation_base@_WV?$string_output_adapter@_W@__crt_stdio_output@@@2@@__crt_stdio_output@@AEAAX_K_N@Z 000000018009c250 f i libucrtd:output.obj
 0001:0009b390       ??$type_case_integer_parse_into_buffer@_K$0BA@@?$output_processor@_WV?$string_output_adapter@_W@__crt_stdio_output@@V?$positional_parameter_base@_WV?$string_output_adapter@_W@__crt_stdio_output@@@2@@__crt_stdio_output@@AEAAX_K_N@Z 000000018009c390 f i libucrtd:output.obj
 0001:0009b4d0       ??$type_case_integer_parse_into_buffer@_K$0BA@@?$output_processor@_WV?$string_output_adapter@_W@__crt_stdio_output@@V?$standard_base@_WV?$string_output_adapter@_W@__crt_stdio_output@@@2@@__crt_stdio_output@@AEAAX_K_N@Z 000000018009c4d0 f i libucrtd:output.obj
 0001:0009b610       ??$write_multiple_characters@V?$stream_output_adapter@D@__crt_stdio_output@@D@__crt_stdio_output@@YAXAEBV?$stream_output_adapter@D@0@DHQEAHAEAV__crt_cached_ptd_host@@@Z 000000018009c610 f i libucrtd:output.obj
 0001:0009b680       ??$write_multiple_characters@V?$stream_output_adapter@_W@__crt_stdio_output@@D@__crt_stdio_output@@YAXAEBV?$stream_output_adapter@_W@0@DHQEAHAEAV__crt_cached_ptd_host@@@Z 000000018009c680 f i libucrtd:output.obj
 0001:0009b6f0       ??$write_multiple_characters@V?$string_output_adapter@D@__crt_stdio_output@@D@__crt_stdio_output@@YAXAEBV?$string_output_adapter@D@0@DHQEAHAEAV__crt_cached_ptd_host@@@Z 000000018009c6f0 f i libucrtd:output.obj
 0001:0009b760       ??$write_multiple_characters@V?$string_output_adapter@_W@__crt_stdio_output@@D@__crt_stdio_output@@YAXAEBV?$string_output_adapter@_W@0@DHQEAHAEAV__crt_cached_ptd_host@@@Z 000000018009c760 f i libucrtd:output.obj
 0001:0009bb90       ??0?$c_string_character_source@D@__crt_strtox@@QEAA@QEBDQEAPEBD@Z 000000018009cb90 f i libucrtd:output.obj
 0001:0009bbe0       ??0?$c_string_character_source@_W@__crt_strtox@@QEAA@QEB_WQEAPEB_W@Z 000000018009cbe0 f i libucrtd:output.obj
 0001:0009bc30       ??0?$cached@H@__crt_cached_ptd_host@@QEAA@XZ 000000018009cc30 f i libucrtd:output.obj
 0001:0009bc50       ??0?$cached@K@__crt_cached_ptd_host@@QEAA@XZ 000000018009cc50 f i libucrtd:output.obj
 0001:0009bc70       ??0?$common_data@D@__crt_stdio_output@@IEAA@AEAV__crt_cached_ptd_host@@@Z 000000018009cc70 f i libucrtd:output.obj
 0001:0009bd30       ??0?$common_data@_W@__crt_stdio_output@@IEAA@AEAV__crt_cached_ptd_host@@@Z 000000018009cd30 f i libucrtd:output.obj
 0001:0009bdf0       ??0?$output_adapter_data@DV?$stream_output_adapter@D@__crt_stdio_output@@@__crt_stdio_output@@IEAA@AEBV?$stream_output_adapter@D@1@_KQEBDAEAV__crt_cached_ptd_host@@QEAD@Z 000000018009cdf0 f i libucrtd:output.obj
 0001:0009be70       ??0?$output_adapter_data@DV?$string_output_adapter@D@__crt_stdio_output@@@__crt_stdio_output@@IEAA@AEBV?$string_output_adapter@D@1@_KQEBDAEAV__crt_cached_ptd_host@@QEAD@Z 000000018009ce70 f i libucrtd:output.obj
 0001:0009bef0       ??0?$output_adapter_data@_WV?$stream_output_adapter@_W@__crt_stdio_output@@@__crt_stdio_output@@IEAA@AEBV?$stream_output_adapter@_W@1@_KQEB_WAEAV__crt_cached_ptd_host@@QEAD@Z 000000018009cef0 f i libucrtd:output.obj
 0001:0009bf70       ??0?$output_adapter_data@_WV?$string_output_adapter@_W@__crt_stdio_output@@@__crt_stdio_output@@IEAA@AEBV?$string_output_adapter@_W@1@_KQEB_WAEAV__crt_cached_ptd_host@@QEAD@Z 000000018009cf70 f i libucrtd:output.obj
 0001:0009bff0       ??0?$output_processor@DV?$stream_output_adapter@D@__crt_stdio_output@@V?$format_validation_base@DV?$stream_output_adapter@D@__crt_stdio_output@@@2@@__crt_stdio_output@@QEAA@AEBV?$stream_output_adapter@D@1@_KQEBDAEAV__crt_cached_ptd_host@@QEAD@Z 000000018009cff0 f i libucrtd:output.obj
 0001:0009c040       ??0?$output_processor@DV?$stream_output_adapter@D@__crt_stdio_output@@V?$positional_parameter_base@DV?$stream_output_adapter@D@__crt_stdio_output@@@2@@__crt_stdio_output@@QEAA@AEBV?$stream_output_adapter@D@1@_KQEBDAEAV__crt_cached_ptd_host@@QEAD@Z 000000018009d040 f i libucrtd:output.obj
 0001:0009c090       ??0?$output_processor@DV?$stream_output_adapter@D@__crt_stdio_output@@V?$standard_base@DV?$stream_output_adapter@D@__crt_stdio_output@@@2@@__crt_stdio_output@@QEAA@AEBV?$stream_output_adapter@D@1@_KQEBDAEAV__crt_cached_ptd_host@@QEAD@Z 000000018009d090 f i libucrtd:output.obj
 0001:0009c0e0       ??0?$output_processor@DV?$string_output_adapter@D@__crt_stdio_output@@V?$format_validation_base@DV?$string_output_adapter@D@__crt_stdio_output@@@2@@__crt_stdio_output@@QEAA@AEBV?$string_output_adapter@D@1@_KQEBDAEAV__crt_cached_ptd_host@@QEAD@Z 000000018009d0e0 f i libucrtd:output.obj
 0001:0009c130       ??0?$output_processor@DV?$string_output_adapter@D@__crt_stdio_output@@V?$positional_parameter_base@DV?$string_output_adapter@D@__crt_stdio_output@@@2@@__crt_stdio_output@@QEAA@AEBV?$string_output_adapter@D@1@_KQEBDAEAV__crt_cached_ptd_host@@QEAD@Z 000000018009d130 f i libucrtd:output.obj
 0001:0009c180       ??0?$output_processor@DV?$string_output_adapter@D@__crt_stdio_output@@V?$standard_base@DV?$string_output_adapter@D@__crt_stdio_output@@@2@@__crt_stdio_output@@QEAA@AEBV?$string_output_adapter@D@1@_KQEBDAEAV__crt_cached_ptd_host@@QEAD@Z 000000018009d180 f i libucrtd:output.obj
 0001:0009c1d0       ??0?$output_processor@_WV?$stream_output_adapter@_W@__crt_stdio_output@@V?$format_validation_base@_WV?$stream_output_adapter@_W@__crt_stdio_output@@@2@@__crt_stdio_output@@QEAA@AEBV?$stream_output_adapter@_W@1@_KQEB_WAEAV__crt_cached_ptd_host@@QEAD@Z 000000018009d1d0 f i libucrtd:output.obj
 0001:0009c220       ??0?$output_processor@_WV?$stream_output_adapter@_W@__crt_stdio_output@@V?$positional_parameter_base@_WV?$stream_output_adapter@_W@__crt_stdio_output@@@2@@__crt_stdio_output@@QEAA@AEBV?$stream_output_adapter@_W@1@_KQEB_WAEAV__crt_cached_ptd_host@@QEAD@Z 000000018009d220 f i libucrtd:output.obj
 0001:0009c270       ??0?$output_processor@_WV?$stream_output_adapter@_W@__crt_stdio_output@@V?$standard_base@_WV?$stream_output_adapter@_W@__crt_stdio_output@@@2@@__crt_stdio_output@@QEAA@AEBV?$stream_output_adapter@_W@1@_KQEB_WAEAV__crt_cached_ptd_host@@QEAD@Z 000000018009d270 f i libucrtd:output.obj
 0001:0009c2c0       ??0?$output_processor@_WV?$string_output_adapter@_W@__crt_stdio_output@@V?$format_validation_base@_WV?$string_output_adapter@_W@__crt_stdio_output@@@2@@__crt_stdio_output@@QEAA@AEBV?$string_output_adapter@_W@1@_KQEB_WAEAV__crt_cached_ptd_host@@QEAD@Z 000000018009d2c0 f i libucrtd:output.obj
 0001:0009c310       ??0?$output_processor@_WV?$string_output_adapter@_W@__crt_stdio_output@@V?$positional_parameter_base@_WV?$string_output_adapter@_W@__crt_stdio_output@@@2@@__crt_stdio_output@@QEAA@AEBV?$string_output_adapter@_W@1@_KQEB_WAEAV__crt_cached_ptd_host@@QEAD@Z 000000018009d310 f i libucrtd:output.obj
 0001:0009c360       ??0?$output_processor@_WV?$string_output_adapter@_W@__crt_stdio_output@@V?$standard_base@_WV?$string_output_adapter@_W@__crt_stdio_output@@@2@@__crt_stdio_output@@QEAA@AEBV?$string_output_adapter@_W@1@_KQEB_WAEAV__crt_cached_ptd_host@@QEAD@Z 000000018009d360 f i libucrtd:output.obj
 0001:0009c3b0       ??0?$stream_output_adapter@D@__crt_stdio_output@@QEAA@QEAU_iobuf@@@Z 000000018009d3b0 f i libucrtd:output.obj
 0001:0009c3f0       ??0?$stream_output_adapter@_W@__crt_stdio_output@@QEAA@QEAU_iobuf@@@Z 000000018009d3f0 f i libucrtd:output.obj
 0001:0009c430       ??0?$string_output_adapter@D@__crt_stdio_output@@QEAA@QEAU?$string_output_adapter_context@D@1@@Z 000000018009d430 f i libucrtd:output.obj
 0001:0009c450       ??0?$string_output_adapter@_W@__crt_stdio_output@@QEAA@QEAU?$string_output_adapter_context@_W@1@@Z 000000018009d450 f i libucrtd:output.obj
 0001:0009c470       ??0__acrt_stdio_temporary_buffering_guard@@QEAA@QEAU_iobuf@@AEAV__crt_cached_ptd_host@@@Z 000000018009d470 f i libucrtd:output.obj
 0001:0009c4c0       ??0__crt_cached_ptd_host@@QEAA@QEAU__crt_locale_pointers@@@Z 000000018009d4c0 f i libucrtd:output.obj
 0001:0009c580       ??0__crt_scoped_get_last_error_reset@@QEAA@XZ 000000018009d580 f i libucrtd:output.obj
 0001:0009c5a0       ??0formatting_buffer@__crt_stdio_output@@QEAA@XZ 000000018009d5a0 f i libucrtd:output.obj
 0001:0009c5e0       ??0guard@?$cached@H@__crt_cached_ptd_host@@QEAA@AEAU12@@Z 000000018009d5e0 f i libucrtd:output.obj
 0001:0009c620       ??1?$c_string_character_source@D@__crt_strtox@@QEAA@XZ 000000018009d620 f i libucrtd:output.obj
 0001:0009c650       ??1?$c_string_character_source@_W@__crt_strtox@@QEAA@XZ 000000018009d650 f i libucrtd:output.obj
 0001:0009c680       ??1?$common_data@D@__crt_stdio_output@@QEAA@XZ 000000018009d680 f i libucrtd:output.obj
 0001:0009c6a0       ??1?$common_data@_W@__crt_stdio_output@@QEAA@XZ 000000018009d6a0 f i libucrtd:output.obj
 0001:0009c6c0       ??1?$format_validation_base@DV?$stream_output_adapter@D@__crt_stdio_output@@@__crt_stdio_output@@QEAA@XZ 000000018009d6c0 f i libucrtd:output.obj
 0001:0009c6e0       ??1?$format_validation_base@DV?$string_output_adapter@D@__crt_stdio_output@@@__crt_stdio_output@@QEAA@XZ 000000018009d6e0 f i libucrtd:output.obj
 0001:0009c700       ??1?$format_validation_base@_WV?$stream_output_adapter@_W@__crt_stdio_output@@@__crt_stdio_output@@QEAA@XZ 000000018009d700 f i libucrtd:output.obj
 0001:0009c720       ??1?$format_validation_base@_WV?$string_output_adapter@_W@__crt_stdio_output@@@__crt_stdio_output@@QEAA@XZ 000000018009d720 f i libucrtd:output.obj
 0001:0009c740       ??1?$output_adapter_data@DV?$stream_output_adapter@D@__crt_stdio_output@@@__crt_stdio_output@@QEAA@XZ 000000018009d740 f i libucrtd:output.obj
 0001:0009c760       ??1?$output_adapter_data@DV?$string_output_adapter@D@__crt_stdio_output@@@__crt_stdio_output@@QEAA@XZ 000000018009d760 f i libucrtd:output.obj
 0001:0009c780       ??1?$output_adapter_data@_WV?$stream_output_adapter@_W@__crt_stdio_output@@@__crt_stdio_output@@QEAA@XZ 000000018009d780 f i libucrtd:output.obj
 0001:0009c7a0       ??1?$output_adapter_data@_WV?$string_output_adapter@_W@__crt_stdio_output@@@__crt_stdio_output@@QEAA@XZ 000000018009d7a0 f i libucrtd:output.obj
 0001:0009c7c0       ??1?$output_processor@DV?$stream_output_adapter@D@__crt_stdio_output@@V?$format_validation_base@DV?$stream_output_adapter@D@__crt_stdio_output@@@2@@__crt_stdio_output@@QEAA@XZ 000000018009d7c0 f i libucrtd:output.obj
 0001:0009c7e0       ??1?$output_processor@DV?$stream_output_adapter@D@__crt_stdio_output@@V?$positional_parameter_base@DV?$stream_output_adapter@D@__crt_stdio_output@@@2@@__crt_stdio_output@@QEAA@XZ 000000018009d7e0 f i libucrtd:output.obj
 0001:0009c800       ??1?$output_processor@DV?$stream_output_adapter@D@__crt_stdio_output@@V?$standard_base@DV?$stream_output_adapter@D@__crt_stdio_output@@@2@@__crt_stdio_output@@QEAA@XZ 000000018009d800 f i libucrtd:output.obj
 0001:0009c820       ??1?$output_processor@DV?$string_output_adapter@D@__crt_stdio_output@@V?$format_validation_base@DV?$string_output_adapter@D@__crt_stdio_output@@@2@@__crt_stdio_output@@QEAA@XZ 000000018009d820 f i libucrtd:output.obj
 0001:0009c840       ??1?$output_processor@DV?$string_output_adapter@D@__crt_stdio_output@@V?$positional_parameter_base@DV?$string_output_adapter@D@__crt_stdio_output@@@2@@__crt_stdio_output@@QEAA@XZ 000000018009d840 f i libucrtd:output.obj
 0001:0009c860       ??1?$output_processor@DV?$string_output_adapter@D@__crt_stdio_output@@V?$standard_base@DV?$string_output_adapter@D@__crt_stdio_output@@@2@@__crt_stdio_output@@QEAA@XZ 000000018009d860 f i libucrtd:output.obj
 0001:0009c880       ??1?$output_processor@_WV?$stream_output_adapter@_W@__crt_stdio_output@@V?$format_validation_base@_WV?$stream_output_adapter@_W@__crt_stdio_output@@@2@@__crt_stdio_output@@QEAA@XZ 000000018009d880 f i libucrtd:output.obj
 0001:0009c8a0       ??1?$output_processor@_WV?$stream_output_adapter@_W@__crt_stdio_output@@V?$positional_parameter_base@_WV?$stream_output_adapter@_W@__crt_stdio_output@@@2@@__crt_stdio_output@@QEAA@XZ 000000018009d8a0 f i libucrtd:output.obj
 0001:0009c8c0       ??1?$output_processor@_WV?$stream_output_adapter@_W@__crt_stdio_output@@V?$standard_base@_WV?$stream_output_adapter@_W@__crt_stdio_output@@@2@@__crt_stdio_output@@QEAA@XZ 000000018009d8c0 f i libucrtd:output.obj
 0001:0009c8e0       ??1?$output_processor@_WV?$string_output_adapter@_W@__crt_stdio_output@@V?$format_validation_base@_WV?$string_output_adapter@_W@__crt_stdio_output@@@2@@__crt_stdio_output@@QEAA@XZ 000000018009d8e0 f i libucrtd:output.obj
 0001:0009c900       ??1?$output_processor@_WV?$string_output_adapter@_W@__crt_stdio_output@@V?$positional_parameter_base@_WV?$string_output_adapter@_W@__crt_stdio_output@@@2@@__crt_stdio_output@@QEAA@XZ 000000018009d900 f i libucrtd:output.obj
 0001:0009c920       ??1?$output_processor@_WV?$string_output_adapter@_W@__crt_stdio_output@@V?$standard_base@_WV?$string_output_adapter@_W@__crt_stdio_output@@@2@@__crt_stdio_output@@QEAA@XZ 000000018009d920 f i libucrtd:output.obj
 0001:0009c940       ??1?$positional_parameter_base@DV?$stream_output_adapter@D@__crt_stdio_output@@@__crt_stdio_output@@QEAA@XZ 000000018009d940 f i libucrtd:output.obj
 0001:0009c960       ??1?$positional_parameter_base@DV?$string_output_adapter@D@__crt_stdio_output@@@__crt_stdio_output@@QEAA@XZ 000000018009d960 f i libucrtd:output.obj
 0001:0009c980       ??1?$positional_parameter_base@_WV?$stream_output_adapter@_W@__crt_stdio_output@@@__crt_stdio_output@@QEAA@XZ 000000018009d980 f i libucrtd:output.obj
 0001:0009c9a0       ??1?$positional_parameter_base@_WV?$string_output_adapter@_W@__crt_stdio_output@@@__crt_stdio_output@@QEAA@XZ 000000018009d9a0 f i libucrtd:output.obj
 0001:0009c9c0       ??1?$standard_base@DV?$stream_output_adapter@D@__crt_stdio_output@@@__crt_stdio_output@@QEAA@XZ 000000018009d9c0 f i libucrtd:output.obj
 0001:0009c9e0       ??1?$standard_base@DV?$string_output_adapter@D@__crt_stdio_output@@@__crt_stdio_output@@QEAA@XZ 000000018009d9e0 f i libucrtd:output.obj
 0001:0009ca00       ??1?$standard_base@_WV?$stream_output_adapter@_W@__crt_stdio_output@@@__crt_stdio_output@@QEAA@XZ 000000018009da00 f i libucrtd:output.obj
 0001:0009ca20       ??1?$standard_base@_WV?$string_output_adapter@_W@__crt_stdio_output@@@__crt_stdio_output@@QEAA@XZ 000000018009da20 f i libucrtd:output.obj
 0001:0009ca40       ??1__acrt_stdio_temporary_buffering_guard@@QEAA@XZ 000000018009da40 f i libucrtd:output.obj
 0001:0009ca70       ??1__crt_cached_ptd_host@@QEAA@XZ 000000018009da70 f i libucrtd:output.obj
 0001:0009cb20       ??1__crt_scoped_get_last_error_reset@@QEAA@XZ 000000018009db20 f i libucrtd:output.obj
 0001:0009cb40       ??1formatting_buffer@__crt_stdio_output@@QEAA@XZ 000000018009db40 f i libucrtd:output.obj
 0001:0009cb70       ??1guard@?$cached@H@__crt_cached_ptd_host@@QEAA@XZ 000000018009db70 f i libucrtd:output.obj
 0001:0009cba0       ??4?$__crt_unique_heap_ptr@DU__crt_internal_free_policy@@@@QEAAAEAV0@$$QEAV0@@Z 000000018009dba0 f i libucrtd:output.obj
 0001:0009cbe0       ??A?$spectre_mitigated_lookup_table@Ustate_transition_pair@__crt_stdio_output@@$0IA@@__crt_stdio_output@@QEBAAEBUstate_transition_pair@1@_K@Z 000000018009dbe0 f i libucrtd:output.obj
 0001:0009cc00       ??C__crt_stdio_stream@@QEBAPEAU__crt_stdio_stream_data@@XZ 000000018009dc00 f i libucrtd:output.obj
 0001:0009d450       ?adjust_hexit@?$output_processor@DV?$stream_output_adapter@D@__crt_stdio_output@@V?$format_validation_base@DV?$stream_output_adapter@D@__crt_stdio_output@@@2@@__crt_stdio_output@@CADH_N@Z 000000018009e450 f i libucrtd:output.obj
 0001:0009d4a0       ?adjust_hexit@?$output_processor@DV?$stream_output_adapter@D@__crt_stdio_output@@V?$positional_parameter_base@DV?$stream_output_adapter@D@__crt_stdio_output@@@2@@__crt_stdio_output@@CADH_N@Z 000000018009e4a0 f i libucrtd:output.obj
 0001:0009d4f0       ?adjust_hexit@?$output_processor@DV?$stream_output_adapter@D@__crt_stdio_output@@V?$standard_base@DV?$stream_output_adapter@D@__crt_stdio_output@@@2@@__crt_stdio_output@@CADH_N@Z 000000018009e4f0 f i libucrtd:output.obj
 0001:0009d540       ?adjust_hexit@?$output_processor@DV?$string_output_adapter@D@__crt_stdio_output@@V?$format_validation_base@DV?$string_output_adapter@D@__crt_stdio_output@@@2@@__crt_stdio_output@@CADH_N@Z 000000018009e540 f i libucrtd:output.obj
 0001:0009d590       ?adjust_hexit@?$output_processor@DV?$string_output_adapter@D@__crt_stdio_output@@V?$positional_parameter_base@DV?$string_output_adapter@D@__crt_stdio_output@@@2@@__crt_stdio_output@@CADH_N@Z 000000018009e590 f i libucrtd:output.obj
 0001:0009d5e0       ?adjust_hexit@?$output_processor@DV?$string_output_adapter@D@__crt_stdio_output@@V?$standard_base@DV?$string_output_adapter@D@__crt_stdio_output@@@2@@__crt_stdio_output@@CADH_N@Z 000000018009e5e0 f i libucrtd:output.obj
 0001:0009d630       ?adjust_hexit@?$output_processor@_WV?$stream_output_adapter@_W@__crt_stdio_output@@V?$format_validation_base@_WV?$stream_output_adapter@_W@__crt_stdio_output@@@2@@__crt_stdio_output@@CADH_N@Z 000000018009e630 f i libucrtd:output.obj
 0001:0009d680       ?adjust_hexit@?$output_processor@_WV?$stream_output_adapter@_W@__crt_stdio_output@@V?$positional_parameter_base@_WV?$stream_output_adapter@_W@__crt_stdio_output@@@2@@__crt_stdio_output@@CADH_N@Z 000000018009e680 f i libucrtd:output.obj
 0001:0009d6d0       ?adjust_hexit@?$output_processor@_WV?$stream_output_adapter@_W@__crt_stdio_output@@V?$standard_base@_WV?$stream_output_adapter@_W@__crt_stdio_output@@@2@@__crt_stdio_output@@CADH_N@Z 000000018009e6d0 f i libucrtd:output.obj
 0001:0009d720       ?adjust_hexit@?$output_processor@_WV?$string_output_adapter@_W@__crt_stdio_output@@V?$format_validation_base@_WV?$string_output_adapter@_W@__crt_stdio_output@@@2@@__crt_stdio_output@@CADH_N@Z 000000018009e720 f i libucrtd:output.obj
 0001:0009d770       ?adjust_hexit@?$output_processor@_WV?$string_output_adapter@_W@__crt_stdio_output@@V?$positional_parameter_base@_WV?$string_output_adapter@_W@__crt_stdio_output@@@2@@__crt_stdio_output@@CADH_N@Z 000000018009e770 f i libucrtd:output.obj
 0001:0009d7c0       ?adjust_hexit@?$output_processor@_WV?$string_output_adapter@_W@__crt_stdio_output@@V?$standard_base@_WV?$string_output_adapter@_W@__crt_stdio_output@@@2@@__crt_stdio_output@@CADH_N@Z 000000018009e7c0 f i libucrtd:output.obj
 0001:0009d810       ?advance_to_next_pass@?$positional_parameter_base@DV?$stream_output_adapter@D@__crt_stdio_output@@@__crt_stdio_output@@IEAA_NXZ 000000018009e810 f i libucrtd:output.obj
 0001:0009d8c0       ?advance_to_next_pass@?$positional_parameter_base@DV?$string_output_adapter@D@__crt_stdio_output@@@__crt_stdio_output@@IEAA_NXZ 000000018009e8c0 f i libucrtd:output.obj
 0001:0009d970       ?advance_to_next_pass@?$positional_parameter_base@_WV?$stream_output_adapter@_W@__crt_stdio_output@@@__crt_stdio_output@@IEAA_NXZ 000000018009e970 f i libucrtd:output.obj
 0001:0009da20       ?advance_to_next_pass@?$positional_parameter_base@_WV?$string_output_adapter@_W@__crt_stdio_output@@@__crt_stdio_output@@IEAA_NXZ 000000018009ea20 f i libucrtd:output.obj
 0001:0009dad0       ?advance_to_next_pass@?$standard_base@DV?$stream_output_adapter@D@__crt_stdio_output@@@__crt_stdio_output@@IEAA_NXZ 000000018009ead0 f i libucrtd:output.obj
 0001:0009db20       ?advance_to_next_pass@?$standard_base@DV?$string_output_adapter@D@__crt_stdio_output@@@__crt_stdio_output@@IEAA_NXZ 000000018009eb20 f i libucrtd:output.obj
 0001:0009db70       ?advance_to_next_pass@?$standard_base@_WV?$stream_output_adapter@_W@__crt_stdio_output@@@__crt_stdio_output@@IEAA_NXZ 000000018009eb70 f i libucrtd:output.obj
 0001:0009dbc0       ?advance_to_next_pass@?$standard_base@_WV?$string_output_adapter@_W@__crt_stdio_output@@@__crt_stdio_output@@IEAA_NXZ 000000018009ebc0 f i libucrtd:output.obj
 0001:0009dc10       ?check@?$cached@H@__crt_cached_ptd_host@@QEBA_NH@Z 000000018009ec10 f i libucrtd:output.obj
 0001:0009dc50       ?check_synchronize_global_state_index@__crt_cached_ptd_host@@AEAA_KAEBV__crt_scoped_get_last_error_reset@@@Z 000000018009ec50 f i libucrtd:output.obj
 0001:0009dc90       ?check_synchronize_per_thread_data@__crt_cached_ptd_host@@AEAAPEAU__acrt_ptd@@XZ 000000018009ec90 f i libucrtd:output.obj
 0001:0009dcd0       ?create_guard@?$cached@H@__crt_cached_ptd_host@@QEAA?AVguard@12@XZ 000000018009ecd0 f i libucrtd:output.obj
 0001:0009dd00       ?crop_zeroes@__crt_stdio_output@@YAXPEADQEAU__crt_locale_pointers@@@Z 000000018009ed00 f i libucrtd:output.obj
 0001:0009de50       ?disable@guard@?$cached@H@__crt_cached_ptd_host@@QEAAXXZ 000000018009ee50 f i libucrtd:output.obj
 0001:0009de60       ?enable@guard@?$cached@H@__crt_cached_ptd_host@@QEAAXXZ 000000018009ee60 f i libucrtd:output.obj
 0001:0009de70       ?find_next_state@?$output_processor@DV?$stream_output_adapter@D@__crt_stdio_output@@V?$format_validation_base@DV?$stream_output_adapter@D@__crt_stdio_output@@@2@@__crt_stdio_output@@AEBA?AW4state@2@DW432@@Z 000000018009ee70 f i libucrtd:output.obj
 0001:0009df10       ?find_next_state@?$output_processor@DV?$stream_output_adapter@D@__crt_stdio_output@@V?$positional_parameter_base@DV?$stream_output_adapter@D@__crt_stdio_output@@@2@@__crt_stdio_output@@AEBA?AW4state@2@DW432@@Z 000000018009ef10 f i libucrtd:output.obj
 0001:0009dfb0       ?find_next_state@?$output_processor@DV?$stream_output_adapter@D@__crt_stdio_output@@V?$standard_base@DV?$stream_output_adapter@D@__crt_stdio_output@@@2@@__crt_stdio_output@@AEBA?AW4state@2@DW432@@Z 000000018009efb0 f i libucrtd:output.obj
 0001:0009e050       ?find_next_state@?$output_processor@DV?$string_output_adapter@D@__crt_stdio_output@@V?$format_validation_base@DV?$string_output_adapter@D@__crt_stdio_output@@@2@@__crt_stdio_output@@AEBA?AW4state@2@DW432@@Z 000000018009f050 f i libucrtd:output.obj
 0001:0009e0f0       ?find_next_state@?$output_processor@DV?$string_output_adapter@D@__crt_stdio_output@@V?$positional_parameter_base@DV?$string_output_adapter@D@__crt_stdio_output@@@2@@__crt_stdio_output@@AEBA?AW4state@2@DW432@@Z 000000018009f0f0 f i libucrtd:output.obj
 0001:0009e190       ?find_next_state@?$output_processor@DV?$string_output_adapter@D@__crt_stdio_output@@V?$standard_base@DV?$string_output_adapter@D@__crt_stdio_output@@@2@@__crt_stdio_output@@AEBA?AW4state@2@DW432@@Z 000000018009f190 f i libucrtd:output.obj
 0001:0009e230       ?find_next_state@?$output_processor@_WV?$stream_output_adapter@_W@__crt_stdio_output@@V?$format_validation_base@_WV?$stream_output_adapter@_W@__crt_stdio_output@@@2@@__crt_stdio_output@@AEBA?AW4state@2@_WW432@@Z 000000018009f230 f i libucrtd:output.obj
 0001:0009e2d0       ?find_next_state@?$output_processor@_WV?$stream_output_adapter@_W@__crt_stdio_output@@V?$positional_parameter_base@_WV?$stream_output_adapter@_W@__crt_stdio_output@@@2@@__crt_stdio_output@@AEBA?AW4state@2@_WW432@@Z 000000018009f2d0 f i libucrtd:output.obj
 0001:0009e370       ?find_next_state@?$output_processor@_WV?$stream_output_adapter@_W@__crt_stdio_output@@V?$standard_base@_WV?$stream_output_adapter@_W@__crt_stdio_output@@@2@@__crt_stdio_output@@AEBA?AW4state@2@_WW432@@Z 000000018009f370 f i libucrtd:output.obj
 0001:0009e410       ?find_next_state@?$output_processor@_WV?$string_output_adapter@_W@__crt_stdio_output@@V?$format_validation_base@_WV?$string_output_adapter@_W@__crt_stdio_output@@@2@@__crt_stdio_output@@AEBA?AW4state@2@_WW432@@Z 000000018009f410 f i libucrtd:output.obj
 0001:0009e4b0       ?find_next_state@?$output_processor@_WV?$string_output_adapter@_W@__crt_stdio_output@@V?$positional_parameter_base@_WV?$string_output_adapter@_W@__crt_stdio_output@@@2@@__crt_stdio_output@@AEBA?AW4state@2@_WW432@@Z 000000018009f4b0 f i libucrtd:output.obj
 0001:0009e550       ?find_next_state@?$output_processor@_WV?$string_output_adapter@_W@__crt_stdio_output@@V?$standard_base@_WV?$string_output_adapter@_W@__crt_stdio_output@@@2@@__crt_stdio_output@@AEBA?AW4state@2@_WW432@@Z 000000018009f550 f i libucrtd:output.obj
 0001:0009e5f0       ?force_decimal_point@__crt_stdio_output@@YAXPEADQEAU__crt_locale_pointers@@@Z 000000018009f5f0 f i libucrtd:output.obj
 0001:0009e6f0       ?force_synchronize_global_state_index@__crt_cached_ptd_host@@AEAA_KAEBV__crt_scoped_get_last_error_reset@@@Z 000000018009f6f0 f i libucrtd:output.obj
 0001:0009e730       ?force_synchronize_per_thread_data@__crt_cached_ptd_host@@AEAAPEAU__acrt_ptd@@XZ 000000018009f730 f i libucrtd:output.obj
 0001:0009e790       ?get@?$c_string_character_source@D@__crt_strtox@@QEAADXZ 000000018009f790 f i libucrtd:output.obj
 0001:0009e7d0       ?get@?$c_string_character_source@_W@__crt_strtox@@QEAA_WXZ 000000018009f7d0 f i libucrtd:output.obj
 0001:0009e810       ?get_current_state_index@__crt_state_management@@YA_KAEBV__crt_scoped_get_last_error_reset@@@Z 000000018009f810 f i libucrtd:output.obj
 0001:0009e820       ?get_errno@__crt_cached_ptd_host@@QEAA@XZ 000000018009f820 f i libucrtd:output.obj
 0001:0009e830       ?get_locale@__crt_cached_ptd_host@@QEAAPEAU__crt_locale_pointers@@XZ 000000018009f830 f i libucrtd:output.obj
 0001:0009e860       ?get_parameter_type@?$positional_parameter_base@DV?$stream_output_adapter@D@__crt_stdio_output@@@__crt_stdio_output@@CA?AW4parameter_type@12@F@Z 000000018009f860 f i libucrtd:output.obj
 0001:0009e870       ?get_parameter_type@?$positional_parameter_base@DV?$stream_output_adapter@D@__crt_stdio_output@@@__crt_stdio_output@@CA?AW4parameter_type@12@G@Z 000000018009f870 f i libucrtd:output.obj
 0001:0009e880       ?get_parameter_type@?$positional_parameter_base@DV?$stream_output_adapter@D@__crt_stdio_output@@@__crt_stdio_output@@CA?AW4parameter_type@12@H@Z 000000018009f880 f i libucrtd:output.obj
 0001:0009e890       ?get_parameter_type@?$positional_parameter_base@DV?$stream_output_adapter@D@__crt_stdio_output@@@__crt_stdio_output@@CA?AW4parameter_type@12@I@Z 000000018009f890 f i libucrtd:output.obj
 0001:0009e8a0       ?get_parameter_type@?$positional_parameter_base@DV?$stream_output_adapter@D@__crt_stdio_output@@@__crt_stdio_output@@CA?AW4parameter_type@12@U_CRT_DOUBLE@@@Z 000000018009f8a0 f i libucrtd:output.obj
 0001:0009e8b0       ?get_parameter_type@?$positional_parameter_base@DV?$stream_output_adapter@D@__crt_stdio_output@@@__crt_stdio_output@@CA?AW4parameter_type@12@_J@Z 000000018009f8b0 f i libucrtd:output.obj
 0001:0009e8c0       ?get_parameter_type@?$positional_parameter_base@DV?$stream_output_adapter@D@__crt_stdio_output@@@__crt_stdio_output@@CA?AW4parameter_type@12@_K@Z 000000018009f8c0 f i libucrtd:output.obj
 0001:0009e8d0       ?get_parameter_type@?$positional_parameter_base@DV?$stream_output_adapter@D@__crt_stdio_output@@@__crt_stdio_output@@CA?AW4parameter_type@12@_W@Z 000000018009f8d0 f i libucrtd:output.obj
 0001:0009e8e0       ?get_parameter_type@?$positional_parameter_base@DV?$string_output_adapter@D@__crt_stdio_output@@@__crt_stdio_output@@CA?AW4parameter_type@12@F@Z 000000018009f8e0 f i libucrtd:output.obj
 0001:0009e8f0       ?get_parameter_type@?$positional_parameter_base@DV?$string_output_adapter@D@__crt_stdio_output@@@__crt_stdio_output@@CA?AW4parameter_type@12@G@Z 000000018009f8f0 f i libucrtd:output.obj
 0001:0009e900       ?get_parameter_type@?$positional_parameter_base@DV?$string_output_adapter@D@__crt_stdio_output@@@__crt_stdio_output@@CA?AW4parameter_type@12@H@Z 000000018009f900 f i libucrtd:output.obj
 0001:0009e910       ?get_parameter_type@?$positional_parameter_base@DV?$string_output_adapter@D@__crt_stdio_output@@@__crt_stdio_output@@CA?AW4parameter_type@12@I@Z 000000018009f910 f i libucrtd:output.obj
 0001:0009e920       ?get_parameter_type@?$positional_parameter_base@DV?$string_output_adapter@D@__crt_stdio_output@@@__crt_stdio_output@@CA?AW4parameter_type@12@U_CRT_DOUBLE@@@Z 000000018009f920 f i libucrtd:output.obj
 0001:0009e930       ?get_parameter_type@?$positional_parameter_base@DV?$string_output_adapter@D@__crt_stdio_output@@@__crt_stdio_output@@CA?AW4parameter_type@12@_J@Z 000000018009f930 f i libucrtd:output.obj
 0001:0009e940       ?get_parameter_type@?$positional_parameter_base@DV?$string_output_adapter@D@__crt_stdio_output@@@__crt_stdio_output@@CA?AW4parameter_type@12@_K@Z 000000018009f940 f i libucrtd:output.obj
 0001:0009e950       ?get_parameter_type@?$positional_parameter_base@DV?$string_output_adapter@D@__crt_stdio_output@@@__crt_stdio_output@@CA?AW4parameter_type@12@_W@Z 000000018009f950 f i libucrtd:output.obj
 0001:0009e960       ?get_parameter_type@?$positional_parameter_base@_WV?$stream_output_adapter@_W@__crt_stdio_output@@@__crt_stdio_output@@CA?AW4parameter_type@12@F@Z 000000018009f960 f i libucrtd:output.obj
 0001:0009e970       ?get_parameter_type@?$positional_parameter_base@_WV?$stream_output_adapter@_W@__crt_stdio_output@@@__crt_stdio_output@@CA?AW4parameter_type@12@G@Z 000000018009f970 f i libucrtd:output.obj
 0001:0009e980       ?get_parameter_type@?$positional_parameter_base@_WV?$stream_output_adapter@_W@__crt_stdio_output@@@__crt_stdio_output@@CA?AW4parameter_type@12@H@Z 000000018009f980 f i libucrtd:output.obj
 0001:0009e990       ?get_parameter_type@?$positional_parameter_base@_WV?$stream_output_adapter@_W@__crt_stdio_output@@@__crt_stdio_output@@CA?AW4parameter_type@12@I@Z 000000018009f990 f i libucrtd:output.obj
 0001:0009e9a0       ?get_parameter_type@?$positional_parameter_base@_WV?$stream_output_adapter@_W@__crt_stdio_output@@@__crt_stdio_output@@CA?AW4parameter_type@12@U_CRT_DOUBLE@@@Z 000000018009f9a0 f i libucrtd:output.obj
 0001:0009e9b0       ?get_parameter_type@?$positional_parameter_base@_WV?$stream_output_adapter@_W@__crt_stdio_output@@@__crt_stdio_output@@CA?AW4parameter_type@12@_J@Z 000000018009f9b0 f i libucrtd:output.obj
 0001:0009e9c0       ?get_parameter_type@?$positional_parameter_base@_WV?$stream_output_adapter@_W@__crt_stdio_output@@@__crt_stdio_output@@CA?AW4parameter_type@12@_K@Z 000000018009f9c0 f i libucrtd:output.obj
 0001:0009e9d0       ?get_parameter_type@?$positional_parameter_base@_WV?$stream_output_adapter@_W@__crt_stdio_output@@@__crt_stdio_output@@CA?AW4parameter_type@12@_W@Z 000000018009f9d0 f i libucrtd:output.obj
 0001:0009e9e0       ?get_parameter_type@?$positional_parameter_base@_WV?$string_output_adapter@_W@__crt_stdio_output@@@__crt_stdio_output@@CA?AW4parameter_type@12@F@Z 000000018009f9e0 f i libucrtd:output.obj
 0001:0009e9f0       ?get_parameter_type@?$positional_parameter_base@_WV?$string_output_adapter@_W@__crt_stdio_output@@@__crt_stdio_output@@CA?AW4parameter_type@12@G@Z 000000018009f9f0 f i libucrtd:output.obj
 0001:0009ea00       ?get_parameter_type@?$positional_parameter_base@_WV?$string_output_adapter@_W@__crt_stdio_output@@@__crt_stdio_output@@CA?AW4parameter_type@12@H@Z 000000018009fa00 f i libucrtd:output.obj
 0001:0009ea10       ?get_parameter_type@?$positional_parameter_base@_WV?$string_output_adapter@_W@__crt_stdio_output@@@__crt_stdio_output@@CA?AW4parameter_type@12@I@Z 000000018009fa10 f i libucrtd:output.obj
 0001:0009ea20       ?get_parameter_type@?$positional_parameter_base@_WV?$string_output_adapter@_W@__crt_stdio_output@@@__crt_stdio_output@@CA?AW4parameter_type@12@U_CRT_DOUBLE@@@Z 000000018009fa20 f i libucrtd:output.obj
 0001:0009ea30       ?get_parameter_type@?$positional_parameter_base@_WV?$string_output_adapter@_W@__crt_stdio_output@@@__crt_stdio_output@@CA?AW4parameter_type@12@_J@Z 000000018009fa30 f i libucrtd:output.obj
 0001:0009ea40       ?get_parameter_type@?$positional_parameter_base@_WV?$string_output_adapter@_W@__crt_stdio_output@@@__crt_stdio_output@@CA?AW4parameter_type@12@_K@Z 000000018009fa40 f i libucrtd:output.obj
 0001:0009ea50       ?get_parameter_type@?$positional_parameter_base@_WV?$string_output_adapter@_W@__crt_stdio_output@@@__crt_stdio_output@@CA?AW4parameter_type@12@_W@Z 000000018009fa50 f i libucrtd:output.obj
 0001:0009ea60       ?get_raw_ptd@__crt_cached_ptd_host@@QEAAPEAU__acrt_ptd@@XZ 000000018009fa60 f i libucrtd:output.obj
 0001:0009ea80       ?has_flag@?$output_processor@DV?$stream_output_adapter@D@__crt_stdio_output@@V?$format_validation_base@DV?$stream_output_adapter@D@__crt_stdio_output@@@2@@__crt_stdio_output@@AEBA_NI@Z 000000018009fa80 f i libucrtd:output.obj
 0001:0009eac0       ?has_flag@?$output_processor@DV?$stream_output_adapter@D@__crt_stdio_output@@V?$positional_parameter_base@DV?$stream_output_adapter@D@__crt_stdio_output@@@2@@__crt_stdio_output@@AEBA_NI@Z 000000018009fac0 f i libucrtd:output.obj
 0001:0009eb00       ?has_flag@?$output_processor@DV?$stream_output_adapter@D@__crt_stdio_output@@V?$standard_base@DV?$stream_output_adapter@D@__crt_stdio_output@@@2@@__crt_stdio_output@@AEBA_NI@Z 000000018009fb00 f i libucrtd:output.obj
 0001:0009eb40       ?has_flag@?$output_processor@DV?$string_output_adapter@D@__crt_stdio_output@@V?$format_validation_base@DV?$string_output_adapter@D@__crt_stdio_output@@@2@@__crt_stdio_output@@AEBA_NI@Z 000000018009fb40 f i libucrtd:output.obj
 0001:0009eb80       ?has_flag@?$output_processor@DV?$string_output_adapter@D@__crt_stdio_output@@V?$positional_parameter_base@DV?$string_output_adapter@D@__crt_stdio_output@@@2@@__crt_stdio_output@@AEBA_NI@Z 000000018009fb80 f i libucrtd:output.obj
 0001:0009ebc0       ?has_flag@?$output_processor@DV?$string_output_adapter@D@__crt_stdio_output@@V?$standard_base@DV?$string_output_adapter@D@__crt_stdio_output@@@2@@__crt_stdio_output@@AEBA_NI@Z 000000018009fbc0 f i libucrtd:output.obj
 0001:0009ec00       ?has_flag@?$output_processor@_WV?$stream_output_adapter@_W@__crt_stdio_output@@V?$format_validation_base@_WV?$stream_output_adapter@_W@__crt_stdio_output@@@2@@__crt_stdio_output@@AEBA_NI@Z 000000018009fc00 f i libucrtd:output.obj
 0001:0009ec40       ?has_flag@?$output_processor@_WV?$stream_output_adapter@_W@__crt_stdio_output@@V?$positional_parameter_base@_WV?$stream_output_adapter@_W@__crt_stdio_output@@@2@@__crt_stdio_output@@AEBA_NI@Z 000000018009fc40 f i libucrtd:output.obj
 0001:0009ec80       ?has_flag@?$output_processor@_WV?$stream_output_adapter@_W@__crt_stdio_output@@V?$standard_base@_WV?$stream_output_adapter@_W@__crt_stdio_output@@@2@@__crt_stdio_output@@AEBA_NI@Z 000000018009fc80 f i libucrtd:output.obj
 0001:0009ecc0       ?has_flag@?$output_processor@_WV?$string_output_adapter@_W@__crt_stdio_output@@V?$format_validation_base@_WV?$string_output_adapter@_W@__crt_stdio_output@@@2@@__crt_stdio_output@@AEBA_NI@Z 000000018009fcc0 f i libucrtd:output.obj
 0001:0009ed00       ?has_flag@?$output_processor@_WV?$string_output_adapter@_W@__crt_stdio_output@@V?$positional_parameter_base@_WV?$string_output_adapter@_W@__crt_stdio_output@@@2@@__crt_stdio_output@@AEBA_NI@Z 000000018009fd00 f i libucrtd:output.obj
 0001:0009ed40       ?has_flag@?$output_processor@_WV?$string_output_adapter@_W@__crt_stdio_output@@V?$standard_base@_WV?$string_output_adapter@_W@__crt_stdio_output@@@2@@__crt_stdio_output@@AEBA_NI@Z 000000018009fd40 f i libucrtd:output.obj
 0001:0009ed80       ?is_positional_parameter_reappearance_consistent@?$positional_parameter_base@DV?$stream_output_adapter@D@__crt_stdio_output@@@__crt_stdio_output@@AEAA_NAEBUparameter_data@12@W4parameter_type@12@DW4length_modifier@2@@Z 000000018009fd80 f i libucrtd:output.obj
 0001:0009efe0       ?is_positional_parameter_reappearance_consistent@?$positional_parameter_base@DV?$string_output_adapter@D@__crt_stdio_output@@@__crt_stdio_output@@AEAA_NAEBUparameter_data@12@W4parameter_type@12@DW4length_modifier@2@@Z 000000018009ffe0 f i libucrtd:output.obj
 0001:0009f240       ?is_positional_parameter_reappearance_consistent@?$positional_parameter_base@_WV?$stream_output_adapter@_W@__crt_stdio_output@@@__crt_stdio_output@@AEAA_NAEBUparameter_data@12@W4parameter_type@12@_WW4length_modifier@2@@Z 00000001800a0240 f i libucrtd:output.obj
 0001:0009f4a0       ?is_positional_parameter_reappearance_consistent@?$positional_parameter_base@_WV?$string_output_adapter@_W@__crt_stdio_output@@@__crt_stdio_output@@AEAA_NAEBUparameter_data@12@W4parameter_type@12@_WW4length_modifier@2@@Z 00000001800a04a0 f i libucrtd:output.obj
 0001:0009f700       ?is_string_backed@__crt_stdio_stream@@QEBA_NXZ 00000001800a0700 f i libucrtd:output.obj
 0001:0009f740       ?maximum_signed_value@__crt_strtox@@YAJK@Z 00000001800a0740 f i libucrtd:output.obj
 0001:0009f750       ?minimum_signed_value@__crt_strtox@@YAJK@Z 00000001800a0750 f i libucrtd:output.obj
 0001:0009f760       ?narrow_null_string@?$output_processor@DV?$stream_output_adapter@D@__crt_stdio_output@@V?$format_validation_base@DV?$stream_output_adapter@D@__crt_stdio_output@@@2@@__crt_stdio_output@@CAPEADXZ 00000001800a0760 f i libucrtd:output.obj
 0001:0009f770       ?narrow_null_string@?$output_processor@DV?$stream_output_adapter@D@__crt_stdio_output@@V?$positional_parameter_base@DV?$stream_output_adapter@D@__crt_stdio_output@@@2@@__crt_stdio_output@@CAPEADXZ 00000001800a0770 f i libucrtd:output.obj
 0001:0009f780       ?narrow_null_string@?$output_processor@DV?$stream_output_adapter@D@__crt_stdio_output@@V?$standard_base@DV?$stream_output_adapter@D@__crt_stdio_output@@@2@@__crt_stdio_output@@CAPEADXZ 00000001800a0780 f i libucrtd:output.obj
 0001:0009f790       ?narrow_null_string@?$output_processor@DV?$string_output_adapter@D@__crt_stdio_output@@V?$format_validation_base@DV?$string_output_adapter@D@__crt_stdio_output@@@2@@__crt_stdio_output@@CAPEADXZ 00000001800a0790 f i libucrtd:output.obj
 0001:0009f7a0       ?narrow_null_string@?$output_processor@DV?$string_output_adapter@D@__crt_stdio_output@@V?$positional_parameter_base@DV?$string_output_adapter@D@__crt_stdio_output@@@2@@__crt_stdio_output@@CAPEADXZ 00000001800a07a0 f i libucrtd:output.obj
 0001:0009f7b0       ?narrow_null_string@?$output_processor@DV?$string_output_adapter@D@__crt_stdio_output@@V?$standard_base@DV?$string_output_adapter@D@__crt_stdio_output@@@2@@__crt_stdio_output@@CAPEADXZ 00000001800a07b0 f i libucrtd:output.obj
 0001:0009f7c0       ?narrow_null_string@?$output_processor@_WV?$stream_output_adapter@_W@__crt_stdio_output@@V?$format_validation_base@_WV?$stream_output_adapter@_W@__crt_stdio_output@@@2@@__crt_stdio_output@@CAPEADXZ 00000001800a07c0 f i libucrtd:output.obj
 0001:0009f7d0       ?narrow_null_string@?$output_processor@_WV?$stream_output_adapter@_W@__crt_stdio_output@@V?$positional_parameter_base@_WV?$stream_output_adapter@_W@__crt_stdio_output@@@2@@__crt_stdio_output@@CAPEADXZ 00000001800a07d0 f i libucrtd:output.obj
 0001:0009f7e0       ?narrow_null_string@?$output_processor@_WV?$stream_output_adapter@_W@__crt_stdio_output@@V?$standard_base@_WV?$stream_output_adapter@_W@__crt_stdio_output@@@2@@__crt_stdio_output@@CAPEADXZ 00000001800a07e0 f i libucrtd:output.obj
 0001:0009f7f0       ?narrow_null_string@?$output_processor@_WV?$string_output_adapter@_W@__crt_stdio_output@@V?$format_validation_base@_WV?$string_output_adapter@_W@__crt_stdio_output@@@2@@__crt_stdio_output@@CAPEADXZ 00000001800a07f0 f i libucrtd:output.obj
 0001:0009f800       ?narrow_null_string@?$output_processor@_WV?$string_output_adapter@_W@__crt_stdio_output@@V?$positional_parameter_base@_WV?$string_output_adapter@_W@__crt_stdio_output@@@2@@__crt_stdio_output@@CAPEADXZ 00000001800a0800 f i libucrtd:output.obj
 0001:0009f810       ?narrow_null_string@?$output_processor@_WV?$string_output_adapter@_W@__crt_stdio_output@@V?$standard_base@_WV?$string_output_adapter@_W@__crt_stdio_output@@@2@@__crt_stdio_output@@CAPEADXZ 00000001800a0810 f i libucrtd:output.obj
 0001:0009f820       ?parse_digit@__crt_strtox@@YAID@Z 00000001800a0820 f i libucrtd:output.obj
 0001:0009f890       ?parse_digit@__crt_strtox@@YAI_W@Z 00000001800a0890 f i libucrtd:output.obj
 0001:0009f8e0       ?parse_int_from_format_string@?$output_processor@DV?$stream_output_adapter@D@__crt_stdio_output@@V?$format_validation_base@DV?$stream_output_adapter@D@__crt_stdio_output@@@2@@__crt_stdio_output@@AEAA_NQEAH@Z 00000001800a08e0 f i libucrtd:output.obj
 0001:0009f9e0       ?parse_int_from_format_string@?$output_processor@DV?$stream_output_adapter@D@__crt_stdio_output@@V?$positional_parameter_base@DV?$stream_output_adapter@D@__crt_stdio_output@@@2@@__crt_stdio_output@@AEAA_NQEAH@Z 00000001800a09e0 f i libucrtd:output.obj
 0001:0009fae0       ?parse_int_from_format_string@?$output_processor@DV?$stream_output_adapter@D@__crt_stdio_output@@V?$standard_base@DV?$stream_output_adapter@D@__crt_stdio_output@@@2@@__crt_stdio_output@@AEAA_NQEAH@Z 00000001800a0ae0 f i libucrtd:output.obj
 0001:0009fbe0       ?parse_int_from_format_string@?$output_processor@DV?$string_output_adapter@D@__crt_stdio_output@@V?$format_validation_base@DV?$string_output_adapter@D@__crt_stdio_output@@@2@@__crt_stdio_output@@AEAA_NQEAH@Z 00000001800a0be0 f i libucrtd:output.obj
 0001:0009fce0       ?parse_int_from_format_string@?$output_processor@DV?$string_output_adapter@D@__crt_stdio_output@@V?$positional_parameter_base@DV?$string_output_adapter@D@__crt_stdio_output@@@2@@__crt_stdio_output@@AEAA_NQEAH@Z 00000001800a0ce0 f i libucrtd:output.obj
 0001:0009fde0       ?parse_int_from_format_string@?$output_processor@DV?$string_output_adapter@D@__crt_stdio_output@@V?$standard_base@DV?$string_output_adapter@D@__crt_stdio_output@@@2@@__crt_stdio_output@@AEAA_NQEAH@Z 00000001800a0de0 f i libucrtd:output.obj
 0001:0009fee0       ?parse_int_from_format_string@?$output_processor@_WV?$stream_output_adapter@_W@__crt_stdio_output@@V?$format_validation_base@_WV?$stream_output_adapter@_W@__crt_stdio_output@@@2@@__crt_stdio_output@@AEAA_NQEAH@Z 00000001800a0ee0 f i libucrtd:output.obj
 0001:0009ffe0       ?parse_int_from_format_string@?$output_processor@_WV?$stream_output_adapter@_W@__crt_stdio_output@@V?$positional_parameter_base@_WV?$stream_output_adapter@_W@__crt_stdio_output@@@2@@__crt_stdio_output@@AEAA_NQEAH@Z 00000001800a0fe0 f i libucrtd:output.obj
 0001:000a00e0       ?parse_int_from_format_string@?$output_processor@_WV?$stream_output_adapter@_W@__crt_stdio_output@@V?$standard_base@_WV?$stream_output_adapter@_W@__crt_stdio_output@@@2@@__crt_stdio_output@@AEAA_NQEAH@Z 00000001800a10e0 f i libucrtd:output.obj
 0001:000a01e0       ?parse_int_from_format_string@?$output_processor@_WV?$string_output_adapter@_W@__crt_stdio_output@@V?$format_validation_base@_WV?$string_output_adapter@_W@__crt_stdio_output@@@2@@__crt_stdio_output@@AEAA_NQEAH@Z 00000001800a11e0 f i libucrtd:output.obj
 0001:000a02e0       ?parse_int_from_format_string@?$output_processor@_WV?$string_output_adapter@_W@__crt_stdio_output@@V?$positional_parameter_base@_WV?$string_output_adapter@_W@__crt_stdio_output@@@2@@__crt_stdio_output@@AEAA_NQEAH@Z 00000001800a12e0 f i libucrtd:output.obj
 0001:000a03e0       ?parse_int_from_format_string@?$output_processor@_WV?$string_output_adapter@_W@__crt_stdio_output@@V?$standard_base@_WV?$string_output_adapter@_W@__crt_stdio_output@@@2@@__crt_stdio_output@@AEAA_NQEAH@Z 00000001800a13e0 f i libucrtd:output.obj
 0001:000a04e0       ?process@?$output_processor@DV?$stream_output_adapter@D@__crt_stdio_output@@V?$format_validation_base@DV?$stream_output_adapter@D@__crt_stdio_output@@@2@@__crt_stdio_output@@QEAAHXZ 00000001800a14e0 f i libucrtd:output.obj
 0001:000a08a0       ?process@?$output_processor@DV?$stream_output_adapter@D@__crt_stdio_output@@V?$positional_parameter_base@DV?$stream_output_adapter@D@__crt_stdio_output@@@2@@__crt_stdio_output@@QEAAHXZ 00000001800a18a0 f i libucrtd:output.obj
 0001:000a0c60       ?process@?$output_processor@DV?$stream_output_adapter@D@__crt_stdio_output@@V?$standard_base@DV?$stream_output_adapter@D@__crt_stdio_output@@@2@@__crt_stdio_output@@QEAAHXZ 00000001800a1c60 f i libucrtd:output.obj
 0001:000a1020       ?process@?$output_processor@DV?$string_output_adapter@D@__crt_stdio_output@@V?$format_validation_base@DV?$string_output_adapter@D@__crt_stdio_output@@@2@@__crt_stdio_output@@QEAAHXZ 00000001800a2020 f i libucrtd:output.obj
 0001:000a13e0       ?process@?$output_processor@DV?$string_output_adapter@D@__crt_stdio_output@@V?$positional_parameter_base@DV?$string_output_adapter@D@__crt_stdio_output@@@2@@__crt_stdio_output@@QEAAHXZ 00000001800a23e0 f i libucrtd:output.obj
 0001:000a17a0       ?process@?$output_processor@DV?$string_output_adapter@D@__crt_stdio_output@@V?$standard_base@DV?$string_output_adapter@D@__crt_stdio_output@@@2@@__crt_stdio_output@@QEAAHXZ 00000001800a27a0 f i libucrtd:output.obj
 0001:000a1b60       ?process@?$output_processor@_WV?$stream_output_adapter@_W@__crt_stdio_output@@V?$format_validation_base@_WV?$stream_output_adapter@_W@__crt_stdio_output@@@2@@__crt_stdio_output@@QEAAHXZ 00000001800a2b60 f i libucrtd:output.obj
 0001:000a1f20       ?process@?$output_processor@_WV?$stream_output_adapter@_W@__crt_stdio_output@@V?$positional_parameter_base@_WV?$stream_output_adapter@_W@__crt_stdio_output@@@2@@__crt_stdio_output@@QEAAHXZ 00000001800a2f20 f i libucrtd:output.obj
 0001:000a22e0       ?process@?$output_processor@_WV?$stream_output_adapter@_W@__crt_stdio_output@@V?$standard_base@_WV?$stream_output_adapter@_W@__crt_stdio_output@@@2@@__crt_stdio_output@@QEAAHXZ 00000001800a32e0 f i libucrtd:output.obj
 0001:000a26a0       ?process@?$output_processor@_WV?$string_output_adapter@_W@__crt_stdio_output@@V?$format_validation_base@_WV?$string_output_adapter@_W@__crt_stdio_output@@@2@@__crt_stdio_output@@QEAAHXZ 00000001800a36a0 f i libucrtd:output.obj
 0001:000a2a60       ?process@?$output_processor@_WV?$string_output_adapter@_W@__crt_stdio_output@@V?$positional_parameter_base@_WV?$string_output_adapter@_W@__crt_stdio_output@@@2@@__crt_stdio_output@@QEAAHXZ 00000001800a3a60 f i libucrtd:output.obj
 0001:000a2e20       ?process@?$output_processor@_WV?$string_output_adapter@_W@__crt_stdio_output@@V?$standard_base@_WV?$string_output_adapter@_W@__crt_stdio_output@@@2@@__crt_stdio_output@@QEAAHXZ 00000001800a3e20 f i libucrtd:output.obj
 0001:000a31e0       ?public_stream@__crt_stdio_stream@@QEBAPEAU_iobuf@@XZ 00000001800a41e0 f i libucrtd:output.obj
 0001:000a31f0       ?restore_state@?$c_string_character_source@D@__crt_strtox@@QEAA_NQEBD@Z 00000001800a41f0 f i libucrtd:output.obj
 0001:000a3210       ?restore_state@?$c_string_character_source@_W@__crt_strtox@@QEAA_NQEB_W@Z 00000001800a4210 f i libucrtd:output.obj
 0001:000a3230       ?save_state@?$c_string_character_source@D@__crt_strtox@@QEBAPEBDXZ 00000001800a4230 f i libucrtd:output.obj
 0001:000a3240       ?save_state@?$c_string_character_source@_W@__crt_strtox@@QEBAPEB_WXZ 00000001800a4240 f i libucrtd:output.obj
 0001:000a3250       ?set@?$cached@H@__crt_cached_ptd_host@@QEAAHH@Z 00000001800a4250 f i libucrtd:output.obj
 0001:000a3280       ?set_flag@?$output_processor@DV?$stream_output_adapter@D@__crt_stdio_output@@V?$format_validation_base@DV?$stream_output_adapter@D@__crt_stdio_output@@@2@@__crt_stdio_output@@AEAAXI@Z 00000001800a4280 f i libucrtd:output.obj
 0001:000a32a0       ?set_flag@?$output_processor@DV?$stream_output_adapter@D@__crt_stdio_output@@V?$positional_parameter_base@DV?$stream_output_adapter@D@__crt_stdio_output@@@2@@__crt_stdio_output@@AEAAXI@Z 00000001800a42a0 f i libucrtd:output.obj
 0001:000a32c0       ?set_flag@?$output_processor@DV?$stream_output_adapter@D@__crt_stdio_output@@V?$standard_base@DV?$stream_output_adapter@D@__crt_stdio_output@@@2@@__crt_stdio_output@@AEAAXI@Z 00000001800a42c0 f i libucrtd:output.obj
 0001:000a32e0       ?set_flag@?$output_processor@DV?$string_output_adapter@D@__crt_stdio_output@@V?$format_validation_base@DV?$string_output_adapter@D@__crt_stdio_output@@@2@@__crt_stdio_output@@AEAAXI@Z 00000001800a42e0 f i libucrtd:output.obj
 0001:000a3300       ?set_flag@?$output_processor@DV?$string_output_adapter@D@__crt_stdio_output@@V?$positional_parameter_base@DV?$string_output_adapter@D@__crt_stdio_output@@@2@@__crt_stdio_output@@AEAAXI@Z 00000001800a4300 f i libucrtd:output.obj
 0001:000a3320       ?set_flag@?$output_processor@DV?$string_output_adapter@D@__crt_stdio_output@@V?$standard_base@DV?$string_output_adapter@D@__crt_stdio_output@@@2@@__crt_stdio_output@@AEAAXI@Z 00000001800a4320 f i libucrtd:output.obj
 0001:000a3340       ?set_flag@?$output_processor@_WV?$stream_output_adapter@_W@__crt_stdio_output@@V?$format_validation_base@_WV?$stream_output_adapter@_W@__crt_stdio_output@@@2@@__crt_stdio_output@@AEAAXI@Z 00000001800a4340 f i libucrtd:output.obj
 0001:000a3360       ?set_flag@?$output_processor@_WV?$stream_output_adapter@_W@__crt_stdio_output@@V?$positional_parameter_base@_WV?$stream_output_adapter@_W@__crt_stdio_output@@@2@@__crt_stdio_output@@AEAAXI@Z 00000001800a4360 f i libucrtd:output.obj
 0001:000a3380       ?set_flag@?$output_processor@_WV?$stream_output_adapter@_W@__crt_stdio_output@@V?$standard_base@_WV?$stream_output_adapter@_W@__crt_stdio_output@@@2@@__crt_stdio_output@@AEAAXI@Z 00000001800a4380 f i libucrtd:output.obj
 0001:000a33a0       ?set_flag@?$output_processor@_WV?$string_output_adapter@_W@__crt_stdio_output@@V?$format_validation_base@_WV?$string_output_adapter@_W@__crt_stdio_output@@@2@@__crt_stdio_output@@AEAAXI@Z 00000001800a43a0 f i libucrtd:output.obj
 0001:000a33c0       ?set_flag@?$output_processor@_WV?$string_output_adapter@_W@__crt_stdio_output@@V?$positional_parameter_base@_WV?$string_output_adapter@_W@__crt_stdio_output@@@2@@__crt_stdio_output@@AEAAXI@Z 00000001800a43c0 f i libucrtd:output.obj
 0001:000a33e0       ?set_flag@?$output_processor@_WV?$string_output_adapter@_W@__crt_stdio_output@@V?$standard_base@_WV?$string_output_adapter@_W@__crt_stdio_output@@@2@@__crt_stdio_output@@AEAAXI@Z 00000001800a43e0 f i libucrtd:output.obj
 0001:000a3400       ?should_format@?$positional_parameter_base@DV?$stream_output_adapter@D@__crt_stdio_output@@@__crt_stdio_output@@IEAA_NXZ 00000001800a4400 f i libucrtd:output.obj
 0001:000a3440       ?should_format@?$positional_parameter_base@DV?$string_output_adapter@D@__crt_stdio_output@@@__crt_stdio_output@@IEAA_NXZ 00000001800a4440 f i libucrtd:output.obj
 0001:000a3480       ?should_format@?$positional_parameter_base@_WV?$stream_output_adapter@_W@__crt_stdio_output@@@__crt_stdio_output@@IEAA_NXZ 00000001800a4480 f i libucrtd:output.obj
 0001:000a34c0       ?should_format@?$positional_parameter_base@_WV?$string_output_adapter@_W@__crt_stdio_output@@@__crt_stdio_output@@IEAA_NXZ 00000001800a44c0 f i libucrtd:output.obj
 0001:000a3500       ?should_format@?$standard_base@DV?$stream_output_adapter@D@__crt_stdio_output@@@__crt_stdio_output@@IEAA_NXZ 00000001800a4500 f i libucrtd:output.obj
 0001:000a3510       ?should_format@?$standard_base@DV?$string_output_adapter@D@__crt_stdio_output@@@__crt_stdio_output@@IEAA_NXZ 00000001800a4510 f i libucrtd:output.obj
 0001:000a3520       ?should_format@?$standard_base@_WV?$stream_output_adapter@_W@__crt_stdio_output@@@__crt_stdio_output@@IEAA_NXZ 00000001800a4520 f i libucrtd:output.obj
 0001:000a3530       ?should_format@?$standard_base@_WV?$string_output_adapter@_W@__crt_stdio_output@@@__crt_stdio_output@@IEAA_NXZ 00000001800a4530 f i libucrtd:output.obj
 0001:000a3540       ?should_skip_normal_state_processing@?$positional_parameter_base@DV?$stream_output_adapter@D@__crt_stdio_output@@@__crt_stdio_output@@IEAA_NXZ 00000001800a4540 f i libucrtd:output.obj
 0001:000a3590       ?should_skip_normal_state_processing@?$positional_parameter_base@DV?$string_output_adapter@D@__crt_stdio_output@@@__crt_stdio_output@@IEAA_NXZ 00000001800a4590 f i libucrtd:output.obj
 0001:000a35e0       ?should_skip_normal_state_processing@?$positional_parameter_base@_WV?$stream_output_adapter@_W@__crt_stdio_output@@@__crt_stdio_output@@IEAA_NXZ 00000001800a45e0 f i libucrtd:output.obj
 0001:000a3630       ?should_skip_normal_state_processing@?$positional_parameter_base@_WV?$string_output_adapter@_W@__crt_stdio_output@@@__crt_stdio_output@@IEAA_NXZ 00000001800a4630 f i libucrtd:output.obj
 0001:000a3680       ?should_skip_normal_state_processing@?$standard_base@DV?$stream_output_adapter@D@__crt_stdio_output@@@__crt_stdio_output@@IEAA_NXZ 00000001800a4680 f i libucrtd:output.obj
 0001:000a3690       ?should_skip_normal_state_processing@?$standard_base@DV?$string_output_adapter@D@__crt_stdio_output@@@__crt_stdio_output@@IEAA_NXZ 00000001800a4690 f i libucrtd:output.obj
 0001:000a36a0       ?should_skip_normal_state_processing@?$standard_base@_WV?$stream_output_adapter@_W@__crt_stdio_output@@@__crt_stdio_output@@IEAA_NXZ 00000001800a46a0 f i libucrtd:output.obj
 0001:000a36b0       ?should_skip_normal_state_processing@?$standard_base@_WV?$string_output_adapter@_W@__crt_stdio_output@@@__crt_stdio_output@@IEAA_NXZ 00000001800a46b0 f i libucrtd:output.obj
 0001:000a36c0       ?should_skip_type_state_output@?$positional_parameter_base@DV?$stream_output_adapter@D@__crt_stdio_output@@@__crt_stdio_output@@IEBA_NXZ 00000001800a46c0 f i libucrtd:output.obj
 0001:000a3700       ?should_skip_type_state_output@?$positional_parameter_base@DV?$string_output_adapter@D@__crt_stdio_output@@@__crt_stdio_output@@IEBA_NXZ 00000001800a4700 f i libucrtd:output.obj
 0001:000a3740       ?should_skip_type_state_output@?$positional_parameter_base@_WV?$stream_output_adapter@_W@__crt_stdio_output@@@__crt_stdio_output@@IEBA_NXZ 00000001800a4740 f i libucrtd:output.obj
 0001:000a3780       ?should_skip_type_state_output@?$positional_parameter_base@_WV?$string_output_adapter@_W@__crt_stdio_output@@@__crt_stdio_output@@IEBA_NXZ 00000001800a4780 f i libucrtd:output.obj
 0001:000a37c0       ?should_skip_type_state_output@?$standard_base@DV?$stream_output_adapter@D@__crt_stdio_output@@@__crt_stdio_output@@IEBA_NXZ 00000001800a47c0 f i libucrtd:output.obj
 0001:000a37d0       ?should_skip_type_state_output@?$standard_base@DV?$string_output_adapter@D@__crt_stdio_output@@@__crt_stdio_output@@IEBA_NXZ 00000001800a47d0 f i libucrtd:output.obj
 0001:000a37e0       ?should_skip_type_state_output@?$standard_base@_WV?$stream_output_adapter@_W@__crt_stdio_output@@@__crt_stdio_output@@IEBA_NXZ 00000001800a47e0 f i libucrtd:output.obj
 0001:000a37f0       ?should_skip_type_state_output@?$standard_base@_WV?$string_output_adapter@_W@__crt_stdio_output@@@__crt_stdio_output@@IEBA_NXZ 00000001800a47f0 f i libucrtd:output.obj
 0001:000a3800       ?state_case_dot@?$output_processor@DV?$stream_output_adapter@D@__crt_stdio_output@@V?$format_validation_base@DV?$stream_output_adapter@D@__crt_stdio_output@@@2@@__crt_stdio_output@@AEAA_NXZ 00000001800a4800 f i libucrtd:output.obj
 0001:000a3820       ?state_case_dot@?$output_processor@DV?$stream_output_adapter@D@__crt_stdio_output@@V?$positional_parameter_base@DV?$stream_output_adapter@D@__crt_stdio_output@@@2@@__crt_stdio_output@@AEAA_NXZ 00000001800a4820 f i libucrtd:output.obj
 0001:000a3840       ?state_case_dot@?$output_processor@DV?$stream_output_adapter@D@__crt_stdio_output@@V?$standard_base@DV?$stream_output_adapter@D@__crt_stdio_output@@@2@@__crt_stdio_output@@AEAA_NXZ 00000001800a4840 f i libucrtd:output.obj
 0001:000a3860       ?state_case_dot@?$output_processor@DV?$string_output_adapter@D@__crt_stdio_output@@V?$format_validation_base@DV?$string_output_adapter@D@__crt_stdio_output@@@2@@__crt_stdio_output@@AEAA_NXZ 00000001800a4860 f i libucrtd:output.obj
 0001:000a3880       ?state_case_dot@?$output_processor@DV?$string_output_adapter@D@__crt_stdio_output@@V?$positional_parameter_base@DV?$string_output_adapter@D@__crt_stdio_output@@@2@@__crt_stdio_output@@AEAA_NXZ 00000001800a4880 f i libucrtd:output.obj
 0001:000a38a0       ?state_case_dot@?$output_processor@DV?$string_output_adapter@D@__crt_stdio_output@@V?$standard_base@DV?$string_output_adapter@D@__crt_stdio_output@@@2@@__crt_stdio_output@@AEAA_NXZ 00000001800a48a0 f i libucrtd:output.obj
 0001:000a38c0       ?state_case_dot@?$output_processor@_WV?$stream_output_adapter@_W@__crt_stdio_output@@V?$format_validation_base@_WV?$stream_output_adapter@_W@__crt_stdio_output@@@2@@__crt_stdio_output@@AEAA_NXZ 00000001800a48c0 f i libucrtd:output.obj
 0001:000a38e0       ?state_case_dot@?$output_processor@_WV?$stream_output_adapter@_W@__crt_stdio_output@@V?$positional_parameter_base@_WV?$stream_output_adapter@_W@__crt_stdio_output@@@2@@__crt_stdio_output@@AEAA_NXZ 00000001800a48e0 f i libucrtd:output.obj
 0001:000a3900       ?state_case_dot@?$output_processor@_WV?$stream_output_adapter@_W@__crt_stdio_output@@V?$standard_base@_WV?$stream_output_adapter@_W@__crt_stdio_output@@@2@@__crt_stdio_output@@AEAA_NXZ 00000001800a4900 f i libucrtd:output.obj
 0001:000a3920       ?state_case_dot@?$output_processor@_WV?$string_output_adapter@_W@__crt_stdio_output@@V?$format_validation_base@_WV?$string_output_adapter@_W@__crt_stdio_output@@@2@@__crt_stdio_output@@AEAA_NXZ 00000001800a4920 f i libucrtd:output.obj
 0001:000a3940       ?state_case_dot@?$output_processor@_WV?$string_output_adapter@_W@__crt_stdio_output@@V?$positional_parameter_base@_WV?$string_output_adapter@_W@__crt_stdio_output@@@2@@__crt_stdio_output@@AEAA_NXZ 00000001800a4940 f i libucrtd:output.obj
 0001:000a3960       ?state_case_dot@?$output_processor@_WV?$string_output_adapter@_W@__crt_stdio_output@@V?$standard_base@_WV?$string_output_adapter@_W@__crt_stdio_output@@@2@@__crt_stdio_output@@AEAA_NXZ 00000001800a4960 f i libucrtd:output.obj
 0001:000a3980       ?state_case_flag@?$output_processor@DV?$stream_output_adapter@D@__crt_stdio_output@@V?$format_validation_base@DV?$stream_output_adapter@D@__crt_stdio_output@@@2@@__crt_stdio_output@@AEAA_NXZ 00000001800a4980 f i libucrtd:output.obj
 0001:000a3a20       ?state_case_flag@?$output_processor@DV?$stream_output_adapter@D@__crt_stdio_output@@V?$positional_parameter_base@DV?$stream_output_adapter@D@__crt_stdio_output@@@2@@__crt_stdio_output@@AEAA_NXZ 00000001800a4a20 f i libucrtd:output.obj
 0001:000a3ac0       ?state_case_flag@?$output_processor@DV?$stream_output_adapter@D@__crt_stdio_output@@V?$standard_base@DV?$stream_output_adapter@D@__crt_stdio_output@@@2@@__crt_stdio_output@@AEAA_NXZ 00000001800a4ac0 f i libucrtd:output.obj
 0001:000a3b60       ?state_case_flag@?$output_processor@DV?$string_output_adapter@D@__crt_stdio_output@@V?$format_validation_base@DV?$string_output_adapter@D@__crt_stdio_output@@@2@@__crt_stdio_output@@AEAA_NXZ 00000001800a4b60 f i libucrtd:output.obj
 0001:000a3c00       ?state_case_flag@?$output_processor@DV?$string_output_adapter@D@__crt_stdio_output@@V?$positional_parameter_base@DV?$string_output_adapter@D@__crt_stdio_output@@@2@@__crt_stdio_output@@AEAA_NXZ 00000001800a4c00 f i libucrtd:output.obj
 0001:000a3ca0       ?state_case_flag@?$output_processor@DV?$string_output_adapter@D@__crt_stdio_output@@V?$standard_base@DV?$string_output_adapter@D@__crt_stdio_output@@@2@@__crt_stdio_output@@AEAA_NXZ 00000001800a4ca0 f i libucrtd:output.obj
 0001:000a3d40       ?state_case_flag@?$output_processor@_WV?$stream_output_adapter@_W@__crt_stdio_output@@V?$format_validation_base@_WV?$stream_output_adapter@_W@__crt_stdio_output@@@2@@__crt_stdio_output@@AEAA_NXZ 00000001800a4d40 f i libucrtd:output.obj
 0001:000a3de0       ?state_case_flag@?$output_processor@_WV?$stream_output_adapter@_W@__crt_stdio_output@@V?$positional_parameter_base@_WV?$stream_output_adapter@_W@__crt_stdio_output@@@2@@__crt_stdio_output@@AEAA_NXZ 00000001800a4de0 f i libucrtd:output.obj
 0001:000a3e80       ?state_case_flag@?$output_processor@_WV?$stream_output_adapter@_W@__crt_stdio_output@@V?$standard_base@_WV?$stream_output_adapter@_W@__crt_stdio_output@@@2@@__crt_stdio_output@@AEAA_NXZ 00000001800a4e80 f i libucrtd:output.obj
 0001:000a3f20       ?state_case_flag@?$output_processor@_WV?$string_output_adapter@_W@__crt_stdio_output@@V?$format_validation_base@_WV?$string_output_adapter@_W@__crt_stdio_output@@@2@@__crt_stdio_output@@AEAA_NXZ 00000001800a4f20 f i libucrtd:output.obj
 0001:000a3fc0       ?state_case_flag@?$output_processor@_WV?$string_output_adapter@_W@__crt_stdio_output@@V?$positional_parameter_base@_WV?$string_output_adapter@_W@__crt_stdio_output@@@2@@__crt_stdio_output@@AEAA_NXZ 00000001800a4fc0 f i libucrtd:output.obj
 0001:000a4060       ?state_case_flag@?$output_processor@_WV?$string_output_adapter@_W@__crt_stdio_output@@V?$standard_base@_WV?$string_output_adapter@_W@__crt_stdio_output@@@2@@__crt_stdio_output@@AEAA_NXZ 00000001800a5060 f i libucrtd:output.obj
 0001:000a4100       ?state_case_normal@?$output_processor@DV?$stream_output_adapter@D@__crt_stdio_output@@V?$format_validation_base@DV?$stream_output_adapter@D@__crt_stdio_output@@@2@@__crt_stdio_output@@AEAA_NXZ 00000001800a5100 f i libucrtd:output.obj
 0001:000a4200       ?state_case_normal@?$output_processor@DV?$stream_output_adapter@D@__crt_stdio_output@@V?$positional_parameter_base@DV?$stream_output_adapter@D@__crt_stdio_output@@@2@@__crt_stdio_output@@AEAA_NXZ 00000001800a5200 f i libucrtd:output.obj
 0001:000a4300       ?state_case_normal@?$output_processor@DV?$stream_output_adapter@D@__crt_stdio_output@@V?$standard_base@DV?$stream_output_adapter@D@__crt_stdio_output@@@2@@__crt_stdio_output@@AEAA_NXZ 00000001800a5300 f i libucrtd:output.obj
 0001:000a4400       ?state_case_normal@?$output_processor@DV?$string_output_adapter@D@__crt_stdio_output@@V?$format_validation_base@DV?$string_output_adapter@D@__crt_stdio_output@@@2@@__crt_stdio_output@@AEAA_NXZ 00000001800a5400 f i libucrtd:output.obj
 0001:000a4500       ?state_case_normal@?$output_processor@DV?$string_output_adapter@D@__crt_stdio_output@@V?$positional_parameter_base@DV?$string_output_adapter@D@__crt_stdio_output@@@2@@__crt_stdio_output@@AEAA_NXZ 00000001800a5500 f i libucrtd:output.obj
 0001:000a4600       ?state_case_normal@?$output_processor@DV?$string_output_adapter@D@__crt_stdio_output@@V?$standard_base@DV?$string_output_adapter@D@__crt_stdio_output@@@2@@__crt_stdio_output@@AEAA_NXZ 00000001800a5600 f i libucrtd:output.obj
 0001:000a4700       ?state_case_normal@?$output_processor@_WV?$stream_output_adapter@_W@__crt_stdio_output@@V?$format_validation_base@_WV?$stream_output_adapter@_W@__crt_stdio_output@@@2@@__crt_stdio_output@@AEAA_NXZ 00000001800a5700 f i libucrtd:output.obj
 0001:000a4800       ?state_case_normal@?$output_processor@_WV?$stream_output_adapter@_W@__crt_stdio_output@@V?$positional_parameter_base@_WV?$stream_output_adapter@_W@__crt_stdio_output@@@2@@__crt_stdio_output@@AEAA_NXZ 00000001800a5800 f i libucrtd:output.obj
 0001:000a4900       ?state_case_normal@?$output_processor@_WV?$stream_output_adapter@_W@__crt_stdio_output@@V?$standard_base@_WV?$stream_output_adapter@_W@__crt_stdio_output@@@2@@__crt_stdio_output@@AEAA_NXZ 00000001800a5900 f i libucrtd:output.obj
 0001:000a4a00       ?state_case_normal@?$output_processor@_WV?$string_output_adapter@_W@__crt_stdio_output@@V?$format_validation_base@_WV?$string_output_adapter@_W@__crt_stdio_output@@@2@@__crt_stdio_output@@AEAA_NXZ 00000001800a5a00 f i libucrtd:output.obj
 0001:000a4b00       ?state_case_normal@?$output_processor@_WV?$string_output_adapter@_W@__crt_stdio_output@@V?$positional_parameter_base@_WV?$string_output_adapter@_W@__crt_stdio_output@@@2@@__crt_stdio_output@@AEAA_NXZ 00000001800a5b00 f i libucrtd:output.obj
 0001:000a4c00       ?state_case_normal@?$output_processor@_WV?$string_output_adapter@_W@__crt_stdio_output@@V?$standard_base@_WV?$string_output_adapter@_W@__crt_stdio_output@@@2@@__crt_stdio_output@@AEAA_NXZ 00000001800a5c00 f i libucrtd:output.obj
 0001:000a4d00       ?state_case_normal_common@?$output_processor@DV?$stream_output_adapter@D@__crt_stdio_output@@V?$format_validation_base@DV?$stream_output_adapter@D@__crt_stdio_output@@@2@@__crt_stdio_output@@AEAA_NXZ 00000001800a5d00 f i libucrtd:output.obj
 0001:000a4d60       ?state_case_normal_common@?$output_processor@DV?$stream_output_adapter@D@__crt_stdio_output@@V?$positional_parameter_base@DV?$stream_output_adapter@D@__crt_stdio_output@@@2@@__crt_stdio_output@@AEAA_NXZ 00000001800a5d60 f i libucrtd:output.obj
 0001:000a4dc0       ?state_case_normal_common@?$output_processor@DV?$stream_output_adapter@D@__crt_stdio_output@@V?$standard_base@DV?$stream_output_adapter@D@__crt_stdio_output@@@2@@__crt_stdio_output@@AEAA_NXZ 00000001800a5dc0 f i libucrtd:output.obj
 0001:000a4e20       ?state_case_normal_common@?$output_processor@DV?$string_output_adapter@D@__crt_stdio_output@@V?$format_validation_base@DV?$string_output_adapter@D@__crt_stdio_output@@@2@@__crt_stdio_output@@AEAA_NXZ 00000001800a5e20 f i libucrtd:output.obj
 0001:000a4e80       ?state_case_normal_common@?$output_processor@DV?$string_output_adapter@D@__crt_stdio_output@@V?$positional_parameter_base@DV?$string_output_adapter@D@__crt_stdio_output@@@2@@__crt_stdio_output@@AEAA_NXZ 00000001800a5e80 f i libucrtd:output.obj
 0001:000a4ee0       ?state_case_normal_common@?$output_processor@DV?$string_output_adapter@D@__crt_stdio_output@@V?$standard_base@DV?$string_output_adapter@D@__crt_stdio_output@@@2@@__crt_stdio_output@@AEAA_NXZ 00000001800a5ee0 f i libucrtd:output.obj
 0001:000a4f40       ?state_case_normal_common@?$output_processor@_WV?$stream_output_adapter@_W@__crt_stdio_output@@V?$format_validation_base@_WV?$stream_output_adapter@_W@__crt_stdio_output@@@2@@__crt_stdio_output@@AEAA_NXZ 00000001800a5f40 f i libucrtd:output.obj
 0001:000a4fa0       ?state_case_normal_common@?$output_processor@_WV?$stream_output_adapter@_W@__crt_stdio_output@@V?$positional_parameter_base@_WV?$stream_output_adapter@_W@__crt_stdio_output@@@2@@__crt_stdio_output@@AEAA_NXZ 00000001800a5fa0 f i libucrtd:output.obj
 0001:000a5000       ?state_case_normal_common@?$output_processor@_WV?$stream_output_adapter@_W@__crt_stdio_output@@V?$standard_base@_WV?$stream_output_adapter@_W@__crt_stdio_output@@@2@@__crt_stdio_output@@AEAA_NXZ 00000001800a6000 f i libucrtd:output.obj
 0001:000a5060       ?state_case_normal_common@?$output_processor@_WV?$string_output_adapter@_W@__crt_stdio_output@@V?$format_validation_base@_WV?$string_output_adapter@_W@__crt_stdio_output@@@2@@__crt_stdio_output@@AEAA_NXZ 00000001800a6060 f i libucrtd:output.obj
 0001:000a50c0       ?state_case_normal_common@?$output_processor@_WV?$string_output_adapter@_W@__crt_stdio_output@@V?$positional_parameter_base@_WV?$string_output_adapter@_W@__crt_stdio_output@@@2@@__crt_stdio_output@@AEAA_NXZ 00000001800a60c0 f i libucrtd:output.obj
 0001:000a5120       ?state_case_normal_common@?$output_processor@_WV?$string_output_adapter@_W@__crt_stdio_output@@V?$standard_base@_WV?$string_output_adapter@_W@__crt_stdio_output@@@2@@__crt_stdio_output@@AEAA_NXZ 00000001800a6120 f i libucrtd:output.obj
 0001:000a5180       ?state_case_normal_tchar@?$output_processor@DV?$stream_output_adapter@D@__crt_stdio_output@@V?$format_validation_base@DV?$stream_output_adapter@D@__crt_stdio_output@@@2@@__crt_stdio_output@@AEAA_ND@Z 00000001800a6180 f i libucrtd:output.obj
 0001:000a5310       ?state_case_normal_tchar@?$output_processor@DV?$stream_output_adapter@D@__crt_stdio_output@@V?$positional_parameter_base@DV?$stream_output_adapter@D@__crt_stdio_output@@@2@@__crt_stdio_output@@AEAA_ND@Z 00000001800a6310 f i libucrtd:output.obj
 0001:000a54a0       ?state_case_normal_tchar@?$output_processor@DV?$stream_output_adapter@D@__crt_stdio_output@@V?$standard_base@DV?$stream_output_adapter@D@__crt_stdio_output@@@2@@__crt_stdio_output@@AEAA_ND@Z 00000001800a64a0 f i libucrtd:output.obj
 0001:000a5630       ?state_case_normal_tchar@?$output_processor@DV?$string_output_adapter@D@__crt_stdio_output@@V?$format_validation_base@DV?$string_output_adapter@D@__crt_stdio_output@@@2@@__crt_stdio_output@@AEAA_ND@Z 00000001800a6630 f i libucrtd:output.obj
 0001:000a57c0       ?state_case_normal_tchar@?$output_processor@DV?$string_output_adapter@D@__crt_stdio_output@@V?$positional_parameter_base@DV?$string_output_adapter@D@__crt_stdio_output@@@2@@__crt_stdio_output@@AEAA_ND@Z 00000001800a67c0 f i libucrtd:output.obj
 0001:000a5950       ?state_case_normal_tchar@?$output_processor@DV?$string_output_adapter@D@__crt_stdio_output@@V?$standard_base@DV?$string_output_adapter@D@__crt_stdio_output@@@2@@__crt_stdio_output@@AEAA_ND@Z 00000001800a6950 f i libucrtd:output.obj
 0001:000a5ae0       ?state_case_normal_tchar@?$output_processor@_WV?$stream_output_adapter@_W@__crt_stdio_output@@V?$format_validation_base@_WV?$stream_output_adapter@_W@__crt_stdio_output@@@2@@__crt_stdio_output@@AEAA_N_W@Z 00000001800a6ae0 f i libucrtd:output.obj
 0001:000a5b00       ?state_case_normal_tchar@?$output_processor@_WV?$stream_output_adapter@_W@__crt_stdio_output@@V?$positional_parameter_base@_WV?$stream_output_adapter@_W@__crt_stdio_output@@@2@@__crt_stdio_output@@AEAA_N_W@Z 00000001800a6b00 f i libucrtd:output.obj
 0001:000a5b20       ?state_case_normal_tchar@?$output_processor@_WV?$stream_output_adapter@_W@__crt_stdio_output@@V?$standard_base@_WV?$stream_output_adapter@_W@__crt_stdio_output@@@2@@__crt_stdio_output@@AEAA_N_W@Z 00000001800a6b20 f i libucrtd:output.obj
 0001:000a5b40       ?state_case_normal_tchar@?$output_processor@_WV?$string_output_adapter@_W@__crt_stdio_output@@V?$format_validation_base@_WV?$string_output_adapter@_W@__crt_stdio_output@@@2@@__crt_stdio_output@@AEAA_N_W@Z 00000001800a6b40 f i libucrtd:output.obj
 0001:000a5b60       ?state_case_normal_tchar@?$output_processor@_WV?$string_output_adapter@_W@__crt_stdio_output@@V?$positional_parameter_base@_WV?$string_output_adapter@_W@__crt_stdio_output@@@2@@__crt_stdio_output@@AEAA_N_W@Z 00000001800a6b60 f i libucrtd:output.obj
 0001:000a5b80       ?state_case_normal_tchar@?$output_processor@_WV?$string_output_adapter@_W@__crt_stdio_output@@V?$standard_base@_WV?$string_output_adapter@_W@__crt_stdio_output@@@2@@__crt_stdio_output@@AEAA_N_W@Z 00000001800a6b80 f i libucrtd:output.obj
 0001:000a5ba0       ?state_case_percent@?$output_processor@DV?$stream_output_adapter@D@__crt_stdio_output@@V?$format_validation_base@DV?$stream_output_adapter@D@__crt_stdio_output@@@2@@__crt_stdio_output@@AEAA_NXZ 00000001800a6ba0 f i libucrtd:output.obj
 0001:000a5bf0       ?state_case_percent@?$output_processor@DV?$stream_output_adapter@D@__crt_stdio_output@@V?$positional_parameter_base@DV?$stream_output_adapter@D@__crt_stdio_output@@@2@@__crt_stdio_output@@AEAA_NXZ 00000001800a6bf0 f i libucrtd:output.obj
 0001:000a5c40       ?state_case_percent@?$output_processor@DV?$stream_output_adapter@D@__crt_stdio_output@@V?$standard_base@DV?$stream_output_adapter@D@__crt_stdio_output@@@2@@__crt_stdio_output@@AEAA_NXZ 00000001800a6c40 f i libucrtd:output.obj
 0001:000a5c90       ?state_case_percent@?$output_processor@DV?$string_output_adapter@D@__crt_stdio_output@@V?$format_validation_base@DV?$string_output_adapter@D@__crt_stdio_output@@@2@@__crt_stdio_output@@AEAA_NXZ 00000001800a6c90 f i libucrtd:output.obj
 0001:000a5ce0       ?state_case_percent@?$output_processor@DV?$string_output_adapter@D@__crt_stdio_output@@V?$positional_parameter_base@DV?$string_output_adapter@D@__crt_stdio_output@@@2@@__crt_stdio_output@@AEAA_NXZ 00000001800a6ce0 f i libucrtd:output.obj
 0001:000a5d30       ?state_case_percent@?$output_processor@DV?$string_output_adapter@D@__crt_stdio_output@@V?$standard_base@DV?$string_output_adapter@D@__crt_stdio_output@@@2@@__crt_stdio_output@@AEAA_NXZ 00000001800a6d30 f i libucrtd:output.obj
 0001:000a5d80       ?state_case_percent@?$output_processor@_WV?$stream_output_adapter@_W@__crt_stdio_output@@V?$format_validation_base@_WV?$stream_output_adapter@_W@__crt_stdio_output@@@2@@__crt_stdio_output@@AEAA_NXZ 00000001800a6d80 f i libucrtd:output.obj
 0001:000a5dd0       ?state_case_percent@?$output_processor@_WV?$stream_output_adapter@_W@__crt_stdio_output@@V?$positional_parameter_base@_WV?$stream_output_adapter@_W@__crt_stdio_output@@@2@@__crt_stdio_output@@AEAA_NXZ 00000001800a6dd0 f i libucrtd:output.obj
 0001:000a5e20       ?state_case_percent@?$output_processor@_WV?$stream_output_adapter@_W@__crt_stdio_output@@V?$standard_base@_WV?$stream_output_adapter@_W@__crt_stdio_output@@@2@@__crt_stdio_output@@AEAA_NXZ 00000001800a6e20 f i libucrtd:output.obj
 0001:000a5e70       ?state_case_percent@?$output_processor@_WV?$string_output_adapter@_W@__crt_stdio_output@@V?$format_validation_base@_WV?$string_output_adapter@_W@__crt_stdio_output@@@2@@__crt_stdio_output@@AEAA_NXZ 00000001800a6e70 f i libucrtd:output.obj
 0001:000a5ec0       ?state_case_percent@?$output_processor@_WV?$string_output_adapter@_W@__crt_stdio_output@@V?$positional_parameter_base@_WV?$string_output_adapter@_W@__crt_stdio_output@@@2@@__crt_stdio_output@@AEAA_NXZ 00000001800a6ec0 f i libucrtd:output.obj
 0001:000a5f10       ?state_case_percent@?$output_processor@_WV?$string_output_adapter@_W@__crt_stdio_output@@V?$standard_base@_WV?$string_output_adapter@_W@__crt_stdio_output@@@2@@__crt_stdio_output@@AEAA_NXZ 00000001800a6f10 f i libucrtd:output.obj
 0001:000a5f60       ?state_case_precision@?$output_processor@DV?$stream_output_adapter@D@__crt_stdio_output@@V?$format_validation_base@DV?$stream_output_adapter@D@__crt_stdio_output@@@2@@__crt_stdio_output@@AEAA_NXZ 00000001800a6f60 f i libucrtd:output.obj
 0001:000a5fe0       ?state_case_precision@?$output_processor@DV?$stream_output_adapter@D@__crt_stdio_output@@V?$positional_parameter_base@DV?$stream_output_adapter@D@__crt_stdio_output@@@2@@__crt_stdio_output@@AEAA_NXZ 00000001800a6fe0 f i libucrtd:output.obj
 0001:000a6060       ?state_case_precision@?$output_processor@DV?$stream_output_adapter@D@__crt_stdio_output@@V?$standard_base@DV?$stream_output_adapter@D@__crt_stdio_output@@@2@@__crt_stdio_output@@AEAA_NXZ 00000001800a7060 f i libucrtd:output.obj
 0001:000a60e0       ?state_case_precision@?$output_processor@DV?$string_output_adapter@D@__crt_stdio_output@@V?$format_validation_base@DV?$string_output_adapter@D@__crt_stdio_output@@@2@@__crt_stdio_output@@AEAA_NXZ 00000001800a70e0 f i libucrtd:output.obj
 0001:000a6160       ?state_case_precision@?$output_processor@DV?$string_output_adapter@D@__crt_stdio_output@@V?$positional_parameter_base@DV?$string_output_adapter@D@__crt_stdio_output@@@2@@__crt_stdio_output@@AEAA_NXZ 00000001800a7160 f i libucrtd:output.obj
 0001:000a61e0       ?state_case_precision@?$output_processor@DV?$string_output_adapter@D@__crt_stdio_output@@V?$standard_base@DV?$string_output_adapter@D@__crt_stdio_output@@@2@@__crt_stdio_output@@AEAA_NXZ 00000001800a71e0 f i libucrtd:output.obj
 0001:000a6260       ?state_case_precision@?$output_processor@_WV?$stream_output_adapter@_W@__crt_stdio_output@@V?$format_validation_base@_WV?$stream_output_adapter@_W@__crt_stdio_output@@@2@@__crt_stdio_output@@AEAA_NXZ 00000001800a7260 f i libucrtd:output.obj
 0001:000a62e0       ?state_case_precision@?$output_processor@_WV?$stream_output_adapter@_W@__crt_stdio_output@@V?$positional_parameter_base@_WV?$stream_output_adapter@_W@__crt_stdio_output@@@2@@__crt_stdio_output@@AEAA_NXZ 00000001800a72e0 f i libucrtd:output.obj
 0001:000a6360       ?state_case_precision@?$output_processor@_WV?$stream_output_adapter@_W@__crt_stdio_output@@V?$standard_base@_WV?$stream_output_adapter@_W@__crt_stdio_output@@@2@@__crt_stdio_output@@AEAA_NXZ 00000001800a7360 f i libucrtd:output.obj
 0001:000a63e0       ?state_case_precision@?$output_processor@_WV?$string_output_adapter@_W@__crt_stdio_output@@V?$format_validation_base@_WV?$string_output_adapter@_W@__crt_stdio_output@@@2@@__crt_stdio_output@@AEAA_NXZ 00000001800a73e0 f i libucrtd:output.obj
 0001:000a6460       ?state_case_precision@?$output_processor@_WV?$string_output_adapter@_W@__crt_stdio_output@@V?$positional_parameter_base@_WV?$string_output_adapter@_W@__crt_stdio_output@@@2@@__crt_stdio_output@@AEAA_NXZ 00000001800a7460 f i libucrtd:output.obj
 0001:000a64e0       ?state_case_precision@?$output_processor@_WV?$string_output_adapter@_W@__crt_stdio_output@@V?$standard_base@_WV?$string_output_adapter@_W@__crt_stdio_output@@@2@@__crt_stdio_output@@AEAA_NXZ 00000001800a74e0 f i libucrtd:output.obj
 0001:000a6560       ?state_case_size@?$output_processor@DV?$stream_output_adapter@D@__crt_stdio_output@@V?$format_validation_base@DV?$stream_output_adapter@D@__crt_stdio_output@@@2@@__crt_stdio_output@@AEAA_NXZ 00000001800a7560 f i libucrtd:output.obj
 0001:000a6a20       ?state_case_size@?$output_processor@DV?$stream_output_adapter@D@__crt_stdio_output@@V?$positional_parameter_base@DV?$stream_output_adapter@D@__crt_stdio_output@@@2@@__crt_stdio_output@@AEAA_NXZ 00000001800a7a20 f i libucrtd:output.obj
 0001:000a6ee0       ?state_case_size@?$output_processor@DV?$stream_output_adapter@D@__crt_stdio_output@@V?$standard_base@DV?$stream_output_adapter@D@__crt_stdio_output@@@2@@__crt_stdio_output@@AEAA_NXZ 00000001800a7ee0 f i libucrtd:output.obj
 0001:000a73a0       ?state_case_size@?$output_processor@DV?$string_output_adapter@D@__crt_stdio_output@@V?$format_validation_base@DV?$string_output_adapter@D@__crt_stdio_output@@@2@@__crt_stdio_output@@AEAA_NXZ 00000001800a83a0 f i libucrtd:output.obj
 0001:000a7860       ?state_case_size@?$output_processor@DV?$string_output_adapter@D@__crt_stdio_output@@V?$positional_parameter_base@DV?$string_output_adapter@D@__crt_stdio_output@@@2@@__crt_stdio_output@@AEAA_NXZ 00000001800a8860 f i libucrtd:output.obj
 0001:000a7d20       ?state_case_size@?$output_processor@DV?$string_output_adapter@D@__crt_stdio_output@@V?$standard_base@DV?$string_output_adapter@D@__crt_stdio_output@@@2@@__crt_stdio_output@@AEAA_NXZ 00000001800a8d20 f i libucrtd:output.obj
 0001:000a81e0       ?state_case_size@?$output_processor@_WV?$stream_output_adapter@_W@__crt_stdio_output@@V?$format_validation_base@_WV?$stream_output_adapter@_W@__crt_stdio_output@@@2@@__crt_stdio_output@@AEAA_NXZ 00000001800a91e0 f i libucrtd:output.obj
 0001:000a86a0       ?state_case_size@?$output_processor@_WV?$stream_output_adapter@_W@__crt_stdio_output@@V?$positional_parameter_base@_WV?$stream_output_adapter@_W@__crt_stdio_output@@@2@@__crt_stdio_output@@AEAA_NXZ 00000001800a96a0 f i libucrtd:output.obj
 0001:000a8b60       ?state_case_size@?$output_processor@_WV?$stream_output_adapter@_W@__crt_stdio_output@@V?$standard_base@_WV?$stream_output_adapter@_W@__crt_stdio_output@@@2@@__crt_stdio_output@@AEAA_NXZ 00000001800a9b60 f i libucrtd:output.obj
 0001:000a9020       ?state_case_size@?$output_processor@_WV?$string_output_adapter@_W@__crt_stdio_output@@V?$format_validation_base@_WV?$string_output_adapter@_W@__crt_stdio_output@@@2@@__crt_stdio_output@@AEAA_NXZ 00000001800aa020 f i libucrtd:output.obj
 0001:000a94e0       ?state_case_size@?$output_processor@_WV?$string_output_adapter@_W@__crt_stdio_output@@V?$positional_parameter_base@_WV?$string_output_adapter@_W@__crt_stdio_output@@@2@@__crt_stdio_output@@AEAA_NXZ 00000001800aa4e0 f i libucrtd:output.obj
 0001:000a99a0       ?state_case_size@?$output_processor@_WV?$string_output_adapter@_W@__crt_stdio_output@@V?$standard_base@_WV?$string_output_adapter@_W@__crt_stdio_output@@@2@@__crt_stdio_output@@AEAA_NXZ 00000001800aa9a0 f i libucrtd:output.obj
 0001:000a9e60       ?state_case_type@?$output_processor@DV?$stream_output_adapter@D@__crt_stdio_output@@V?$format_validation_base@DV?$stream_output_adapter@D@__crt_stdio_output@@@2@@__crt_stdio_output@@AEAA_NXZ 00000001800aae60 f i libucrtd:output.obj
 0001:000aa320       ?state_case_type@?$output_processor@DV?$stream_output_adapter@D@__crt_stdio_output@@V?$positional_parameter_base@DV?$stream_output_adapter@D@__crt_stdio_output@@@2@@__crt_stdio_output@@AEAA_NXZ 00000001800ab320 f i libucrtd:output.obj
 0001:000aa7e0       ?state_case_type@?$output_processor@DV?$stream_output_adapter@D@__crt_stdio_output@@V?$standard_base@DV?$stream_output_adapter@D@__crt_stdio_output@@@2@@__crt_stdio_output@@AEAA_NXZ 00000001800ab7e0 f i libucrtd:output.obj
 0001:000aaca0       ?state_case_type@?$output_processor@DV?$string_output_adapter@D@__crt_stdio_output@@V?$format_validation_base@DV?$string_output_adapter@D@__crt_stdio_output@@@2@@__crt_stdio_output@@AEAA_NXZ 00000001800abca0 f i libucrtd:output.obj
 0001:000ab160       ?state_case_type@?$output_processor@DV?$string_output_adapter@D@__crt_stdio_output@@V?$positional_parameter_base@DV?$string_output_adapter@D@__crt_stdio_output@@@2@@__crt_stdio_output@@AEAA_NXZ 00000001800ac160 f i libucrtd:output.obj
 0001:000ab620       ?state_case_type@?$output_processor@DV?$string_output_adapter@D@__crt_stdio_output@@V?$standard_base@DV?$string_output_adapter@D@__crt_stdio_output@@@2@@__crt_stdio_output@@AEAA_NXZ 00000001800ac620 f i libucrtd:output.obj
 0001:000abae0       ?state_case_type@?$output_processor@_WV?$stream_output_adapter@_W@__crt_stdio_output@@V?$format_validation_base@_WV?$stream_output_adapter@_W@__crt_stdio_output@@@2@@__crt_stdio_output@@AEAA_NXZ 00000001800acae0 f i libucrtd:output.obj
 0001:000ac070       ?state_case_type@?$output_processor@_WV?$stream_output_adapter@_W@__crt_stdio_output@@V?$positional_parameter_base@_WV?$stream_output_adapter@_W@__crt_stdio_output@@@2@@__crt_stdio_output@@AEAA_NXZ 00000001800ad070 f i libucrtd:output.obj
 0001:000ac600       ?state_case_type@?$output_processor@_WV?$stream_output_adapter@_W@__crt_stdio_output@@V?$standard_base@_WV?$stream_output_adapter@_W@__crt_stdio_output@@@2@@__crt_stdio_output@@AEAA_NXZ 00000001800ad600 f i libucrtd:output.obj
 0001:000acb90       ?state_case_type@?$output_processor@_WV?$string_output_adapter@_W@__crt_stdio_output@@V?$format_validation_base@_WV?$string_output_adapter@_W@__crt_stdio_output@@@2@@__crt_stdio_output@@AEAA_NXZ 00000001800adb90 f i libucrtd:output.obj
 0001:000ad120       ?state_case_type@?$output_processor@_WV?$string_output_adapter@_W@__crt_stdio_output@@V?$positional_parameter_base@_WV?$string_output_adapter@_W@__crt_stdio_output@@@2@@__crt_stdio_output@@AEAA_NXZ 00000001800ae120 f i libucrtd:output.obj
 0001:000ad6b0       ?state_case_type@?$output_processor@_WV?$string_output_adapter@_W@__crt_stdio_output@@V?$standard_base@_WV?$string_output_adapter@_W@__crt_stdio_output@@@2@@__crt_stdio_output@@AEAA_NXZ 00000001800ae6b0 f i libucrtd:output.obj
 0001:000adc40       ?state_case_width@?$output_processor@DV?$stream_output_adapter@D@__crt_stdio_output@@V?$format_validation_base@DV?$stream_output_adapter@D@__crt_stdio_output@@@2@@__crt_stdio_output@@AEAA_NXZ 00000001800aec40 f i libucrtd:output.obj
 0001:000adcd0       ?state_case_width@?$output_processor@DV?$stream_output_adapter@D@__crt_stdio_output@@V?$positional_parameter_base@DV?$stream_output_adapter@D@__crt_stdio_output@@@2@@__crt_stdio_output@@AEAA_NXZ 00000001800aecd0 f i libucrtd:output.obj
 0001:000add60       ?state_case_width@?$output_processor@DV?$stream_output_adapter@D@__crt_stdio_output@@V?$standard_base@DV?$stream_output_adapter@D@__crt_stdio_output@@@2@@__crt_stdio_output@@AEAA_NXZ 00000001800aed60 f i libucrtd:output.obj
 0001:000addf0       ?state_case_width@?$output_processor@DV?$string_output_adapter@D@__crt_stdio_output@@V?$format_validation_base@DV?$string_output_adapter@D@__crt_stdio_output@@@2@@__crt_stdio_output@@AEAA_NXZ 00000001800aedf0 f i libucrtd:output.obj
 0001:000ade80       ?state_case_width@?$output_processor@DV?$string_output_adapter@D@__crt_stdio_output@@V?$positional_parameter_base@DV?$string_output_adapter@D@__crt_stdio_output@@@2@@__crt_stdio_output@@AEAA_NXZ 00000001800aee80 f i libucrtd:output.obj
 0001:000adf10       ?state_case_width@?$output_processor@DV?$string_output_adapter@D@__crt_stdio_output@@V?$standard_base@DV?$string_output_adapter@D@__crt_stdio_output@@@2@@__crt_stdio_output@@AEAA_NXZ 00000001800aef10 f i libucrtd:output.obj
 0001:000adfa0       ?state_case_width@?$output_processor@_WV?$stream_output_adapter@_W@__crt_stdio_output@@V?$format_validation_base@_WV?$stream_output_adapter@_W@__crt_stdio_output@@@2@@__crt_stdio_output@@AEAA_NXZ 00000001800aefa0 f i libucrtd:output.obj
 0001:000ae030       ?state_case_width@?$output_processor@_WV?$stream_output_adapter@_W@__crt_stdio_output@@V?$positional_parameter_base@_WV?$stream_output_adapter@_W@__crt_stdio_output@@@2@@__crt_stdio_output@@AEAA_NXZ 00000001800af030 f i libucrtd:output.obj
 0001:000ae0c0       ?state_case_width@?$output_processor@_WV?$stream_output_adapter@_W@__crt_stdio_output@@V?$standard_base@_WV?$stream_output_adapter@_W@__crt_stdio_output@@@2@@__crt_stdio_output@@AEAA_NXZ 00000001800af0c0 f i libucrtd:output.obj
 0001:000ae150       ?state_case_width@?$output_processor@_WV?$string_output_adapter@_W@__crt_stdio_output@@V?$format_validation_base@_WV?$string_output_adapter@_W@__crt_stdio_output@@@2@@__crt_stdio_output@@AEAA_NXZ 00000001800af150 f i libucrtd:output.obj
 0001:000ae1e0       ?state_case_width@?$output_processor@_WV?$string_output_adapter@_W@__crt_stdio_output@@V?$positional_parameter_base@_WV?$string_output_adapter@_W@__crt_stdio_output@@@2@@__crt_stdio_output@@AEAA_NXZ 00000001800af1e0 f i libucrtd:output.obj
 0001:000ae270       ?state_case_width@?$output_processor@_WV?$string_output_adapter@_W@__crt_stdio_output@@V?$standard_base@_WV?$string_output_adapter@_W@__crt_stdio_output@@@2@@__crt_stdio_output@@AEAA_NXZ 00000001800af270 f i libucrtd:output.obj
 0001:000ae300       ?state_count@?$format_validation_base@DV?$stream_output_adapter@D@__crt_stdio_output@@@__crt_stdio_output@@KAIXZ 00000001800af300 f i libucrtd:output.obj
 0001:000ae310       ?state_count@?$format_validation_base@DV?$string_output_adapter@D@__crt_stdio_output@@@__crt_stdio_output@@KAIXZ 00000001800af310 f i libucrtd:output.obj
 0001:000ae320       ?state_count@?$format_validation_base@_WV?$stream_output_adapter@_W@__crt_stdio_output@@@__crt_stdio_output@@KAIXZ 00000001800af320 f i libucrtd:output.obj
 0001:000ae330       ?state_count@?$format_validation_base@_WV?$string_output_adapter@_W@__crt_stdio_output@@@__crt_stdio_output@@KAIXZ 00000001800af330 f i libucrtd:output.obj
 0001:000ae340       ?state_count@?$standard_base@DV?$stream_output_adapter@D@__crt_stdio_output@@@__crt_stdio_output@@KAIXZ 00000001800af340 f i libucrtd:output.obj
 0001:000ae350       ?state_count@?$standard_base@DV?$string_output_adapter@D@__crt_stdio_output@@@__crt_stdio_output@@KAIXZ 00000001800af350 f i libucrtd:output.obj
 0001:000ae360       ?state_count@?$standard_base@_WV?$stream_output_adapter@_W@__crt_stdio_output@@@__crt_stdio_output@@KAIXZ 00000001800af360 f i libucrtd:output.obj
 0001:000ae370       ?state_count@?$standard_base@_WV?$string_output_adapter@_W@__crt_stdio_output@@@__crt_stdio_output@@KAIXZ 00000001800af370 f i libucrtd:output.obj
 0001:000ae380       ?state_transition_table@?$format_validation_base@DV?$stream_output_adapter@D@__crt_stdio_output@@@__crt_stdio_output@@KAAEBV?$spectre_mitigated_lookup_table@Ustate_transition_pair@__crt_stdio_output@@$0IA@@2@XZ 00000001800af380 f i libucrtd:output.obj
 0001:000ae390       ?state_transition_table@?$format_validation_base@DV?$string_output_adapter@D@__crt_stdio_output@@@__crt_stdio_output@@KAAEBV?$spectre_mitigated_lookup_table@Ustate_transition_pair@__crt_stdio_output@@$0IA@@2@XZ 00000001800af390 f i libucrtd:output.obj
 0001:000ae3a0       ?state_transition_table@?$format_validation_base@_WV?$stream_output_adapter@_W@__crt_stdio_output@@@__crt_stdio_output@@KAAEBV?$spectre_mitigated_lookup_table@Ustate_transition_pair@__crt_stdio_output@@$0IA@@2@XZ 00000001800af3a0 f i libucrtd:output.obj
 0001:000ae3b0       ?state_transition_table@?$format_validation_base@_WV?$string_output_adapter@_W@__crt_stdio_output@@@__crt_stdio_output@@KAAEBV?$spectre_mitigated_lookup_table@Ustate_transition_pair@__crt_stdio_output@@$0IA@@2@XZ 00000001800af3b0 f i libucrtd:output.obj
 0001:000ae3c0       ?state_transition_table@?$standard_base@DV?$stream_output_adapter@D@__crt_stdio_output@@@__crt_stdio_output@@KAAEBV?$spectre_mitigated_lookup_table@Ustate_transition_pair@__crt_stdio_output@@$0IA@@2@XZ 00000001800af3c0 f i libucrtd:output.obj
 0001:000ae3d0       ?state_transition_table@?$standard_base@DV?$string_output_adapter@D@__crt_stdio_output@@@__crt_stdio_output@@KAAEBV?$spectre_mitigated_lookup_table@Ustate_transition_pair@__crt_stdio_output@@$0IA@@2@XZ 00000001800af3d0 f i libucrtd:output.obj
 0001:000ae3e0       ?state_transition_table@?$standard_base@_WV?$stream_output_adapter@_W@__crt_stdio_output@@@__crt_stdio_output@@KAAEBV?$spectre_mitigated_lookup_table@Ustate_transition_pair@__crt_stdio_output@@$0IA@@2@XZ 00000001800af3e0 f i libucrtd:output.obj
 0001:000ae3f0       ?state_transition_table@?$standard_base@_WV?$string_output_adapter@_W@__crt_stdio_output@@@__crt_stdio_output@@KAAEBV?$spectre_mitigated_lookup_table@Ustate_transition_pair@__crt_stdio_output@@$0IA@@2@XZ 00000001800af3f0 f i libucrtd:output.obj
 0001:000ae400       ?tchar_string@?$common_data@D@__crt_stdio_output@@IEAAAEAPEADD@Z 00000001800af400 f i libucrtd:output.obj
 0001:000ae420       ?tchar_string@?$common_data@D@__crt_stdio_output@@IEAAAEAPEADXZ 00000001800af420 f i libucrtd:output.obj
 0001:000ae440       ?tchar_string@?$common_data@_W@__crt_stdio_output@@IEAAAEAPEA_WXZ 00000001800af440 f i libucrtd:output.obj
 0001:000ae460       ?tchar_string@?$common_data@_W@__crt_stdio_output@@IEAAAEAPEA_W_W@Z 00000001800af460 f i libucrtd:output.obj
 0001:000ae480       ?to_integer_size@__crt_stdio_output@@YA_KW4length_modifier@1@@Z 00000001800af480 f i libucrtd:output.obj
 0001:000ae530       ?type_case_X@?$output_processor@DV?$stream_output_adapter@D@__crt_stdio_output@@V?$format_validation_base@DV?$stream_output_adapter@D@__crt_stdio_output@@@2@@__crt_stdio_output@@AEAA_NXZ 00000001800af530 f i libucrtd:output.obj
 0001:000ae550       ?type_case_X@?$output_processor@DV?$stream_output_adapter@D@__crt_stdio_output@@V?$positional_parameter_base@DV?$stream_output_adapter@D@__crt_stdio_output@@@2@@__crt_stdio_output@@AEAA_NXZ 00000001800af550 f i libucrtd:output.obj
 0001:000ae570       ?type_case_X@?$output_processor@DV?$stream_output_adapter@D@__crt_stdio_output@@V?$standard_base@DV?$stream_output_adapter@D@__crt_stdio_output@@@2@@__crt_stdio_output@@AEAA_NXZ 00000001800af570 f i libucrtd:output.obj
 0001:000ae590       ?type_case_X@?$output_processor@DV?$string_output_adapter@D@__crt_stdio_output@@V?$format_validation_base@DV?$string_output_adapter@D@__crt_stdio_output@@@2@@__crt_stdio_output@@AEAA_NXZ 00000001800af590 f i libucrtd:output.obj
 0001:000ae5b0       ?type_case_X@?$output_processor@DV?$string_output_adapter@D@__crt_stdio_output@@V?$positional_parameter_base@DV?$string_output_adapter@D@__crt_stdio_output@@@2@@__crt_stdio_output@@AEAA_NXZ 00000001800af5b0 f i libucrtd:output.obj
 0001:000ae5d0       ?type_case_X@?$output_processor@DV?$string_output_adapter@D@__crt_stdio_output@@V?$standard_base@DV?$string_output_adapter@D@__crt_stdio_output@@@2@@__crt_stdio_output@@AEAA_NXZ 00000001800af5d0 f i libucrtd:output.obj
 0001:000ae5f0       ?type_case_X@?$output_processor@_WV?$stream_output_adapter@_W@__crt_stdio_output@@V?$format_validation_base@_WV?$stream_output_adapter@_W@__crt_stdio_output@@@2@@__crt_stdio_output@@AEAA_NXZ 00000001800af5f0 f i libucrtd:output.obj
 0001:000ae610       ?type_case_X@?$output_processor@_WV?$stream_output_adapter@_W@__crt_stdio_output@@V?$positional_parameter_base@_WV?$stream_output_adapter@_W@__crt_stdio_output@@@2@@__crt_stdio_output@@AEAA_NXZ 00000001800af610 f i libucrtd:output.obj
 0001:000ae630       ?type_case_X@?$output_processor@_WV?$stream_output_adapter@_W@__crt_stdio_output@@V?$standard_base@_WV?$stream_output_adapter@_W@__crt_stdio_output@@@2@@__crt_stdio_output@@AEAA_NXZ 00000001800af630 f i libucrtd:output.obj
 0001:000ae650       ?type_case_X@?$output_processor@_WV?$string_output_adapter@_W@__crt_stdio_output@@V?$format_validation_base@_WV?$string_output_adapter@_W@__crt_stdio_output@@@2@@__crt_stdio_output@@AEAA_NXZ 00000001800af650 f i libucrtd:output.obj
 0001:000ae670       ?type_case_X@?$output_processor@_WV?$string_output_adapter@_W@__crt_stdio_output@@V?$positional_parameter_base@_WV?$string_output_adapter@_W@__crt_stdio_output@@@2@@__crt_stdio_output@@AEAA_NXZ 00000001800af670 f i libucrtd:output.obj
 0001:000ae690       ?type_case_X@?$output_processor@_WV?$string_output_adapter@_W@__crt_stdio_output@@V?$standard_base@_WV?$string_output_adapter@_W@__crt_stdio_output@@@2@@__crt_stdio_output@@AEAA_NXZ 00000001800af690 f i libucrtd:output.obj
 0001:000ae6b0       ?type_case_Z@?$output_processor@DV?$stream_output_adapter@D@__crt_stdio_output@@V?$format_validation_base@DV?$stream_output_adapter@D@__crt_stdio_output@@@2@@__crt_stdio_output@@AEAA_NXZ 00000001800af6b0 f i libucrtd:output.obj
 0001:000ae7d0       ?type_case_Z@?$output_processor@DV?$stream_output_adapter@D@__crt_stdio_output@@V?$positional_parameter_base@DV?$stream_output_adapter@D@__crt_stdio_output@@@2@@__crt_stdio_output@@AEAA_NXZ 00000001800af7d0 f i libucrtd:output.obj
 0001:000ae8f0       ?type_case_Z@?$output_processor@DV?$stream_output_adapter@D@__crt_stdio_output@@V?$standard_base@DV?$stream_output_adapter@D@__crt_stdio_output@@@2@@__crt_stdio_output@@AEAA_NXZ 00000001800af8f0 f i libucrtd:output.obj
 0001:000aea10       ?type_case_Z@?$output_processor@DV?$string_output_adapter@D@__crt_stdio_output@@V?$format_validation_base@DV?$string_output_adapter@D@__crt_stdio_output@@@2@@__crt_stdio_output@@AEAA_NXZ 00000001800afa10 f i libucrtd:output.obj
 0001:000aeb30       ?type_case_Z@?$output_processor@DV?$string_output_adapter@D@__crt_stdio_output@@V?$positional_parameter_base@DV?$string_output_adapter@D@__crt_stdio_output@@@2@@__crt_stdio_output@@AEAA_NXZ 00000001800afb30 f i libucrtd:output.obj
 0001:000aec50       ?type_case_Z@?$output_processor@DV?$string_output_adapter@D@__crt_stdio_output@@V?$standard_base@DV?$string_output_adapter@D@__crt_stdio_output@@@2@@__crt_stdio_output@@AEAA_NXZ 00000001800afc50 f i libucrtd:output.obj
 0001:000aed70       ?type_case_Z@?$output_processor@_WV?$stream_output_adapter@_W@__crt_stdio_output@@V?$format_validation_base@_WV?$stream_output_adapter@_W@__crt_stdio_output@@@2@@__crt_stdio_output@@AEAA_NXZ 00000001800afd70 f i libucrtd:output.obj
 0001:000aee90       ?type_case_Z@?$output_processor@_WV?$stream_output_adapter@_W@__crt_stdio_output@@V?$positional_parameter_base@_WV?$stream_output_adapter@_W@__crt_stdio_output@@@2@@__crt_stdio_output@@AEAA_NXZ 00000001800afe90 f i libucrtd:output.obj
 0001:000aefb0       ?type_case_Z@?$output_processor@_WV?$stream_output_adapter@_W@__crt_stdio_output@@V?$standard_base@_WV?$stream_output_adapter@_W@__crt_stdio_output@@@2@@__crt_stdio_output@@AEAA_NXZ 00000001800affb0 f i libucrtd:output.obj
 0001:000af0d0       ?type_case_Z@?$output_processor@_WV?$string_output_adapter@_W@__crt_stdio_output@@V?$format_validation_base@_WV?$string_output_adapter@_W@__crt_stdio_output@@@2@@__crt_stdio_output@@AEAA_NXZ 00000001800b00d0 f i libucrtd:output.obj
 0001:000af1f0       ?type_case_Z@?$output_processor@_WV?$string_output_adapter@_W@__crt_stdio_output@@V?$positional_parameter_base@_WV?$string_output_adapter@_W@__crt_stdio_output@@@2@@__crt_stdio_output@@AEAA_NXZ 00000001800b01f0 f i libucrtd:output.obj
 0001:000af310       ?type_case_Z@?$output_processor@_WV?$string_output_adapter@_W@__crt_stdio_output@@V?$standard_base@_WV?$string_output_adapter@_W@__crt_stdio_output@@@2@@__crt_stdio_output@@AEAA_NXZ 00000001800b0310 f i libucrtd:output.obj
 0001:000af430       ?type_case_a@?$output_processor@DV?$stream_output_adapter@D@__crt_stdio_output@@V?$format_validation_base@DV?$stream_output_adapter@D@__crt_stdio_output@@@2@@__crt_stdio_output@@AEAA_NXZ 00000001800b0430 f i libucrtd:output.obj
 0001:000af890       ?type_case_a@?$output_processor@DV?$stream_output_adapter@D@__crt_stdio_output@@V?$positional_parameter_base@DV?$stream_output_adapter@D@__crt_stdio_output@@@2@@__crt_stdio_output@@AEAA_NXZ 00000001800b0890 f i libucrtd:output.obj
 0001:000afcf0       ?type_case_a@?$output_processor@DV?$stream_output_adapter@D@__crt_stdio_output@@V?$standard_base@DV?$stream_output_adapter@D@__crt_stdio_output@@@2@@__crt_stdio_output@@AEAA_NXZ 00000001800b0cf0 f i libucrtd:output.obj
 0001:000b0150       ?type_case_a@?$output_processor@DV?$string_output_adapter@D@__crt_stdio_output@@V?$format_validation_base@DV?$string_output_adapter@D@__crt_stdio_output@@@2@@__crt_stdio_output@@AEAA_NXZ 00000001800b1150 f i libucrtd:output.obj
 0001:000b05b0       ?type_case_a@?$output_processor@DV?$string_output_adapter@D@__crt_stdio_output@@V?$positional_parameter_base@DV?$string_output_adapter@D@__crt_stdio_output@@@2@@__crt_stdio_output@@AEAA_NXZ 00000001800b15b0 f i libucrtd:output.obj
 0001:000b0a10       ?type_case_a@?$output_processor@DV?$string_output_adapter@D@__crt_stdio_output@@V?$standard_base@DV?$string_output_adapter@D@__crt_stdio_output@@@2@@__crt_stdio_output@@AEAA_NXZ 00000001800b1a10 f i libucrtd:output.obj
 0001:000b0e70       ?type_case_a@?$output_processor@_WV?$stream_output_adapter@_W@__crt_stdio_output@@V?$format_validation_base@_WV?$stream_output_adapter@_W@__crt_stdio_output@@@2@@__crt_stdio_output@@AEAA_NXZ 00000001800b1e70 f i libucrtd:output.obj
 0001:000b12e0       ?type_case_a@?$output_processor@_WV?$stream_output_adapter@_W@__crt_stdio_output@@V?$positional_parameter_base@_WV?$stream_output_adapter@_W@__crt_stdio_output@@@2@@__crt_stdio_output@@AEAA_NXZ 00000001800b22e0 f i libucrtd:output.obj
 0001:000b1750       ?type_case_a@?$output_processor@_WV?$stream_output_adapter@_W@__crt_stdio_output@@V?$standard_base@_WV?$stream_output_adapter@_W@__crt_stdio_output@@@2@@__crt_stdio_output@@AEAA_NXZ 00000001800b2750 f i libucrtd:output.obj
 0001:000b1bc0       ?type_case_a@?$output_processor@_WV?$string_output_adapter@_W@__crt_stdio_output@@V?$format_validation_base@_WV?$string_output_adapter@_W@__crt_stdio_output@@@2@@__crt_stdio_output@@AEAA_NXZ 00000001800b2bc0 f i libucrtd:output.obj
 0001:000b2030       ?type_case_a@?$output_processor@_WV?$string_output_adapter@_W@__crt_stdio_output@@V?$positional_parameter_base@_WV?$string_output_adapter@_W@__crt_stdio_output@@@2@@__crt_stdio_output@@AEAA_NXZ 00000001800b3030 f i libucrtd:output.obj
 0001:000b24a0       ?type_case_a@?$output_processor@_WV?$string_output_adapter@_W@__crt_stdio_output@@V?$standard_base@_WV?$string_output_adapter@_W@__crt_stdio_output@@@2@@__crt_stdio_output@@AEAA_NXZ 00000001800b34a0 f i libucrtd:output.obj
 0001:000b2910       ?type_case_c@?$output_processor@DV?$stream_output_adapter@D@__crt_stdio_output@@V?$format_validation_base@DV?$stream_output_adapter@D@__crt_stdio_output@@@2@@__crt_stdio_output@@AEAA_NXZ 00000001800b3910 f i libucrtd:output.obj
 0001:000b2930       ?type_case_c@?$output_processor@DV?$stream_output_adapter@D@__crt_stdio_output@@V?$positional_parameter_base@DV?$stream_output_adapter@D@__crt_stdio_output@@@2@@__crt_stdio_output@@AEAA_NXZ 00000001800b3930 f i libucrtd:output.obj
 0001:000b2950       ?type_case_c@?$output_processor@DV?$stream_output_adapter@D@__crt_stdio_output@@V?$standard_base@DV?$stream_output_adapter@D@__crt_stdio_output@@@2@@__crt_stdio_output@@AEAA_NXZ 00000001800b3950 f i libucrtd:output.obj
 0001:000b2970       ?type_case_c@?$output_processor@DV?$string_output_adapter@D@__crt_stdio_output@@V?$format_validation_base@DV?$string_output_adapter@D@__crt_stdio_output@@@2@@__crt_stdio_output@@AEAA_NXZ 00000001800b3970 f i libucrtd:output.obj
 0001:000b2990       ?type_case_c@?$output_processor@DV?$string_output_adapter@D@__crt_stdio_output@@V?$positional_parameter_base@DV?$string_output_adapter@D@__crt_stdio_output@@@2@@__crt_stdio_output@@AEAA_NXZ 00000001800b3990 f i libucrtd:output.obj
 0001:000b29b0       ?type_case_c@?$output_processor@DV?$string_output_adapter@D@__crt_stdio_output@@V?$standard_base@DV?$string_output_adapter@D@__crt_stdio_output@@@2@@__crt_stdio_output@@AEAA_NXZ 00000001800b39b0 f i libucrtd:output.obj
 0001:000b29d0       ?type_case_c@?$output_processor@_WV?$stream_output_adapter@_W@__crt_stdio_output@@V?$format_validation_base@_WV?$stream_output_adapter@_W@__crt_stdio_output@@@2@@__crt_stdio_output@@AEAA_NXZ 00000001800b39d0 f i libucrtd:output.obj
 0001:000b29f0       ?type_case_c@?$output_processor@_WV?$stream_output_adapter@_W@__crt_stdio_output@@V?$positional_parameter_base@_WV?$stream_output_adapter@_W@__crt_stdio_output@@@2@@__crt_stdio_output@@AEAA_NXZ 00000001800b39f0 f i libucrtd:output.obj
 0001:000b2a10       ?type_case_c@?$output_processor@_WV?$stream_output_adapter@_W@__crt_stdio_output@@V?$standard_base@_WV?$stream_output_adapter@_W@__crt_stdio_output@@@2@@__crt_stdio_output@@AEAA_NXZ 00000001800b3a10 f i libucrtd:output.obj
 0001:000b2a30       ?type_case_c@?$output_processor@_WV?$string_output_adapter@_W@__crt_stdio_output@@V?$format_validation_base@_WV?$string_output_adapter@_W@__crt_stdio_output@@@2@@__crt_stdio_output@@AEAA_NXZ 00000001800b3a30 f i libucrtd:output.obj
 0001:000b2a50       ?type_case_c@?$output_processor@_WV?$string_output_adapter@_W@__crt_stdio_output@@V?$positional_parameter_base@_WV?$string_output_adapter@_W@__crt_stdio_output@@@2@@__crt_stdio_output@@AEAA_NXZ 00000001800b3a50 f i libucrtd:output.obj
 0001:000b2a70       ?type_case_c@?$output_processor@_WV?$string_output_adapter@_W@__crt_stdio_output@@V?$standard_base@_WV?$string_output_adapter@_W@__crt_stdio_output@@@2@@__crt_stdio_output@@AEAA_NXZ 00000001800b3a70 f i libucrtd:output.obj
 0001:000b2a90       ?type_case_c_tchar@?$output_processor@DV?$stream_output_adapter@D@__crt_stdio_output@@V?$format_validation_base@DV?$stream_output_adapter@D@__crt_stdio_output@@@2@@__crt_stdio_output@@AEAA_ND@Z 00000001800b3a90 f i libucrtd:output.obj
 0001:000b2c00       ?type_case_c_tchar@?$output_processor@DV?$stream_output_adapter@D@__crt_stdio_output@@V?$positional_parameter_base@DV?$stream_output_adapter@D@__crt_stdio_output@@@2@@__crt_stdio_output@@AEAA_ND@Z 00000001800b3c00 f i libucrtd:output.obj
 0001:000b2d70       ?type_case_c_tchar@?$output_processor@DV?$stream_output_adapter@D@__crt_stdio_output@@V?$standard_base@DV?$stream_output_adapter@D@__crt_stdio_output@@@2@@__crt_stdio_output@@AEAA_ND@Z 00000001800b3d70 f i libucrtd:output.obj
 0001:000b2ee0       ?type_case_c_tchar@?$output_processor@DV?$string_output_adapter@D@__crt_stdio_output@@V?$format_validation_base@DV?$string_output_adapter@D@__crt_stdio_output@@@2@@__crt_stdio_output@@AEAA_ND@Z 00000001800b3ee0 f i libucrtd:output.obj
 0001:000b3050       ?type_case_c_tchar@?$output_processor@DV?$string_output_adapter@D@__crt_stdio_output@@V?$positional_parameter_base@DV?$string_output_adapter@D@__crt_stdio_output@@@2@@__crt_stdio_output@@AEAA_ND@Z 00000001800b4050 f i libucrtd:output.obj
 0001:000b31c0       ?type_case_c_tchar@?$output_processor@DV?$string_output_adapter@D@__crt_stdio_output@@V?$standard_base@DV?$string_output_adapter@D@__crt_stdio_output@@@2@@__crt_stdio_output@@AEAA_ND@Z 00000001800b41c0 f i libucrtd:output.obj
 0001:000b3330       ?type_case_c_tchar@?$output_processor@_WV?$stream_output_adapter@_W@__crt_stdio_output@@V?$format_validation_base@_WV?$stream_output_adapter@_W@__crt_stdio_output@@@2@@__crt_stdio_output@@AEAA_N_W@Z 00000001800b4330 f i libucrtd:output.obj
 0001:000b3490       ?type_case_c_tchar@?$output_processor@_WV?$stream_output_adapter@_W@__crt_stdio_output@@V?$positional_parameter_base@_WV?$stream_output_adapter@_W@__crt_stdio_output@@@2@@__crt_stdio_output@@AEAA_N_W@Z 00000001800b4490 f i libucrtd:output.obj
 0001:000b35f0       ?type_case_c_tchar@?$output_processor@_WV?$stream_output_adapter@_W@__crt_stdio_output@@V?$standard_base@_WV?$stream_output_adapter@_W@__crt_stdio_output@@@2@@__crt_stdio_output@@AEAA_N_W@Z 00000001800b45f0 f i libucrtd:output.obj
 0001:000b3750       ?type_case_c_tchar@?$output_processor@_WV?$string_output_adapter@_W@__crt_stdio_output@@V?$format_validation_base@_WV?$string_output_adapter@_W@__crt_stdio_output@@@2@@__crt_stdio_output@@AEAA_N_W@Z 00000001800b4750 f i libucrtd:output.obj
 0001:000b38b0       ?type_case_c_tchar@?$output_processor@_WV?$string_output_adapter@_W@__crt_stdio_output@@V?$positional_parameter_base@_WV?$string_output_adapter@_W@__crt_stdio_output@@@2@@__crt_stdio_output@@AEAA_N_W@Z 00000001800b48b0 f i libucrtd:output.obj
 0001:000b3a10       ?type_case_c_tchar@?$output_processor@_WV?$string_output_adapter@_W@__crt_stdio_output@@V?$standard_base@_WV?$string_output_adapter@_W@__crt_stdio_output@@@2@@__crt_stdio_output@@AEAA_N_W@Z 00000001800b4a10 f i libucrtd:output.obj
 0001:000b3b70       ?type_case_d@?$output_processor@DV?$stream_output_adapter@D@__crt_stdio_output@@V?$format_validation_base@DV?$stream_output_adapter@D@__crt_stdio_output@@@2@@__crt_stdio_output@@AEAA_NXZ 00000001800b4b70 f i libucrtd:output.obj
 0001:000b3ba0       ?type_case_d@?$output_processor@DV?$stream_output_adapter@D@__crt_stdio_output@@V?$positional_parameter_base@DV?$stream_output_adapter@D@__crt_stdio_output@@@2@@__crt_stdio_output@@AEAA_NXZ 00000001800b4ba0 f i libucrtd:output.obj
 0001:000b3bd0       ?type_case_d@?$output_processor@DV?$stream_output_adapter@D@__crt_stdio_output@@V?$standard_base@DV?$stream_output_adapter@D@__crt_stdio_output@@@2@@__crt_stdio_output@@AEAA_NXZ 00000001800b4bd0 f i libucrtd:output.obj
 0001:000b3c00       ?type_case_d@?$output_processor@DV?$string_output_adapter@D@__crt_stdio_output@@V?$format_validation_base@DV?$string_output_adapter@D@__crt_stdio_output@@@2@@__crt_stdio_output@@AEAA_NXZ 00000001800b4c00 f i libucrtd:output.obj
 0001:000b3c30       ?type_case_d@?$output_processor@DV?$string_output_adapter@D@__crt_stdio_output@@V?$positional_parameter_base@DV?$string_output_adapter@D@__crt_stdio_output@@@2@@__crt_stdio_output@@AEAA_NXZ 00000001800b4c30 f i libucrtd:output.obj
 0001:000b3c60       ?type_case_d@?$output_processor@DV?$string_output_adapter@D@__crt_stdio_output@@V?$standard_base@DV?$string_output_adapter@D@__crt_stdio_output@@@2@@__crt_stdio_output@@AEAA_NXZ 00000001800b4c60 f i libucrtd:output.obj
 0001:000b3c90       ?type_case_d@?$output_processor@_WV?$stream_output_adapter@_W@__crt_stdio_output@@V?$format_validation_base@_WV?$stream_output_adapter@_W@__crt_stdio_output@@@2@@__crt_stdio_output@@AEAA_NXZ 00000001800b4c90 f i libucrtd:output.obj
 0001:000b3cc0       ?type_case_d@?$output_processor@_WV?$stream_output_adapter@_W@__crt_stdio_output@@V?$positional_parameter_base@_WV?$stream_output_adapter@_W@__crt_stdio_output@@@2@@__crt_stdio_output@@AEAA_NXZ 00000001800b4cc0 f i libucrtd:output.obj
 0001:000b3cf0       ?type_case_d@?$output_processor@_WV?$stream_output_adapter@_W@__crt_stdio_output@@V?$standard_base@_WV?$stream_output_adapter@_W@__crt_stdio_output@@@2@@__crt_stdio_output@@AEAA_NXZ 00000001800b4cf0 f i libucrtd:output.obj
 0001:000b3d20       ?type_case_d@?$output_processor@_WV?$string_output_adapter@_W@__crt_stdio_output@@V?$format_validation_base@_WV?$string_output_adapter@_W@__crt_stdio_output@@@2@@__crt_stdio_output@@AEAA_NXZ 00000001800b4d20 f i libucrtd:output.obj
 0001:000b3d50       ?type_case_d@?$output_processor@_WV?$string_output_adapter@_W@__crt_stdio_output@@V?$positional_parameter_base@_WV?$string_output_adapter@_W@__crt_stdio_output@@@2@@__crt_stdio_output@@AEAA_NXZ 00000001800b4d50 f i libucrtd:output.obj
 0001:000b3d80       ?type_case_d@?$output_processor@_WV?$string_output_adapter@_W@__crt_stdio_output@@V?$standard_base@_WV?$string_output_adapter@_W@__crt_stdio_output@@@2@@__crt_stdio_output@@AEAA_NXZ 00000001800b4d80 f i libucrtd:output.obj
 0001:000b3db0       ?type_case_n@?$output_processor@DV?$stream_output_adapter@D@__crt_stdio_output@@V?$format_validation_base@DV?$stream_output_adapter@D@__crt_stdio_output@@@2@@__crt_stdio_output@@AEAA_NXZ 00000001800b4db0 f i libucrtd:output.obj
 0001:000b4040       ?type_case_n@?$output_processor@DV?$stream_output_adapter@D@__crt_stdio_output@@V?$positional_parameter_base@DV?$stream_output_adapter@D@__crt_stdio_output@@@2@@__crt_stdio_output@@AEAA_NXZ 00000001800b5040 f i libucrtd:output.obj
 0001:000b42d0       ?type_case_n@?$output_processor@DV?$stream_output_adapter@D@__crt_stdio_output@@V?$standard_base@DV?$stream_output_adapter@D@__crt_stdio_output@@@2@@__crt_stdio_output@@AEAA_NXZ 00000001800b52d0 f i libucrtd:output.obj
 0001:000b4560       ?type_case_n@?$output_processor@DV?$string_output_adapter@D@__crt_stdio_output@@V?$format_validation_base@DV?$string_output_adapter@D@__crt_stdio_output@@@2@@__crt_stdio_output@@AEAA_NXZ 00000001800b5560 f i libucrtd:output.obj
 0001:000b47f0       ?type_case_n@?$output_processor@DV?$string_output_adapter@D@__crt_stdio_output@@V?$positional_parameter_base@DV?$string_output_adapter@D@__crt_stdio_output@@@2@@__crt_stdio_output@@AEAA_NXZ 00000001800b57f0 f i libucrtd:output.obj
 0001:000b4a80       ?type_case_n@?$output_processor@DV?$string_output_adapter@D@__crt_stdio_output@@V?$standard_base@DV?$string_output_adapter@D@__crt_stdio_output@@@2@@__crt_stdio_output@@AEAA_NXZ 00000001800b5a80 f i libucrtd:output.obj
 0001:000b4d10       ?type_case_n@?$output_processor@_WV?$stream_output_adapter@_W@__crt_stdio_output@@V?$format_validation_base@_WV?$stream_output_adapter@_W@__crt_stdio_output@@@2@@__crt_stdio_output@@AEAA_NXZ 00000001800b5d10 f i libucrtd:output.obj
 0001:000b4fa0       ?type_case_n@?$output_processor@_WV?$stream_output_adapter@_W@__crt_stdio_output@@V?$positional_parameter_base@_WV?$stream_output_adapter@_W@__crt_stdio_output@@@2@@__crt_stdio_output@@AEAA_NXZ 00000001800b5fa0 f i libucrtd:output.obj
 0001:000b5230       ?type_case_n@?$output_processor@_WV?$stream_output_adapter@_W@__crt_stdio_output@@V?$standard_base@_WV?$stream_output_adapter@_W@__crt_stdio_output@@@2@@__crt_stdio_output@@AEAA_NXZ 00000001800b6230 f i libucrtd:output.obj
 0001:000b54c0       ?type_case_n@?$output_processor@_WV?$string_output_adapter@_W@__crt_stdio_output@@V?$format_validation_base@_WV?$string_output_adapter@_W@__crt_stdio_output@@@2@@__crt_stdio_output@@AEAA_NXZ 00000001800b64c0 f i libucrtd:output.obj
 0001:000b5750       ?type_case_n@?$output_processor@_WV?$string_output_adapter@_W@__crt_stdio_output@@V?$positional_parameter_base@_WV?$string_output_adapter@_W@__crt_stdio_output@@@2@@__crt_stdio_output@@AEAA_NXZ 00000001800b6750 f i libucrtd:output.obj
 0001:000b59e0       ?type_case_n@?$output_processor@_WV?$string_output_adapter@_W@__crt_stdio_output@@V?$standard_base@_WV?$string_output_adapter@_W@__crt_stdio_output@@@2@@__crt_stdio_output@@AEAA_NXZ 00000001800b69e0 f i libucrtd:output.obj
 0001:000b5c70       ?type_case_o@?$output_processor@DV?$stream_output_adapter@D@__crt_stdio_output@@V?$format_validation_base@DV?$stream_output_adapter@D@__crt_stdio_output@@@2@@__crt_stdio_output@@AEAA_NXZ 00000001800b6c70 f i libucrtd:output.obj
 0001:000b5cb0       ?type_case_o@?$output_processor@DV?$stream_output_adapter@D@__crt_stdio_output@@V?$positional_parameter_base@DV?$stream_output_adapter@D@__crt_stdio_output@@@2@@__crt_stdio_output@@AEAA_NXZ 00000001800b6cb0 f i libucrtd:output.obj
 0001:000b5cf0       ?type_case_o@?$output_processor@DV?$stream_output_adapter@D@__crt_stdio_output@@V?$standard_base@DV?$stream_output_adapter@D@__crt_stdio_output@@@2@@__crt_stdio_output@@AEAA_NXZ 00000001800b6cf0 f i libucrtd:output.obj
 0001:000b5d30       ?type_case_o@?$output_processor@DV?$string_output_adapter@D@__crt_stdio_output@@V?$format_validation_base@DV?$string_output_adapter@D@__crt_stdio_output@@@2@@__crt_stdio_output@@AEAA_NXZ 00000001800b6d30 f i libucrtd:output.obj
 0001:000b5d70       ?type_case_o@?$output_processor@DV?$string_output_adapter@D@__crt_stdio_output@@V?$positional_parameter_base@DV?$string_output_adapter@D@__crt_stdio_output@@@2@@__crt_stdio_output@@AEAA_NXZ 00000001800b6d70 f i libucrtd:output.obj
 0001:000b5db0       ?type_case_o@?$output_processor@DV?$string_output_adapter@D@__crt_stdio_output@@V?$standard_base@DV?$string_output_adapter@D@__crt_stdio_output@@@2@@__crt_stdio_output@@AEAA_NXZ 00000001800b6db0 f i libucrtd:output.obj
 0001:000b5df0       ?type_case_o@?$output_processor@_WV?$stream_output_adapter@_W@__crt_stdio_output@@V?$format_validation_base@_WV?$stream_output_adapter@_W@__crt_stdio_output@@@2@@__crt_stdio_output@@AEAA_NXZ 00000001800b6df0 f i libucrtd:output.obj
 0001:000b5e30       ?type_case_o@?$output_processor@_WV?$stream_output_adapter@_W@__crt_stdio_output@@V?$positional_parameter_base@_WV?$stream_output_adapter@_W@__crt_stdio_output@@@2@@__crt_stdio_output@@AEAA_NXZ 00000001800b6e30 f i libucrtd:output.obj
 0001:000b5e70       ?type_case_o@?$output_processor@_WV?$stream_output_adapter@_W@__crt_stdio_output@@V?$standard_base@_WV?$stream_output_adapter@_W@__crt_stdio_output@@@2@@__crt_stdio_output@@AEAA_NXZ 00000001800b6e70 f i libucrtd:output.obj
 0001:000b5eb0       ?type_case_o@?$output_processor@_WV?$string_output_adapter@_W@__crt_stdio_output@@V?$format_validation_base@_WV?$string_output_adapter@_W@__crt_stdio_output@@@2@@__crt_stdio_output@@AEAA_NXZ 00000001800b6eb0 f i libucrtd:output.obj
 0001:000b5ef0       ?type_case_o@?$output_processor@_WV?$string_output_adapter@_W@__crt_stdio_output@@V?$positional_parameter_base@_WV?$string_output_adapter@_W@__crt_stdio_output@@@2@@__crt_stdio_output@@AEAA_NXZ 00000001800b6ef0 f i libucrtd:output.obj
 0001:000b5f30       ?type_case_o@?$output_processor@_WV?$string_output_adapter@_W@__crt_stdio_output@@V?$standard_base@_WV?$string_output_adapter@_W@__crt_stdio_output@@@2@@__crt_stdio_output@@AEAA_NXZ 00000001800b6f30 f i libucrtd:output.obj
 0001:000b5f70       ?type_case_p@?$output_processor@DV?$stream_output_adapter@D@__crt_stdio_output@@V?$format_validation_base@DV?$stream_output_adapter@D@__crt_stdio_output@@@2@@__crt_stdio_output@@AEAA_NXZ 00000001800b6f70 f i libucrtd:output.obj
 0001:000b5fb0       ?type_case_p@?$output_processor@DV?$stream_output_adapter@D@__crt_stdio_output@@V?$positional_parameter_base@DV?$stream_output_adapter@D@__crt_stdio_output@@@2@@__crt_stdio_output@@AEAA_NXZ 00000001800b6fb0 f i libucrtd:output.obj
 0001:000b5ff0       ?type_case_p@?$output_processor@DV?$stream_output_adapter@D@__crt_stdio_output@@V?$standard_base@DV?$stream_output_adapter@D@__crt_stdio_output@@@2@@__crt_stdio_output@@AEAA_NXZ 00000001800b6ff0 f i libucrtd:output.obj
 0001:000b6030       ?type_case_p@?$output_processor@DV?$string_output_adapter@D@__crt_stdio_output@@V?$format_validation_base@DV?$string_output_adapter@D@__crt_stdio_output@@@2@@__crt_stdio_output@@AEAA_NXZ 00000001800b7030 f i libucrtd:output.obj
 0001:000b6070       ?type_case_p@?$output_processor@DV?$string_output_adapter@D@__crt_stdio_output@@V?$positional_parameter_base@DV?$string_output_adapter@D@__crt_stdio_output@@@2@@__crt_stdio_output@@AEAA_NXZ 00000001800b7070 f i libucrtd:output.obj
 0001:000b60b0       ?type_case_p@?$output_processor@DV?$string_output_adapter@D@__crt_stdio_output@@V?$standard_base@DV?$string_output_adapter@D@__crt_stdio_output@@@2@@__crt_stdio_output@@AEAA_NXZ 00000001800b70b0 f i libucrtd:output.obj
 0001:000b60f0       ?type_case_p@?$output_processor@_WV?$stream_output_adapter@_W@__crt_stdio_output@@V?$format_validation_base@_WV?$stream_output_adapter@_W@__crt_stdio_output@@@2@@__crt_stdio_output@@AEAA_NXZ 00000001800b70f0 f i libucrtd:output.obj
 0001:000b6130       ?type_case_p@?$output_processor@_WV?$stream_output_adapter@_W@__crt_stdio_output@@V?$positional_parameter_base@_WV?$stream_output_adapter@_W@__crt_stdio_output@@@2@@__crt_stdio_output@@AEAA_NXZ 00000001800b7130 f i libucrtd:output.obj
 0001:000b6170       ?type_case_p@?$output_processor@_WV?$stream_output_adapter@_W@__crt_stdio_output@@V?$standard_base@_WV?$stream_output_adapter@_W@__crt_stdio_output@@@2@@__crt_stdio_output@@AEAA_NXZ 00000001800b7170 f i libucrtd:output.obj
 0001:000b61b0       ?type_case_p@?$output_processor@_WV?$string_output_adapter@_W@__crt_stdio_output@@V?$format_validation_base@_WV?$string_output_adapter@_W@__crt_stdio_output@@@2@@__crt_stdio_output@@AEAA_NXZ 00000001800b71b0 f i libucrtd:output.obj
 0001:000b61f0       ?type_case_p@?$output_processor@_WV?$string_output_adapter@_W@__crt_stdio_output@@V?$positional_parameter_base@_WV?$string_output_adapter@_W@__crt_stdio_output@@@2@@__crt_stdio_output@@AEAA_NXZ 00000001800b71f0 f i libucrtd:output.obj
 0001:000b6230       ?type_case_p@?$output_processor@_WV?$string_output_adapter@_W@__crt_stdio_output@@V?$standard_base@_WV?$string_output_adapter@_W@__crt_stdio_output@@@2@@__crt_stdio_output@@AEAA_NXZ 00000001800b7230 f i libucrtd:output.obj
 0001:000b6270       ?type_case_s@?$output_processor@DV?$stream_output_adapter@D@__crt_stdio_output@@V?$format_validation_base@DV?$stream_output_adapter@D@__crt_stdio_output@@@2@@__crt_stdio_output@@AEAA_NXZ 00000001800b7270 f i libucrtd:output.obj
 0001:000b6390       ?type_case_s@?$output_processor@DV?$stream_output_adapter@D@__crt_stdio_output@@V?$positional_parameter_base@DV?$stream_output_adapter@D@__crt_stdio_output@@@2@@__crt_stdio_output@@AEAA_NXZ 00000001800b7390 f i libucrtd:output.obj
 0001:000b64b0       ?type_case_s@?$output_processor@DV?$stream_output_adapter@D@__crt_stdio_output@@V?$standard_base@DV?$stream_output_adapter@D@__crt_stdio_output@@@2@@__crt_stdio_output@@AEAA_NXZ 00000001800b74b0 f i libucrtd:output.obj
 0001:000b65d0       ?type_case_s@?$output_processor@DV?$string_output_adapter@D@__crt_stdio_output@@V?$format_validation_base@DV?$string_output_adapter@D@__crt_stdio_output@@@2@@__crt_stdio_output@@AEAA_NXZ 00000001800b75d0 f i libucrtd:output.obj
 0001:000b66f0       ?type_case_s@?$output_processor@DV?$string_output_adapter@D@__crt_stdio_output@@V?$positional_parameter_base@DV?$string_output_adapter@D@__crt_stdio_output@@@2@@__crt_stdio_output@@AEAA_NXZ 00000001800b76f0 f i libucrtd:output.obj
 0001:000b6810       ?type_case_s@?$output_processor@DV?$string_output_adapter@D@__crt_stdio_output@@V?$standard_base@DV?$string_output_adapter@D@__crt_stdio_output@@@2@@__crt_stdio_output@@AEAA_NXZ 00000001800b7810 f i libucrtd:output.obj
 0001:000b6930       ?type_case_s@?$output_processor@_WV?$stream_output_adapter@_W@__crt_stdio_output@@V?$format_validation_base@_WV?$stream_output_adapter@_W@__crt_stdio_output@@@2@@__crt_stdio_output@@AEAA_NXZ 00000001800b7930 f i libucrtd:output.obj
 0001:000b6a50       ?type_case_s@?$output_processor@_WV?$stream_output_adapter@_W@__crt_stdio_output@@V?$positional_parameter_base@_WV?$stream_output_adapter@_W@__crt_stdio_output@@@2@@__crt_stdio_output@@AEAA_NXZ 00000001800b7a50 f i libucrtd:output.obj
 0001:000b6b70       ?type_case_s@?$output_processor@_WV?$stream_output_adapter@_W@__crt_stdio_output@@V?$standard_base@_WV?$stream_output_adapter@_W@__crt_stdio_output@@@2@@__crt_stdio_output@@AEAA_NXZ 00000001800b7b70 f i libucrtd:output.obj
 0001:000b6c90       ?type_case_s@?$output_processor@_WV?$string_output_adapter@_W@__crt_stdio_output@@V?$format_validation_base@_WV?$string_output_adapter@_W@__crt_stdio_output@@@2@@__crt_stdio_output@@AEAA_NXZ 00000001800b7c90 f i libucrtd:output.obj
 0001:000b6db0       ?type_case_s@?$output_processor@_WV?$string_output_adapter@_W@__crt_stdio_output@@V?$positional_parameter_base@_WV?$string_output_adapter@_W@__crt_stdio_output@@@2@@__crt_stdio_output@@AEAA_NXZ 00000001800b7db0 f i libucrtd:output.obj
 0001:000b6ed0       ?type_case_s@?$output_processor@_WV?$string_output_adapter@_W@__crt_stdio_output@@V?$standard_base@_WV?$string_output_adapter@_W@__crt_stdio_output@@@2@@__crt_stdio_output@@AEAA_NXZ 00000001800b7ed0 f i libucrtd:output.obj
 0001:000b6ff0       ?type_case_s_compute_narrow_string_length@?$output_processor@DV?$stream_output_adapter@D@__crt_stdio_output@@V?$format_validation_base@DV?$stream_output_adapter@D@__crt_stdio_output@@@2@@__crt_stdio_output@@AEAAHHD@Z 00000001800b7ff0 f i libucrtd:output.obj
 0001:000b7020       ?type_case_s_compute_narrow_string_length@?$output_processor@DV?$stream_output_adapter@D@__crt_stdio_output@@V?$positional_parameter_base@DV?$stream_output_adapter@D@__crt_stdio_output@@@2@@__crt_stdio_output@@AEAAHHD@Z 00000001800b8020 f i libucrtd:output.obj
 0001:000b7050       ?type_case_s_compute_narrow_string_length@?$output_processor@DV?$stream_output_adapter@D@__crt_stdio_output@@V?$standard_base@DV?$stream_output_adapter@D@__crt_stdio_output@@@2@@__crt_stdio_output@@AEAAHHD@Z 00000001800b8050 f i libucrtd:output.obj
 0001:000b7080       ?type_case_s_compute_narrow_string_length@?$output_processor@DV?$string_output_adapter@D@__crt_stdio_output@@V?$format_validation_base@DV?$string_output_adapter@D@__crt_stdio_output@@@2@@__crt_stdio_output@@AEAAHHD@Z 00000001800b8080 f i libucrtd:output.obj
 0001:000b70b0       ?type_case_s_compute_narrow_string_length@?$output_processor@DV?$string_output_adapter@D@__crt_stdio_output@@V?$positional_parameter_base@DV?$string_output_adapter@D@__crt_stdio_output@@@2@@__crt_stdio_output@@AEAAHHD@Z 00000001800b80b0 f i libucrtd:output.obj
 0001:000b70e0       ?type_case_s_compute_narrow_string_length@?$output_processor@DV?$string_output_adapter@D@__crt_stdio_output@@V?$standard_base@DV?$string_output_adapter@D@__crt_stdio_output@@@2@@__crt_stdio_output@@AEAAHHD@Z 00000001800b80e0 f i libucrtd:output.obj
 0001:000b7110       ?type_case_s_compute_narrow_string_length@?$output_processor@_WV?$stream_output_adapter@_W@__crt_stdio_output@@V?$format_validation_base@_WV?$stream_output_adapter@_W@__crt_stdio_output@@@2@@__crt_stdio_output@@AEAAHH_W@Z 00000001800b8110 f i libucrtd:output.obj
 0001:000b71b0       ?type_case_s_compute_narrow_string_length@?$output_processor@_WV?$stream_output_adapter@_W@__crt_stdio_output@@V?$positional_parameter_base@_WV?$stream_output_adapter@_W@__crt_stdio_output@@@2@@__crt_stdio_output@@AEAAHH_W@Z 00000001800b81b0 f i libucrtd:output.obj
 0001:000b7250       ?type_case_s_compute_narrow_string_length@?$output_processor@_WV?$stream_output_adapter@_W@__crt_stdio_output@@V?$standard_base@_WV?$stream_output_adapter@_W@__crt_stdio_output@@@2@@__crt_stdio_output@@AEAAHH_W@Z 00000001800b8250 f i libucrtd:output.obj
 0001:000b72f0       ?type_case_s_compute_narrow_string_length@?$output_processor@_WV?$string_output_adapter@_W@__crt_stdio_output@@V?$format_validation_base@_WV?$string_output_adapter@_W@__crt_stdio_output@@@2@@__crt_stdio_output@@AEAAHH_W@Z 00000001800b82f0 f i libucrtd:output.obj
 0001:000b7390       ?type_case_s_compute_narrow_string_length@?$output_processor@_WV?$string_output_adapter@_W@__crt_stdio_output@@V?$positional_parameter_base@_WV?$string_output_adapter@_W@__crt_stdio_output@@@2@@__crt_stdio_output@@AEAAHH_W@Z 00000001800b8390 f i libucrtd:output.obj
 0001:000b7430       ?type_case_s_compute_narrow_string_length@?$output_processor@_WV?$string_output_adapter@_W@__crt_stdio_output@@V?$standard_base@_WV?$string_output_adapter@_W@__crt_stdio_output@@@2@@__crt_stdio_output@@AEAAHH_W@Z 00000001800b8430 f i libucrtd:output.obj
 0001:000b74d0       ?type_case_u@?$output_processor@DV?$stream_output_adapter@D@__crt_stdio_output@@V?$format_validation_base@DV?$stream_output_adapter@D@__crt_stdio_output@@@2@@__crt_stdio_output@@AEAA_NXZ 00000001800b84d0 f i libucrtd:output.obj
 0001:000b74f0       ?type_case_u@?$output_processor@DV?$stream_output_adapter@D@__crt_stdio_output@@V?$positional_parameter_base@DV?$stream_output_adapter@D@__crt_stdio_output@@@2@@__crt_stdio_output@@AEAA_NXZ 00000001800b84f0 f i libucrtd:output.obj
 0001:000b7510       ?type_case_u@?$output_processor@DV?$stream_output_adapter@D@__crt_stdio_output@@V?$standard_base@DV?$stream_output_adapter@D@__crt_stdio_output@@@2@@__crt_stdio_output@@AEAA_NXZ 00000001800b8510 f i libucrtd:output.obj
 0001:000b7530       ?type_case_u@?$output_processor@DV?$string_output_adapter@D@__crt_stdio_output@@V?$format_validation_base@DV?$string_output_adapter@D@__crt_stdio_output@@@2@@__crt_stdio_output@@AEAA_NXZ 00000001800b8530 f i libucrtd:output.obj
 0001:000b7550       ?type_case_u@?$output_processor@DV?$string_output_adapter@D@__crt_stdio_output@@V?$positional_parameter_base@DV?$string_output_adapter@D@__crt_stdio_output@@@2@@__crt_stdio_output@@AEAA_NXZ 00000001800b8550 f i libucrtd:output.obj
 0001:000b7570       ?type_case_u@?$output_processor@DV?$string_output_adapter@D@__crt_stdio_output@@V?$standard_base@DV?$string_output_adapter@D@__crt_stdio_output@@@2@@__crt_stdio_output@@AEAA_NXZ 00000001800b8570 f i libucrtd:output.obj
 0001:000b7590       ?type_case_u@?$output_processor@_WV?$stream_output_adapter@_W@__crt_stdio_output@@V?$format_validation_base@_WV?$stream_output_adapter@_W@__crt_stdio_output@@@2@@__crt_stdio_output@@AEAA_NXZ 00000001800b8590 f i libucrtd:output.obj
 0001:000b75b0       ?type_case_u@?$output_processor@_WV?$stream_output_adapter@_W@__crt_stdio_output@@V?$positional_parameter_base@_WV?$stream_output_adapter@_W@__crt_stdio_output@@@2@@__crt_stdio_output@@AEAA_NXZ 00000001800b85b0 f i libucrtd:output.obj
 0001:000b75d0       ?type_case_u@?$output_processor@_WV?$stream_output_adapter@_W@__crt_stdio_output@@V?$standard_base@_WV?$stream_output_adapter@_W@__crt_stdio_output@@@2@@__crt_stdio_output@@AEAA_NXZ 00000001800b85d0 f i libucrtd:output.obj
 0001:000b75f0       ?type_case_u@?$output_processor@_WV?$string_output_adapter@_W@__crt_stdio_output@@V?$format_validation_base@_WV?$string_output_adapter@_W@__crt_stdio_output@@@2@@__crt_stdio_output@@AEAA_NXZ 00000001800b85f0 f i libucrtd:output.obj
 0001:000b7610       ?type_case_u@?$output_processor@_WV?$string_output_adapter@_W@__crt_stdio_output@@V?$positional_parameter_base@_WV?$string_output_adapter@_W@__crt_stdio_output@@@2@@__crt_stdio_output@@AEAA_NXZ 00000001800b8610 f i libucrtd:output.obj
 0001:000b7630       ?type_case_u@?$output_processor@_WV?$string_output_adapter@_W@__crt_stdio_output@@V?$standard_base@_WV?$string_output_adapter@_W@__crt_stdio_output@@@2@@__crt_stdio_output@@AEAA_NXZ 00000001800b8630 f i libucrtd:output.obj
 0001:000b7650       ?type_case_x@?$output_processor@DV?$stream_output_adapter@D@__crt_stdio_output@@V?$format_validation_base@DV?$stream_output_adapter@D@__crt_stdio_output@@@2@@__crt_stdio_output@@AEAA_NXZ 00000001800b8650 f i libucrtd:output.obj
 0001:000b7670       ?type_case_x@?$output_processor@DV?$stream_output_adapter@D@__crt_stdio_output@@V?$positional_parameter_base@DV?$stream_output_adapter@D@__crt_stdio_output@@@2@@__crt_stdio_output@@AEAA_NXZ 00000001800b8670 f i libucrtd:output.obj
 0001:000b7690       ?type_case_x@?$output_processor@DV?$stream_output_adapter@D@__crt_stdio_output@@V?$standard_base@DV?$stream_output_adapter@D@__crt_stdio_output@@@2@@__crt_stdio_output@@AEAA_NXZ 00000001800b8690 f i libucrtd:output.obj
 0001:000b76b0       ?type_case_x@?$output_processor@DV?$string_output_adapter@D@__crt_stdio_output@@V?$format_validation_base@DV?$string_output_adapter@D@__crt_stdio_output@@@2@@__crt_stdio_output@@AEAA_NXZ 00000001800b86b0 f i libucrtd:output.obj
 0001:000b76d0       ?type_case_x@?$output_processor@DV?$string_output_adapter@D@__crt_stdio_output@@V?$positional_parameter_base@DV?$string_output_adapter@D@__crt_stdio_output@@@2@@__crt_stdio_output@@AEAA_NXZ 00000001800b86d0 f i libucrtd:output.obj
 0001:000b76f0       ?type_case_x@?$output_processor@DV?$string_output_adapter@D@__crt_stdio_output@@V?$standard_base@DV?$string_output_adapter@D@__crt_stdio_output@@@2@@__crt_stdio_output@@AEAA_NXZ 00000001800b86f0 f i libucrtd:output.obj
 0001:000b7710       ?type_case_x@?$output_processor@_WV?$stream_output_adapter@_W@__crt_stdio_output@@V?$format_validation_base@_WV?$stream_output_adapter@_W@__crt_stdio_output@@@2@@__crt_stdio_output@@AEAA_NXZ 00000001800b8710 f i libucrtd:output.obj
 0001:000b7730       ?type_case_x@?$output_processor@_WV?$stream_output_adapter@_W@__crt_stdio_output@@V?$positional_parameter_base@_WV?$stream_output_adapter@_W@__crt_stdio_output@@@2@@__crt_stdio_output@@AEAA_NXZ 00000001800b8730 f i libucrtd:output.obj
 0001:000b7750       ?type_case_x@?$output_processor@_WV?$stream_output_adapter@_W@__crt_stdio_output@@V?$standard_base@_WV?$stream_output_adapter@_W@__crt_stdio_output@@@2@@__crt_stdio_output@@AEAA_NXZ 00000001800b8750 f i libucrtd:output.obj
 0001:000b7770       ?type_case_x@?$output_processor@_WV?$string_output_adapter@_W@__crt_stdio_output@@V?$format_validation_base@_WV?$string_output_adapter@_W@__crt_stdio_output@@@2@@__crt_stdio_output@@AEAA_NXZ 00000001800b8770 f i libucrtd:output.obj
 0001:000b7790       ?type_case_x@?$output_processor@_WV?$string_output_adapter@_W@__crt_stdio_output@@V?$positional_parameter_base@_WV?$string_output_adapter@_W@__crt_stdio_output@@@2@@__crt_stdio_output@@AEAA_NXZ 00000001800b8790 f i libucrtd:output.obj
 0001:000b77b0       ?type_case_x@?$output_processor@_WV?$string_output_adapter@_W@__crt_stdio_output@@V?$standard_base@_WV?$string_output_adapter@_W@__crt_stdio_output@@@2@@__crt_stdio_output@@AEAA_NXZ 00000001800b87b0 f i libucrtd:output.obj
 0001:000b77d0       ?unget@?$c_string_character_source@D@__crt_strtox@@QEAAXD@Z 00000001800b87d0 f i libucrtd:output.obj
 0001:000b78b0       ?unget@?$c_string_character_source@_W@__crt_strtox@@QEAAX_W@Z 00000001800b88b0 f i libucrtd:output.obj
 0001:000b7990       ?unsafe_value@?$cached@H@__crt_cached_ptd_host@@QEAAHXZ 00000001800b8990 f i libucrtd:output.obj
 0001:000b79a0       ?unsafe_value@?$cached@K@__crt_cached_ptd_host@@QEAAKXZ 00000001800b89a0 f i libucrtd:output.obj
 0001:000b79b0       ?unset_flag@?$output_processor@DV?$stream_output_adapter@D@__crt_stdio_output@@V?$format_validation_base@DV?$stream_output_adapter@D@__crt_stdio_output@@@2@@__crt_stdio_output@@AEAAXI@Z 00000001800b89b0 f i libucrtd:output.obj
 0001:000b79e0       ?unset_flag@?$output_processor@DV?$stream_output_adapter@D@__crt_stdio_output@@V?$positional_parameter_base@DV?$stream_output_adapter@D@__crt_stdio_output@@@2@@__crt_stdio_output@@AEAAXI@Z 00000001800b89e0 f i libucrtd:output.obj
 0001:000b7a10       ?unset_flag@?$output_processor@DV?$stream_output_adapter@D@__crt_stdio_output@@V?$standard_base@DV?$stream_output_adapter@D@__crt_stdio_output@@@2@@__crt_stdio_output@@AEAAXI@Z 00000001800b8a10 f i libucrtd:output.obj
 0001:000b7a40       ?unset_flag@?$output_processor@DV?$string_output_adapter@D@__crt_stdio_output@@V?$format_validation_base@DV?$string_output_adapter@D@__crt_stdio_output@@@2@@__crt_stdio_output@@AEAAXI@Z 00000001800b8a40 f i libucrtd:output.obj
 0001:000b7a70       ?unset_flag@?$output_processor@DV?$string_output_adapter@D@__crt_stdio_output@@V?$positional_parameter_base@DV?$string_output_adapter@D@__crt_stdio_output@@@2@@__crt_stdio_output@@AEAAXI@Z 00000001800b8a70 f i libucrtd:output.obj
 0001:000b7aa0       ?unset_flag@?$output_processor@DV?$string_output_adapter@D@__crt_stdio_output@@V?$standard_base@DV?$string_output_adapter@D@__crt_stdio_output@@@2@@__crt_stdio_output@@AEAAXI@Z 00000001800b8aa0 f i libucrtd:output.obj
 0001:000b7ad0       ?unset_flag@?$output_processor@_WV?$stream_output_adapter@_W@__crt_stdio_output@@V?$format_validation_base@_WV?$stream_output_adapter@_W@__crt_stdio_output@@@2@@__crt_stdio_output@@AEAAXI@Z 00000001800b8ad0 f i libucrtd:output.obj
 0001:000b7b00       ?unset_flag@?$output_processor@_WV?$stream_output_adapter@_W@__crt_stdio_output@@V?$positional_parameter_base@_WV?$stream_output_adapter@_W@__crt_stdio_output@@@2@@__crt_stdio_output@@AEAAXI@Z 00000001800b8b00 f i libucrtd:output.obj
 0001:000b7b30       ?unset_flag@?$output_processor@_WV?$stream_output_adapter@_W@__crt_stdio_output@@V?$standard_base@_WV?$stream_output_adapter@_W@__crt_stdio_output@@@2@@__crt_stdio_output@@AEAAXI@Z 00000001800b8b30 f i libucrtd:output.obj
 0001:000b7b60       ?unset_flag@?$output_processor@_WV?$string_output_adapter@_W@__crt_stdio_output@@V?$format_validation_base@_WV?$string_output_adapter@_W@__crt_stdio_output@@@2@@__crt_stdio_output@@AEAAXI@Z 00000001800b8b60 f i libucrtd:output.obj
 0001:000b7b90       ?unset_flag@?$output_processor@_WV?$string_output_adapter@_W@__crt_stdio_output@@V?$positional_parameter_base@_WV?$string_output_adapter@_W@__crt_stdio_output@@@2@@__crt_stdio_output@@AEAAXI@Z 00000001800b8b90 f i libucrtd:output.obj
 0001:000b7bc0       ?unset_flag@?$output_processor@_WV?$string_output_adapter@_W@__crt_stdio_output@@V?$standard_base@_WV?$string_output_adapter@_W@__crt_stdio_output@@@2@@__crt_stdio_output@@AEAAXI@Z 00000001800b8bc0 f i libucrtd:output.obj
