 PhysXCommon_64

 Timestamp is 682ee1db (Thu May 22 17:35:39 2025)

 Preferred load address is 0000000180000000

 Start         Length     Name                   Class
 0001:00000000 000029e0H .text$di                CODE
 0001:000029e0 00139f80H .text$mn                CODE
 0001:0013c960 00000040H .text$mn$00             CODE
 0001:0013c9a0 00000a70H .text$mn$21             CODE
 0001:0013d410 00000690H .text$x                 CODE
 0002:00000000 00000278H .idata$5                DATA
 0002:00000278 00000038H .00cfg                  DATA
 0002:000002b0 00000008H .CRT$XCA                DATA
 0002:000002b8 00001428H .CRT$XCU                DATA
 0002:000016e0 00000008H .CRT$XCZ                DATA
 0002:000016e8 00000008H .CRT$XIA                DATA
 0002:000016f0 00000018H .CRT$XIC                DATA
 0002:00001708 00000008H .CRT$XIZ                DATA
 0002:00001710 00000008H .CRT$XPA                DATA
 0002:00001718 00000010H .CRT$XPX                DATA
 0002:00001728 00000008H .CRT$XPXA               DATA
 0002:00001730 00000008H .CRT$XPZ                DATA
 0002:00001738 00000008H .CRT$XTA                DATA
 0002:00001740 00000010H .CRT$XTZ                DATA
 0002:00001748 00000000H .gehcont$y              DATA
 0002:00001748 00000000H .gfids$y                DATA
 0002:00001750 0000d220H .rdata                  DATA
 0002:0000e970 00000190H .rdata$00               DATA
 0002:0000eb00 00000000H .rdata$CastGuardVftablesA DATA
 0002:0000eb00 00000000H .rdata$CastGuardVftablesC DATA
 0002:0000eb00 0000043cH .rdata$r                DATA
 0002:0000ef3c 000001e4H .rdata$voltmd           DATA
 0002:0000f120 00000470H .rdata$zzzdbg           DATA
 0002:0000f590 00000008H .rtc$IAA                DATA
 0002:0000f598 00000008H .rtc$IZZ                DATA
 0002:0000f5a0 00000008H .rtc$TAA                DATA
 0002:0000f5a8 00000008H .rtc$TZZ                DATA
 0002:0000f5b0 0000c6a8H .xdata                  DATA
 0002:0001bc58 00000084H .xdata$x                DATA
 0002:0001bcdc 00000020H .didat$2                DATA
 0002:0001bcfc 00000024H .didat$3                DATA
 0002:0001bd20 00000088H .didat$4                DATA
 0002:0001bda8 00000318H .didat$6                DATA
 0002:0001c0c0 000001a0H .didat$7                DATA
 0002:0001c260 0000a0dcH .edata                  DATA
 0002:0002633c 00000014H .idata$2                DATA
 0002:00026350 00000018H .idata$3                DATA
 0002:00026368 00000278H .idata$4                DATA
 0002:000265e0 000005aeH .idata$6                DATA
 0003:00000000 000014a0H .data                   DATA
 0003:000014a0 000005c8H .data$r                 DATA
 0003:00001a68 000000f0H .data$rs                DATA
 0003:00001b58 00000088H .didat$5                DATA
 0003:00001be0 00003ae0H .bss                    DATA
 0004:00000000 00006ff0H .pdata                  DATA
 0005:00000000 00002208H _RDATA                  DATA
 0006:00000000 000000a0H .rsrc$01                DATA
 0006:000000a0 000004b0H .rsrc$02                DATA

  Address         Publics by Value              Rva+Base               Lib:Object

 0000:00000000       __AbsoluteZero             0000000000000000     <absolute>
 0000:00000000       ___safe_se_handler_count   0000000000000000     <absolute>
 0000:00000000       ___safe_se_handler_table   0000000000000000     <absolute>
 0000:00000000       __arm64x_extra_rfe_table   0000000000000000     <absolute>
 0000:00000000       __arm64x_extra_rfe_table_size 0000000000000000     <absolute>
 0000:00000000       __arm64x_native_entrypoint 0000000000000000     <absolute>
 0000:00000000       __arm64x_redirection_metadata 0000000000000000     <absolute>
 0000:00000000       __arm64x_redirection_metadata_count 0000000000000000     <absolute>
 0000:00000000       __dynamic_value_reloc_table 0000000000000000     <absolute>
 0000:00000000       __enclave_config           0000000000000000     <absolute>
 0000:00000000       __guard_check_icall_a64n_fptr 0000000000000000     <absolute>
 0000:00000000       __guard_eh_cont_count      0000000000000000     <absolute>
 0000:00000000       __guard_eh_cont_table      0000000000000000     <absolute>
 0000:00000000       __guard_fids_count         0000000000000000     <absolute>
 0000:00000000       __guard_fids_table         0000000000000000     <absolute>
 0000:00000000       __guard_iat_count          0000000000000000     <absolute>
 0000:00000000       __guard_iat_table          0000000000000000     <absolute>
 0000:00000000       __guard_longjmp_count      0000000000000000     <absolute>
 0000:00000000       __guard_longjmp_table      0000000000000000     <absolute>
 0000:00000000       __hybrid_auxiliary_delayload_iat 0000000000000000     <absolute>
 0000:00000000       __hybrid_auxiliary_delayload_iat_copy 0000000000000000     <absolute>
 0000:00000000       __hybrid_auxiliary_iat     0000000000000000     <absolute>
 0000:00000000       __hybrid_auxiliary_iat_copy 0000000000000000     <absolute>
 0000:00000000       __hybrid_code_map          0000000000000000     <absolute>
 0000:00000000       __hybrid_code_map_count    0000000000000000     <absolute>
 0000:00000000       __hybrid_image_info_bitfield 0000000000000000     <absolute>
 0000:00000000       __x64_code_ranges_to_entry_points 0000000000000000     <absolute>
 0000:00000000       __x64_code_ranges_to_entry_points_count 0000000000000000     <absolute>
 0000:00000100       __guard_flags              0000000000000100     <absolute>
 0000:00000000       __ImageBase                0000000180000000     <linker-defined>
 0001:000029e0       ??_ECollection@Cm@physx@@UEAAPEAXI@Z 00000001800039e0 f i CmCollection.obj
 0001:000029e0       ??_GCollection@Cm@physx@@UEAAPEAXI@Z 00000001800039e0 f i CmCollection.obj
 0001:00002a90       ??_EPxCollection@physx@@MEAAPEAXI@Z 0000000180003a90 f i CmCollection.obj
 0001:00002a90       ??_GPxCollection@physx@@MEAAPEAXI@Z 0000000180003a90 f i CmCollection.obj
 0001:00002ac0       ?PxCreateCollection@@YAPEAVPxCollection@physx@@XZ 0000000180003ac0 f   CmCollection.obj
 0001:00002bc0       ?add@Collection@Cm@physx@@UEAAXAEAVPxBase@3@_K@Z 0000000180003bc0 f   CmCollection.obj
 0001:00002cb0       ?add@Collection@Cm@physx@@UEAAXAEAVPxCollection@3@@Z 0000000180003cb0 f   CmCollection.obj
 0001:00002e50       ?addId@Collection@Cm@physx@@UEAAXAEAVPxBase@3@_K@Z 0000000180003e50 f   CmCollection.obj
 0001:00002f80       ?contains@Collection@Cm@physx@@UEBA_NAEAVPxBase@3@@Z 0000000180003f80 f   CmCollection.obj
 0001:00003030       ?create@?$HashBase@V?$Pair@$$CB_KPEAVPxBase@physx@@@shdfnd@physx@@_KU?$Hash@_K@23@UGetKey@?$HashMapBase@_KPEAVPxBase@physx@@U?$Hash@_K@shdfnd@2@VNonTrackingAllocator@42@@internal@23@VNonTrackingAllocator@23@$00@internal@shdfnd@physx@@QEAAPEAV?$Pair@$$CB_KPEAVPxBase@physx@@@34@AEB_KAEA_N@Z 0000000180004030 f i CmCollection.obj
 0001:00003030       ?create@?$HashBase@V?$Pair@QEAVPxBase@physx@@_K@shdfnd@physx@@PEAVPxBase@3@U?$Hash@PEAVPxBase@physx@@@23@UGetKey@?$HashMapBase@PEAVPxBase@physx@@_KU?$Hash@PEAVPxBase@physx@@@shdfnd@2@VNonTrackingAllocator@42@@internal@23@VNonTrackingAllocator@23@$00@internal@shdfnd@physx@@QEAAPEAV?$Pair@QEAVPxBase@physx@@_K@34@AEBQEAVPxBase@4@AEA_N@Z 0000000180004030 f i CmCollection.obj
 0001:000031c0       ?erase@?$HashBase@V?$Pair@$$CB_KPEAVPxBase@physx@@@shdfnd@physx@@_KU?$Hash@_K@23@UGetKey@?$HashMapBase@_KPEAVPxBase@physx@@U?$Hash@_K@shdfnd@2@VNonTrackingAllocator@42@@internal@23@VNonTrackingAllocator@23@$00@internal@shdfnd@physx@@QEAA_NAEB_K@Z 00000001800041c0 f i CmCollection.obj
 0001:000031c0       ?erase@?$HashBase@V?$Pair@QEAVPxBase@physx@@_K@shdfnd@physx@@PEAVPxBase@3@U?$Hash@PEAVPxBase@physx@@@23@UGetKey@?$HashMapBase@PEAVPxBase@physx@@_KU?$Hash@PEAVPxBase@physx@@@shdfnd@2@VNonTrackingAllocator@42@@internal@23@VNonTrackingAllocator@23@$00@internal@shdfnd@physx@@QEAA_NAEBQEAVPxBase@4@@Z 00000001800041c0 f i CmCollection.obj
 0001:00003360       ?find@?$HashMapBase@_KPEAVPxBase@physx@@U?$Hash@_K@shdfnd@2@VNonTrackingAllocator@42@@internal@shdfnd@physx@@QEBAPEBV?$Pair@$$CB_KPEAVPxBase@physx@@@34@AEB_K@Z 0000000180004360 f i CmCollection.obj
 0001:00003400       ?find@Collection@Cm@physx@@UEBAPEAVPxBase@3@_K@Z 0000000180004400 f   CmCollection.obj
 0001:00003430       ?getId@Collection@Cm@physx@@UEBA_KAEBVPxBase@3@@Z 0000000180004430 f   CmCollection.obj
 0001:000034e0       ?getIds@Collection@Cm@physx@@UEBAIPEA_KII@Z 00000001800044e0 f   CmCollection.obj
 0001:000035b0       ?getNbColumns@HeightField@Gu@physx@@UEBAIXZ 00000001800045b0 f   GuBounds.obj
 0001:000035b0       ?getNbIds@Collection@Cm@physx@@UEBAIXZ 00000001800045b0 f   CmCollection.obj
 0001:000035c0       ?getNbObjects@Collection@Cm@physx@@UEBAIXZ 00000001800045c0 f   CmCollection.obj
 0001:000035d0       ?getObject@Collection@Cm@physx@@UEBAAEAVPxBase@3@I@Z 00000001800045d0 f   CmCollection.obj
 0001:000035e0       ?getObjects@Collection@Cm@physx@@UEBAIPEAPEAVPxBase@3@II@Z 00000001800045e0 f   CmCollection.obj
 0001:00003620       ?release@Collection@Cm@physx@@UEAAXXZ 0000000180004620 f i CmCollection.obj
 0001:00003640       ?remove@Collection@Cm@physx@@UEAAXAEAVPxBase@3@@Z 0000000180004640 f   CmCollection.obj
 0001:00003730       ?remove@Collection@Cm@physx@@UEAAXAEAVPxCollection@3@@Z 0000000180004730 f   CmCollection.obj
 0001:00003840       ?removeId@Collection@Cm@physx@@UEAAX_K@Z 0000000180004840 f   CmCollection.obj
 0001:000038c0       ?reserveInternal@?$HashBase@V?$Pair@$$CB_KPEAVPxBase@physx@@@shdfnd@physx@@_KU?$Hash@_K@23@UGetKey@?$HashMapBase@_KPEAVPxBase@physx@@U?$Hash@_K@shdfnd@2@VNonTrackingAllocator@42@@internal@23@VNonTrackingAllocator@23@$00@internal@shdfnd@physx@@AEAAXI@Z 00000001800048c0 f i CmCollection.obj
 0001:000038c0       ?reserveInternal@?$HashBase@V?$Pair@QEAVPxBase@physx@@_K@shdfnd@physx@@PEAVPxBase@3@U?$Hash@PEAVPxBase@physx@@@23@UGetKey@?$HashMapBase@PEAVPxBase@physx@@_KU?$Hash@PEAVPxBase@physx@@@shdfnd@2@VNonTrackingAllocator@42@@internal@23@VNonTrackingAllocator@23@$00@internal@shdfnd@physx@@AEAAXI@Z 00000001800048c0 f i CmCollection.obj
 0001:00003ab0       ??0PtrTable@Cm@physx@@QEAA@W4PxEMPTY@2@@Z 0000000180004ab0 f i CmPtrTable.obj
 0001:00003ad0       ??0PtrTable@Cm@physx@@QEAA@XZ 0000000180004ad0 f   CmPtrTable.obj
 0001:00003ae0       ??1AABBTreeBuildNode@Gu@physx@@QEAA@XZ 0000000180004ae0 f   GuAABBTreeBuild.obj
 0001:00003ae0       ??1Box@Gu@physx@@QEAA@XZ   0000000180004ae0 f   GuBounds.obj
 0001:00003ae0       ??1HeightFieldData@Gu@physx@@QEAA@XZ 0000000180004ae0 f   GuBounds.obj
 0001:00003ae0       ??1MaterialIndicesStruct@physx@@QEAA@XZ 0000000180004ae0 f   GuGeometryUnion.obj
 0001:00003ae0       ??1PtrTable@Cm@physx@@QEAA@XZ 0000000180004ae0 f   CmPtrTable.obj
 0001:00003ae0       ?profile@Callback@RTree@Gu@physx@@UEAAXXZ 0000000180004ae0 f   GuMidphaseRTree.obj
 0001:00003ae0       ?requiresObjects@ConvexMesh@Gu@physx@@UEAAXAEAVPxProcessPxBaseCallback@3@@Z 0000000180004ae0 f   GuConvexMesh.obj
 0001:00003ae0       ?requiresObjects@HeightField@Gu@physx@@UEAAXAEAVPxProcessPxBaseCallback@3@@Z 0000000180004ae0 f   GuHeightField.obj
 0001:00003ae0       ?requiresObjects@TriangleMesh@Gu@physx@@UEAAXAEAVPxProcessPxBaseCallback@3@@Z 0000000180004ae0 f   GuTriangleMesh.obj
 0001:00003ae0       _guard_check_icall_nop     0000000180004ae0 f   LIBCMT:guard_support.obj
 0001:00003af0       ??4CmModuleUpdateLoader@Cm@physx@@QEAAAEAV012@AEBV012@@Z 0000000180004af0 f i CmWindowsModuleUpdateLoader.obj
 0001:00003af0       ??4MaterialIndicesStruct@physx@@QEAAAEAU01@AEBU01@@Z 0000000180004af0 f i GuGeometryUnion.obj
 0001:00003af0       ??4PtrTable@Cm@physx@@QEAAAEAU012@AEBU012@@Z 0000000180004af0 f i CmPtrTable.obj
 0001:00003b00       ?add@PtrTable@Cm@physx@@QEAAXPEAXAEAVPtrTableStorageManager@23@@Z 0000000180004b00 f   CmPtrTable.obj
 0001:00003bc0       ?clear@PtrTable@Cm@physx@@QEAAXAEAVPtrTableStorageManager@23@@Z 0000000180004bc0 f   CmPtrTable.obj
 0001:00003c40       ?exportExtraData@PtrTable@Cm@physx@@QEAAXAEAVPxSerializationContext@3@@Z 0000000180004c40 f   CmPtrTable.obj
 0001:00003c90       ?find@PtrTable@Cm@physx@@QEBAIPEBX@Z 0000000180004c90 f   CmPtrTable.obj
 0001:00003cc0       ?getBinaryMetaData@PtrTable@Cm@physx@@SAXAEAVPxOutputStream@3@@Z 0000000180004cc0 f   CmPtrTable.obj
 0001:00003e80       ?getCount@PtrTable@Cm@physx@@QEBAIXZ 0000000180004e80 f i CmPtrTable.obj
 0001:00003e90       ?getPtrs@PtrTable@Cm@physx@@QEAAPEAPEAXXZ 0000000180004e90 f i CmPtrTable.obj
 0001:00003e90       ?getPtrs@PtrTable@Cm@physx@@QEBAPEBQEAXXZ 0000000180004e90 f i CmPtrTable.obj
 0001:00003ea0       ?importExtraData@PtrTable@Cm@physx@@QEAAXAEAVPxDeserializationContext@3@@Z 0000000180004ea0 f   CmPtrTable.obj
 0001:00003ed0       ?realloc@PtrTable@Cm@physx@@AEAAXIIAEAVPtrTableStorageManager@23@@Z 0000000180004ed0 f   CmPtrTable.obj
 0001:00003f70       ?replaceWithLast@PtrTable@Cm@physx@@QEAAXIAEAVPtrTableStorageManager@23@@Z 0000000180004f70 f   CmPtrTable.obj
 0001:00004070       ??0RadixSort@Cm@physx@@QEAA@XZ 0000000180005070 f   CmRadixSort.obj
 0001:000040a0       ??1RadixSort@Cm@physx@@UEAA@XZ 00000001800050a0 f   CmRadixSort.obj
 0001:000040b0       ??_ERadixSort@Cm@physx@@UEAAPEAXI@Z 00000001800050b0 f i CmRadixSort.obj
 0001:00004140       ?GetNbHits@RadixSort@Cm@physx@@QEBAIXZ 0000000180005140 f i CmRadixSort.obj
 0001:00004150       ?GetNbTotalCalls@RadixSort@Cm@physx@@QEBAIXZ 0000000180005150 f i CmRadixSort.obj
 0001:00004160       ?GetRanks@RadixSort@Cm@physx@@QEBAPEBIXZ 0000000180005160 f i CmRadixSort.obj
 0001:00004160       ?getHeightField@HeightFieldUtil@Gu@physx@@QEBAAEBVHeightField@23@XZ 0000000180005160 f i GuCCTSweepTests.obj
 0001:00004170       ?GetRecyclable@RadixSort@Cm@physx@@QEBAPEAIXZ 0000000180005170 f i CmRadixSort.obj
 0001:00004170       ?GetValencies@BigConvexData@physx@@QEBAPEBUValency@Gu@2@XZ 0000000180005170 f i GuMetaData.obj
 0001:00004170       ?getHeightFieldGeometry@HeightFieldUtil@Gu@physx@@QEBAAEBVPxHeightFieldGeometry@3@XZ 0000000180005170 f i GuCCTSweepTests.obj
 0001:00004170       ?getPos@AABBTreeBuildNode@Gu@physx@@QEBAPEBV123@XZ 0000000180005170 f i GuAABBTreeBuild.obj
 0001:00004180       ?SetBuffers@RadixSort@Cm@physx@@QEAA_NPEAI00PEAPEAI@Z 0000000180005180 f   CmRadixSort.obj
 0001:000041c0       ?Sort@RadixSort@Cm@physx@@QEAAAEAV123@PEBIIW4RadixHint@23@@Z 00000001800051c0 f   CmRadixSort.obj
 0001:00004870       ?Sort@RadixSort@Cm@physx@@QEAAAEAV123@PEBMI@Z 0000000180005870 f   CmRadixSort.obj
 0001:00005000       ?invalidateRanks@RadixSort@Cm@physx@@QEAAXXZ 0000000180006000 f i CmRadixSort.obj
 0001:00005010       ??0RadixSortBuffered@Cm@physx@@QEAA@XZ 0000000180006010 f   CmRadixSortBuffered.obj
 0001:00005040       ??1RadixSortBuffered@Cm@physx@@UEAA@XZ 0000000180006040 f   CmRadixSortBuffered.obj
 0001:00005070       ??_ERadixSortBuffered@Cm@physx@@UEAAPEAXI@Z 0000000180006070 f i CmRadixSortBuffered.obj
 0001:00005140       ?CheckResize@RadixSortBuffered@Cm@physx@@AEAAXI@Z 0000000180006140 f i CmRadixSortBuffered.obj
 0001:00005180       ?Resize@RadixSortBuffered@Cm@physx@@AEAA_NI@Z 0000000180006180 f   CmRadixSortBuffered.obj
 0001:00005270       ?Sort@RadixSortBuffered@Cm@physx@@QEAAAEAV123@PEBIIW4RadixHint@23@@Z 0000000180006270 f   CmRadixSortBuffered.obj
 0001:00005310       ?Sort@RadixSortBuffered@Cm@physx@@QEAAAEAV123@PEBMI@Z 0000000180006310 f   CmRadixSortBuffered.obj
 0001:000053a0       ?reset@RadixSortBuffered@Cm@physx@@QEAAXXZ 00000001800063a0 f   CmRadixSortBuffered.obj
 0001:00005420       ??0DebugText@Cm@physx@@QEAA@$$QEAU012@@Z 0000000180006420 f i CmRenderOutput.obj
 0001:00005420       ??0DebugText@Cm@physx@@QEAA@AEBU012@@Z 0000000180006420 f i CmRenderOutput.obj
 0001:00005500       ??0DebugText@Cm@physx@@QEAA@AEBVPxVec3@2@MPEBDZZ 0000000180006500 f   CmRenderOutput.obj
 0001:00005560       ??0RenderOutput@Cm@physx@@QEAA@AEAVRenderBuffer@12@@Z 0000000180006560 f i CmRenderOutput.obj
 0001:000055b0       ??0RenderOutput@Cm@physx@@QEAA@AEBV012@@Z 00000001800065b0 f i CmRenderOutput.obj
 0001:00005650       ??4DebugText@Cm@physx@@QEAAAEAU012@$$QEAU012@@Z 0000000180006650 f i CmRenderOutput.obj
 0001:00005650       ??4DebugText@Cm@physx@@QEAAAEAU012@AEBU012@@Z 0000000180006650 f i CmRenderOutput.obj
 0001:00005780       ??6Cm@physx@@YAAEAVRenderOutput@01@AEAV201@AEBUDebugArc@01@@Z 0000000180006780 f   CmRenderOutput.obj
 0001:00005880       ??6Cm@physx@@YAAEAVRenderOutput@01@AEAV201@AEBUDebugArrow@01@@Z 0000000180006880 f   CmRenderOutput.obj
 0001:00005c80       ??6Cm@physx@@YAAEAVRenderOutput@01@AEAV201@AEBUDebugBasis@01@@Z 0000000180006c80 f   CmRenderOutput.obj
 0001:00005d80       ??6Cm@physx@@YAAEAVRenderOutput@01@AEAV201@AEBUDebugBox@01@@Z 0000000180006d80 f   CmRenderOutput.obj
 0001:00006280       ??6Cm@physx@@YAAEAVRenderOutput@01@AEAV201@AEBUDebugCircle@01@@Z 0000000180007280 f   CmRenderOutput.obj
 0001:00006370       ??6RenderOutput@Cm@physx@@QEAAAEAV012@AEBUDebugText@12@@Z 0000000180007370 f   CmRenderOutput.obj
 0001:00006530       ??6RenderOutput@Cm@physx@@QEAAAEAV012@AEBVPxMat44@2@@Z 0000000180007530 f   CmRenderOutput.obj
 0001:000065a0       ??6RenderOutput@Cm@physx@@QEAAAEAV012@AEBVPxTransform@2@@Z 00000001800075a0 f   CmRenderOutput.obj
 0001:00006720       ??6RenderOutput@Cm@physx@@QEAAAEAV012@I@Z 0000000180007720 f   CmRenderOutput.obj
 0001:00006730       ??6RenderOutput@Cm@physx@@QEAAAEAV012@VPxVec3@2@@Z 0000000180007730 f   CmRenderOutput.obj
 0001:00006be0       ??6RenderOutput@Cm@physx@@QEAAAEAV012@W4Primitive@012@@Z 0000000180007be0 f   CmRenderOutput.obj
 0001:00006bf0       ?allocate@?$Array@DV?$ReflectionAllocator@D@shdfnd@physx@@@shdfnd@physx@@IEAAPEADI@Z 0000000180007bf0 f i CmRenderOutput.obj
 0001:00006c80       ?allocate@?$Array@UPxDebugLine@physx@@V?$ReflectionAllocator@UPxDebugLine@physx@@@shdfnd@2@@shdfnd@physx@@IEAAPEAUPxDebugLine@3@I@Z 0000000180007c80 f i CmRenderOutput.obj
 0001:00006d20       ?allocate@?$Array@UPxDebugPoint@physx@@V?$ReflectionAllocator@UPxDebugPoint@physx@@@shdfnd@2@@shdfnd@physx@@IEAAPEAUPxDebugPoint@3@I@Z 0000000180007d20 f i CmRenderOutput.obj
 0001:00006dc0       ?allocate@?$Array@UPxDebugText@physx@@V?$ReflectionAllocator@UPxDebugText@physx@@@shdfnd@2@@shdfnd@physx@@IEAAPEAUPxDebugText@3@I@Z 0000000180007dc0 f i CmRenderOutput.obj
 0001:00006e60       ?allocate@?$Array@UPxDebugTriangle@physx@@V?$ReflectionAllocator@UPxDebugTriangle@physx@@@shdfnd@2@@shdfnd@physx@@IEAAPEAUPxDebugTriangle@3@I@Z 0000000180007e60 f i CmRenderOutput.obj
 0001:00006f10       ?copy@?$Array@UPxDebugLine@physx@@V?$ReflectionAllocator@UPxDebugLine@physx@@@shdfnd@2@@shdfnd@physx@@KAXPEAUPxDebugLine@3@0PEBU43@@Z 0000000180007f10 f i CmRenderOutput.obj
 0001:000070c0       ?copy@?$Array@UPxDebugPoint@physx@@V?$ReflectionAllocator@UPxDebugPoint@physx@@@shdfnd@2@@shdfnd@physx@@KAXPEAUPxDebugPoint@3@0PEBU43@@Z 00000001800080c0 f i CmRenderOutput.obj
 0001:000071c0       ?copy@?$Array@UPxDebugText@physx@@V?$ReflectionAllocator@UPxDebugText@physx@@@shdfnd@2@@shdfnd@physx@@KAXPEAUPxDebugText@3@0PEBU43@@Z 00000001800081c0 f i CmRenderOutput.obj
 0001:00007330       ?copy@?$Array@UPxDebugTriangle@physx@@V?$ReflectionAllocator@UPxDebugTriangle@physx@@@shdfnd@2@@shdfnd@physx@@KAXPEAUPxDebugTriangle@3@0PEBU43@@Z 0000000180008330 f i CmRenderOutput.obj
 0001:00007530       ?growAndPushBack@?$Array@DV?$ReflectionAllocator@D@shdfnd@physx@@@shdfnd@physx@@IEAAAEADAEBD@Z 0000000180008530 f i CmRenderOutput.obj
 0001:00007600       ?growAndPushBack@?$Array@UPxDebugLine@physx@@V?$ReflectionAllocator@UPxDebugLine@physx@@@shdfnd@2@@shdfnd@physx@@IEAAAEAUPxDebugLine@3@AEBU43@@Z 0000000180008600 f i CmRenderOutput.obj
 0001:000076e0       ?growAndPushBack@?$Array@UPxDebugPoint@physx@@V?$ReflectionAllocator@UPxDebugPoint@physx@@@shdfnd@2@@shdfnd@physx@@IEAAAEAUPxDebugPoint@3@AEBU43@@Z 00000001800086e0 f i CmRenderOutput.obj
 0001:000077a0       ?growAndPushBack@?$Array@UPxDebugText@physx@@V?$ReflectionAllocator@UPxDebugText@physx@@@shdfnd@2@@shdfnd@physx@@IEAAAEAUPxDebugText@3@AEBU43@@Z 00000001800087a0 f i CmRenderOutput.obj
 0001:00007870       ?growAndPushBack@?$Array@UPxDebugTriangle@physx@@V?$ReflectionAllocator@UPxDebugTriangle@physx@@@shdfnd@2@@shdfnd@physx@@IEAAAEAUPxDebugTriangle@3@AEBU43@@Z 0000000180008870 f i CmRenderOutput.obj
 0001:00007970       ?outputCapsule@RenderOutput@Cm@physx@@QEAAAEAV123@MMAEBVPxMat44@3@@Z 0000000180008970 f   CmRenderOutput.obj
 0001:000083d0       ?outputSegment@RenderOutput@Cm@physx@@QEAAXAEBVPxVec3@3@0@Z 00000001800093d0 f i CmRenderOutput.obj
 0001:00008490       ?recreate@?$Array@DV?$ReflectionAllocator@D@shdfnd@physx@@@shdfnd@physx@@IEAAXI@Z 0000000180009490 f i CmRenderOutput.obj
 0001:00008530       ?recreate@?$Array@UPxDebugLine@physx@@V?$ReflectionAllocator@UPxDebugLine@physx@@@shdfnd@2@@shdfnd@physx@@IEAAXI@Z 0000000180009530 f i CmRenderOutput.obj
 0001:000085b0       ?reserveSegments@RenderOutput@Cm@physx@@QEAAPEAUPxDebugLine@3@I@Z 00000001800095b0 f i CmRenderOutput.obj
 0001:00008610       ?transform@PxMat44@physx@@QEBA?BVPxVec4@2@AEBV32@@Z 0000000180009610 f i CmRenderOutput.obj
 0001:00008700       ??DPxQuat@physx@@QEBA?AV01@AEBV01@@Z 0000000180009700 f i CmVisualization.obj
 0001:00008840       ?visualizeAngularLimit@Cm@physx@@YAXAEAVRenderOutput@12@MAEBVPxTransform@2@MM_N@Z 0000000180009840 f   CmVisualization.obj
 0001:00008a00       ?visualizeDoubleCone@Cm@physx@@YAXAEAVRenderOutput@12@MAEBVPxTransform@2@M_N@Z 0000000180009a00 f   CmVisualization.obj
 0001:00008c60       ?visualizeJointFrames@Cm@physx@@YAXAEAVRenderOutput@12@MAEBVPxTransform@2@1@Z 0000000180009c60 f   CmVisualization.obj
 0001:00008d20       ?visualizeLimitCone@Cm@physx@@YAXAEAVRenderOutput@12@MAEBVPxTransform@2@MM_N@Z 0000000180009d20 f   CmVisualization.obj
 0001:00008fb0       ?visualizeLinearLimit@Cm@physx@@YAXAEAVRenderOutput@12@MAEBVPxTransform@2@1M_N@Z 0000000180009fb0 f   CmVisualization.obj
 0001:00009200       ??0CmModuleUpdateLoader@Cm@physx@@QEAA@PEBD@Z 000000018000a200 f   CmWindowsModuleUpdateLoader.obj
 0001:00009240       ??1CmModuleUpdateLoader@Cm@physx@@QEAA@XZ 000000018000a240 f   CmWindowsModuleUpdateLoader.obj
 0001:00009270       ?LoadModule@CmModuleUpdateLoader@Cm@physx@@QEAAPEAUHINSTANCE__@@PEBD0@Z 000000018000a270 f   CmWindowsModuleUpdateLoader.obj
 0001:00009290       ?commonDelayHook@@YAP6A_JXZIPEAUDelayLoadInfo@@@Z 000000018000a290 f   CmWindowsDelayLoadHook.obj
 0001:00009370       PxSetPhysXCommonDelayLoadHook 000000018000a370 f   CmWindowsDelayLoadHook.obj
 0001:00009380       ??0Box@Gu@physx@@QEAA@AEBV012@@Z 000000018000a380 f i GuBounds.obj
 0001:00009380       ??4Box@Gu@physx@@QEAAAEBV012@AEBV012@@Z 000000018000a380 f i GuBounds.obj
 0001:000093e0       ??0Box@Gu@physx@@QEAA@AEBVPxVec3@2@0AEBVPxMat33@2@@Z 000000018000a3e0 f i GuBounds.obj
 0001:00009450       ??0AABBTreeBuildNode@Gu@physx@@QEAA@XZ 000000018000a450 f i GuAABBTreeBuild.obj
 0001:00009450       ??0BigConvexData@physx@@QEAA@W4PxEMPTY@1@@Z 000000018000a450 f i GuMetaData.obj
 0001:00009450       ??0Box@Gu@physx@@QEAA@XZ   000000018000a450 f i GuBounds.obj
 0001:00009450       ??0GeometryUnion@Gu@physx@@QEAA@W4PxEMPTY@2@@Z 000000018000a450 f i GuGeometryUnion.obj
 0001:00009450       ??0HeightFieldData@Gu@physx@@QEAA@W4PxEMPTY@2@@Z 000000018000a450 f i GuBounds.obj
 0001:00009450       ??0MaterialIndicesStruct@physx@@QEAA@W4PxEMPTY@1@@Z 000000018000a450 f i GuGeometryUnion.obj
 0001:00009450       ?getAABB@AABBTreeBuildNode@Gu@physx@@QEBAAEBVPxBounds3@3@XZ 000000018000a450 f i GuAABBTreeBuild.obj
 0001:00009450       ?getGeometry@GeometryUnion@Gu@physx@@QEBAAEBVPxGeometry@3@XZ 000000018000a450 f i GuGeometryUnion.obj
 0001:00009450       ?getPaddedBounds@HeightFieldData@Gu@physx@@QEBAAEBVCenterExtentsPadded@23@XZ 000000018000a450 f i GuBounds.obj
 0001:00009460       ??0HeightFieldData@Gu@physx@@QEAA@$$QEAU012@@Z 000000018000a460 f i GuBounds.obj
 0001:00009460       ??0HeightFieldData@Gu@physx@@QEAA@AEBU012@@Z 000000018000a460 f i GuBounds.obj
 0001:00009460       ??4HeightFieldData@Gu@physx@@QEAAAEAU012@$$QEAU012@@Z 000000018000a460 f i GuBounds.obj
 0001:00009460       ??4HeightFieldData@Gu@physx@@QEAAAEAU012@AEBU012@@Z 000000018000a460 f i GuBounds.obj
 0001:000094c0       ??0HeightFieldData@Gu@physx@@QEAA@XZ 000000018000a4c0 f i GuBounds.obj
 0001:000094d0       ??0PxQuat@physx@@QEAA@AEBVPxMat33@1@@Z 000000018000a4d0 f i GuBounds.obj
 0001:000096e0       ??0ShapeData@Gu@physx@@QEAA@AEBVPxGeometry@2@AEBVPxTransform@2@M@Z 000000018000a6e0 f   GuBounds.obj
 0001:00009c50       ??1PxConvexMesh@physx@@MEAA@XZ 000000018000ac50 f i GuBounds.obj
 0001:00009c50       ??1PxHeightField@physx@@MEAA@XZ 000000018000ac50 f i GuBounds.obj
 0001:00009c60       ??_EPxBVHStructure@physx@@MEAAPEAXI@Z 000000018000ac60 f i GuBVHStructure.obj
 0001:00009c60       ??_EPxBase@physx@@MEAAPEAXI@Z 000000018000ac60 f i GuBounds.obj
 0001:00009c60       ??_EPxTriangleMesh@physx@@MEAAPEAXI@Z 000000018000ac60 f i GuTriangleMesh.obj
 0001:00009c60       ??_GPxBVHStructure@physx@@MEAAPEAXI@Z 000000018000ac60 f i GuBVHStructure.obj
 0001:00009c60       ??_GPxBase@physx@@MEAAPEAXI@Z 000000018000ac60 f i GuBounds.obj
 0001:00009c60       ??_GPxTriangleMesh@physx@@MEAAPEAXI@Z 000000018000ac60 f i GuTriangleMesh.obj
 0001:00009c90       ??_H@YAXPEAX_K1P6APEAX0@Z@Z 000000018000ac90 f i GuBounds.obj
 0001:00009ce0       ?computeAABBExtent@Box@Gu@physx@@QEBA?AVPxVec3@3@XZ 000000018000ace0 f i GuBounds.obj
 0001:00009da0       ?computeBounds@Gu@physx@@YAXAEAVPxBounds3@2@AEBVPxGeometry@2@AEBVPxTransform@2@MPEIBVCenterExtentsPadded@12@M@Z 000000018000ada0 f   GuBounds.obj
 0001:0000a6b0       ?computeBoundsWithCCDThreshold@Gu@physx@@YAMAEAVVec3p@12@0AEBVPxGeometry@2@AEBVPxTransform@2@PEIBVCenterExtentsPadded@12@@Z 000000018000b6b0 f   GuBounds.obj
 0001:0000a880       ?computeBoxPoints@Box@Gu@physx@@QEBAXPEIAVPxVec3@3@@Z 000000018000b880 f i GuBounds.obj
 0001:0000b830       ?getConcreteTypeName@PxConvexMesh@physx@@UEBAPEBDXZ 000000018000c830 f i GuBounds.obj
 0001:0000b840       ?getConcreteTypeName@PxHeightField@physx@@UEBAPEBDXZ 000000018000c840 f i GuBounds.obj
 0001:0000b850       ?getConvexEdgeThreshold@HeightField@Gu@physx@@UEBAMXZ 000000018000c850 f i GuBounds.obj
 0001:0000b860       ?getFlags@HeightField@Gu@physx@@UEBA?AV?$PxFlags@W4Enum@PxHeightFieldFlag@physx@@G@3@XZ 000000018000c860 f i GuBounds.obj
 0001:0000b870       ?getFormat@HeightField@Gu@physx@@UEBA?AW4Enum@PxHeightFieldFormat@3@XZ 000000018000c870 f i GuBounds.obj
 0001:0000b880       ?getHeight@HeightField@Gu@physx@@UEBAMMM@Z 000000018000c880 f i GuBounds.obj
 0001:0000b8c0       ?getHeightInternal2@HeightField@Gu@physx@@QEBAMIMM@Z 000000018000c8c0 f i GuBounds.obj
 0001:0000ba30       ?getIndexBuffer@ConvexMesh@Gu@physx@@UEBAPEBEXZ 000000018000ca30 f i GuBounds.obj
 0001:0000ba70       ?getNbPolygons@ConvexMesh@Gu@physx@@UEBAIXZ 000000018000ca70 f i GuBounds.obj
 0001:0000ba80       ?getNbRows@HeightField@Gu@physx@@UEBAIXZ 000000018000ca80 f i GuBounds.obj
 0001:0000ba90       ?getNbVertices@ConvexMesh@Gu@physx@@UEBAIXZ 000000018000ca90 f i GuBounds.obj
 0001:0000baa0       ?getSample@HeightField@Gu@physx@@UEBAAEBUPxHeightFieldSample@3@II@Z 000000018000caa0 f i GuBounds.obj
 0001:0000bab0       ?getSampleStride@HeightField@Gu@physx@@UEBAIXZ 000000018000cab0 f i GuBounds.obj
 0001:0000bac0       ?getTimestamp@HeightField@Gu@physx@@UEBAIXZ 000000018000cac0 f i GuBounds.obj
 0001:0000bad0       ?getTransform@Box@Gu@physx@@QEBA?AVPxTransform@3@XZ 000000018000cad0 f i GuBounds.obj
 0001:0000bb30       ?getTriangleMaterialIndex@HeightField@Gu@physx@@UEBAGI@Z 000000018000cb30 f i GuBounds.obj
 0001:0000bb60       ?getTriangleNormal@HeightField@Gu@physx@@UEBA?AVPxVec3@3@I@Z 000000018000cb60 f i GuBounds.obj
 0001:0000bb80       ?getTriangleNormalInternal@HeightField@Gu@physx@@QEBA?AVPxVec3@3@I@Z 000000018000cb80 f i GuBounds.obj
 0001:0000bcd0       ?getVertices@ConvexMesh@Gu@physx@@UEBAPEBVPxVec3@3@XZ 000000018000ccd0 f i GuBounds.obj
 0001:0000bcf0       ?isKindOf@PxBase@physx@@MEBA_NPEBD@Z 000000018000ccf0 f i GuBounds.obj
 0001:0000bd20       ?isKindOf@PxConvexMesh@physx@@MEBA_NPEBD@Z 000000018000cd20 f i GuBounds.obj
 0001:0000bd70       ?isKindOf@PxHeightField@physx@@MEBA_NPEBD@Z 000000018000cd70 f i GuBounds.obj
 0001:0000bdc0       ?isReleasable@PxBase@physx@@UEBA_NXZ 000000018000cdc0 f i GuBounds.obj
 0001:0000bdd0       ?isValid@Box@Gu@physx@@QEBA_NXZ 000000018000cdd0 f i GuBounds.obj
 0001:0000bdf0       ?preExportDataReset@ConvexMesh@Gu@physx@@QEAAXXZ 000000018000cdf0 f i GuBounds.obj
 0001:0000bdf0       ?preExportDataReset@HeightField@Gu@physx@@QEAAXXZ 000000018000cdf0 f i GuBounds.obj
 0001:0000be00       ?rotate@Box@Gu@physx@@QEBA?AVPxVec3@3@AEBV43@@Z 000000018000ce00 f i GuBounds.obj
 0001:0000be90       ?rotateInv@Box@Gu@physx@@QEBA?AVPxVec3@3@AEBV43@@Z 000000018000ce90 f i GuBounds.obj
 0001:0000bf20       ?setAxes@Box@Gu@physx@@QEAAXAEBVPxVec3@3@00@Z 000000018000cf20 f i GuBounds.obj
 0001:0000bf60       ?setEmpty@Box@Gu@physx@@QEAAXXZ 000000018000cf60 f i GuBounds.obj
 0001:0000bfa0       ?transform@Box@Gu@physx@@QEBA?AVPxVec3@3@AEBV43@@Z 000000018000cfa0 f i GuBounds.obj
 0001:0000c040       ?computeOBBPoints@Gu@physx@@YAXPEIAVPxVec3@2@AEBV32@1111@Z 000000018000d040 f   GuBox.obj
 0001:0000c2c0       ?create@Box@Gu@physx@@QEAAXAEBVCapsule@23@@Z 000000018000d2c0 f   GuBox.obj
 0001:0000c4f0       ?getBoxEdges@Gu@physx@@YAPEBEXZ 000000018000d4f0 f   GuBox.obj
 0001:0000c500       ?computeBasis@shdfnd@physx@@YAXAEBVPxVec3@2@0AEAV32@11@Z 000000018000d500 f i GuCapsule.obj
 0001:0000c6b0       ?computeBoxAroundCapsule@Gu@physx@@YAXAEBVCapsule@12@AEAVBox@12@@Z 000000018000d6b0 f   GuCapsule.obj
 0001:0000c800       ??0HeightFieldTraceUtil@Gu@physx@@QEAA@AEBVPxHeightFieldGeometry@2@@Z 000000018000d800 f i GuCCTSweepTests.obj
 0001:0000c800       ??0HeightFieldUtil@Gu@physx@@QEAA@AEBVPxHeightFieldGeometry@2@@Z 000000018000d800 f i GuCCTSweepTests.obj
 0001:0000c840       ??4HeightFieldTraceUtil@Gu@physx@@QEAAAEAV012@$$QEAV012@@Z 000000018000d840 f i GuCCTSweepTests.obj
 0001:0000c840       ??4HeightFieldTraceUtil@Gu@physx@@QEAAAEAV012@AEBV012@@Z 000000018000d840 f i GuCCTSweepTests.obj
 0001:0000c840       ??4HeightFieldUtil@Gu@physx@@QEAAAEAV012@AEBV012@@Z 000000018000d840 f i GuCCTSweepTests.obj
 0001:0000c860       ??4HeightFieldUtil@Gu@physx@@QEAAAEAV012@$$QEAV012@@Z 000000018000d860 f i GuCCTSweepTests.obj
 0001:0000c890       ??_E?$EntityReport@I@Gu@physx@@UEAAPEAXI@Z 000000018000d890 f i GuCCTSweepTests.obj
 0001:0000c890       ??_G?$EntityReport@I@Gu@physx@@UEAAPEAXI@Z 000000018000d890 f i GuCCTSweepTests.obj
 0001:0000c8f0       ?ceilUp@HeightFieldTraceUtil@Gu@physx@@SAMM@Z 000000018000d8f0 f i GuCCTSweepTests.obj
 0001:0000c930       ?computePointNormal@HeightFieldUtil@Gu@physx@@QEBA?AVPxVec3@3@IAEBV43@AEBVPxTransform@3@MMMMAEAM@Z 000000018000d930 f i GuCCTSweepTests.obj
 0001:0000cd50       ?floorDown@HeightFieldTraceUtil@Gu@physx@@SAMM@Z 000000018000dd50 f i GuCCTSweepTests.obj
 0001:0000cd90       ?getFeatureIndex@HeightFieldUtil@Gu@physx@@SAII@Z 000000018000dd90 f i GuCCTSweepTests.obj
 0001:0000cda0       ?getFeatureType@HeightFieldUtil@Gu@physx@@SA?AW4Feature@123@I@Z 000000018000dda0 f i GuCCTSweepTests.obj
 0001:0000cdb0       ?getHeightAtShapePoint@HeightFieldUtil@Gu@physx@@QEBAMMM@Z 000000018000ddb0 f i GuCCTSweepTests.obj
 0001:0000ce10       ?getNormalAtShapePoint@HeightFieldUtil@Gu@physx@@QEBA?AVPxVec3@3@MM@Z 000000018000de10 f i GuCCTSweepTests.obj
 0001:0000ced0       ?getNormal_2@HeightField@Gu@physx@@QEBA?AVPxVec3@3@IMMMMM@Z 000000018000ded0 f i GuCCTSweepTests.obj
 0001:0000cfe0       ?getOneOverColumnScale@HeightFieldUtil@Gu@physx@@QEBAMXZ 000000018000dfe0 f i GuCCTSweepTests.obj
 0001:0000cff0       ?getOneOverHeightScale@HeightFieldUtil@Gu@physx@@QEBAMXZ 000000018000dff0 f i GuCCTSweepTests.obj
 0001:0000d000       ?getOneOverRowScale@HeightFieldUtil@Gu@physx@@QEBAMXZ 000000018000e000 f i GuCCTSweepTests.obj
 0001:0000d010       ?getVertexNormal@HeightFieldUtil@Gu@physx@@QEBA?AVPxVec3@3@I@Z 000000018000e010 f i GuCCTSweepTests.obj
 0001:0000d040       ?hf2shapen@HeightFieldUtil@Gu@physx@@QEBA?AVPxVec3@3@AEBV43@@Z 000000018000e040 f i GuCCTSweepTests.obj
 0001:0000d040       ?shape2hfp@HeightFieldUtil@Gu@physx@@QEBA?AVPxVec3@3@AEBV43@@Z 000000018000e040 f i GuCCTSweepTests.obj
 0001:0000d080       ?hf2shapep@HeightFieldUtil@Gu@physx@@QEBA?AVPxVec3@3@AEBV43@@Z 000000018000e080 f i GuCCTSweepTests.obj
 0001:0000d0c0       ?hf2worldn@HeightFieldUtil@Gu@physx@@QEBA?AVPxVec3@3@AEBVPxTransform@3@AEBV43@@Z 000000018000e0c0 f i GuCCTSweepTests.obj
 0001:0000d230       ?hf2worldp@HeightFieldUtil@Gu@physx@@QEBA?AVPxVec3@3@AEBVPxTransform@3@AEBV43@@Z 000000018000e230 f i GuCCTSweepTests.obj
 0001:0000d3b0       ?isCollisionVertex@HeightFieldUtil@Gu@physx@@QEBA_NIII@Z 000000018000e3b0 f i GuCCTSweepTests.obj
 0001:0000d3d0       ?isQueryVertex@HeightFieldUtil@Gu@physx@@QEBA_NIII@Z 000000018000e3d0 f i GuCCTSweepTests.obj
 0001:0000d490       ?isShapePointOnHeightField@HeightFieldUtil@Gu@physx@@QEBA_NMM@Z 000000018000e490 f i GuCCTSweepTests.obj
 0001:0000d4e0       ?makeFeatureCode@HeightFieldUtil@Gu@physx@@SAIIW4Feature@123@@Z 000000018000e4e0 f i GuCCTSweepTests.obj
 0001:0000d6a0       ?sweepBoxTriangles_Precise@Gu@physx@@YA_NIPEBVPxTriangle@2@_NAEBVPxBoxGeometry@2@AEBVPxTransform@2@AEBVPxVec3@2@MAEAUPxSweepHit@2@PEBIMV?$PxFlags@W4Enum@PxHitFlag@physx@@G@2@@Z 000000018000e6a0 f   GuCCTSweepTests.obj
 0001:0000e430       ?sweepBox_BoxGeom_Precise@@YA_NAEBVPxGeometry@physx@@AEBVPxTransform@2@AEBVPxBoxGeometry@2@1AEBVBox@Gu@2@AEBVPxVec3@2@MAEAUPxSweepHit@2@V?$PxFlags@W4Enum@PxHitFlag@physx@@G@2@M@Z 000000018000f430 f   GuCCTSweepTests.obj
 0001:0000e5f0       ?sweepBox_CapsuleGeom_Precise@@YA_NAEBVPxGeometry@physx@@AEBVPxTransform@2@AEBVPxBoxGeometry@2@1AEBVBox@Gu@2@AEBVPxVec3@2@MAEAUPxSweepHit@2@V?$PxFlags@W4Enum@PxHitFlag@physx@@G@2@M@Z 000000018000f5f0 f   GuCCTSweepTests.obj
 0001:0000e9c0       ?sweepBox_HeightFieldGeom_Precise@@YA_NAEBVPxGeometry@physx@@AEBVPxTransform@2@AEBVPxBoxGeometry@2@1AEBVBox@Gu@2@AEBVPxVec3@2@MAEAUPxSweepHit@2@V?$PxFlags@W4Enum@PxHitFlag@physx@@G@2@M@Z 000000018000f9c0 f   GuCCTSweepTests.obj
 0001:0000ed80       ?sweepBox_SphereGeom_Precise@@YA_NAEBVPxGeometry@physx@@AEBVPxTransform@2@AEBVPxBoxGeometry@2@1AEBVBox@Gu@2@AEBVPxVec3@2@MAEAUPxSweepHit@2@V?$PxFlags@W4Enum@PxHitFlag@physx@@G@2@M@Z 000000018000fd80 f   GuCCTSweepTests.obj
 0001:0000f050       ?sweepCapsule_BoxGeom_Precise@@YA_NAEBVPxGeometry@physx@@AEBVPxTransform@2@AEBVPxCapsuleGeometry@2@1AEBVCapsule@Gu@2@AEBVPxVec3@2@MAEAUPxSweepHit@2@V?$PxFlags@W4Enum@PxHitFlag@physx@@G@2@M@Z 0000000180010050 f   GuCCTSweepTests.obj
 0001:0000f6b0       ?computePenetration@PxGeometryQuery@physx@@SA_NAEAVPxVec3@2@AEAMAEBVPxGeometry@2@AEBVPxTransform@2@23@Z 00000001800106b0 f   GuGeometryQuery.obj
 0001:0000f790       ?getWorldBounds@PxGeometryQuery@physx@@SA?AVPxBounds3@2@AEBVPxGeometry@2@AEBVPxTransform@2@M@Z 0000000180010790 f   GuGeometryQuery.obj
 0001:0000f7f0       ?isFinite@PxQuat@physx@@QEBA_NXZ 00000001800107f0 f i GuGeometryQuery.obj
 0001:0000f860       ?isValid@PxGeometryQuery@physx@@SA_NAEBVPxGeometry@2@@Z 0000000180010860 f   GuGeometryQuery.obj
 0001:0000fa60       ?overlap@PxGeometryQuery@physx@@SA_NAEBVPxGeometry@2@AEBVPxTransform@2@01@Z 0000000180010a60 f   GuGeometryQuery.obj
 0001:0000fb00       ?pointDistance@PxGeometryQuery@physx@@SAMAEBVPxVec3@2@AEBVPxGeometry@2@AEBVPxTransform@2@PEAV32@@Z 0000000180010b00 f   GuGeometryQuery.obj
 0001:00010170       ?raycast@PxGeometryQuery@physx@@SAIAEBVPxVec3@2@0AEBVPxGeometry@2@AEBVPxTransform@2@MV?$PxFlags@W4Enum@PxHitFlag@physx@@G@2@IPEIAUPxRaycastHit@2@@Z 0000000180011170 f   GuGeometryQuery.obj
 0001:00010210       ?sweep@PxGeometryQuery@physx@@SA_NAEBVPxVec3@2@MAEBVPxGeometry@2@AEBVPxTransform@2@12AEAUPxSweepHit@2@V?$PxFlags@W4Enum@PxHitFlag@physx@@G@2@M@Z 0000000180011210 f   GuGeometryQuery.obj
 0001:000105f0       ??0GeometryUnion@Gu@physx@@QEAA@AEBVPxGeometry@2@@Z 00000001800115f0 f i GuGeometryUnion.obj
 0001:00010610       ??0GeometryUnion@Gu@physx@@QEAA@XZ 0000000180011610 f i GuGeometryUnion.obj
 0001:00010620       ??0MaterialIndicesStruct@physx@@QEAA@XZ 0000000180011620 f i GuGeometryUnion.obj
 0001:00010640       ??4GeometryUnion@Gu@physx@@QEAAAEAV012@$$QEAV012@@Z 0000000180011640 f i GuGeometryUnion.obj
 0001:00010640       ??4GeometryUnion@Gu@physx@@QEAAAEAV012@AEBV012@@Z 0000000180011640 f i GuGeometryUnion.obj
 0001:00010670       ?allocate@MaterialIndicesStruct@physx@@QEAAXG@Z 0000000180011670 f i GuGeometryUnion.obj
 0001:000106f0       ?deallocate@MaterialIndicesStruct@physx@@QEAAXXZ 00000001800116f0 f i GuGeometryUnion.obj
 0001:00010740       ?getCount@BuildStats@Gu@physx@@QEBAIXZ 0000000180011740 f i GuAABBTreeBuild.obj
 0001:00010740       ?getNumAxes@SeparatingAxes@Gu@physx@@QEBAIXZ 0000000180011740 f i GuMTD.obj
 0001:00010740       ?getType@GeometryUnion@Gu@physx@@QEBA?AW4Enum@PxGeometryType@3@XZ 0000000180011740 f i GuGeometryUnion.obj
 0001:00010750       ?set@GeometryUnion@Gu@physx@@QEAAXAEBVPxGeometry@3@@Z 0000000180011750 f   GuGeometryUnion.obj
 0001:00010910       ?computeBoundsAroundVertices@Gu@physx@@YAXAEAVPxBounds3@2@IPEIBVPxVec3@2@@Z 0000000180011910 f   GuInternal.obj
 0001:000109a0       ?computeBoxPoints@Gu@physx@@YAXAEBVPxBounds3@2@PEIAVPxVec3@2@@Z 00000001800119a0 f   GuInternal.obj
 0001:00010a40       ?computeSweptBox@Gu@physx@@YAXAEAVBox@12@AEBVPxVec3@2@1AEBVPxMat33@2@1M@Z 0000000180011a40 f   GuInternal.obj
 0001:00010f80       ?getPlane@Gu@physx@@YA?AVPxPlane@2@AEBVPxTransform@2@@Z 0000000180011f80 f   GuInternal.obj
 0001:00011030       ??$?_UI@@YAPEAX_KV?$ReflectionAllocator@I@shdfnd@physx@@PEBDH@Z 0000000180012030 f i GuMeshFactory.obj
 0001:000110d0       ??0GuMeshFactory@physx@@QEAA@XZ 00000001800120d0 f   GuMeshFactory.obj
 0001:00011270       ??1GuMeshFactory@physx@@MEAA@XZ 0000000180012270 f   GuMeshFactory.obj
 0001:00011370       ??1MeshDataBase@Gu@physx@@UEAA@XZ 0000000180012370 f i GuMeshFactory.obj
 0001:00011470       ??1TriangleMeshData@Gu@physx@@UEAA@XZ 0000000180012470 f i GuMeshFactory.obj
 0001:00011540       ??_EGuMeshFactory@physx@@MEAAPEAXI@Z 0000000180012540 f i GuMeshFactory.obj
 0001:00011660       ??_EBV4TriangleData@Gu@physx@@UEAAPEAXI@Z 0000000180012660 f i GuMeshFactory.obj
 0001:00011660       ??_GBV4TriangleData@Gu@physx@@UEAAPEAXI@Z 0000000180012660 f i GuMeshFactory.obj
 0001:000116f0       ??_EMeshDataBase@Gu@physx@@UEAAPEAXI@Z 00000001800126f0 f i GuMeshFactory.obj
 0001:000116f0       ??_GMeshDataBase@Gu@physx@@UEAAPEAXI@Z 00000001800126f0 f i GuMeshFactory.obj
 0001:00011760       ??_ERTreeTriangleData@Gu@physx@@UEAAPEAXI@Z 0000000180012760 f i GuMeshFactory.obj
 0001:00011760       ??_GRTreeTriangleData@Gu@physx@@UEAAPEAXI@Z 0000000180012760 f i GuMeshFactory.obj
 0001:00011820       ??_ETriangleMeshData@Gu@physx@@UEAAPEAXI@Z 0000000180012820 f i GuMeshFactory.obj
 0001:00011820       ??_GTriangleMeshData@Gu@physx@@UEAAPEAXI@Z 0000000180012820 f i GuMeshFactory.obj
 0001:00011890       ?__global_array_delete@@YAXPEAX_K@Z 0000000180012890 f i GuMeshFactory.obj
 0001:000118a0       ??_V@YAXPEAX_K@Z           00000001800128a0 f i LIBCMT:delete_array_size.obj
 0001:000118a0       ?__global_delete@@YAXPEAX_K@Z 00000001800128a0 f i GuMeshFactory.obj
 0001:000118b0       ?addBVHStructure@GuMeshFactory@physx@@QEAAXPEAVBVHStructure@Gu@2@_N@Z 00000001800128b0 f   GuMeshFactory.obj
 0001:00011930       ?addConvexMesh@GuMeshFactory@physx@@QEAAXPEAVConvexMesh@Gu@2@_N@Z 0000000180012930 f   GuMeshFactory.obj
 0001:000119b0       ?addFactoryListener@GuMeshFactory@physx@@QEAAXAEAVGuMeshFactoryListener@2@@Z 00000001800129b0 f   GuMeshFactory.obj
 0001:00011a20       ?addHeightField@GuMeshFactory@physx@@QEAAXPEAVHeightField@Gu@2@_N@Z 0000000180012a20 f   GuMeshFactory.obj
 0001:00011aa0       ?addTriangleMesh@GuMeshFactory@physx@@QEAAXPEAVTriangleMesh@Gu@2@_N@Z 0000000180012aa0 f   GuMeshFactory.obj
 0001:00011b20       ?create@?$HashBase@PEAVBVHStructure@Gu@physx@@PEAV123@U?$Hash@PEAVBVHStructure@Gu@physx@@@shdfnd@3@UGetKey@?$HashSetBase@PEAVBVHStructure@Gu@physx@@U?$Hash@PEAVBVHStructure@Gu@physx@@@shdfnd@3@VNonTrackingAllocator@53@$00@internal@53@VNonTrackingAllocator@53@$00@internal@shdfnd@physx@@QEAAPEAPEAVBVHStructure@Gu@4@AEBQEAV564@AEA_N@Z 0000000180012b20 f i GuMeshFactory.obj
 0001:00011b20       ?create@?$HashBase@PEAVConvexMesh@Gu@physx@@PEAV123@U?$Hash@PEAVConvexMesh@Gu@physx@@@shdfnd@3@UGetKey@?$HashSetBase@PEAVConvexMesh@Gu@physx@@U?$Hash@PEAVConvexMesh@Gu@physx@@@shdfnd@3@VNonTrackingAllocator@53@$00@internal@53@VNonTrackingAllocator@53@$00@internal@shdfnd@physx@@QEAAPEAPEAVConvexMesh@Gu@4@AEBQEAV564@AEA_N@Z 0000000180012b20 f i GuMeshFactory.obj
 0001:00011b20       ?create@?$HashBase@PEAVHeightField@Gu@physx@@PEAV123@U?$Hash@PEAVHeightField@Gu@physx@@@shdfnd@3@UGetKey@?$HashSetBase@PEAVHeightField@Gu@physx@@U?$Hash@PEAVHeightField@Gu@physx@@@shdfnd@3@VNonTrackingAllocator@53@$00@internal@53@VNonTrackingAllocator@53@$00@internal@shdfnd@physx@@QEAAPEAPEAVHeightField@Gu@4@AEBQEAV564@AEA_N@Z 0000000180012b20 f i GuMeshFactory.obj
 0001:00011b20       ?create@?$HashBase@PEAVTriangleMesh@Gu@physx@@PEAV123@U?$Hash@PEAVTriangleMesh@Gu@physx@@@shdfnd@3@UGetKey@?$HashSetBase@PEAVTriangleMesh@Gu@physx@@U?$Hash@PEAVTriangleMesh@Gu@physx@@@shdfnd@3@VNonTrackingAllocator@53@$00@internal@53@VNonTrackingAllocator@53@$00@internal@shdfnd@physx@@QEAAPEAPEAVTriangleMesh@Gu@4@AEBQEAV564@AEA_N@Z 0000000180012b20 f i GuMeshFactory.obj
 0001:00011cb0       ?createBVHStructure@GuMeshFactory@physx@@IEAAPEAVPxBVHStructure@2@AEAUBVHStructureData@Gu@2@@Z 0000000180012cb0 f   GuMeshFactory.obj
 0001:00011db0       ?createBVHStructure@GuMeshFactory@physx@@QEAAPEAVPxBVHStructure@2@AEAVPxInputStream@2@@Z 0000000180012db0 f   GuMeshFactory.obj
 0001:00011ed0       ?createBVHStructure@GuMeshFactory@physx@@QEAAPEAVPxBVHStructure@2@PEAX@Z 0000000180012ed0 f   GuMeshFactory.obj
 0001:00011ee0       ?createConvexMesh@GuMeshFactory@physx@@IEAAPEAVPxConvexMesh@2@AEAUConvexHullInitData@Gu@2@@Z 0000000180012ee0 f   GuMeshFactory.obj
 0001:00011fe0       ?createConvexMesh@GuMeshFactory@physx@@QEAAPEAVPxConvexMesh@2@AEAVPxInputStream@2@@Z 0000000180012fe0 f   GuMeshFactory.obj
 0001:00012100       ?createConvexMesh@GuMeshFactory@physx@@QEAAPEAVPxConvexMesh@2@PEAX@Z 0000000180013100 f   GuMeshFactory.obj
 0001:00012110       ?createHeightField@GuMeshFactory@physx@@QEAAPEAVPxHeightField@2@AEAVPxInputStream@2@@Z 0000000180013110 f   GuMeshFactory.obj
 0001:00012230       ?createHeightField@GuMeshFactory@physx@@QEAAPEAVPxHeightField@2@PEAX@Z 0000000180013230 f   GuMeshFactory.obj
 0001:00012330       ?createTriangleMesh@GuMeshFactory@physx@@IEAAPEAVPxTriangleMesh@2@AEAVTriangleMeshData@Gu@2@@Z 0000000180013330 f   GuMeshFactory.obj
 0001:000124c0       ?createTriangleMesh@GuMeshFactory@physx@@QEAAPEAVPxTriangleMesh@2@AEAVPxInputStream@2@@Z 00000001800134c0 f   GuMeshFactory.obj
 0001:00012520       ?createTriangleMesh@GuMeshFactory@physx@@QEAAPEAVPxTriangleMesh@2@PEAX@Z 0000000180013520 f   GuMeshFactory.obj
 0001:00012530       ?erase@?$HashBase@PEAVBVHStructure@Gu@physx@@PEAV123@U?$Hash@PEAVBVHStructure@Gu@physx@@@shdfnd@3@UGetKey@?$HashSetBase@PEAVBVHStructure@Gu@physx@@U?$Hash@PEAVBVHStructure@Gu@physx@@@shdfnd@3@VNonTrackingAllocator@53@$00@internal@53@VNonTrackingAllocator@53@$00@internal@shdfnd@physx@@QEAA_NAEBQEAVBVHStructure@Gu@4@@Z 0000000180013530 f i GuMeshFactory.obj
 0001:00012530       ?erase@?$HashBase@PEAVConvexMesh@Gu@physx@@PEAV123@U?$Hash@PEAVConvexMesh@Gu@physx@@@shdfnd@3@UGetKey@?$HashSetBase@PEAVConvexMesh@Gu@physx@@U?$Hash@PEAVConvexMesh@Gu@physx@@@shdfnd@3@VNonTrackingAllocator@53@$00@internal@53@VNonTrackingAllocator@53@$00@internal@shdfnd@physx@@QEAA_NAEBQEAVConvexMesh@Gu@4@@Z 0000000180013530 f i GuMeshFactory.obj
 0001:00012530       ?erase@?$HashBase@PEAVHeightField@Gu@physx@@PEAV123@U?$Hash@PEAVHeightField@Gu@physx@@@shdfnd@3@UGetKey@?$HashSetBase@PEAVHeightField@Gu@physx@@U?$Hash@PEAVHeightField@Gu@physx@@@shdfnd@3@VNonTrackingAllocator@53@$00@internal@53@VNonTrackingAllocator@53@$00@internal@shdfnd@physx@@QEAA_NAEBQEAVHeightField@Gu@4@@Z 0000000180013530 f i GuMeshFactory.obj
 0001:00012530       ?erase@?$HashBase@PEAVTriangleMesh@Gu@physx@@PEAV123@U?$Hash@PEAVTriangleMesh@Gu@physx@@@shdfnd@3@UGetKey@?$HashSetBase@PEAVTriangleMesh@Gu@physx@@U?$Hash@PEAVTriangleMesh@Gu@physx@@@shdfnd@3@VNonTrackingAllocator@53@$00@internal@53@VNonTrackingAllocator@53@$00@internal@shdfnd@physx@@QEAA_NAEBQEAVTriangleMesh@Gu@4@@Z 0000000180013530 f i GuMeshFactory.obj
 0001:000126b0       ?getBVHStructures@GuMeshFactory@physx@@QEBAIPEAPEAVPxBVHStructure@2@II@Z 00000001800136b0 f   GuMeshFactory.obj
 0001:00012750       ?getConvexMeshes@GuMeshFactory@physx@@QEBAIPEAPEAVPxConvexMesh@2@II@Z 0000000180013750 f   GuMeshFactory.obj
 0001:000127e0       ?getHeightFields@GuMeshFactory@physx@@QEBAIPEAPEAVPxHeightField@2@II@Z 00000001800137e0 f   GuMeshFactory.obj
 0001:00012880       ?getNbBVHStructures@GuMeshFactory@physx@@QEBAIXZ 0000000180013880 f   GuMeshFactory.obj
 0001:000128c0       ?getNbConvexMeshes@GuMeshFactory@physx@@QEBAIXZ 00000001800138c0 f   GuMeshFactory.obj
 0001:00012900       ?getNbHeightFields@GuMeshFactory@physx@@QEBAIXZ 0000000180013900 f   GuMeshFactory.obj
 0001:00012940       ?getNbTriangleMeshes@GuMeshFactory@physx@@QEBAIXZ 0000000180013940 f   GuMeshFactory.obj
 0001:00012980       ?getTriangleMeshes@GuMeshFactory@physx@@QEBAIPEAPEAVPxTriangleMesh@2@II@Z 0000000180013980 f   GuMeshFactory.obj
 0001:00012a10       ?growAndPushBack@?$Array@PEAVGuMeshFactoryListener@physx@@V?$ReflectionAllocator@PEAVGuMeshFactoryListener@physx@@@shdfnd@2@@shdfnd@physx@@IEAAAEAPEAVGuMeshFactoryListener@3@AEBQEAV43@@Z 0000000180013a10 f i GuMeshFactory.obj
 0001:00013a10       ?notifyFactoryListener@GuMeshFactory@physx@@QEAAXPEBVPxBase@2@G@Z 0000000180014a10 f   GuMeshFactory.obj
 0001:00013a80       ?release@GuMeshFactory@physx@@QEAAXXZ 0000000180014a80 f   GuMeshFactory.obj
 0001:00013b30       ?removeBVHStructure@GuMeshFactory@physx@@QEAA_NAEAVPxBVHStructure@2@@Z 0000000180014b30 f   GuMeshFactory.obj
 0001:00013b80       ?removeConvexMesh@GuMeshFactory@physx@@QEAA_NAEAVPxConvexMesh@2@@Z 0000000180014b80 f   GuMeshFactory.obj
 0001:00013bd0       ?removeFactoryListener@GuMeshFactory@physx@@QEAAXAEAVGuMeshFactoryListener@2@@Z 0000000180014bd0 f   GuMeshFactory.obj
 0001:00013c60       ?removeHeightField@GuMeshFactory@physx@@QEAA_NAEAVPxHeightField@2@@Z 0000000180014c60 f   GuMeshFactory.obj
 0001:00013cb0       ?removeTriangleMesh@GuMeshFactory@physx@@QEAA_NAEAVPxTriangleMesh@2@@Z 0000000180014cb0 f   GuMeshFactory.obj
 0001:00013d00       ?reserveInternal@?$HashBase@PEAVBVHStructure@Gu@physx@@PEAV123@U?$Hash@PEAVBVHStructure@Gu@physx@@@shdfnd@3@UGetKey@?$HashSetBase@PEAVBVHStructure@Gu@physx@@U?$Hash@PEAVBVHStructure@Gu@physx@@@shdfnd@3@VNonTrackingAllocator@53@$00@internal@53@VNonTrackingAllocator@53@$00@internal@shdfnd@physx@@AEAAXI@Z 0000000180014d00 f i GuMeshFactory.obj
 0001:00013d00       ?reserveInternal@?$HashBase@PEAVConvexMesh@Gu@physx@@PEAV123@U?$Hash@PEAVConvexMesh@Gu@physx@@@shdfnd@3@UGetKey@?$HashSetBase@PEAVConvexMesh@Gu@physx@@U?$Hash@PEAVConvexMesh@Gu@physx@@@shdfnd@3@VNonTrackingAllocator@53@$00@internal@53@VNonTrackingAllocator@53@$00@internal@shdfnd@physx@@AEAAXI@Z 0000000180014d00 f i GuMeshFactory.obj
 0001:00013d00       ?reserveInternal@?$HashBase@PEAVHeightField@Gu@physx@@PEAV123@U?$Hash@PEAVHeightField@Gu@physx@@@shdfnd@3@UGetKey@?$HashSetBase@PEAVHeightField@Gu@physx@@U?$Hash@PEAVHeightField@Gu@physx@@@shdfnd@3@VNonTrackingAllocator@53@$00@internal@53@VNonTrackingAllocator@53@$00@internal@shdfnd@physx@@AEAAXI@Z 0000000180014d00 f i GuMeshFactory.obj
 0001:00013d00       ?reserveInternal@?$HashBase@PEAVTriangleMesh@Gu@physx@@PEAV123@U?$Hash@PEAVTriangleMesh@Gu@physx@@@shdfnd@3@UGetKey@?$HashSetBase@PEAVTriangleMesh@Gu@physx@@U?$Hash@PEAVTriangleMesh@Gu@physx@@@shdfnd@3@VNonTrackingAllocator@53@$00@internal@53@VNonTrackingAllocator@53@$00@internal@shdfnd@physx@@AEAAXI@Z 0000000180014d00 f i GuMeshFactory.obj
 0001:00013ed0       ??4BigConvexData@physx@@QEAAAEAV01@AEBV01@@Z 0000000180014ed0 f i GuMetaData.obj
 0001:00013ef0       ?GetAdjacentVerts@BigConvexData@physx@@QEBAPEBEXZ 0000000180014ef0 f i GuMetaData.obj
 0001:00013f00       ?GetNbNeighbors@BigConvexData@physx@@QEBAGI@Z 0000000180014f00 f i GuMetaData.obj
 0001:00013f00       ?GetValency@BigConvexData@physx@@QEBAGI@Z 0000000180014f00 f i GuMetaData.obj
 0001:00013f10       ?GetNbSamples@BigConvexData@physx@@QEBAIXZ 0000000180014f10 f i GuMetaData.obj
 0001:00013f20       ?GetNbVerts@BigConvexData@physx@@QEBAIXZ 0000000180014f20 f i GuMetaData.obj
 0001:00013f20       ?length@pcharNode@@UEBAHXZ 0000000180014f20 f i libvcruntime:undname.obj
 0001:00013f20       ?raw_length@pcharNode@@UEBAHXZ 0000000180014f20 f i libvcruntime:undname.obj
 0001:00013f30       ?GetNeighbors@BigConvexData@physx@@QEBAPEBEI@Z 0000000180014f30 f i GuMetaData.obj
 0001:00013f40       ?GetOffset@BigConvexData@physx@@QEBAGI@Z 0000000180014f40 f i GuMetaData.obj
 0001:00013f50       ?GetSubdiv@BigConvexData@physx@@QEBAIXZ 0000000180014f50 f i GuMetaData.obj
 0001:00013f60       ?getBinaryMetaData@BV4Tree@Gu@physx@@SAXAEAVPxOutputStream@3@@Z 0000000180014f60 f   GuMetaData.obj
 0001:00014310       ?getBinaryMetaData@BV4TriangleMesh@Gu@physx@@SAXAEAVPxOutputStream@3@@Z 0000000180015310 f   GuMetaData.obj
 0001:00014600       ?getBinaryMetaData@BigConvexData@physx@@SAXAEAVPxOutputStream@2@@Z 0000000180015600 f   GuMetaData.obj
 0001:000148e0       ?getBinaryMetaData@ConvexMesh@Gu@physx@@SAXAEAVPxOutputStream@3@@Z 00000001800158e0 f   GuMetaData.obj
 0001:00014f80       ?getBinaryMetaData@GeometryUnion@Gu@physx@@SAXAEAVPxOutputStream@3@@Z 0000000180015f80 f   GuMetaData.obj
 0001:00015600       ?getBinaryMetaData@HeightField@Gu@physx@@SAXAEAVPxOutputStream@3@@Z 0000000180016600 f   GuMetaData.obj
 0001:00015a50       ?getBinaryMetaData@MaterialIndicesStruct@physx@@SAXAEAVPxOutputStream@2@@Z 0000000180016a50 f   GuMetaData.obj
 0001:00015c00       ?getBinaryMetaData@RTree@Gu@physx@@SAXAEAVPxOutputStream@3@@Z 0000000180016c00 f   GuMetaData.obj
 0001:00015f50       ?getBinaryMetaData@RTreeTriangleMesh@Gu@physx@@SAXAEAVPxOutputStream@3@@Z 0000000180016f50 f   GuMetaData.obj
 0001:00016840       ?getBinaryMetaData@TriangleMesh@Gu@physx@@SAXAEAVPxOutputStream@3@@Z 0000000180017840 f   GuMetaData.obj
 0001:00017d60       ?doSupport@?$SupportLocalImpl@VConvexHullV@Gu@physx@@@Gu@physx@@UEBA?AT__m128@@AEBT4@@Z 0000000180018d60 f i GuMTD.obj
 0001:00017e40       ?doSupport@?$SupportLocalImpl@VConvexHullV@Gu@physx@@@Gu@physx@@UEBAXAEBT__m128@@AEAT4@1@Z 0000000180018e40 f i GuMTD.obj
 0001:000181a0       ?populateVerts@?$SupportLocalImpl@VConvexHullV@Gu@physx@@@Gu@physx@@UEBAXPEBEIPEBVPxVec3@3@PEAT__m128@@@Z 00000001800191a0 f i GuMTD.obj
 0001:00018200       ??_E?$SupportLocalImpl@VBoxV@Gu@physx@@@Gu@physx@@UEAAPEAXI@Z 0000000180019200 f i GuMTD.obj
 0001:00018200       ??_E?$SupportLocalImpl@VConvexHullNoScaleV@Gu@physx@@@Gu@physx@@UEAAPEAXI@Z 0000000180019200 f i GuMTD.obj
 0001:00018200       ??_E?$SupportLocalImpl@VConvexHullV@Gu@physx@@@Gu@physx@@UEAAPEAXI@Z 0000000180019200 f i GuMTD.obj
 0001:00018200       ??_E?$SupportLocalImpl@VTriangleV@Gu@physx@@@Gu@physx@@UEAAPEAXI@Z 0000000180019200 f i GuPCMContactConvexCommon.obj
 0001:00018200       ??_G?$SupportLocalImpl@VBoxV@Gu@physx@@@Gu@physx@@UEAAPEAXI@Z 0000000180019200 f i GuMTD.obj
 0001:00018200       ??_G?$SupportLocalImpl@VConvexHullNoScaleV@Gu@physx@@@Gu@physx@@UEAAPEAXI@Z 0000000180019200 f i GuMTD.obj
 0001:00018200       ??_G?$SupportLocalImpl@VConvexHullV@Gu@physx@@@Gu@physx@@UEAAPEAXI@Z 0000000180019200 f i GuMTD.obj
 0001:00018200       ??_G?$SupportLocalImpl@VTriangleV@Gu@physx@@@Gu@physx@@UEAAPEAXI@Z 0000000180019200 f i GuPCMContactConvexCommon.obj
 0001:00018230       ?doSupport@?$SupportLocalImpl@VConvexHullNoScaleV@Gu@physx@@@Gu@physx@@UEBA?AT__m128@@AEBT4@@Z 0000000180019230 f i GuMTD.obj
 0001:00018280       ?doSupport@?$SupportLocalImpl@VConvexHullNoScaleV@Gu@physx@@@Gu@physx@@UEBAXAEBT__m128@@AEAT4@1@Z 0000000180019280 f i GuMTD.obj
 0001:00018400       ?populateVerts@?$SupportLocalImpl@VBoxV@Gu@physx@@@Gu@physx@@UEBAXPEBEIPEBVPxVec3@3@PEAT__m128@@@Z 0000000180019400 f i GuMTD.obj
 0001:00018400       ?populateVerts@?$SupportLocalImpl@VConvexHullNoScaleV@Gu@physx@@@Gu@physx@@UEBAXPEBEIPEBVPxVec3@3@PEAT__m128@@@Z 0000000180019400 f i GuMTD.obj
 0001:00018440       ?doSupport@?$SupportLocalImpl@VBoxV@Gu@physx@@@Gu@physx@@UEBA?AT__m128@@AEBT4@@Z 0000000180019440 f i GuMTD.obj
 0001:00018470       ?doSupport@?$SupportLocalImpl@VBoxV@Gu@physx@@@Gu@physx@@UEBAXAEBT__m128@@AEAT4@1@Z 0000000180019470 f i GuMTD.obj
 0001:000184c0       ??_ESupportLocal@Gu@physx@@UEAAPEAXI@Z 00000001800194c0 f i GuMTD.obj
 0001:000184c0       ??_GSupportLocal@Gu@physx@@UEAAPEAXI@Z 00000001800194c0 f i GuMTD.obj
 0001:0001a2f0       ??$gjk@U?$LocalConvex@VCapsuleV@Gu@physx@@@Gu@physx@@U?$LocalConvex@VConvexHullV@Gu@physx@@@23@@Gu@physx@@YA?AW4GjkStatus@01@AEBU?$LocalConvex@VCapsuleV@Gu@physx@@@01@AEBU?$LocalConvex@VConvexHullV@Gu@physx@@@01@AEBT__m128@@2AEAT5@333@Z 000000018001b2f0 f i GuMTD.obj
 0001:0001af90       ??0MultiplePersistentContactManifold@Gu@physx@@QEAA@XZ 000000018001bf90 f i GuMTD.obj
 0001:0001aff0       ??0PolygonalBox@Gu@physx@@QEAA@AEBV012@@Z 000000018001bff0 f i GuMTD.obj
 0001:0001b270       ??0SeparatingAxes@Gu@physx@@QEAA@$$QEAV012@@Z 000000018001c270 f i GuMTD.obj
 0001:0001b270       ??0SeparatingAxes@Gu@physx@@QEAA@AEBV012@@Z 000000018001c270 f i GuMTD.obj
 0001:0001b380       ??0SeparatingAxes@Gu@physx@@QEAA@XZ 000000018001c380 f i GuMTD.obj
 0001:0001b390       ??4MultiplePersistentContactManifold@Gu@physx@@QEAAAEAV012@$$QEAV012@@Z 000000018001c390 f i GuMTD.obj
 0001:0001b6a0       ??4MultiplePersistentContactManifold@Gu@physx@@QEAAAEAV012@AEBV012@@Z 000000018001c6a0 f i GuMTD.obj
 0001:0001b6c0       ??4SeparatingAxes@Gu@physx@@QEAAAEAV012@$$QEAV012@@Z 000000018001c6c0 f i GuMTD.obj
 0001:0001b6c0       ??4SeparatingAxes@Gu@physx@@QEAAAEAV012@AEBV012@@Z 000000018001c6c0 f i GuMTD.obj
 0001:0001b7d0       ??_E?$LocalConvex@VBoxV@Gu@physx@@@Gu@physx@@UEAAPEAXI@Z 000000018001c7d0 f i GuSweepTests.obj
 0001:0001b7d0       ??_E?$LocalConvex@VCapsuleV@Gu@physx@@@Gu@physx@@UEAAPEAXI@Z 000000018001c7d0 f i GuMTD.obj
 0001:0001b7d0       ??_E?$LocalConvex@VConvexHullNoScaleV@Gu@physx@@@Gu@physx@@UEAAPEAXI@Z 000000018001c7d0 f i GuPCMContactBoxConvex.obj
 0001:0001b7d0       ??_E?$LocalConvex@VConvexHullV@Gu@physx@@@Gu@physx@@UEAAPEAXI@Z 000000018001c7d0 f i GuMTD.obj
 0001:0001b7d0       ??_E?$LocalConvex@VTriangleV@Gu@physx@@@Gu@physx@@UEAAPEAXI@Z 000000018001c7d0 f i GuSweepTests.obj
 0001:0001b7d0       ??_EGjkConvexBase@Gu@physx@@UEAAPEAXI@Z 000000018001c7d0 f i GuMTD.obj
 0001:0001b7d0       ??_G?$LocalConvex@VBoxV@Gu@physx@@@Gu@physx@@UEAAPEAXI@Z 000000018001c7d0 f i GuSweepTests.obj
 0001:0001b7d0       ??_G?$LocalConvex@VCapsuleV@Gu@physx@@@Gu@physx@@UEAAPEAXI@Z 000000018001c7d0 f i GuMTD.obj
 0001:0001b7d0       ??_G?$LocalConvex@VConvexHullNoScaleV@Gu@physx@@@Gu@physx@@UEAAPEAXI@Z 000000018001c7d0 f i GuPCMContactBoxConvex.obj
 0001:0001b7d0       ??_G?$LocalConvex@VConvexHullV@Gu@physx@@@Gu@physx@@UEAAPEAXI@Z 000000018001c7d0 f i GuMTD.obj
 0001:0001b7d0       ??_G?$LocalConvex@VTriangleV@Gu@physx@@@Gu@physx@@UEAAPEAXI@Z 000000018001c7d0 f i GuSweepTests.obj
 0001:0001b7d0       ??_GGjkConvexBase@Gu@physx@@UEAAPEAXI@Z 000000018001c7d0 f i GuMTD.obj
 0001:0001bf40       ?clearManifold@MultiplePersistentContactManifold@Gu@physx@@QEAAXXZ 000000018001cf40 f i GuMTD.obj
 0001:0001f840       ?getAxes@SeparatingAxes@Gu@physx@@QEBAPEBVPxVec3@3@XZ 0000000180020840 f i GuMTD.obj
 0001:0001f850       ?getCenter@?$LocalConvex@VBoxV@Gu@physx@@@Gu@physx@@UEBA?AT__m128@@XZ 0000000180020850 f i GuSweepTests.obj
 0001:0001f850       ?getCenter@?$LocalConvex@VCapsuleV@Gu@physx@@@Gu@physx@@UEBA?AT__m128@@XZ 0000000180020850 f i GuMTD.obj
 0001:0001f850       ?getCenter@?$LocalConvex@VConvexHullNoScaleV@Gu@physx@@@Gu@physx@@UEBA?AT__m128@@XZ 0000000180020850 f i GuPCMContactBoxConvex.obj
 0001:0001f850       ?getCenter@?$LocalConvex@VConvexHullV@Gu@physx@@@Gu@physx@@UEBA?AT__m128@@XZ 0000000180020850 f i GuMTD.obj
 0001:0001f850       ?getCenter@?$LocalConvex@VTriangleV@Gu@physx@@@Gu@physx@@UEBA?AT__m128@@XZ 0000000180020850 f i GuSweepTests.obj
 0001:0001f860       ?getEmptyManifold@MultiplePersistentContactManifold@Gu@physx@@QEAAPEAVSinglePersistentContactManifold@23@XZ 0000000180020860 f i GuMTD.obj
 0001:0001f880       ?getManifold@MultiplePersistentContactManifold@Gu@physx@@QEAAPEAVSinglePersistentContactManifold@23@I@Z 0000000180020880 f i GuMTD.obj
 0001:0001f8a0       ?getSweepMargin@?$LocalConvex@VCapsuleV@Gu@physx@@@Gu@physx@@UEBA?AT__m128@@XZ 00000001800208a0 f i GuMTD.obj
 0001:0001f8a0       ?getSweepMargin@?$RelativeConvex@VCapsuleV@Gu@physx@@@Gu@physx@@UEBA?AT__m128@@XZ 00000001800208a0 f i GuCCDSweepPrimitives.obj
 0001:0001f8b0       ?getSweepMargin@?$LocalConvex@VBoxV@Gu@physx@@@Gu@physx@@UEBA?AT__m128@@XZ 00000001800208b0 f i GuSweepTests.obj
 0001:0001f8b0       ?getSweepMargin@?$LocalConvex@VConvexHullNoScaleV@Gu@physx@@@Gu@physx@@UEBA?AT__m128@@XZ 00000001800208b0 f i GuPCMContactBoxConvex.obj
 0001:0001f8b0       ?getSweepMargin@?$LocalConvex@VConvexHullV@Gu@physx@@@Gu@physx@@UEBA?AT__m128@@XZ 00000001800208b0 f i GuMTD.obj
 0001:0001f8b0       ?getSweepMargin@?$RelativeConvex@VBoxV@Gu@physx@@@Gu@physx@@UEBA?AT__m128@@XZ 00000001800208b0 f i GuOverlapTests.obj
 0001:0001f8b0       ?getSweepMargin@?$RelativeConvex@VConvexHullNoScaleV@Gu@physx@@@Gu@physx@@UEBA?AT__m128@@XZ 00000001800208b0 f i GuPCMContactConvexConvex.obj
 0001:0001f8b0       ?getSweepMargin@?$RelativeConvex@VConvexHullV@Gu@physx@@@Gu@physx@@UEBA?AT__m128@@XZ 00000001800208b0 f i GuOverlapTests.obj
 0001:0001f8d0       ?hillClimbing@ConvexHullV@Gu@physx@@QEBAIAEBT__m128@@@Z 00000001800208d0 f i GuMTD.obj
 0001:0001fb00       ?initialize@MultiplePersistentContactManifold@Gu@physx@@QEAAXXZ 0000000180020b00 f i GuMTD.obj
 0001:0001fb60       ?invalidate@MultiplePersistentContactManifold@Gu@physx@@QEAAIAEBVPsTransformV@aos@shdfnd@3@AEBT__m128@@1@Z 0000000180020b60 f i GuMTD.obj
 0001:0001fbe0       ?invalidate@MultiplePersistentContactManifold@Gu@physx@@QEAAIAEBVPsTransformV@aos@shdfnd@3@AEBT__m128@@@Z 0000000180020be0 f i GuMTD.obj
 0001:0001fc60       ?maxTransformPositionDelta@MultiplePersistentContactManifold@Gu@physx@@QEAA?AT__m128@@AEBT4@@Z 0000000180020c60 f i GuMTD.obj
 0001:0001fca0       ?maxTransformQuatDelta@MultiplePersistentContactManifold@Gu@physx@@QEAA?AT__m128@@AEBT4@@Z 0000000180020ca0 f i GuMTD.obj
 0001:0001fce0       ?pointConvexDistance@@YA_NAEAVPxVec3@physx@@0AEAMAEBV12@PEBVConvexMesh@Gu@2@AEBVPxMeshScale@2@AEBVPxTransform@2@@Z 0000000180020ce0 f   GuMTD.obj
 0001:00020a60       ?reduceManifoldContactsInDifferentPatches@MultiplePersistentContactManifold@Gu@physx@@QEAAIPEAPEAUPCMContactPatch@23@IPEAVMeshPersistentContact@23@IAEBT__m128@@@Z 0000000180021a60 f i GuMTD.obj
 0001:00020bd0       ?refineContactPatchConnective@MultiplePersistentContactManifold@Gu@physx@@QEAAXPEAPEAUPCMContactPatch@23@IPEAVMeshPersistentContact@23@AEBT__m128@@@Z 0000000180021bd0 f i GuMTD.obj
 0001:00020cc0       ?refreshManifold@MultiplePersistentContactManifold@Gu@physx@@QEAAXAEBVPsMatTransformV@aos@shdfnd@3@AEBT__m128@@1@Z 0000000180021cc0 f i GuMTD.obj
 0001:00020dc0       ?reset@SeparatingAxes@Gu@physx@@QEAAXXZ 0000000180021dc0 f i GuMTD.obj
 0001:00020dd0       ?setRelativeTransform@MultiplePersistentContactManifold@Gu@physx@@QEAAXAEBVPsTransformV@aos@shdfnd@3@@Z 0000000180021dd0 f i GuMTD.obj
 0001:00020de0       ?support@?$LocalConvex@VCapsuleV@Gu@physx@@@Gu@physx@@UEBA?AT__m128@@AEBT4@@Z 0000000180021de0 f i GuMTD.obj
 0001:00020e40       ?support@?$LocalConvex@VCapsuleV@Gu@physx@@@Gu@physx@@UEBA?AT__m128@@AEBT4@AEAH@Z 0000000180021e40 f i GuMTD.obj
 0001:00020eb0       ?support@?$LocalConvex@VConvexHullV@Gu@physx@@@Gu@physx@@UEBA?AT__m128@@AEBT4@@Z 0000000180021eb0 f i GuMTD.obj
 0001:00020f90       ?support@?$LocalConvex@VConvexHullV@Gu@physx@@@Gu@physx@@UEBA?AT__m128@@AEBT4@AEAH@Z 0000000180021f90 f i GuMTD.obj
 0001:00021060       ?supportPoint@?$LocalConvex@VCapsuleV@Gu@physx@@@Gu@physx@@UEBA?AT__m128@@H@Z 0000000180022060 f i GuMTD.obj
 0001:00021090       ?supportPoint@?$LocalConvex@VConvexHullV@Gu@physx@@@Gu@physx@@UEBA?AT__m128@@H@Z 0000000180022090 f i GuMTD.obj
 0001:000210e0       ?supportVertexIndex@ConvexHullV@Gu@physx@@QEBAIAEBT__m128@@@Z 00000001800220e0 f i GuMTD.obj
 0001:00021340       ?toBuffer@MultiplePersistentContactManifold@Gu@physx@@QEAAXPEIAE@Z 0000000180022340 f i GuMTD.obj
 0001:00021420       ?supportPoint@?$RelativeConvex@VBoxV@Gu@physx@@@Gu@physx@@UEBA?AT__m128@@H@Z 0000000180022420 f i GuOverlapTests.obj
 0001:00021490       ?support@?$RelativeConvex@VBoxV@Gu@physx@@@Gu@physx@@UEBA?AT__m128@@AEBT4@@Z 0000000180022490 f i GuOverlapTests.obj
 0001:00021510       ?support@?$RelativeConvex@VBoxV@Gu@physx@@@Gu@physx@@UEBA?AT__m128@@AEBT4@AEAH@Z 0000000180022510 f i GuOverlapTests.obj
 0001:000215a0       ?getCenter@?$RelativeConvex@VBoxV@Gu@physx@@@Gu@physx@@UEBA?AT__m128@@XZ 00000001800225a0 f i GuOverlapTests.obj
 0001:000215a0       ?getCenter@?$RelativeConvex@VCapsuleV@Gu@physx@@@Gu@physx@@UEBA?AT__m128@@XZ 00000001800225a0 f i GuCCDSweepPrimitives.obj
 0001:000215a0       ?getCenter@?$RelativeConvex@VConvexHullNoScaleV@Gu@physx@@@Gu@physx@@UEBA?AT__m128@@XZ 00000001800225a0 f i GuPCMContactConvexConvex.obj
 0001:000215a0       ?getCenter@?$RelativeConvex@VConvexHullV@Gu@physx@@@Gu@physx@@UEBA?AT__m128@@XZ 00000001800225a0 f i GuOverlapTests.obj
 0001:000215a0       ?getCenter@?$RelativeConvex@VTriangleV@Gu@physx@@@Gu@physx@@UEBA?AT__m128@@XZ 00000001800225a0 f i GuCCDSweepPrimitives.obj
 0001:000215e0       ??_E?$RelativeConvex@VBoxV@Gu@physx@@@Gu@physx@@UEAAPEAXI@Z 00000001800225e0 f i GuOverlapTests.obj
 0001:000215e0       ??_E?$RelativeConvex@VCapsuleV@Gu@physx@@@Gu@physx@@UEAAPEAXI@Z 00000001800225e0 f i GuCCDSweepPrimitives.obj
 0001:000215e0       ??_E?$RelativeConvex@VConvexHullNoScaleV@Gu@physx@@@Gu@physx@@UEAAPEAXI@Z 00000001800225e0 f i GuPCMContactConvexConvex.obj
 0001:000215e0       ??_E?$RelativeConvex@VConvexHullV@Gu@physx@@@Gu@physx@@UEAAPEAXI@Z 00000001800225e0 f i GuOverlapTests.obj
 0001:000215e0       ??_E?$RelativeConvex@VTriangleV@Gu@physx@@@Gu@physx@@UEAAPEAXI@Z 00000001800225e0 f i GuCCDSweepPrimitives.obj
 0001:000215e0       ??_G?$RelativeConvex@VBoxV@Gu@physx@@@Gu@physx@@UEAAPEAXI@Z 00000001800225e0 f i GuOverlapTests.obj
 0001:000215e0       ??_G?$RelativeConvex@VCapsuleV@Gu@physx@@@Gu@physx@@UEAAPEAXI@Z 00000001800225e0 f i GuCCDSweepPrimitives.obj
 0001:000215e0       ??_G?$RelativeConvex@VConvexHullNoScaleV@Gu@physx@@@Gu@physx@@UEAAPEAXI@Z 00000001800225e0 f i GuPCMContactConvexConvex.obj
 0001:000215e0       ??_G?$RelativeConvex@VConvexHullV@Gu@physx@@@Gu@physx@@UEAAPEAXI@Z 00000001800225e0 f i GuOverlapTests.obj
 0001:000215e0       ??_G?$RelativeConvex@VTriangleV@Gu@physx@@@Gu@physx@@UEAAPEAXI@Z 00000001800225e0 f i GuCCDSweepPrimitives.obj
 0001:00023830       ?supportPoint@?$RelativeConvex@VConvexHullV@Gu@physx@@@Gu@physx@@UEBA?AT__m128@@H@Z 0000000180024830 f i GuOverlapTests.obj
 0001:000238b0       ?support@?$RelativeConvex@VConvexHullV@Gu@physx@@@Gu@physx@@UEBA?AT__m128@@AEBT4@@Z 00000001800248b0 f i GuOverlapTests.obj
 0001:000239e0       ?support@?$RelativeConvex@VConvexHullV@Gu@physx@@@Gu@physx@@UEBA?AT__m128@@AEBT4@AEAH@Z 00000001800249e0 f i GuOverlapTests.obj
 0001:00023b40       ??$gjk@U?$RelativeConvex@VBoxV@Gu@physx@@@Gu@physx@@U?$LocalConvex@VConvexHullV@Gu@physx@@@23@@Gu@physx@@YA?AW4GjkStatus@01@AEBU?$RelativeConvex@VBoxV@Gu@physx@@@01@AEBU?$LocalConvex@VConvexHullV@Gu@physx@@@01@AEBT__m128@@2AEAT5@333@Z 0000000180024b40 f i GuOverlapTests.obj
 0001:00024810       ??$gjk@U?$RelativeConvex@VConvexHullV@Gu@physx@@@Gu@physx@@U?$LocalConvex@VConvexHullV@Gu@physx@@@23@@Gu@physx@@YA?AW4GjkStatus@01@AEBU?$RelativeConvex@VConvexHullV@Gu@physx@@@01@AEBU?$LocalConvex@VConvexHullV@Gu@physx@@@01@AEBT__m128@@2AEAT5@333@Z 0000000180025810 f i GuOverlapTests.obj
 0001:00025550       ?ComputeCubemapNearestOffset@physx@@YAIAEBVPxVec3@1@I@Z 0000000180026550 f i GuOverlapTests.obj
 0001:00025660       ?getOverlapFuncTable@Gu@physx@@YAPEAY06Q6A_NAEBVPxGeometry@2@AEBVPxTransform@2@01PEAUTriggerCache@12@@ZXZ 0000000180026660 f   GuOverlapTests.obj
 0001:00027060       ?registerHeightFields@Gu@physx@@YAXXZ 0000000180028060 f   GuOverlapTests.obj
 0001:000270b0       ?raycast_box@@YAIAEBVPxGeometry@physx@@AEBVPxTransform@2@AEBVPxVec3@2@2MV?$PxFlags@W4Enum@PxHitFlag@physx@@G@2@IPEIAUPxRaycastHit@2@@Z 00000001800280b0 f   GuRaycastTests.obj
 0001:00027700       ?raycast_sphere@@YAIAEBVPxGeometry@physx@@AEBVPxTransform@2@AEBVPxVec3@2@2MV?$PxFlags@W4Enum@PxHitFlag@physx@@G@2@IPEIAUPxRaycastHit@2@@Z 0000000180028700 f   GuRaycastTests.obj
 0001:00027880       ?raycast_capsule@@YAIAEBVPxGeometry@physx@@AEBVPxTransform@2@AEBVPxVec3@2@2MV?$PxFlags@W4Enum@PxHitFlag@physx@@G@2@IPEIAUPxRaycastHit@2@@Z 0000000180028880 f   GuRaycastTests.obj
 0001:00027df0       ?raycast_plane@@YAIAEBVPxGeometry@physx@@AEBVPxTransform@2@AEBVPxVec3@2@2MV?$PxFlags@W4Enum@PxHitFlag@physx@@G@2@IPEIAUPxRaycastHit@2@@Z 0000000180028df0 f   GuRaycastTests.obj
 0001:00027f60       ?raycast_convexMesh@@YAIAEBVPxGeometry@physx@@AEBVPxTransform@2@AEBVPxVec3@2@2MV?$PxFlags@W4Enum@PxHitFlag@physx@@G@2@IPEIAUPxRaycastHit@2@@Z 0000000180028f60 f   GuRaycastTests.obj
 0001:00028aa0       ?raycast_triangleMesh@@YAIAEBVPxGeometry@physx@@AEBVPxTransform@2@AEBVPxVec3@2@2MV?$PxFlags@W4Enum@PxHitFlag@physx@@G@2@IPEIAUPxRaycastHit@2@@Z 0000000180029aa0 f   GuRaycastTests.obj
 0001:00029e00       ??Dphysx@@YA?AVMatrix34@Cm@0@AEBVPxMeshScale@0@AEBVPxTransform@0@@Z 000000018002ae00 f i GuRaycastTests.obj
 0001:0002a940       ?getRaycastFuncTable@Gu@physx@@YAAEAY06Q6AIAEBVPxGeometry@2@AEBVPxTransform@2@AEBVPxVec3@2@2MV?$PxFlags@W4Enum@PxHitFlag@physx@@G@2@IPEIAUPxRaycastHit@2@@ZXZ 000000018002b940 f   GuRaycastTests.obj
 0001:0002a950       ?raycast_heightField@@YAIAEBVPxGeometry@physx@@AEBVPxTransform@2@AEBVPxVec3@2@2MV?$PxFlags@W4Enum@PxHitFlag@physx@@G@2@IPEIAUPxRaycastHit@2@@Z 000000018002b950 f   GuRaycastTests.obj
 0001:0002b090       ?registerHeightFields_Raycasts@@YAXXZ 000000018002c090 f   GuRaycastTests.obj
 0001:0002b0a0       ?ReadHeader@Gu@physx@@YA_NEEEEAEAIAEA_NAEAVPxInputStream@2@@Z 000000018002c0a0 f   GuSerialize.obj
 0001:0002b200       ?ReadIndices@Gu@physx@@YAXGIPEAGAEAVPxInputStream@2@_N@Z 000000018002c200 f   GuSerialize.obj
 0001:0002b3b0       ?StoreIndices@Gu@physx@@YAXGIPEBGAEAVPxOutputStream@2@_N@Z 000000018002c3b0 f   GuSerialize.obj
 0001:0002b4a0       ?StoreIndices@Gu@physx@@YAXIIPEBIAEAVPxOutputStream@2@_N@Z 000000018002c4a0 f   GuSerialize.obj
 0001:0002b630       ?WriteHeader@Gu@physx@@YA_NEEEEI_NAEAVPxOutputStream@2@@Z 000000018002c630 f   GuSerialize.obj
 0001:0002b760       ?computeMaxIndex@physx@@YAGPEBGI@Z 000000018002c760 f   GuSerialize.obj
 0001:0002b790       ?computeMaxIndex@physx@@YAIPEBII@Z 000000018002c790 f   GuSerialize.obj
 0001:0002b7c0       ?readChunk@physx@@YAXAEAC000AEAVPxInputStream@1@@Z 000000018002c7c0 f   GuSerialize.obj
 0001:0002b840       ?readDword@physx@@YAI_NAEAVPxInputStream@1@@Z 000000018002c840 f   GuSerialize.obj
 0001:0002b8a0       ?readFloat@physx@@YAM_NAEAVPxInputStream@1@@Z 000000018002c8a0 f   GuSerialize.obj
 0001:0002b900       ?readFloatBuffer@physx@@YA_NPEAMI_NAEAVPxInputStream@1@@Z 000000018002c900 f   GuSerialize.obj
 0001:0002b980       ?readHeader@physx@@YA_NCCCCAEAIAEA_NAEAVPxInputStream@1@@Z 000000018002c980 f   GuSerialize.obj
 0001:0002bad0       ?readIndices@physx@@YAXIIPEAIAEAVPxInputStream@1@_N@Z 000000018002cad0 f   GuSerialize.obj
 0001:0002bc00       ?readWord@physx@@YAG_NAEAVPxInputStream@1@@Z 000000018002cc00 f   GuSerialize.obj
 0001:0002bc40       ?readWordBuffer@physx@@YAXPEAGI_NAEAVPxInputStream@1@@Z 000000018002cc40 f   GuSerialize.obj
 0001:0002bcb0       ?storeIndices@physx@@YAXIIPEBIAEAVPxOutputStream@1@_N@Z 000000018002ccb0 f   GuSerialize.obj
 0001:0002bdd0       ?writeDword@physx@@YAXI_NAEAVPxOutputStream@1@@Z 000000018002cdd0 f   GuSerialize.obj
 0001:0002be20       ?writeFloat@physx@@YAXM_NAEAVPxOutputStream@1@@Z 000000018002ce20 f   GuSerialize.obj
 0001:0002be70       ?writeFloatBuffer@physx@@YAXPEBMI_NAEAVPxOutputStream@1@@Z 000000018002ce70 f   GuSerialize.obj
 0001:0002bf10       ?writeHeader@physx@@YA_NCCCCI_NAEAVPxOutputStream@1@@Z 000000018002cf10 f   GuSerialize.obj
 0001:0002c040       ?writeWord@physx@@YAXG_NAEAVPxOutputStream@1@@Z 000000018002d040 f   GuSerialize.obj
 0001:0002c080       ?writeWordBuffer@physx@@YAXPEBGI_NAEAVPxOutputStream@1@@Z 000000018002d080 f   GuSerialize.obj
 0001:0002c100       ??Dphysx@@YA?AVMatrix34@Cm@0@AEBVPxTransform@0@AEBVPxMeshScale@0@@Z 000000018002d100 f i GuSweepMTD.obj
 0001:0002c740       ??_E?$MeshHitCallback@UPxRaycastHit@physx@@@Gu@physx@@UEAAPEAXI@Z 000000018002d740 f i GuSweepMTD.obj
 0001:0002c740       ??_G?$MeshHitCallback@UPxRaycastHit@physx@@@Gu@physx@@UEAAPEAXI@Z 000000018002d740 f i GuSweepMTD.obj
 0001:0002c770       ??_EMeshMTDGenerationCallback@@UEAAPEAXI@Z 000000018002d770 f i GuSweepMTD.obj
 0001:0002c770       ??_GMeshMTDGenerationCallback@@UEAAPEAXI@Z 000000018002d770 f i GuSweepMTD.obj
 0001:0002c7a0       ??_EMidPhaseQueryLocalReport@@UEAAPEAXI@Z 000000018002d7a0 f i GuSweepMTD.obj
 0001:0002c7a0       ??_GMidPhaseQueryLocalReport@@UEAAPEAXI@Z 000000018002d7a0 f i GuSweepMTD.obj
 0001:0002c7d0       ?allocate@?$ReflectionAllocator@I@shdfnd@physx@@QEAAPEAX_KPEBDH@Z 000000018002d7d0 f i GuSweepMTD.obj
 0001:0002c870       ?computeBox_HeightFieldMTD@Gu@physx@@YA_NAEBVPxHeightFieldGeometry@2@AEBVPxTransform@2@AEBVBox@12@1M_NIAEAUPxSweepHit@2@@Z 000000018002d870 f   GuSweepMTD.obj
 0001:0002d730       ?computeBox_TriangleMeshMTD@Gu@physx@@YA_NAEBVPxTriangleMeshGeometry@2@AEBVPxTransform@2@AEBVBox@12@1M_NAEAUPxSweepHit@2@@Z 000000018002e730 f   GuSweepMTD.obj
 0001:0002e380       ?computeCapsule_CapsuleMTD@Gu@physx@@YA_NAEBVCapsule@12@0AEAUPxSweepHit@2@@Z 000000018002f380 f   GuSweepMTD.obj
 0001:0002e5c0       ?computeCapsule_HeightFieldMTD@Gu@physx@@YA_NAEBVPxHeightFieldGeometry@2@AEBVPxTransform@2@AEAVCapsuleV@12@M_NIAEAUPxSweepHit@2@@Z 000000018002f5c0 f   GuSweepMTD.obj
 0001:0002ede0       ?computeCapsule_TriangleMeshMTD@Gu@physx@@YA_NAEBVPxTriangleMeshGeometry@2@AEBVPxTransform@2@AEAVCapsuleV@12@M_NAEAUPxSweepHit@2@@Z 000000018002fde0 f   GuSweepMTD.obj
 0001:0002f690       ?computeConvex_HeightFieldMTD@Gu@physx@@YA_NAEBVPxHeightFieldGeometry@2@AEBVPxTransform@2@AEBVPxConvexMeshGeometry@2@1M_NIAEAUPxSweepHit@2@@Z 0000000180030690 f   GuSweepMTD.obj
 0001:000309f0       ?computeConvex_TriangleMeshMTD@Gu@physx@@YA_NAEBVPxTriangleMeshGeometry@2@AEBVPxTransform@2@AEBVPxConvexMeshGeometry@2@1M_NAEAUPxSweepHit@2@@Z 00000001800319f0 f   GuSweepMTD.obj
 0001:00031c20       ?computePlane_BoxMTD@Gu@physx@@YA_NAEBVPxPlane@2@AEBVBox@12@AEAUPxSweepHit@2@@Z 0000000180032c20 f   GuSweepMTD.obj
 0001:00031eb0       ?computePlane_CapsuleMTD@Gu@physx@@YA_NAEBVPxPlane@2@AEBVCapsule@12@AEAUPxSweepHit@2@@Z 0000000180032eb0 f   GuSweepMTD.obj
 0001:00031fd0       ?computePlane_ConvexMTD@Gu@physx@@YA_NAEBVPxPlane@2@AEBVPxConvexMeshGeometry@2@AEBVPxTransform@2@AEAUPxSweepHit@2@@Z 0000000180032fd0 f   GuSweepMTD.obj
 0001:00032b60       ?computeSphere_CapsuleMTD@Gu@physx@@YA_NAEBVSphere@12@AEBVCapsule@12@AEAUPxSweepHit@2@@Z 0000000180033b60 f   GuSweepMTD.obj
 0001:00032d10       ?computeSphere_SphereMTD@Gu@physx@@YA_NAEBVSphere@12@0AEAUPxSweepHit@2@@Z 0000000180033d10 f   GuSweepMTD.obj
 0001:00032e00       ?getInverse@PxMat33@physx@@QEBA?BV12@XZ 0000000180033e00 f i GuSweepMTD.obj
 0001:00033050       ?growAndPushBack@?$Array@IV?$ReflectionAllocator@I@shdfnd@physx@@@shdfnd@physx@@IEAAAEAIAEBI@Z 0000000180034050 f i GuSweepMTD.obj
 0001:00033130       ?init@FastVertex2ShapeScaling@Cm@physx@@QEAAXAEBVPxVec3@3@AEBVPxQuat@3@@Z 0000000180034130 f i GuSweepMTD.obj
 0001:00033500       ?onEvent@MidPhaseQueryLocalReport@@UEAA_NIPEAI@Z 0000000180034500 f i GuSweepMTD.obj
 0001:00033570       ?processHit@MeshMTDGenerationCallback@@UEAA_NAEBUPxRaycastHit@physx@@AEBVPxVec3@3@11AEAMPEBI@Z 0000000180034570 f i GuSweepMTD.obj
 0001:000335c0       ?recreate@?$Array@IV?$ReflectionAllocator@I@shdfnd@physx@@@shdfnd@physx@@IEAAXI@Z 00000001800345c0 f i GuSweepMTD.obj
 0001:00033680       ??$gjkPenetration@U?$LocalConvex@VCapsuleV@Gu@physx@@@Gu@physx@@U?$LocalConvex@VConvexHullV@Gu@physx@@@23@@Gu@physx@@YA?AW4GjkStatus@01@AEBU?$LocalConvex@VCapsuleV@Gu@physx@@@01@AEBU?$LocalConvex@VConvexHullV@Gu@physx@@@01@AEBT__m128@@2_NPEIAE4AEAEAEAUGjkOutput@01@@Z 0000000180034680 f i GuSweepSharedTests.obj
 0001:00035220       ??$gjkPenetration@U?$RelativeConvex@VBoxV@Gu@physx@@@Gu@physx@@U?$LocalConvex@VConvexHullV@Gu@physx@@@23@@Gu@physx@@YA?AW4GjkStatus@01@AEBU?$RelativeConvex@VBoxV@Gu@physx@@@01@AEBU?$LocalConvex@VConvexHullV@Gu@physx@@@01@AEBT__m128@@2_NPEIAE4AEAEAEAUGjkOutput@01@@Z 0000000180036220 f i GuSweepSharedTests.obj
 0001:00036e10       ??$gjkPenetration@U?$RelativeConvex@VConvexHullV@Gu@physx@@@Gu@physx@@U?$LocalConvex@VConvexHullV@Gu@physx@@@23@@Gu@physx@@YA?AW4GjkStatus@01@AEBU?$RelativeConvex@VConvexHullV@Gu@physx@@@01@AEBU?$LocalConvex@VConvexHullV@Gu@physx@@@01@AEBT__m128@@2_NPEIAE4AEAEAEAUGjkOutput@01@@Z 0000000180037e10 f i GuSweepSharedTests.obj
 0001:00038a60       ??$gjkRaycast@U?$LocalConvex@VCapsuleV@Gu@physx@@@Gu@physx@@U?$LocalConvex@VConvexHullV@Gu@physx@@@23@@Gu@physx@@YA_NAEBU?$LocalConvex@VCapsuleV@Gu@physx@@@01@AEBU?$LocalConvex@VConvexHullV@Gu@physx@@@01@AEBT__m128@@222AEAT4@33M@Z 0000000180039a60 f i GuSweepSharedTests.obj
 0001:000397e0       ??$gjkRaycast@U?$RelativeConvex@VBoxV@Gu@physx@@@Gu@physx@@U?$LocalConvex@VConvexHullV@Gu@physx@@@23@@Gu@physx@@YA_NAEBU?$RelativeConvex@VBoxV@Gu@physx@@@01@AEBU?$LocalConvex@VConvexHullV@Gu@physx@@@01@AEBT__m128@@222AEAT4@33M@Z 000000018003a7e0 f i GuSweepSharedTests.obj
 0001:0003a5c0       ??$gjkRaycast@U?$RelativeConvex@VConvexHullV@Gu@physx@@@Gu@physx@@U?$LocalConvex@VConvexHullV@Gu@physx@@@23@@Gu@physx@@YA_NAEBU?$RelativeConvex@VConvexHullV@Gu@physx@@@01@AEBU?$LocalConvex@VConvexHullV@Gu@physx@@@01@AEBT__m128@@222AEAT4@33M@Z 000000018003b5c0 f i GuSweepSharedTests.obj
 0001:0003b3e0       ??$gjkRaycastPenetration@U?$LocalConvex@VCapsuleV@Gu@physx@@@Gu@physx@@U?$LocalConvex@VConvexHullV@Gu@physx@@@23@@Gu@physx@@YA_NAEBU?$LocalConvex@VCapsuleV@Gu@physx@@@01@AEBU?$LocalConvex@VConvexHullV@Gu@physx@@@01@AEBT__m128@@222AEAT4@33M_N@Z 000000018003c3e0 f i GuSweepSharedTests.obj
 0001:0003b610       ??$gjkRaycastPenetration@U?$RelativeConvex@VBoxV@Gu@physx@@@Gu@physx@@U?$LocalConvex@VConvexHullV@Gu@physx@@@23@@Gu@physx@@YA_NAEBU?$RelativeConvex@VBoxV@Gu@physx@@@01@AEBU?$LocalConvex@VConvexHullV@Gu@physx@@@01@AEBT__m128@@222AEAT4@33M_N@Z 000000018003c610 f i GuSweepSharedTests.obj
 0001:0003b8a0       ??$gjkRaycastPenetration@U?$RelativeConvex@VConvexHullV@Gu@physx@@@Gu@physx@@U?$LocalConvex@VConvexHullV@Gu@physx@@@23@@Gu@physx@@YA_NAEBU?$RelativeConvex@VConvexHullV@Gu@physx@@@01@AEBU?$LocalConvex@VConvexHullV@Gu@physx@@@01@AEBT__m128@@222AEAT4@33M_N@Z 000000018003c8a0 f i GuSweepSharedTests.obj
 0001:0003c4a0       ?sweepBox_ConvexGeom@@YA_NAEBVPxGeometry@physx@@AEBVPxTransform@2@AEBVPxBoxGeometry@2@1AEBVBox@Gu@2@AEBVPxVec3@2@MAEAUPxSweepHit@2@V?$PxFlags@W4Enum@PxHitFlag@physx@@G@2@M@Z 000000018003d4a0 f   GuSweepSharedTests.obj
 0001:0003d0a0       ?sweepBox_PlaneGeom@@YA_NAEBVPxGeometry@physx@@AEBVPxTransform@2@AEBVPxBoxGeometry@2@1AEBVBox@Gu@2@AEBVPxVec3@2@MAEAUPxSweepHit@2@V?$PxFlags@W4Enum@PxHitFlag@physx@@G@2@M@Z 000000018003e0a0 f   GuSweepSharedTests.obj
 0001:0003d460       ?sweepCapsuleTriangles@Gu@physx@@YA_NIPEBVPxTriangle@2@_NAEBVPxCapsuleGeometry@2@AEBVPxTransform@2@AEBVPxVec3@2@MAEAUPxSweepHit@2@PEBIMV?$PxFlags@W4Enum@PxHitFlag@physx@@G@2@@Z 000000018003e460 f   GuSweepSharedTests.obj
 0001:0003d660       ?sweepCapsule_CapsuleGeom@@YA_NAEBVPxGeometry@physx@@AEBVPxTransform@2@AEBVPxCapsuleGeometry@2@1AEBVCapsule@Gu@2@AEBVPxVec3@2@MAEAUPxSweepHit@2@V?$PxFlags@W4Enum@PxHitFlag@physx@@G@2@M@Z 000000018003e660 f   GuSweepSharedTests.obj
 0001:0003d850       ?sweepCapsule_ConvexGeom@@YA_NAEBVPxGeometry@physx@@AEBVPxTransform@2@AEBVPxCapsuleGeometry@2@1AEBVCapsule@Gu@2@AEBVPxVec3@2@MAEAUPxSweepHit@2@V?$PxFlags@W4Enum@PxHitFlag@physx@@G@2@M@Z 000000018003e850 f   GuSweepSharedTests.obj
 0001:0003e3e0       ?sweepCapsule_PlaneGeom@@YA_NAEBVPxGeometry@physx@@AEBVPxTransform@2@AEBVPxCapsuleGeometry@2@1AEBVCapsule@Gu@2@AEBVPxVec3@2@MAEAUPxSweepHit@2@V?$PxFlags@W4Enum@PxHitFlag@physx@@G@2@M@Z 000000018003f3e0 f   GuSweepSharedTests.obj
 0001:0003e6c0       ?sweepCapsule_SphereGeom@@YA_NAEBVPxGeometry@physx@@AEBVPxTransform@2@AEBVPxCapsuleGeometry@2@1AEBVCapsule@Gu@2@AEBVPxVec3@2@MAEAUPxSweepHit@2@V?$PxFlags@W4Enum@PxHitFlag@physx@@G@2@M@Z 000000018003f6c0 f   GuSweepSharedTests.obj
 0001:0003e850       ?sweepConvex_BoxGeom@@YA_NAEBVPxGeometry@physx@@AEBVPxTransform@2@AEBVPxConvexMeshGeometry@2@1AEBVPxVec3@2@MAEAUPxSweepHit@2@V?$PxFlags@W4Enum@PxHitFlag@physx@@G@2@M@Z 000000018003f850 f   GuSweepSharedTests.obj
 0001:0003ea60       ?sweepConvex_CapsuleGeom@@YA_NAEBVPxGeometry@physx@@AEBVPxTransform@2@AEBVPxConvexMeshGeometry@2@1AEBVPxVec3@2@MAEAUPxSweepHit@2@V?$PxFlags@W4Enum@PxHitFlag@physx@@G@2@M@Z 000000018003fa60 f   GuSweepSharedTests.obj
 0001:0003ec90       ?sweepConvex_ConvexGeom@@YA_NAEBVPxGeometry@physx@@AEBVPxTransform@2@AEBVPxConvexMeshGeometry@2@1AEBVPxVec3@2@MAEAUPxSweepHit@2@V?$PxFlags@W4Enum@PxHitFlag@physx@@G@2@M@Z 000000018003fc90 f   GuSweepSharedTests.obj
 0001:0003fc90       ?sweepConvex_PlaneGeom@@YA_NAEBVPxGeometry@physx@@AEBVPxTransform@2@AEBVPxConvexMeshGeometry@2@1AEBVPxVec3@2@MAEAUPxSweepHit@2@V?$PxFlags@W4Enum@PxHitFlag@physx@@G@2@M@Z 0000000180040c90 f   GuSweepSharedTests.obj
 0001:000400d0       ?sweepConvex_SphereGeom@@YA_NAEBVPxGeometry@physx@@AEBVPxTransform@2@AEBVPxConvexMeshGeometry@2@1AEBVPxVec3@2@MAEAUPxSweepHit@2@V?$PxFlags@W4Enum@PxHitFlag@physx@@G@2@M@Z 00000001800410d0 f   GuSweepSharedTests.obj
 0001:00040b00       ?sweepCapsule_BoxGeom@@YA_NAEBVPxGeometry@physx@@AEBVPxTransform@2@AEBVPxCapsuleGeometry@2@1AEBVCapsule@Gu@2@AEBVPxVec3@2@MAEAUPxSweepHit@2@V?$PxFlags@W4Enum@PxHitFlag@physx@@G@2@M@Z 0000000180041b00 f   GuSweepTests.obj
 0001:000413e0       ?sweepBox_SphereGeom@@YA_NAEBVPxGeometry@physx@@AEBVPxTransform@2@AEBVPxBoxGeometry@2@1AEBVBox@Gu@2@AEBVPxVec3@2@MAEAUPxSweepHit@2@V?$PxFlags@W4Enum@PxHitFlag@physx@@G@2@M@Z 00000001800423e0 f   GuSweepTests.obj
 0001:00041a60       ?sweepBox_CapsuleGeom@@YA_NAEBVPxGeometry@physx@@AEBVPxTransform@2@AEBVPxBoxGeometry@2@1AEBVBox@Gu@2@AEBVPxVec3@2@MAEAUPxSweepHit@2@V?$PxFlags@W4Enum@PxHitFlag@physx@@G@2@M@Z 0000000180042a60 f   GuSweepTests.obj
 0001:00042320       ?sweepBox_BoxGeom@@YA_NAEBVPxGeometry@physx@@AEBVPxTransform@2@AEBVPxBoxGeometry@2@1AEBVBox@Gu@2@AEBVPxVec3@2@MAEAUPxSweepHit@2@V?$PxFlags@W4Enum@PxHitFlag@physx@@G@2@M@Z 0000000180043320 f   GuSweepTests.obj
 0001:00042c80       ??$gjkPenetration@U?$LocalConvex@VCapsuleV@Gu@physx@@@Gu@physx@@U?$LocalConvex@VBoxV@Gu@physx@@@23@@Gu@physx@@YA?AW4GjkStatus@01@AEBU?$LocalConvex@VCapsuleV@Gu@physx@@@01@AEBU?$LocalConvex@VBoxV@Gu@physx@@@01@AEBT__m128@@2_NPEIAE4AEAEAEAUGjkOutput@01@@Z 0000000180043c80 f i GuSweepTests.obj
 0001:00044760       ??$gjkPenetration@U?$RelativeConvex@VBoxV@Gu@physx@@@Gu@physx@@U?$LocalConvex@VBoxV@Gu@physx@@@23@@Gu@physx@@YA?AW4GjkStatus@01@AEBU?$RelativeConvex@VBoxV@Gu@physx@@@01@AEBU?$LocalConvex@VBoxV@Gu@physx@@@01@AEBT__m128@@2_NPEIAE4AEAEAEAUGjkOutput@01@@Z 0000000180045760 f i GuSweepTests.obj
 0001:000462d0       ??$gjkRaycast@U?$LocalConvex@VCapsuleV@Gu@physx@@@Gu@physx@@U?$LocalConvex@VBoxV@Gu@physx@@@23@@Gu@physx@@YA_NAEBU?$LocalConvex@VCapsuleV@Gu@physx@@@01@AEBU?$LocalConvex@VBoxV@Gu@physx@@@01@AEBT__m128@@222AEAT4@33M@Z 00000001800472d0 f i GuSweepTests.obj
 0001:00046eb0       ??$gjkRaycast@U?$LocalConvex@VTriangleV@Gu@physx@@@Gu@physx@@U?$LocalConvex@VBoxV@Gu@physx@@@23@@Gu@physx@@YA_NAEBU?$LocalConvex@VTriangleV@Gu@physx@@@01@AEBU?$LocalConvex@VBoxV@Gu@physx@@@01@AEBT__m128@@222AEAT4@33M@Z 0000000180047eb0 f i GuSweepTests.obj
 0001:00047b30       ??$gjkRaycast@U?$RelativeConvex@VBoxV@Gu@physx@@@Gu@physx@@U?$LocalConvex@VBoxV@Gu@physx@@@23@@Gu@physx@@YA_NAEBU?$RelativeConvex@VBoxV@Gu@physx@@@01@AEBU?$LocalConvex@VBoxV@Gu@physx@@@01@AEBT__m128@@222AEAT4@33M@Z 0000000180048b30 f i GuSweepTests.obj
 0001:00048790       ?getSweepFuncTable@Gu@physx@@YAAEBUGeomSweepFuncs@12@XZ 0000000180049790 f   GuSweepTests.obj
 0001:000487a0       ?getSweepMargin@?$LocalConvex@VTriangleV@Gu@physx@@@Gu@physx@@UEBA?AT__m128@@XZ 00000001800497a0 f i GuSweepTests.obj
 0001:000487a0       ?getSweepMargin@?$RelativeConvex@VTriangleV@Gu@physx@@@Gu@physx@@UEBA?AT__m128@@XZ 00000001800497a0 f i GuCCDSweepPrimitives.obj
 0001:000487b0       ?registerHeightFields_Sweeps@@YAXXZ 00000001800497b0 f   GuSweepTests.obj
 0001:000487f0       ?support@?$LocalConvex@VBoxV@Gu@physx@@@Gu@physx@@UEBA?AT__m128@@AEBT4@@Z 00000001800497f0 f i GuSweepTests.obj
 0001:00048820       ?support@?$LocalConvex@VBoxV@Gu@physx@@@Gu@physx@@UEBA?AT__m128@@AEBT4@AEAH@Z 0000000180049820 f i GuSweepTests.obj
 0001:00048860       ?support@?$LocalConvex@VTriangleV@Gu@physx@@@Gu@physx@@UEBA?AT__m128@@AEBT4@@Z 0000000180049860 f i GuSweepTests.obj
 0001:000488f0       ?support@?$LocalConvex@VTriangleV@Gu@physx@@@Gu@physx@@UEBA?AT__m128@@AEBT4@AEAH@Z 00000001800498f0 f i GuSweepTests.obj
 0001:000489d0       ?supportPoint@?$LocalConvex@VBoxV@Gu@physx@@@Gu@physx@@UEBA?AT__m128@@H@Z 00000001800499d0 f i GuSweepTests.obj
 0001:00048a10       ?supportPoint@?$LocalConvex@VTriangleV@Gu@physx@@@Gu@physx@@UEBA?AT__m128@@H@Z 0000000180049a10 f i GuSweepTests.obj
 0001:00048a30       ?sweepBoxTriangles@Gu@physx@@YA_NIPEBVPxTriangle@2@_NAEBVPxBoxGeometry@2@AEBVPxTransform@2@AEBVPxVec3@2@MAEAUPxSweepHit@2@PEBIMV?$PxFlags@W4Enum@PxHitFlag@physx@@G@2@@Z 0000000180049a30 f   GuSweepTests.obj
 0001:00049470       ??$?_UV?$ReflectionAllocator@VAABBTreeBuildNode@Gu@physx@@@shdfnd@physx@@@UserAllocated@shdfnd@physx@@SAPEAX_KV?$ReflectionAllocator@VAABBTreeBuildNode@Gu@physx@@@12@PEBDH@Z 000000018004a470 f i GuAABBTreeBuild.obj
 0001:00049510       ??$copy@V?$ReflectionAllocator@USlab@NodeAllocator@Gu@physx@@@shdfnd@physx@@@?$Array@USlab@NodeAllocator@Gu@physx@@V?$ReflectionAllocator@USlab@NodeAllocator@Gu@physx@@@shdfnd@4@@shdfnd@physx@@IEAAXAEBV012@@Z 000000018004a510 f i GuAABBTreeBuild.obj
 0001:00049590       ??0AABBTreeBuildNode@Gu@physx@@QEAA@AEBV012@@Z 000000018004a590 f i GuAABBTreeBuild.obj
 0001:00049590       ??4AABBTreeBuildNode@Gu@physx@@QEAAAEAV012@AEBV012@@Z 000000018004a590 f i GuAABBTreeBuild.obj
 0001:000495d0       ??0AABBTreeBuildParams@Gu@physx@@QEAA@IIPEBVPxBounds3@2@@Z 000000018004a5d0 f i GuAABBTreeBuild.obj
 0001:000495f0       ??0BuildStats@Gu@physx@@QEAA@XZ 000000018004a5f0 f i GuAABBTreeBuild.obj
 0001:00049600       ??0NodeAllocator@Gu@physx@@QEAA@AEBV012@@Z 000000018004a600 f i GuAABBTreeBuild.obj
 0001:00049640       ??0NodeAllocator@Gu@physx@@QEAA@XZ 000000018004a640 f   GuAABBTreeBuild.obj
 0001:00049660       ??1AABBTreeBuildParams@Gu@physx@@QEAA@XZ 000000018004a660 f i GuAABBTreeBuild.obj
 0001:00049660       ?reset@AABBTreeBuildParams@Gu@physx@@QEAAXXZ 000000018004a660 f i GuAABBTreeBuild.obj
 0001:000496c0       ??1NodeAllocator@Gu@physx@@QEAA@XZ 000000018004a6c0 f   GuAABBTreeBuild.obj
 0001:00049710       ??4AABBTreeBuildParams@Gu@physx@@QEAAAEAV012@AEBV012@@Z 000000018004a710 f i GuAABBTreeBuild.obj
 0001:00049730       ??4BuildStats@Gu@physx@@QEAAAEAU012@$$QEAU012@@Z 000000018004a730 f i GuAABBTreeBuild.obj
 0001:00049740       ??4BuildStats@Gu@physx@@QEAAAEAU012@AEBU012@@Z 000000018004a740 f i GuAABBTreeBuild.obj
 0001:00049750       ??4NodeAllocator@Gu@physx@@QEAAAEAV012@AEBV012@@Z 000000018004a750 f i GuAABBTreeBuild.obj
 0001:00049800       ??_FAABBTreeBuildParams@Gu@physx@@QEAAXXZ 000000018004a800 f i GuAABBTreeBuild.obj
 0001:00049820       ?_buildHierarchy@AABBTreeBuildNode@Gu@physx@@QEAAXAEAVAABBTreeBuildParams@23@AEAUBuildStats@23@AEAVNodeAllocator@23@QEAI@Z 000000018004a820 f   GuAABBTreeBuild.obj
 0001:000498b0       ?allocate@?$Array@USlab@NodeAllocator@Gu@physx@@V?$ReflectionAllocator@USlab@NodeAllocator@Gu@physx@@@shdfnd@4@@shdfnd@physx@@IEAAPEAUSlab@NodeAllocator@Gu@3@I@Z 000000018004a8b0 f i GuAABBTreeBuild.obj
 0001:00049950       ?buildAABBTree@Gu@physx@@YA_NAEAVAABBTreeBuildParams@12@AEAVNodeAllocator@12@AEAUBuildStats@12@AEAPEAI@Z 000000018004a950 f   GuAABBTreeBuild.obj
 0001:000499b0       ?getBiNode@NodeAllocator@Gu@physx@@QEAAPEAVAABBTreeBuildNode@23@XZ 000000018004a9b0 f   GuAABBTreeBuild.obj
 0001:00049af0       ?getNbPrimitives@AABBTreeBuildNode@Gu@physx@@QEBAIXZ 000000018004aaf0 f i GuAABBTreeBuild.obj
 0001:00049af0       ?getNbRuntimePrimitives@AABBTreeBuildNode@Gu@physx@@QEBAIXZ 000000018004aaf0 f i GuAABBTreeBuild.obj
 0001:00049af0       ?getNbTriangles@TriangleMesh@Gu@physx@@UEBAIXZ 000000018004aaf0 f i GuTriangleMesh.obj
 0001:00049b00       ?getNeg@AABBTreeBuildNode@Gu@physx@@QEBAPEBV123@XZ 000000018004ab00 f i GuAABBTreeBuild.obj
 0001:00049b20       ?getPrimitives@AABBTreeBuildNode@Gu@physx@@QEAAPEAIPEAI@Z 000000018004ab20 f i GuAABBTreeBuild.obj
 0001:00049b20       ?getPrimitives@AABBTreeBuildNode@Gu@physx@@QEBAPEBIPEBI@Z 000000018004ab20 f i GuAABBTreeBuild.obj
 0001:00049b30       ?growAndPushBack@?$Array@USlab@NodeAllocator@Gu@physx@@V?$ReflectionAllocator@USlab@NodeAllocator@Gu@physx@@@shdfnd@4@@shdfnd@physx@@IEAAAEAUSlab@NodeAllocator@Gu@3@AEBU4563@@Z 000000018004ab30 f i GuAABBTreeBuild.obj
 0001:00049c00       ?increaseCount@BuildStats@Gu@physx@@QEAAXI@Z 000000018004ac00 f i GuAABBTreeBuild.obj
 0001:00049c10       ?init@NodeAllocator@Gu@physx@@QEAAXII@Z 000000018004ac10 f   GuAABBTreeBuild.obj
 0001:00049d20       ?initAABBTreeBuild@Gu@physx@@YA_NAEAVAABBTreeBuildParams@12@AEAVNodeAllocator@12@AEAUBuildStats@12@AEAPEAI@Z 000000018004ad20 f   GuAABBTreeBuild.obj
 0001:00049f30       ?isLeaf@AABBTreeBuildNode@Gu@physx@@QEBA_NXZ 000000018004af30 f i GuAABBTreeBuild.obj
 0001:00049f40       ?recreate@?$Array@USlab@NodeAllocator@Gu@physx@@V?$ReflectionAllocator@USlab@NodeAllocator@Gu@physx@@@shdfnd@4@@shdfnd@physx@@IEAAXI@Z 000000018004af40 f i GuAABBTreeBuild.obj
 0001:00049ff0       ?release@NodeAllocator@Gu@physx@@QEAAXXZ 000000018004aff0 f   GuAABBTreeBuild.obj
 0001:0004a0a0       ?reset@BuildStats@Gu@physx@@QEAAXXZ 000000018004b0a0 f i GuAABBTreeBuild.obj
 0001:0004a0b0       ?resize@?$Array@USlab@NodeAllocator@Gu@physx@@V?$ReflectionAllocator@USlab@NodeAllocator@Gu@physx@@@shdfnd@4@@shdfnd@physx@@QEAAXIAEBUSlab@NodeAllocator@Gu@3@@Z 000000018004b0b0 f i GuAABBTreeBuild.obj
 0001:0004a130       ?setCount@BuildStats@Gu@physx@@QEAAXI@Z 000000018004b130 f i GuAABBTreeBuild.obj
 0001:0004a140       ?setNbRunTimePrimitives@AABBTreeBuildNode@Gu@physx@@QEAAXI@Z 000000018004b140 f i GuAABBTreeBuild.obj
 0001:0004a2b0       ?subdivide@AABBTreeBuildNode@Gu@physx@@QEAAXAEBVAABBTreeBuildParams@23@AEAUBuildStats@23@AEAVNodeAllocator@23@QEAI@Z 000000018004b2b0 f   GuAABBTreeBuild.obj
 0001:0004a490       ??0BVHStructure@Gu@physx@@QEAA@PEAVGuMeshFactory@2@@Z 000000018004b490 f   GuBVHStructure.obj
 0001:0004a4f0       ??0BVHStructure@Gu@physx@@QEAA@PEAVGuMeshFactory@2@AEAUBVHStructureData@12@@Z 000000018004b4f0 f   GuBVHStructure.obj
 0001:0004a560       ??R?$AABBTreeOverlap@UAABBAABBTest@Gu@physx@@UBVHTree@23@UBVHNode@23@IUBVHCallback@23@@Gu@physx@@QEAA_NPEBIPEBVPxBounds3@2@AEBUBVHTree@12@AEBUAABBAABBTest@12@AEAUBVHCallback@12@@Z 000000018004b560 f i GuBVHStructure.obj
 0001:0004a7f0       ??R?$AABBTreeRaycast@$00UBVHTree@Gu@physx@@UBVHNode@23@IUBVHCallback@23@@Gu@physx@@QEAA_NPEBIPEBVPxBounds3@2@AEBUBVHTree@12@AEBVPxVec3@2@3AEAM3AEAUBVHCallback@12@@Z 000000018004b7f0 f i GuBVHStructure.obj
 0001:0004ae80       ??R?$AABBTreeRaycast@$0A@UBVHTree@Gu@physx@@UBVHNode@23@IUBVHCallback@23@@Gu@physx@@QEAA_NPEBIPEBVPxBounds3@2@AEBUBVHTree@12@AEBVPxVec3@2@3AEAM3AEAUBVHCallback@12@@Z 000000018004be80 f i GuBVHStructure.obj
 0001:0004b4b8       ??_EBVHStructure@Gu@physx@@WBA@EAAPEAXI@Z 000000018004c4b8 f i GuBVHStructure.obj
 0001:0004b4d0       ??_EBVHStructure@Gu@physx@@UEAAPEAXI@Z 000000018004c4d0 f i GuBVHStructure.obj
 0001:0004b4d0       ??_GBVHStructure@Gu@physx@@UEAAPEAXI@Z 000000018004c4d0 f i GuBVHStructure.obj
 0001:0004b530       ??_ERefCountable@Cm@physx@@UEAAPEAXI@Z 000000018004c530 f i GuBVHStructure.obj
 0001:0004b530       ??_GRefCountable@Cm@physx@@UEAAPEAXI@Z 000000018004c530 f i GuBVHStructure.obj
 0001:0004b560       ?allocate@?$Array@PEBUBVHNode@Gu@physx@@V?$InlineAllocator@$0IAA@V?$ReflectionAllocator@PEBUBVHNode@Gu@physx@@@shdfnd@physx@@@shdfnd@3@@shdfnd@physx@@IEAAPEAPEBUBVHNode@Gu@3@I@Z 000000018004c560 f i GuBVHStructure.obj
 0001:0004b620       ?createVolumes@BVHStructure@Gu@physx@@AEBAXXZ 000000018004c620 f   GuBVHStructure.obj
 0001:0004b6a0       ?getBounds@BVHStructure@Gu@physx@@UEBAPEBVPxBounds3@3@XZ 000000018004c6a0 f i GuBVHStructure.obj
 0001:0004b6a0       ?getTriangles@TriangleMesh@Gu@physx@@UEBAPEBXXZ 000000018004c6a0 f i GuTriangleMesh.obj
 0001:0004b6b0       ?getConcreteTypeName@PxBVHStructure@physx@@UEBAPEBDXZ 000000018004c6b0 f i GuBVHStructure.obj
 0001:0004b6c0       ?getNbBounds@BVHStructure@Gu@physx@@UEBAIXZ 000000018004c6c0 f i GuBVHStructure.obj
 0001:0004b6d0       ?isKindOf@PxBVHStructure@physx@@MEBA_NPEBD@Z 000000018004c6d0 f i GuBVHStructure.obj
 0001:0004b720       ?load@BVHStructure@Gu@physx@@QEAA_NAEAVPxInputStream@3@@Z 000000018004c720 f   GuBVHStructure.obj
 0001:0004b8f0       ?onRefCountZero@BVHStructure@Gu@physx@@UEAAXXZ 000000018004c8f0 f   GuBVHStructure.obj
 0001:0004ba20       ?onRefCountZero@RefCountable@Cm@physx@@UEAAXXZ 000000018004ca20 f i GuBVHStructure.obj
 0001:0004ba40       ?overlap@BVHStructure@Gu@physx@@UEBAIAEBVPxBounds3@3@IPEIAI@Z 000000018004ca40 f   GuBVHStructure.obj
 0001:0004bb80       ?raycast@BVHStructure@Gu@physx@@UEBAIAEBVPxVec3@3@0MIPEIAI@Z 000000018004cb80 f   GuBVHStructure.obj
 0001:0004bc50       ?recreate@?$Array@PEBUBVHNode@Gu@physx@@V?$InlineAllocator@$0IAA@V?$ReflectionAllocator@PEBUBVHNode@Gu@physx@@@shdfnd@physx@@@shdfnd@3@@shdfnd@physx@@IEAAXI@Z 000000018004cc50 f i GuBVHStructure.obj
 0001:0004bd10       ?release@BVHStructure@Gu@physx@@UEAAXXZ 000000018004cd10 f   GuBVHStructure.obj
 0001:0004bd10       ?release@ConvexMesh@Gu@physx@@UEAAXXZ 000000018004cd10 f   GuConvexMesh.obj
 0001:0004bd10       ?release@HeightField@Gu@physx@@UEAAXXZ 000000018004cd10 f   GuHeightField.obj
 0001:0004bd10       ?release@TriangleMesh@Gu@physx@@UEAAXXZ 000000018004cd10 f   GuTriangleMesh.obj
 0001:0004bd40       ?resizeUninitialized@?$Array@PEBUBVHNode@Gu@physx@@V?$InlineAllocator@$0IAA@V?$ReflectionAllocator@PEBUBVHNode@Gu@physx@@@shdfnd@physx@@@shdfnd@3@@shdfnd@physx@@QEAAXI@Z 000000018004cd40 f i GuBVHStructure.obj
 0001:0004bd90       ?sweep@BVHStructure@Gu@physx@@UEBAIAEBVPxBounds3@3@AEBVPxVec3@3@MIPEIAI@Z 000000018004cd90 f   GuBVHStructure.obj
 0001:0004bf80       ?SweepAnyShapeHeightfield@Gu@physx@@YAMAEBUCCDShape@12@0AEBVPxTransform@2@111MAEAVPxVec3@2@2MAEAIM@Z 000000018004cf80 f   GuCCDSweepConvexMesh.obj
 0001:0004d0b0       ?SweepAnyShapeMesh@Gu@physx@@YAMAEBUCCDShape@12@0AEBVPxTransform@2@111MAEAVPxVec3@2@2MAEAIM@Z 000000018004e0b0 f   GuCCDSweepConvexMesh.obj
 0001:0004e7a0       ?SweepEstimateAnyShapeHeightfield@Gu@physx@@YAMAEBUCCDShape@12@0AEBVPxTransform@2@111MM@Z 000000018004f7a0 f   GuCCDSweepConvexMesh.obj
 0001:0004f000       ?SweepEstimateAnyShapeMesh@Gu@physx@@YAMAEBUCCDShape@12@0AEBVPxTransform@2@111MM@Z 0000000180050000 f   GuCCDSweepConvexMesh.obj
 0001:0004fe30       ?growAndPushBack@?$Array@IV?$InlineAllocator@$0BAA@V?$ReflectionAllocator@I@shdfnd@physx@@@shdfnd@physx@@@shdfnd@physx@@IEAAAEAIAEBI@Z 0000000180050e30 f i GuCCDSweepConvexMesh.obj
 0001:00050570       ?recreate@?$Array@IV?$InlineAllocator@$0BAA@V?$ReflectionAllocator@I@shdfnd@physx@@@shdfnd@physx@@@shdfnd@physx@@IEAAXI@Z 0000000180051570 f i GuCCDSweepConvexMesh.obj
 0001:00050660       ?resize@?$Array@IV?$InlineAllocator@$0BAA@V?$ReflectionAllocator@I@shdfnd@physx@@@shdfnd@physx@@@shdfnd@physx@@QEAAXIAEBI@Z 0000000180051660 f i GuCCDSweepConvexMesh.obj
 0001:00050730       ?resize@?$Array@IV?$ReflectionAllocator@I@shdfnd@physx@@@shdfnd@physx@@QEAAXIAEBI@Z 0000000180051730 f i GuCCDSweepConvexMesh.obj
 0001:000507f0       ?transformBoxOrthonormal@physx@@YA?AVBox@Gu@1@AEBV231@AEBVPxTransform@1@@Z 00000001800517f0 f i GuCCDSweepConvexMesh.obj
 0001:00050c80       ?UnimplementedSweep@Gu@physx@@YAMAEBUCCDShape@12@0AEBVPxTransform@2@111MAEAVPxVec3@2@2MAEAIM@Z 0000000180051c80 f   GuCCDSweepPrimitives.obj
 0001:00050c90       ??$SweepGeomGeom@VCapsuleV@Gu@physx@@V123@@Gu@physx@@YAMAEBUCCDShape@01@0AEBVPxTransform@1@111MAEAVPxVec3@1@2MAEAIM@Z 0000000180051c90 f i GuCCDSweepPrimitives.obj
 0001:00050dc0       ??$SweepGeomGeom@VCapsuleV@Gu@physx@@VBoxV@23@@Gu@physx@@YAMAEBUCCDShape@01@0AEBVPxTransform@1@111MAEAVPxVec3@1@2MAEAIM@Z 0000000180051dc0 f i GuCCDSweepPrimitives.obj
 0001:00050f20       ??$SweepGeomGeom@VCapsuleV@Gu@physx@@VConvexHullV@23@@Gu@physx@@YAMAEBUCCDShape@01@0AEBVPxTransform@1@111MAEAVPxVec3@1@2MAEAIM@Z 0000000180051f20 f i GuCCDSweepPrimitives.obj
 0001:00051450       ??$SweepGeomGeom@VBoxV@Gu@physx@@V123@@Gu@physx@@YAMAEBUCCDShape@01@0AEBVPxTransform@1@111MAEAVPxVec3@1@2MAEAIM@Z 0000000180052450 f i GuCCDSweepPrimitives.obj
 0001:000515e0       ??$SweepGeomGeom@VBoxV@Gu@physx@@VConvexHullV@23@@Gu@physx@@YAMAEBUCCDShape@01@0AEBVPxTransform@1@111MAEAVPxVec3@1@2MAEAIM@Z 00000001800525e0 f i GuCCDSweepPrimitives.obj
 0001:00051b40       ??$SweepGeomGeom@VConvexHullV@Gu@physx@@V123@@Gu@physx@@YAMAEBUCCDShape@01@0AEBVPxTransform@1@111MAEAVPxVec3@1@2MAEAIM@Z 0000000180052b40 f i GuCCDSweepPrimitives.obj
 0001:000523d0       ?UnimplementedTriangleSweep@Gu@physx@@YAMAEBVGeometryUnion@12@0AEBVPxTransform@2@111MAEAVPxVec3@2@2AEBVFastVertex2ShapeScaling@Cm@2@AEAVTriangleV@12@M@Z 00000001800533d0 f   GuCCDSweepPrimitives.obj
 0001:000523e0       ??$SweepGeomTriangles@VCapsuleV@Gu@physx@@@Gu@physx@@YAMAEBVGeometryUnion@01@0AEBVPxTransform@1@111MAEAVPxVec3@1@2AEBVFastVertex2ShapeScaling@Cm@1@AEAVTriangleV@01@M@Z 00000001800533e0 f i GuCCDSweepPrimitives.obj
 0001:000524b0       ??$SweepGeomTriangles@VBoxV@Gu@physx@@@Gu@physx@@YAMAEBVGeometryUnion@01@0AEBVPxTransform@1@111MAEAVPxVec3@1@2AEBVFastVertex2ShapeScaling@Cm@1@AEAVTriangleV@01@M@Z 00000001800534b0 f i GuCCDSweepPrimitives.obj
 0001:000525b0       ??$SweepGeomTriangles@VConvexHullV@Gu@physx@@@Gu@physx@@YAMAEBVGeometryUnion@01@0AEBVPxTransform@1@111MAEAVPxVec3@1@2AEBVFastVertex2ShapeScaling@Cm@1@AEAVTriangleV@01@M@Z 00000001800535b0 f i GuCCDSweepPrimitives.obj
 0001:00052a90       ?supportPoint@?$RelativeConvex@VCapsuleV@Gu@physx@@@Gu@physx@@UEBA?AT__m128@@H@Z 0000000180053a90 f i GuCCDSweepPrimitives.obj
 0001:00052af0       ?support@?$RelativeConvex@VCapsuleV@Gu@physx@@@Gu@physx@@UEBA?AT__m128@@AEBT4@@Z 0000000180053af0 f i GuCCDSweepPrimitives.obj
 0001:00052ba0       ?support@?$RelativeConvex@VCapsuleV@Gu@physx@@@Gu@physx@@UEBA?AT__m128@@AEBT4@AEAH@Z 0000000180053ba0 f i GuCCDSweepPrimitives.obj
 0001:00052c60       ?supportPoint@?$RelativeConvex@VTriangleV@Gu@physx@@@Gu@physx@@UEBA?AT__m128@@H@Z 0000000180053c60 f i GuCCDSweepPrimitives.obj
 0001:00052cb0       ?support@?$RelativeConvex@VTriangleV@Gu@physx@@@Gu@physx@@UEBA?AT__m128@@AEBT4@@Z 0000000180053cb0 f i GuCCDSweepPrimitives.obj
 0001:00052db0       ?support@?$RelativeConvex@VTriangleV@Gu@physx@@@Gu@physx@@UEBA?AT__m128@@AEBT4@AEAH@Z 0000000180053db0 f i GuCCDSweepPrimitives.obj
 0001:00056cd0       ??$gjkPenetration@U?$RelativeConvex@VCapsuleV@Gu@physx@@@Gu@physx@@U?$LocalConvex@VBoxV@Gu@physx@@@23@@Gu@physx@@YA?AW4GjkStatus@01@AEBU?$RelativeConvex@VCapsuleV@Gu@physx@@@01@AEBU?$LocalConvex@VBoxV@Gu@physx@@@01@AEBT__m128@@2_NPEIAE4AEAEAEAUGjkOutput@01@@Z 0000000180057cd0 f i GuCCDSweepPrimitives.obj
 0001:00058820       ??$gjkPenetration@U?$RelativeConvex@VCapsuleV@Gu@physx@@@Gu@physx@@U?$LocalConvex@VCapsuleV@Gu@physx@@@23@@Gu@physx@@YA?AW4GjkStatus@01@AEBU?$RelativeConvex@VCapsuleV@Gu@physx@@@01@AEBU?$LocalConvex@VCapsuleV@Gu@physx@@@01@AEBT__m128@@2_NPEIAE4AEAEAEAUGjkOutput@01@@Z 0000000180059820 f i GuCCDSweepPrimitives.obj
 0001:0005a3c0       ??$gjkPenetration@U?$RelativeConvex@VCapsuleV@Gu@physx@@@Gu@physx@@U?$LocalConvex@VConvexHullV@Gu@physx@@@23@@Gu@physx@@YA?AW4GjkStatus@01@AEBU?$RelativeConvex@VCapsuleV@Gu@physx@@@01@AEBU?$LocalConvex@VConvexHullV@Gu@physx@@@01@AEBT__m128@@2_NPEIAE4AEAEAEAUGjkOutput@01@@Z 000000018005b3c0 f i GuCCDSweepPrimitives.obj
 0001:0005bfe0       ??$gjkPenetration@U?$RelativeConvex@VTriangleV@Gu@physx@@@Gu@physx@@U?$LocalConvex@VBoxV@Gu@physx@@@23@@Gu@physx@@YA?AW4GjkStatus@01@AEBU?$RelativeConvex@VTriangleV@Gu@physx@@@01@AEBU?$LocalConvex@VBoxV@Gu@physx@@@01@AEBT__m128@@2_NPEIAE4AEAEAEAUGjkOutput@01@@Z 000000018005cfe0 f i GuCCDSweepPrimitives.obj
 0001:0005db80       ??$gjkPenetration@U?$RelativeConvex@VTriangleV@Gu@physx@@@Gu@physx@@U?$LocalConvex@VCapsuleV@Gu@physx@@@23@@Gu@physx@@YA?AW4GjkStatus@01@AEBU?$RelativeConvex@VTriangleV@Gu@physx@@@01@AEBU?$LocalConvex@VCapsuleV@Gu@physx@@@01@AEBT__m128@@2_NPEIAE4AEAEAEAUGjkOutput@01@@Z 000000018005eb80 f i GuCCDSweepPrimitives.obj
 0001:0005f730       ??$gjkPenetration@U?$RelativeConvex@VTriangleV@Gu@physx@@@Gu@physx@@U?$LocalConvex@VConvexHullV@Gu@physx@@@23@@Gu@physx@@YA?AW4GjkStatus@01@AEBU?$RelativeConvex@VTriangleV@Gu@physx@@@01@AEBU?$LocalConvex@VConvexHullV@Gu@physx@@@01@AEBT__m128@@2_NPEIAE4AEAEAEAUGjkOutput@01@@Z 0000000180060730 f i GuCCDSweepPrimitives.obj
 0001:00061390       ??$gjkRaycast@U?$RelativeConvex@VCapsuleV@Gu@physx@@@Gu@physx@@U?$LocalConvex@VBoxV@Gu@physx@@@23@@Gu@physx@@YA_NAEBU?$RelativeConvex@VCapsuleV@Gu@physx@@@01@AEBU?$LocalConvex@VBoxV@Gu@physx@@@01@AEBT__m128@@222AEAT4@33M@Z 0000000180062390 f i GuCCDSweepPrimitives.obj
 0001:00062060       ??$gjkRaycast@U?$RelativeConvex@VCapsuleV@Gu@physx@@@Gu@physx@@U?$LocalConvex@VCapsuleV@Gu@physx@@@23@@Gu@physx@@YA_NAEBU?$RelativeConvex@VCapsuleV@Gu@physx@@@01@AEBU?$LocalConvex@VCapsuleV@Gu@physx@@@01@AEBT__m128@@222AEAT4@33M@Z 0000000180063060 f i GuCCDSweepPrimitives.obj
 0001:00062d80       ??$gjkRaycast@U?$RelativeConvex@VCapsuleV@Gu@physx@@@Gu@physx@@U?$LocalConvex@VConvexHullV@Gu@physx@@@23@@Gu@physx@@YA_NAEBU?$RelativeConvex@VCapsuleV@Gu@physx@@@01@AEBU?$LocalConvex@VConvexHullV@Gu@physx@@@01@AEBT__m128@@222AEAT4@33M@Z 0000000180063d80 f i GuCCDSweepPrimitives.obj
 0001:00063bb0       ??$gjkRaycast@U?$RelativeConvex@VTriangleV@Gu@physx@@@Gu@physx@@U?$LocalConvex@VBoxV@Gu@physx@@@23@@Gu@physx@@YA_NAEBU?$RelativeConvex@VTriangleV@Gu@physx@@@01@AEBU?$LocalConvex@VBoxV@Gu@physx@@@01@AEBT__m128@@222AEAT4@33M@Z 0000000180064bb0 f i GuCCDSweepPrimitives.obj
 0001:000648f0       ??$gjkRaycast@U?$RelativeConvex@VTriangleV@Gu@physx@@@Gu@physx@@U?$LocalConvex@VCapsuleV@Gu@physx@@@23@@Gu@physx@@YA_NAEBU?$RelativeConvex@VTriangleV@Gu@physx@@@01@AEBU?$LocalConvex@VCapsuleV@Gu@physx@@@01@AEBT__m128@@222AEAT4@33M@Z 00000001800658f0 f i GuCCDSweepPrimitives.obj
 0001:000656c0       ??$gjkRaycast@U?$RelativeConvex@VTriangleV@Gu@physx@@@Gu@physx@@U?$LocalConvex@VConvexHullV@Gu@physx@@@23@@Gu@physx@@YA_NAEBU?$RelativeConvex@VTriangleV@Gu@physx@@@01@AEBU?$LocalConvex@VConvexHullV@Gu@physx@@@01@AEBT__m128@@222AEAT4@33M@Z 00000001800666c0 f i GuCCDSweepPrimitives.obj
 0001:00066590       ?SweepShapeShape@Gu@physx@@YAMAEBUCCDShape@12@0AEBVPxTransform@2@111MAEAVPxVec3@2@2MAEAIM@Z 0000000180067590 f   GuCCDSweepPrimitives.obj
 0001:000665c0       ?SweepShapeTriangle@Gu@physx@@YAMAEBVGeometryUnion@12@0AEBVPxTransform@2@111MAEAVPxVec3@2@2AEBVFastVertex2ShapeScaling@Cm@2@AEAVTriangleV@12@M@Z 00000001800675c0 f   GuCCDSweepPrimitives.obj
 0001:000665e0       ?barycentricCoordinates@Gu@physx@@YAXAEBT__m128@@000AEAT3@1@Z 00000001800675e0 f   GuBarycentricCoordinates.obj
 0001:00066730       ?barycentricCoordinates@Gu@physx@@YAXAEBT__m128@@00AEAT3@@Z 0000000180067730 f   GuBarycentricCoordinates.obj
 0001:000667a0       ?addAxis@SeparatingAxes@Gu@physx@@QEAA_NAEBVPxVec3@3@@Z 00000001800677a0 f   GuSeparatingAxes.obj
 0001:00066860       ?contactBoxBox@Gu@physx@@YA_NAEBVGeometryUnion@12@0AEBVPxTransform@2@1AEBUNarrowPhaseParams@12@AEAUCache@12@AEAVContactBuffer@12@PEAVRenderOutput@Cm@2@@Z 0000000180067860 f   GuContactBoxBox.obj
 0001:0006a9c0       ?contactCapsuleBox@Gu@physx@@YA_NAEBVGeometryUnion@12@0AEBVPxTransform@2@1AEBUNarrowPhaseParams@12@AEAUCache@12@AEAVContactBuffer@12@PEAVRenderOutput@Cm@2@@Z 000000018006b9c0 f   GuContactCapsuleBox.obj
 0001:0006b1c0       ?contactCapsuleCapsule@Gu@physx@@YA_NAEBVGeometryUnion@12@0AEBVPxTransform@2@1AEBUNarrowPhaseParams@12@AEAUCache@12@AEAVContactBuffer@12@PEAVRenderOutput@Cm@2@@Z 000000018006c1c0 f   GuContactCapsuleCapsule.obj
 0001:0006db80       ?contactCapsuleConvex@Gu@physx@@YA_NAEBVGeometryUnion@12@0AEBVPxTransform@2@1AEBUNarrowPhaseParams@12@AEAUCache@12@AEAVContactBuffer@12@PEAVRenderOutput@Cm@2@@Z 000000018006eb80 f   GuContactCapsuleConvex.obj
 0001:000700a0       ?contactCapsuleHeightfield@Gu@physx@@YA_NAEBVGeometryUnion@12@0AEBVPxTransform@2@1AEBUNarrowPhaseParams@12@AEAUCache@12@AEAVContactBuffer@12@PEAVRenderOutput@Cm@2@@Z 00000001800710a0 f   GuContactCapsuleMesh.obj
 0001:000706e0       ?contactCapsuleMesh@Gu@physx@@YA_NAEBVGeometryUnion@12@0AEBVPxTransform@2@1AEBUNarrowPhaseParams@12@AEAUCache@12@AEAVContactBuffer@12@PEAVRenderOutput@Cm@2@@Z 00000001800716e0 f   GuContactCapsuleMesh.obj
 0001:00071a50       ?transformFast@PxBounds3@physx@@SA?AV12@AEBVPxTransform@2@AEBV12@@Z 0000000180072a50 f i GuContactCapsuleMesh.obj
 0001:00071e10       ?transformQueryBounds@FastVertex2ShapeScaling@Cm@physx@@QEBAXAEAVPxVec3@3@0AEAVPxMat33@3@@Z 0000000180072e10 f i GuContactCapsuleMesh.obj
 0001:000761c0       ?contactBoxConvex@Gu@physx@@YA_NAEBVGeometryUnion@12@0AEBVPxTransform@2@1AEBUNarrowPhaseParams@12@AEAUCache@12@AEAVContactBuffer@12@PEAVRenderOutput@Cm@2@@Z 00000001800771c0 f   GuContactConvexConvex.obj
 0001:00076360       ?contactConvexConvex@Gu@physx@@YA_NAEBVGeometryUnion@12@0AEBVPxTransform@2@1AEBUNarrowPhaseParams@12@AEAUCache@12@AEAVContactBuffer@12@PEAVRenderOutput@Cm@2@@Z 0000000180077360 f   GuContactConvexConvex.obj
 0001:00076790       ?transformPlaneToShapeSpace@FastVertex2ShapeScaling@Cm@physx@@QEBAXAEBVPxVec3@3@MAEAV43@AEAM@Z 0000000180077790 f i GuContactConvexConvex.obj
 0001:00076880       ??0?$CacheMap@UCachedEdge@Gu@physx@@$0IA@@Gu@physx@@QEAA@XZ 0000000180077880 f i GuContactConvexMesh.obj
 0001:00076940       ??0?$CacheMap@UCachedVertex@Gu@physx@@$0IA@@Gu@physx@@QEAA@XZ 0000000180077940 f i GuContactConvexMesh.obj
 0001:00076f20       ??_EConvexMeshContactGenerationCallback@@UEAAPEAXI@Z 0000000180077f20 f i GuContactConvexMesh.obj
 0001:00076f20       ??_GConvexMeshContactGenerationCallback@@UEAAPEAXI@Z 0000000180077f20 f i GuContactConvexMesh.obj
 0001:00076f80       ?addData@?$CacheMap@UCachedEdge@Gu@physx@@$0IA@@Gu@physx@@QEAA_NAEBUCachedEdge@23@@Z 0000000180077f80 f i GuContactConvexMesh.obj
 0001:00077060       ?addData@?$CacheMap@UCachedVertex@Gu@physx@@$0IA@@Gu@physx@@QEAA_NAEBUCachedVertex@23@@Z 0000000180078060 f i GuContactConvexMesh.obj
 0001:00077430       ?contactBoxHeightfield@Gu@physx@@YA_NAEBVGeometryUnion@12@0AEBVPxTransform@2@1AEBUNarrowPhaseParams@12@AEAUCache@12@AEAVContactBuffer@12@PEAVRenderOutput@Cm@2@@Z 0000000180078430 f   GuContactConvexMesh.obj
 0001:00077590       ?contactBoxMesh@Gu@physx@@YA_NAEBVGeometryUnion@12@0AEBVPxTransform@2@1AEBUNarrowPhaseParams@12@AEAUCache@12@AEAVContactBuffer@12@PEAVRenderOutput@Cm@2@@Z 0000000180078590 f   GuContactConvexMesh.obj
 0001:00077750       ?contactConvexHeightfield@Gu@physx@@YA_NAEBVGeometryUnion@12@0AEBVPxTransform@2@1AEBUNarrowPhaseParams@12@AEAUCache@12@AEAVContactBuffer@12@PEAVRenderOutput@Cm@2@@Z 0000000180078750 f   GuContactConvexMesh.obj
 0001:00077880       ?contactConvexMesh@Gu@physx@@YA_NAEBVGeometryUnion@12@0AEBVPxTransform@2@1AEBUNarrowPhaseParams@12@AEAUCache@12@AEAVContactBuffer@12@PEAVRenderOutput@Cm@2@@Z 0000000180078880 f   GuContactConvexMesh.obj
 0001:00078890       ?contains@?$CacheMap@UCachedEdge@Gu@physx@@$0IA@@Gu@physx@@QEBA_NAEBUCachedEdge@23@@Z 0000000180079890 f i GuContactConvexMesh.obj
 0001:0007b1a0       ?processHit@ConvexMeshContactGenerationCallback@@UEAA_NAEBUPxRaycastHit@physx@@AEBVPxVec3@3@11AEAMPEBI@Z 000000018007c1a0 f i GuContactConvexMesh.obj
 0001:0007bac0       ?recreate@?$Array@IV?$InlineAllocator@$0BBAA@V?$ReflectionAllocator@I@shdfnd@physx@@@shdfnd@physx@@@shdfnd@physx@@IEAAXI@Z 000000018007cac0 f i GuContactConvexMesh.obj
 0001:0007cb50       ?contactPlaneBox@Gu@physx@@YA_NAEBVGeometryUnion@12@0AEBVPxTransform@2@1AEBUNarrowPhaseParams@12@AEAUCache@12@AEAVContactBuffer@12@PEAVRenderOutput@Cm@2@@Z 000000018007db50 f   GuContactPlaneBox.obj
 0001:0007d740       ?contactPlaneCapsule@Gu@physx@@YA_NAEBVGeometryUnion@12@0AEBVPxTransform@2@1AEBUNarrowPhaseParams@12@AEAUCache@12@AEAVContactBuffer@12@PEAVRenderOutput@Cm@2@@Z 000000018007e740 f   GuContactPlaneCapsule.obj
 0001:0007dd40       ?contactPlaneConvex@Gu@physx@@YA_NAEBVGeometryUnion@12@0AEBVPxTransform@2@1AEBUNarrowPhaseParams@12@AEAUCache@12@AEAVContactBuffer@12@PEAVRenderOutput@Cm@2@@Z 000000018007ed40 f   GuContactPlaneConvex.obj
 0001:0007f820       ?contactPolygonPolygonExt@Gu@physx@@YA_NIPEBVPxVec3@2@PEBEAEBVMatrix34@Cm@2@AEBVPxPlane@2@AEBVPxMat33@2@I01234AEBV32@22IIAEAVContactBuffer@12@_N5M@Z 0000000180080820 f   GuContactPolygonPolygon.obj
 0001:00080f70       ?findRotationMatrixFromZ@Gu@physx@@YA?AVPxMat33@2@AEBVPxVec3@2@@Z 0000000180081f70 f   GuContactPolygonPolygon.obj
 0001:00081960       ?contactSphereBox@Gu@physx@@YA_NAEBVGeometryUnion@12@0AEBVPxTransform@2@1AEBUNarrowPhaseParams@12@AEAUCache@12@AEAVContactBuffer@12@PEAVRenderOutput@Cm@2@@Z 0000000180082960 f   GuContactSphereBox.obj
 0001:00081f20       ?contactSphereCapsule@Gu@physx@@YA_NAEBVGeometryUnion@12@0AEBVPxTransform@2@1AEBUNarrowPhaseParams@12@AEAUCache@12@AEAVContactBuffer@12@PEAVRenderOutput@Cm@2@@Z 0000000180082f20 f   GuContactSphereCapsule.obj
 0001:00082ce0       ?contactSphereHeightfield@Gu@physx@@YA_NAEBVGeometryUnion@12@0AEBVPxTransform@2@1AEBUNarrowPhaseParams@12@AEAUCache@12@AEAVContactBuffer@12@PEAVRenderOutput@Cm@2@@Z 0000000180083ce0 f   GuContactSphereMesh.obj
 0001:00082f90       ?contactSphereMesh@Gu@physx@@YA_NAEBVGeometryUnion@12@0AEBVPxTransform@2@1AEBUNarrowPhaseParams@12@AEAUCache@12@AEAVContactBuffer@12@PEAVRenderOutput@Cm@2@@Z 0000000180083f90 f   GuContactSphereMesh.obj
 0001:00084500       ?contactSpherePlane@Gu@physx@@YA_NAEBVGeometryUnion@12@0AEBVPxTransform@2@1AEBUNarrowPhaseParams@12@AEAUCache@12@AEAVContactBuffer@12@PEAVRenderOutput@Cm@2@@Z 0000000180085500 f   GuContactSpherePlane.obj
 0001:00084700       ?contactSphereSphere@Gu@physx@@YA_NAEBVGeometryUnion@12@0AEBVPxTransform@2@1AEBUNarrowPhaseParams@12@AEAUCache@12@AEAVContactBuffer@12@PEAVRenderOutput@Cm@2@@Z 0000000180085700 f   GuContactSphereSphere.obj
 0001:00084870       ?selectNormal@Gu@physx@@YA_NEMM@Z 0000000180085870 f   GuFeatureCode.obj
 0001:000848f0       ??0BigConvexData@physx@@QEAA@XZ 00000001800858f0 f   GuBigConvexData.obj
 0001:00084910       ??1BigConvexData@physx@@QEAA@XZ 0000000180085910 f   GuBigConvexData.obj
 0001:000849a0       ?ComputeNearestOffset@BigConvexData@physx@@QEBAIAEBVPxVec3@2@@Z 00000001800859a0 f   GuBigConvexData.obj
 0001:00084ab0       ?ComputeOffset@BigConvexData@physx@@QEBAIAEBVPxVec3@2@@Z 0000000180085ab0 f   GuBigConvexData.obj
 0001:00084bb0       ?CreateOffsets@BigConvexData@physx@@IEAAXXZ 0000000180085bb0 f   GuBigConvexData.obj
 0001:00084c00       ?Load@BigConvexData@physx@@QEAA_NAEAVPxInputStream@2@@Z 0000000180085c00 f   GuBigConvexData.obj
 0001:00084d20       ?VLoad@BigConvexData@physx@@IEAA_NAEAVPxInputStream@2@@Z 0000000180085d20 f   GuBigConvexData.obj
 0001:00084ec0       ?exportExtraData@BigConvexData@physx@@QEAAXAEAVPxSerializationContext@2@@Z 0000000180085ec0 f   GuBigConvexData.obj
 0001:00084f40       ?importExtraData@BigConvexData@physx@@QEAAXAEAVPxDeserializationContext@2@@Z 0000000180085f40 f   GuBigConvexData.obj
 0001:00084fb0       ?findUniqueConvexEdges@Gu@physx@@YAIIPEIAUConvexEdge@12@IPEIBUHullPolygonData@12@PEIBE@Z 0000000180085fb0 f   GuConvexHelper.obj
 0001:000850e0       ?getConvexData@Gu@physx@@YA_NAEBVGeometryUnion@12@AEAVFastVertex2ShapeScaling@Cm@2@AEAVPxBounds3@2@AEAUPolygonalData@12@@Z 00000001800860e0 f   GuConvexHelper.obj
 0001:00085360       ?getScaledConvex@Gu@physx@@YAXAEAPEAVPxVec3@2@AEAPEAEPEAV32@PEAE_NPEBV32@PEBEIAEBVFastVertex2ShapeScaling@Cm@2@@Z 0000000180086360 f   GuConvexHelper.obj
 0001:00085490       ??0ConvexMesh@Gu@physx@@QEAA@AEAVGuMeshFactory@2@AEAUConvexHullInitData@12@@Z 0000000180086490 f   GuConvexMesh.obj
 0001:000855c0       ??0ConvexMesh@Gu@physx@@QEAA@XZ 00000001800865c0 f   GuConvexMesh.obj
 0001:00085660       ??1ConvexMesh@Gu@physx@@UEAA@XZ 0000000180086660 f   GuConvexMesh.obj
 0001:00085700       ??_EConvexMesh@Gu@physx@@UEAAPEAXI@Z 0000000180086700 f i GuConvexMesh.obj
 0001:00085814       ??_EConvexMesh@Gu@physx@@WBA@EAAPEAXI@Z 0000000180086814 f i GuConvexMesh.obj
 0001:00085820       ??_EPxConvexMesh@physx@@MEAAPEAXI@Z 0000000180086820 f i GuConvexMesh.obj
 0001:00085820       ??_EPxHeightField@physx@@MEAAPEAXI@Z 0000000180086820 f i GuHeightField.obj
 0001:000858b0       ?acquireReference@ConvexMesh@Gu@physx@@UEAAXXZ 00000001800868b0 f   GuConvexMesh.obj
 0001:000858b0       ?acquireReference@HeightField@Gu@physx@@UEAAXXZ 00000001800868b0 f   GuHeightField.obj
 0001:000858b0       ?acquireReference@TriangleMesh@Gu@physx@@UEAAXXZ 00000001800868b0 f   GuTriangleMesh.obj
 0001:00085d70       ?createObject@ConvexMesh@Gu@physx@@SAPEAV123@AEAPEAEAEAVPxDeserializationContext@3@@Z 0000000180086d70 f   GuConvexMesh.obj
 0001:00085dc0       ?exportExtraData@ConvexMesh@Gu@physx@@UEAAXAEAVPxSerializationContext@3@@Z 0000000180086dc0 f   GuConvexMesh.obj
 0001:00085e90       ?getLocalBounds@ConvexMesh@Gu@physx@@UEBA?AVPxBounds3@3@XZ 0000000180086e90 f   GuConvexMesh.obj
 0001:00085f20       ?getMassInformation@ConvexMesh@Gu@physx@@UEBAXAEAMAEAVPxMat33@3@AEAVPxVec3@3@@Z 0000000180086f20 f   GuConvexMesh.obj
 0001:00085f90       ?getPolygonData@ConvexMesh@Gu@physx@@UEBA_NIAEAUPxHullPolygon@3@@Z 0000000180086f90 f   GuConvexMesh.obj
 0001:00085fe0       ?getReferenceCount@ConvexMesh@Gu@physx@@UEBAIXZ 0000000180086fe0 f   GuConvexMesh.obj
 0001:00085fe0       ?getReferenceCount@HeightField@Gu@physx@@UEBAIXZ 0000000180086fe0 f   GuHeightField.obj
 0001:00085fe0       ?getReferenceCount@TriangleMesh@Gu@physx@@UEBAIXZ 0000000180086fe0 f   GuTriangleMesh.obj
 0001:00085fe0       ?raw_length@pairNode@@UEBAHXZ 0000000180086fe0 f   libvcruntime:undname.obj
 0001:00085ff0       ?importExtraData@ConvexMesh@Gu@physx@@QEAAXAEAVPxDeserializationContext@3@@Z 0000000180086ff0 f   GuConvexMesh.obj
 0001:000860b0       ?isGpuCompatible@ConvexMesh@Gu@physx@@UEBA_NXZ 00000001800870b0 f   GuConvexMesh.obj
 0001:000860d0       ?load@ConvexMesh@Gu@physx@@QEAA_NAEAVPxInputStream@3@@Z 00000001800870d0 f   GuConvexMesh.obj
 0001:00086380       ?onRefCountZero@ConvexMesh@Gu@physx@@UEAAXXZ 0000000180087380 f   GuConvexMesh.obj
 0001:00086480       ??Dphysx@@YA?AVMatrix34@Cm@0@AEBVPxMeshScale@0@AEBV120@@Z 0000000180087480 f i GuConvexUtilsInternal.obj
 0001:00086a40       ?computeHullOBB@Gu@physx@@YAXAEAVBox@12@AEBVPxBounds3@2@MAEBVMatrix34@Cm@2@2AEBVFastVertex2ShapeScaling@62@_N@Z 0000000180087a40 f   GuConvexUtilsInternal.obj
 0001:00086f40       ?computeOBBAroundConvex@Gu@physx@@YAXAEAVBox@12@AEBVPxConvexMeshGeometry@2@PEBVPxConvexMesh@2@AEBVPxTransform@2@@Z 0000000180087f40 f   GuConvexUtilsInternal.obj
 0001:00087820       ?computeVertexSpaceOBB@Gu@physx@@YAXAEAVBox@12@AEBV312@AEBVPxTransform@2@AEBVPxMeshScale@2@@Z 0000000180088820 f   GuConvexUtilsInternal.obj
 0001:00087bd0       ?transform@physx@@YA?AVBox@Gu@1@AEBVMatrix34@Cm@1@AEBV231@@Z 0000000180088bd0 f i GuConvexUtilsInternal.obj
 0001:00087e20       ?localSearch@physx@@YAXAEAIAEBVPxVec3@1@PEBV21@PEBUBigConvexRawData@Gu@1@@Z 0000000180088e20 f   GuHillClimbing.obj
 0001:00087f50       ??0PCMPolygonalBox@Gu@physx@@QEAA@AEBVPxVec3@2@@Z 0000000180088f50 f   GuPCMShapeConvex.obj
 0001:00087f50       ??0PolygonalBox@Gu@physx@@QEAA@AEBVPxVec3@2@@Z 0000000180088f50 f   GuShapeConvex.obj
 0001:000892c0       ?getPolygonalData@PolygonalBox@Gu@physx@@QEBAXPEIAUPolygonalData@23@@Z 000000018008a2c0 f   GuShapeConvex.obj
 0001:00089320       ?getPolygonalData_Convex@Gu@physx@@YAXPEIAUPolygonalData@12@PEIBUConvexHullData@12@AEBVFastVertex2ShapeScaling@Cm@2@@Z 000000018008a320 f   GuShapeConvex.obj
 0001:00089480       ?distancePointBoxSquared@Gu@physx@@YAMAEBVPxVec3@2@00AEBVPxMat33@2@PEAV32@@Z 000000018008a480 f   GuDistancePointBox.obj
 0001:000895d0       ?closestPtPointTriangle@Gu@physx@@YA?AVPxVec3@2@AEBV32@000AEAM1@Z 000000018008a5d0 f   GuDistancePointTriangle.obj
 0001:00089af0       ?distancePointTriangleSquared@Gu@physx@@YA?AT__m128@@AEBT3@000AEAT3@11@Z 000000018008aaf0 f   GuDistancePointTriangle.obj
 0001:0008a840       ?distanceSegmentBoxSquared@Gu@physx@@YAMAEBVPxVec3@2@000AEBVPxMat33@2@PEAMPEAV32@@Z 000000018008b840 f   GuDistanceSegmentBox.obj
 0001:0008b030       ?distanceSegmentSegmentSquared4@Gu@physx@@YA?AT__m128@@AEBT3@000000000AEAT3@1@Z 000000018008c030 f   GuDistanceSegmentSegment.obj
 0001:0008b330       ?distanceSegmentSegmentSquared@Gu@physx@@YA?AT__m128@@AEBT3@000AEAT3@1@Z 000000018008c330 f   GuDistanceSegmentSegment.obj
 0001:0008b500       ?distanceSegmentSegmentSquared@Gu@physx@@YAMAEBVPxVec3@2@000PEAM1@Z 000000018008c500 f   GuDistanceSegmentSegment.obj
 0001:0008b790       ?distanceSegmentSegmentSquared@Gu@physx@@YAMAEBVPxVec3@2@0M00MPEAM1@Z 000000018008c790 f   GuDistanceSegmentSegment.obj
 0001:0008bee0       ?distanceSegmentTriangleSquared@Gu@physx@@YA?AT__m128@@AEBT3@0000AEAT3@1@Z 000000018008cee0 f   GuDistanceSegmentTriangle.obj
 0001:0008c630       ?distanceSegmentTriangleSquared@Gu@physx@@YAMAEBVPxVec3@2@0000PEAM11@Z 000000018008d630 f   GuDistanceSegmentTriangle.obj
 0001:0008dcd0       ?PenetrationDepth@EPA@Gu@physx@@QEAA?AW4GjkStatus@23@AEBUGjkConvex@23@0PEIBT__m128@@1E_NT6@AEAUGjkOutput@23@@Z 000000018008ecd0 f   GuEPA.obj
 0001:0008e790       ?addFacet@EPA@Gu@physx@@QEAAPEAVFacet@23@IIIAEBT__m128@@@Z 000000018008f790 f   GuEPA.obj
 0001:0008ebd0       ?epaPenetration@Gu@physx@@YA?AW4GjkStatus@12@AEBUGjkConvex@12@0PEIBE1E_NT__m128@@AEAUGjkOutput@12@@Z 000000018008fbd0 f   GuEPA.obj
 0001:0008ed30       ?silhouette@Facet@Gu@physx@@QEAAXAEBT__m128@@PEIBT4@1AEAVEdgeBuffer@23@AEAV?$InlineDeferredIDPool@$0EA@@Cm@3@@Z 000000018008fd30 f   GuEPA.obj
 0001:0008ef00       ?closestPtPointTetrahedron@Gu@physx@@YA?AT__m128@@PEIAT3@00AEAI@Z 000000018008ff00 f   GuGJKSimplex.obj
 0001:0008f690       ?closestPtPointTetrahedron@Gu@physx@@YA?AT__m128@@PEIAT3@00PEIAH1AEAI@Z 0000000180090690 f   GuGJKSimplex.obj
 0001:00091130       ??$gjk@UGjkConvex@Gu@physx@@U123@@Gu@physx@@YA?AW4GjkStatus@01@AEBUGjkConvex@01@0AEBT__m128@@1AEAT4@222@Z 0000000180092130 f i GuGJKTest.obj
 0001:00091d20       ??$gjkPenetration@UGjkConvex@Gu@physx@@U123@@Gu@physx@@YA?AW4GjkStatus@01@AEBUGjkConvex@01@0AEBT__m128@@1_NPEIAE3AEAEAEAUGjkOutput@01@@Z 0000000180092d20 f i GuGJKTest.obj
 0001:00093830       ?testEpaPenetration@Gu@physx@@YA?AW4GjkStatus@12@AEAUGjkConvex@12@0PEBE1EAEAUGjkOutput@12@@Z 0000000180094830 f   GuGJKTest.obj
 0001:00093880       ?testGjk@Gu@physx@@YA?AW4GjkStatus@12@AEAUGjkConvex@12@0AEBT__m128@@1AEAT5@222@Z 0000000180094880 f   GuGJKTest.obj
 0001:00093890       ?testGjkPenetration@Gu@physx@@YA?AW4GjkStatus@12@AEAUGjkConvex@12@0AEBT__m128@@1PEAE2AEAEAEAUGjkOutput@12@@Z 0000000180094890 f   GuGJKTest.obj
 0001:000938e0       ??0HeightField@Gu@physx@@QEAA@AEAVGuMeshFactory@2@AEAUHeightFieldData@12@@Z 00000001800948e0 f   GuHeightField.obj
 0001:000939b0       ??0HeightField@Gu@physx@@QEAA@PEAVGuMeshFactory@2@@Z 00000001800949b0 f   GuHeightField.obj
 0001:00093a20       ??1HeightField@Gu@physx@@UEAA@XZ 0000000180094a20 f   GuHeightField.obj
 0001:00093a90       ??_EHeightField@Gu@physx@@UEAAPEAXI@Z 0000000180094a90 f i GuHeightField.obj
 0001:00093c14       ??_EHeightField@Gu@physx@@WBA@EAAPEAXI@Z 0000000180094c14 f i GuHeightField.obj
 0001:00093c20       ?computeCellCoordinates@HeightField@Gu@physx@@QEBAIMMAEAM0@Z 0000000180094c20 f   GuHeightField.obj
 0001:00093d20       ?createObject@HeightField@Gu@physx@@SAPEAV123@AEAPEAEAEAVPxDeserializationContext@3@@Z 0000000180094d20 f   GuHeightField.obj
 0001:00093d80       ?exportExtraData@HeightField@Gu@physx@@UEAAXAEAVPxSerializationContext@3@@Z 0000000180094d80 f   GuHeightField.obj
 0001:00093dd0       ?getEdgeTriangleIndices@physx@@YAIAEBVHeightField@Gu@1@AEBUEdgeData@1@PEIAI@Z 0000000180094dd0 f   GuHeightField.obj
 0001:00093ef0       ?getVertexEdgeIndices@physx@@YAIAEBVHeightField@Gu@1@IIIQEAUEdgeData@1@@Z 0000000180094ef0 f   GuHeightField.obj
 0001:000940d0       ?importExtraData@HeightField@Gu@physx@@QEAAXAEAVPxDeserializationContext@3@@Z 00000001800950d0 f   GuHeightField.obj
 0001:000940f0       ?isCollisionVertexPreca@HeightField@Gu@physx@@QEBA_NIIIG@Z 00000001800950f0 f   GuHeightField.obj
 0001:00094190       ?isConvexVertex@HeightField@Gu@physx@@QEBA_NIII@Z 0000000180095190 f i GuHeightField.obj
 0001:00094260       ?isSolidVertex@HeightField@Gu@physx@@QEBA_NIIIGAEA_N@Z 0000000180095260 f   GuHeightField.obj
 0001:000943f0       ?load@HeightField@Gu@physx@@QEAA_NAEAVPxInputStream@3@@Z 00000001800953f0 f   GuHeightField.obj
 0001:00094770       ?loadFromDesc@HeightField@Gu@physx@@QEAA_NAEBVPxHeightFieldDesc@3@@Z 0000000180095770 f   GuHeightField.obj
 0001:000949b0       ?modifySamples@HeightField@Gu@physx@@UEAA_NHHAEBVPxHeightFieldDesc@3@_N@Z 00000001800959b0 f   GuHeightField.obj
 0001:00094d10       ?onRefCountZero@HeightField@Gu@physx@@UEAAXXZ 0000000180095d10 f   GuHeightField.obj
 0001:00094da0       ?parseTrianglesForCollisionVertices@HeightField@Gu@physx@@QEAAXG@Z 0000000180095da0 f   GuHeightField.obj
 0001:00095280       ?releaseMemory@HeightField@Gu@physx@@QEAAXXZ 0000000180096280 f   GuHeightField.obj
 0001:000952d0       ?resizeAndClear@?$BitMapBase@VNonTrackingAllocator@shdfnd@physx@@@Cm@physx@@QEAAXI@Z 00000001800962d0 f i GuHeightField.obj
 0001:00095380       ?saveCells@HeightField@Gu@physx@@UEBAIPEAXI@Z 0000000180096380 f   GuHeightField.obj
 0001:000953c0       ?computeLocalBounds@HeightFieldUtil@Gu@physx@@QEBAXAEAVPxBounds3@3@@Z 00000001800963c0 f   GuHeightFieldUtil.obj
 0001:00095490       ?findClosestPointOnEdge@HeightFieldUtil@Gu@physx@@QEBAMIIIIAEBVPxVec3@3@AEAV43@@Z 0000000180096490 f   GuHeightFieldUtil.obj
 0001:00095790       ?findClosestPointsOnCell@HeightFieldUtil@Gu@physx@@QEBAIIIVPxVec3@3@PEIAV43@PEIAI_N33@Z 0000000180096790 f   GuHeightFieldUtil.obj
 0001:00095f40       ?findProjectionOnTriangle@HeightFieldUtil@Gu@physx@@QEBA_NIIIAEBVPxVec3@3@AEAV43@@Z 0000000180096f40 f   GuHeightFieldUtil.obj
 0001:00096200       ?getEdge@HeightFieldUtil@Gu@physx@@QEBAXIIIIAEAVPxVec3@3@0@Z 0000000180097200 f   GuHeightFieldUtil.obj
 0001:00096450       ?getEdgeFaceIndex@HeightFieldUtil@Gu@physx@@QEBAII@Z 0000000180097450 f   GuHeightFieldUtil.obj
 0001:00096610       ?getEdgeFaceIndex@HeightFieldUtil@Gu@physx@@QEBAIIIII@Z 0000000180097610 f   GuHeightFieldUtil.obj
 0001:00096790       ?getEdgeFaceIndex@HeightFieldUtil@Gu@physx@@QEBAIIIPEIBI@Z 0000000180097790 f   GuHeightFieldUtil.obj
 0001:00096840       ?getFaceIndexAtShapePoint@HeightFieldUtil@Gu@physx@@QEBAIMM@Z 0000000180097840 f   GuHeightFieldUtil.obj
 0001:00096950       ?getTriangle@HeightFieldUtil@Gu@physx@@QEBAIAEBVPxTransform@3@AEAVPxTriangle@3@PEAI2I_N3@Z 0000000180097950 f   GuHeightFieldUtil.obj
 0001:00097450       ?getTriangleAdjacencyIndices@HeightField@Gu@physx@@QEBAXIIIIAEAI00@Z 0000000180098450 f i GuHeightFieldUtil.obj
 0001:00097620       ?getTriangleVertexIndices@HeightField@Gu@physx@@QEBAXIAEAI00@Z 0000000180098620 f i GuHeightFieldUtil.obj
 0001:000976e0       ?getVertexFaceIndex@HeightFieldUtil@Gu@physx@@QEBAIIII@Z 00000001800986e0 f   GuHeightFieldUtil.obj
 0001:00097930       ?getVertexNormal@HeightFieldUtil@Gu@physx@@QEBA?AVPxVec3@3@III@Z 0000000180098930 f   GuHeightFieldUtil.obj
 0001:00097c90       ?overlapAABBTriangles@HeightFieldUtil@Gu@physx@@QEBA_NAEBVPxTransform@3@AEBVPxBounds3@3@IPEAV?$EntityReport@I@23@@Z 0000000180098c90 f   GuHeightFieldUtil.obj
 0001:00098300       ??$traceSegment@UTriggerTraceSegmentCallback@Gu@physx@@$0A@$0A@@HeightFieldTraceUtil@Gu@physx@@QEBAXAEBVPxVec3@2@0MPEAUTriggerTraceSegmentCallback@12@AEBVPxBounds3@2@_NPEBV32@@Z 0000000180099300 f i GuOverlapTestsHF.obj
 0001:000992d0       ?GeomOverlapCallback_BoxHeightfield@@YA_NAEBVPxGeometry@physx@@AEBVPxTransform@2@01PEAUTriggerCache@Gu@2@@Z 000000018009a2d0 f   GuOverlapTestsHF.obj
 0001:000995f0       ?GeomOverlapCallback_CapsuleHeightfield@@YA_NAEBVPxGeometry@physx@@AEBVPxTransform@2@01PEAUTriggerCache@Gu@2@@Z 000000018009a5f0 f   GuOverlapTestsHF.obj
 0001:00099810       ?GeomOverlapCallback_ConvexHeightfield@@YA_NAEBVPxGeometry@physx@@AEBVPxTransform@2@01PEAUTriggerCache@Gu@2@@Z 000000018009a810 f   GuOverlapTestsHF.obj
 0001:00099880       ?GeomOverlapCallback_SphereHeightfield@@YA_NAEBVPxGeometry@physx@@AEBVPxTransform@2@01PEAUTriggerCache@Gu@2@@Z 000000018009a880 f   GuOverlapTestsHF.obj
 0001:00099a50       ?checkOverlapAABB_heightFieldGeom@Gu@physx@@YA_NAEBVPxGeometry@2@AEBVPxTransform@2@AEBVPxBounds3@2@@Z 000000018009aa50 f   GuOverlapTestsHF.obj
 0001:0009cce0       ??$gjkRaycast@U?$LocalConvex@VTriangleV@Gu@physx@@@Gu@physx@@U?$LocalConvex@VConvexHullV@Gu@physx@@@23@@Gu@physx@@YA_NAEBU?$LocalConvex@VTriangleV@Gu@physx@@@01@AEBU?$LocalConvex@VConvexHullV@Gu@physx@@@01@AEBT__m128@@222AEAT4@33M@Z 000000018009dce0 f i GuSweepsHF.obj
 0001:0009db10       ??$traceSegment@VBoxTraceSegmentReport@@$0A@$00@HeightFieldTraceUtil@Gu@physx@@QEBAXAEBVPxVec3@2@0MPEAVBoxTraceSegmentReport@@AEBVPxBounds3@2@_NPEBV32@@Z 000000018009eb10 f i GuSweepsHF.obj
 0001:0009db10       ??$traceSegment@VCapsuleTraceSegmentReport@@$0A@$00@HeightFieldTraceUtil@Gu@physx@@QEBAXAEBVPxVec3@2@0MPEAVCapsuleTraceSegmentReport@@AEBVPxBounds3@2@_NPEBV32@@Z 000000018009eb10 f i GuSweepsHF.obj
 0001:0009db10       ??$traceSegment@VConvexTraceSegmentReport@@$0A@$00@HeightFieldTraceUtil@Gu@physx@@QEBAXAEBVPxVec3@2@0MPEAVConvexTraceSegmentReport@@AEBVPxBounds3@2@_NPEBV32@@Z 000000018009eb10 f i GuSweepsHF.obj
 0001:0009e340       ??0ConvexTraceSegmentReport@@QEAA@AEBVHeightFieldUtil@Gu@physx@@AEBUConvexHullData@23@AEBVPxMeshScale@3@AEBVPxTransform@3@3AEBVPxVec3@3@MV?$PxFlags@W4Enum@PxHitFlag@physx@@G@3@M@Z 000000018009f340 f i GuSweepsHF.obj
 0001:0009ece0       ??_EBoxTraceSegmentReport@@UEAAPEAXI@Z 000000018009fce0 f i GuSweepsHF.obj
 0001:0009ece0       ??_GBoxTraceSegmentReport@@UEAAPEAXI@Z 000000018009fce0 f i GuSweepsHF.obj
 0001:0009ed10       ??_ECapsuleTraceSegmentReport@@UEAAPEAXI@Z 000000018009fd10 f i GuSweepsHF.obj
 0001:0009ed10       ??_GCapsuleTraceSegmentReport@@UEAAPEAXI@Z 000000018009fd10 f i GuSweepsHF.obj
 0001:0009ed40       ??_EConvexTraceSegmentReport@@UEAAPEAXI@Z 000000018009fd40 f i GuSweepsHF.obj
 0001:0009ed40       ??_GConvexTraceSegmentReport@@UEAAPEAXI@Z 000000018009fd40 f i GuSweepsHF.obj
 0001:0009ed70       ??_EHeightFieldTraceSegmentReport@@UEAAPEAXI@Z 000000018009fd70 f i GuSweepsHF.obj
 0001:0009ed70       ??_GHeightFieldTraceSegmentReport@@UEAAPEAXI@Z 000000018009fd70 f i GuSweepsHF.obj
 0001:0009eda0       ?finalizeHit@ConvexTraceSegmentReport@@QEAA_NAEAUPxSweepHit@physx@@AEBVPxHeightFieldGeometry@3@AEBVPxTransform@3@AEBVPxConvexMeshGeometry@3@2AEBVPxVec3@3@M@Z 000000018009fda0 f i GuSweepsHF.obj
 0001:0009efe0       ?onEvent@BoxTraceSegmentReport@@UEAA_NIPEAI@Z 000000018009ffe0 f i GuSweepsHF.obj
 0001:0009f450       ?onEvent@CapsuleTraceSegmentReport@@UEAA_NIPEAI@Z 00000001800a0450 f i GuSweepsHF.obj
 0001:0009f690       ?onEvent@ConvexTraceSegmentReport@@UEAA_NIPEAI@Z 00000001800a0690 f i GuSweepsHF.obj
 0001:0009fc40       ?prepare@?$OverlapTraceSegment@VBoxTraceSegmentReport@@@HeightFieldTraceUtil@Gu@physx@@QEAAXAEBVPxVec3@4@00AEAM1@Z 00000001800a0c40 f i GuSweepsHF.obj
 0001:0009fc40       ?prepare@?$OverlapTraceSegment@VCapsuleTraceSegmentReport@@@HeightFieldTraceUtil@Gu@physx@@QEAAXAEBVPxVec3@4@00AEAM1@Z 00000001800a0c40 f i GuSweepsHF.obj
 0001:0009fc40       ?prepare@?$OverlapTraceSegment@VConvexTraceSegmentReport@@@HeightFieldTraceUtil@Gu@physx@@QEAAXAEBVPxVec3@4@00AEAM1@Z 00000001800a0c40 f i GuSweepsHF.obj
 0001:0009ff00       ?sweepBox_HeightFieldGeom@@YA_NAEBVPxGeometry@physx@@AEBVPxTransform@2@AEBVPxBoxGeometry@2@1AEBVBox@Gu@2@AEBVPxVec3@2@MAEAUPxSweepHit@2@V?$PxFlags@W4Enum@PxHitFlag@physx@@G@2@M@Z 00000001800a0f00 f   GuSweepsHF.obj
 0001:000a0d60       ?sweepCapsule_HeightFieldGeom@@YA_NAEBVPxGeometry@physx@@AEBVPxTransform@2@AEBVPxCapsuleGeometry@2@1AEBVCapsule@Gu@2@AEBVPxVec3@2@MAEAUPxSweepHit@2@V?$PxFlags@W4Enum@PxHitFlag@physx@@G@2@M@Z 00000001800a1d60 f   GuSweepsHF.obj
 0001:000a16c0       ?sweepConvex_HeightFieldGeom@@YA_NAEBVPxGeometry@physx@@AEBVPxTransform@2@AEBVPxConvexMeshGeometry@2@1AEBVPxVec3@2@MAEAUPxSweepHit@2@V?$PxFlags@W4Enum@PxHitFlag@physx@@G@2@M@Z 00000001800a26c0 f   GuSweepsHF.obj
 0001:000a2080       ?testVertexIndex@?$OverlapTraceSegment@VBoxTraceSegmentReport@@@HeightFieldTraceUtil@Gu@physx@@QEAA_NI@Z 00000001800a3080 f i GuSweepsHF.obj
 0001:000a2080       ?testVertexIndex@?$OverlapTraceSegment@VCapsuleTraceSegmentReport@@@HeightFieldTraceUtil@Gu@physx@@QEAA_NI@Z 00000001800a3080 f i GuSweepsHF.obj
 0001:000a2080       ?testVertexIndex@?$OverlapTraceSegment@VConvexTraceSegmentReport@@@HeightFieldTraceUtil@Gu@physx@@QEAA_NI@Z 00000001800a3080 f i GuSweepsHF.obj
 0001:000a21e0       ?visitCells@?$OverlapTraceSegment@VBoxTraceSegmentReport@@@HeightFieldTraceUtil@Gu@physx@@QEAA_NAEBUOverlapRectangle@1234@@Z 00000001800a31e0 f i GuSweepsHF.obj
 0001:000a21e0       ?visitCells@?$OverlapTraceSegment@VCapsuleTraceSegmentReport@@@HeightFieldTraceUtil@Gu@physx@@QEAA_NAEBUOverlapRectangle@1234@@Z 00000001800a31e0 f i GuSweepsHF.obj
 0001:000a21e0       ?visitCells@?$OverlapTraceSegment@VConvexTraceSegmentReport@@@HeightFieldTraceUtil@Gu@physx@@QEAA_NAEBUOverlapRectangle@1234@@Z 00000001800a31e0 f i GuSweepsHF.obj
 0001:000a23d0       ?intersectOBBOBB@Gu@physx@@YA_NAEBVPxVec3@2@0AEBVPxMat33@2@001_N@Z 00000001800a33d0 f   GuIntersectionBoxBox.obj
 0001:000a2aa0       ?intersectCapsuleTriangle@Gu@physx@@YA_NAEBVPxVec3@2@000AEBVCapsule@12@AEBUCapsuleTriangleOverlapData@12@@Z 00000001800a3aa0 f   GuIntersectionCapsuleTriangle.obj
 0001:000a3620       ?intersectEdgeEdge@Gu@physx@@YA_NAEBVPxVec3@2@0000AEAMAEAV32@@Z 00000001800a4620 f   GuIntersectionEdgeEdge.obj
 0001:000a3960       ?intersectRayAABB2@Gu@physx@@YA_NAEBT__m128@@0000AEAT3@1@Z 00000001800a4960 f   GuIntersectionRayBox.obj
 0001:000a3a20       ?intersectRayAABB2@Gu@physx@@YA_NAEBVPxVec3@2@000MAEAM1@Z 00000001800a4a20 f   GuIntersectionRayBox.obj
 0001:000a3bd0       ?intersectRayAABB@Gu@physx@@YAHAEBVPxVec3@2@000AEAM1@Z 00000001800a4bd0 f   GuIntersectionRayBox.obj
 0001:000a3cf0       ?rayAABBIntersect2@Gu@physx@@YAIAEBVPxVec3@2@000AEAV32@AEAM@Z 00000001800a4cf0 f   GuIntersectionRayBox.obj
 0001:000a3ef0       ?intersectRayCapsuleInternal@Gu@physx@@YAIAEBVPxVec3@2@000MQEAM@Z 00000001800a4ef0 f   GuIntersectionRayCapsule.obj
 0001:000a4760       ?intersectRaySphere@Gu@physx@@YA_NAEBVPxVec3@2@0M0MAEAMPEAV32@@Z 00000001800a5760 f   GuIntersectionRaySphere.obj
 0001:000a4860       ?intersectRaySphereBasic@Gu@physx@@YA_NAEBVPxVec3@2@0M0MAEAMPEAV32@@Z 00000001800a5860 f   GuIntersectionRaySphere.obj
 0001:000a49c0       ?intersectSphereBox@Gu@physx@@YA_NAEBVSphere@12@AEBVBox@12@@Z 00000001800a59c0 f   GuIntersectionSphereBox.obj
 0001:000a4bf0       ?intersectTriangleBox@Gu@physx@@YAHAEBVBoxPadded@12@AEBVPxVec3@2@11@Z 00000001800a5bf0 f   GuIntersectionTriangleBox.obj
 0001:000a51e0       ?intersectTriangleBoxBV4@@YAHAEBVPxVec3@physx@@00AEBVPxMat33@2@00@Z 00000001800a61e0 f   GuIntersectionTriangleBox.obj
 0001:000a5620       ?intersectTriangleBox_ReferenceCode@Gu@physx@@YAHAEBVPxVec3@2@0000@Z 00000001800a6620 f   GuIntersectionTriangleBox.obj
 0001:000a5df0       ?intersectTriangleBox_Unsafe@Gu@physx@@YAHAEBVPxVec3@2@0000@Z 00000001800a6df0 f   GuIntersectionTriangleBox.obj
 0001:000a61c0       ??0BV4Tree@Gu@physx@@QEAA@PEAVSourceMesh@12@AEBVPxBounds3@2@@Z 00000001800a71c0 f   GuBV4.obj
 0001:000a6280       ??0BV4Tree@Gu@physx@@QEAA@W4PxEMPTY@2@@Z 00000001800a7280 f   GuBV4.obj
 0001:000a6290       ??0BV4Tree@Gu@physx@@QEAA@XZ 00000001800a7290 f   GuBV4.obj
 0001:000a62c0       ??0SourceMesh@Gu@physx@@QEAA@XZ 00000001800a72c0 f   GuBV4.obj
 0001:000a62e0       ??0SourceMeshBase@Gu@physx@@QEAA@XZ 00000001800a72e0 f   GuBV4.obj
 0001:000a62f0       ??1BV4Tree@Gu@physx@@QEAA@XZ 00000001800a72f0 f   GuBV4.obj
 0001:000a6350       ??1SourceMesh@Gu@physx@@QEAA@XZ 00000001800a7350 f   GuBV4.obj
 0001:000a6350       ??1SourceMeshBase@Gu@physx@@QEAA@XZ 00000001800a7350 f   GuBV4.obj
 0001:000a63a0       ??4BV4Tree@Gu@physx@@QEAAXAEAV012@@Z 00000001800a73a0 f   GuBV4.obj
 0001:000a6430       ??4SourceMesh@Gu@physx@@QEAAXAEAV012@@Z 00000001800a7430 f   GuBV4.obj
 0001:000a6480       ?exportExtraData@BV4Tree@Gu@physx@@QEAAXAEAVPxSerializationContext@3@@Z 00000001800a7480 f   GuBV4.obj
 0001:000a64d0       ?importExtraData@BV4Tree@Gu@physx@@QEAAXAEAVPxDeserializationContext@3@@Z 00000001800a74d0 f   GuBV4.obj
 0001:000a6500       ?init@BV32Tree@Gu@physx@@QEAA_NPEAVSourceMesh@23@AEBVPxBounds3@3@@Z 00000001800a7500 f   GuBV32.obj
 0001:000a6500       ?init@BV4Tree@Gu@physx@@QEAA_NPEAVSourceMesh@23@AEBVPxBounds3@3@@Z 00000001800a7500 f   GuBV4.obj
 0001:000a65a0       ?load@BV4Tree@Gu@physx@@QEAA_NAEAVPxInputStream@3@_N@Z 00000001800a75a0 f   GuBV4.obj
 0001:000a67c0       ?remapTopology@SourceMesh@Gu@physx@@QEAAXPEBI@Z 00000001800a77c0 f   GuBV4.obj
 0001:000a6aa0       ??0AABBTree@Gu@physx@@QEAA@XZ 00000001800a7aa0 f   GuBV4Build.obj
 0001:000a6ab0       ??0BVData@@QEAA@XZ         00000001800a7ab0 f   GuBV4Build.obj
 0001:000a6ae0       ??1AABBTree@Gu@physx@@QEAA@XZ 00000001800a7ae0 f   GuBV4Build.obj
 0001:000a6af0       ?BuildBV4Ex@Gu@physx@@YA_NAEAVBV4Tree@12@AEAVSourceMesh@12@MI@Z 00000001800a7af0 f   GuBV4Build.obj
 0001:000a7f60       ?allocateNode@BV4BuildParams@@QEAAPEAUBV4Node@@XZ 00000001800a8f60 f   GuBV4Build.obj
 0001:000a8070       ?buildFromMesh@AABBTree@Gu@physx@@QEAA_NAEAVSourceMesh@23@I@Z 00000001800a9070 f   GuBV4Build.obj
 0001:000a8c10       ?release@AABBTree@Gu@physx@@QEAAXXZ 00000001800a9c10 f   GuBV4Build.obj
 0001:000a8cc0       ?releaseNodes@BV4BuildParams@@QEAAXXZ 00000001800a9cc0 f   GuBV4Build.obj
 0001:000a8f90       ?walk@AABBTree@Gu@physx@@QEBAIP6A_NPEBVAABBTreeNode@23@IPEAX@Z1@Z 00000001800a9f90 f   GuBV4Build.obj
 0001:000ab150       ?GenericSweep_AABB_CB@@YAXAEBVBox@Gu@physx@@AEBVPxVec3@3@MAEBVBV4Tree@23@P6A_NPEAX111IAEAM@Z3I@Z 00000001800ac150 f   GuBV4_AABBSweep.obj
 0001:000ab260       ?Sweep_AABB_BV4@@YAHAEBVBox@Gu@physx@@AEBVPxVec3@3@MAEBVBV4Tree@23@PEIAVSweepHit@23@I@Z 00000001800ac260 f   GuBV4_AABBSweep.obj
 0001:000af440       ?BV4_OverlapBoxAll@@YAIAEBVBox@Gu@physx@@AEBVBV4Tree@23@PEIBVPxMat44@3@PEAIIAEA_N@Z 00000001800b0440 f   GuBV4_BoxOverlap.obj
 0001:000afc50       ?BV4_OverlapBoxAny@@YAHAEBVBox@Gu@physx@@AEBVBV4Tree@23@PEIBVPxMat44@3@@Z 00000001800b0c50 f   GuBV4_BoxOverlap.obj
 0001:000b0430       ?BV4_OverlapBoxCB@@YAXAEBVBox@Gu@physx@@AEBVBV4Tree@23@P6A_NPEAXAEBVPxVec3@3@33IPEBI@Z2@Z 00000001800b1430 f   GuBV4_BoxOverlap.obj
 0001:000b08d0       ?BV4_OverlapCapsuleAll@@YAIAEBVCapsule@Gu@physx@@AEBVBV4Tree@23@PEIBVPxMat44@3@PEAIIAEA_N@Z 00000001800b18d0 f   GuBV4_BoxOverlap.obj
 0001:000b0fe0       ?BV4_OverlapCapsuleAny@@YAHAEBVCapsule@Gu@physx@@AEBVBV4Tree@23@PEIBVPxMat44@3@@Z 00000001800b1fe0 f   GuBV4_BoxOverlap.obj
 0001:000b3090       ?BV4_CapsuleSweepSingle@@YAHAEBVCapsule@Gu@physx@@AEBVPxVec3@3@MAEBVBV4Tree@23@PEIAVSweepHit@23@I@Z 00000001800b4090 f   GuBV4_CapsuleSweep.obj
 0001:000b64a0       ?BV4_CapsuleSweepSingleAA@@YAHAEBVCapsule@Gu@physx@@AEBVPxVec3@3@MAEBVBV4Tree@23@PEIAVSweepHit@23@I@Z 00000001800b74a0 f   GuBV4_CapsuleSweepAA.obj
 0001:000bac50       ?BV4_BoxSweepSingle@@YAHAEBVBox@Gu@physx@@AEBVPxVec3@3@MAEBVBV4Tree@23@PEIBVPxMat44@3@PEIAVSweepHit@23@I@Z 00000001800bbc50 f   GuBV4_OBBSweep.obj
 0001:000bb340       ?BV4_GenericSweepCB@@YAXAEBVBox@Gu@physx@@AEBVPxVec3@3@MAEBVBV4Tree@23@P6A_NPEAX111IAEAM@Z3_N@Z 00000001800bc340 f   GuBV4_OBBSweep.obj
 0001:000bb510       ?Sweep_OBB_BV4@@YAHAEBVBox@Gu@physx@@AEBVPxVec3@3@MAEBVBV4Tree@23@PEIAVSweepHit@23@I@Z 00000001800bc510 f   GuBV4_OBBSweep.obj
 0001:000bd600       ?BV4_RaycastCB@@YAXAEBVPxVec3@physx@@0AEBVBV4Tree@Gu@2@PEIBVPxMat44@2@MMIP6A?AW4HitCode@42@PEAX000IMMM@Z3@Z 00000001800be600 f   GuBV4_Raycast.obj
 0001:000bda20       ?BV4_RaycastSingle@@YAHAEBVPxVec3@physx@@0AEBVBV4Tree@Gu@2@PEIBVPxMat44@2@PEIAUPxRaycastHit@2@MMIV?$PxFlags@W4Enum@PxHitFlag@physx@@G@2@@Z 00000001800bea20 f   GuBV4_Raycast.obj
 0001:000bf7e0       ?BV4_OverlapSphereAll@@YAIAEBVSphere@Gu@physx@@AEBVBV4Tree@23@PEIBVPxMat44@3@PEAIIAEA_N@Z 00000001800c07e0 f   GuBV4_SphereOverlap.obj
 0001:000bfaf0       ?BV4_OverlapSphereAny@@YAHAEBVSphere@Gu@physx@@AEBVBV4Tree@23@PEIBVPxMat44@3@@Z 00000001800c0af0 f   GuBV4_SphereOverlap.obj
 0001:000c18b0       ?BV4_GenericSweepCB_Old@@YAXAEBVPxVec3@physx@@00MAEBVBV4Tree@Gu@2@PEIBVPxMat44@2@P6A_NPEAX000IAEAM@Z3@Z 00000001800c28b0 f   GuBV4_SphereSweep.obj
 0001:000c1cb0       ?BV4_SphereSweepSingle@@YAHAEBVSphere@Gu@physx@@AEBVPxVec3@3@MAEBVBV4Tree@23@PEIBVPxMat44@3@PEIAVSweepHit@23@I@Z 00000001800c2cb0 f   GuBV4_SphereSweep.obj
 0001:000c2f20       ?computeSweepData@physx@@YAMAEBVPxTriangleMeshGeometry@1@AEAVPxVec3@1@11M@Z 00000001800c3f20 f i GuMidphaseBV4.obj
 0001:000c4380       ?intersectBoxVsMesh_BV4@Gu@physx@@YA_NAEBVBox@12@AEBVTriangleMesh@12@AEBVPxTransform@2@AEBVPxMeshScale@2@PEAULimitedResults@12@@Z 00000001800c5380 f   GuMidphaseBV4.obj
 0001:000c4e40       ?intersectCapsuleVsMesh_BV4@Gu@physx@@YA_NAEBVCapsule@12@AEBVTriangleMesh@12@AEBVPxTransform@2@AEBVPxMeshScale@2@PEAULimitedResults@12@@Z 00000001800c5e40 f   GuMidphaseBV4.obj
 0001:000c5700       ?intersectOBB_BV4@Gu@physx@@YAXPEBVTriangleMesh@12@AEBVBox@12@AEAU?$MeshHitCallback@UPxRaycastHit@physx@@@12@_N3@Z 00000001800c6700 f   GuMidphaseBV4.obj
 0001:000c5720       ?intersectSphereVsMesh_BV4@Gu@physx@@YA_NAEBVSphere@12@AEBVTriangleMesh@12@AEBVPxTransform@2@AEBVPxMeshScale@2@PEAULimitedResults@12@@Z 00000001800c6720 f   GuMidphaseBV4.obj
 0001:000c5eb0       ?raycast_triangleMesh_BV4@Gu@physx@@YAIPEBVTriangleMesh@12@AEBVPxTriangleMeshGeometry@2@AEBVPxTransform@2@AEBVPxVec3@2@3MV?$PxFlags@W4Enum@PxHitFlag@physx@@G@2@IPEIAUPxRaycastHit@2@@Z 00000001800c6eb0 f   GuMidphaseBV4.obj
 0001:000c6ce0       ?sweepBox_MeshGeom_BV4@Gu@physx@@YA_NPEBVTriangleMesh@12@AEBVPxTriangleMeshGeometry@2@AEBVPxTransform@2@AEBVBox@12@AEBVPxVec3@2@MAEAUPxSweepHit@2@V?$PxFlags@W4Enum@PxHitFlag@physx@@G@2@M@Z 00000001800c7ce0 f   GuMidphaseBV4.obj
 0001:000c8390       ?sweepCapsule_MeshGeom_BV4@Gu@physx@@YA_NPEBVTriangleMesh@12@AEBVPxTriangleMeshGeometry@2@AEBVPxTransform@2@AEBVCapsule@12@AEBVPxVec3@2@MAEAUPxSweepHit@2@V?$PxFlags@W4Enum@PxHitFlag@physx@@G@2@M@Z 00000001800c9390 f   GuMidphaseBV4.obj
 0001:000c8ee0       ?sweepConvex_MeshGeom_BV4@Gu@physx@@YAXPEBVTriangleMesh@12@AEBVBox@12@AEBVPxVec3@2@MAEAUSweepConvexMeshHitCallback@12@_N@Z 00000001800c9ee0 f   GuMidphaseBV4.obj
 0001:000c8f20       ?transform@PxMeshScale@physx@@QEBA?AVPxVec3@2@AEBV32@@Z 00000001800c9f20 f i GuMidphaseBV4.obj
 0001:000c9160       ?findOverlapHeightField@PxMeshQuery@physx@@SAIAEBVPxGeometry@2@AEBVPxTransform@2@AEBVPxHeightFieldGeometry@2@1PEAIIIAEA_N@Z 00000001800ca160 f   GuMeshQuery.obj
 0001:000c9830       ?findOverlapTriangleMesh@PxMeshQuery@physx@@SAIAEBVPxGeometry@2@AEBVPxTransform@2@AEBVPxTriangleMeshGeometry@2@1PEAIIIAEA_N@Z 00000001800ca830 f   GuMeshQuery.obj
 0001:000c9b00       ?getTriangle@PxMeshQuery@physx@@SAXAEBVPxHeightFieldGeometry@2@AEBVPxTransform@2@IAEAVPxTriangle@2@PEAI3@Z 00000001800cab00 f   GuMeshQuery.obj
 0001:000c9b80       ?getTriangle@PxMeshQuery@physx@@SAXAEBVPxTriangleMeshGeometry@2@AEBVPxTransform@2@IAEAVPxTriangle@2@PEAI3@Z 00000001800cab80 f   GuMeshQuery.obj
 0001:000ca080       ?sweep@PxMeshQuery@physx@@SA_NAEBVPxVec3@2@MAEBVPxGeometry@2@AEBVPxTransform@2@IPEBVPxTriangle@2@AEAUPxSweepHit@2@V?$PxFlags@W4Enum@PxHitFlag@physx@@G@2@PEBIM_N@Z 00000001800cb080 f   GuMeshQuery.obj
 0001:000ca210       ??$collide@$00$00@MeshRayCollider@@SAXAEBVPxVec3@physx@@0M_NPEBVRTreeTriangleMesh@Gu@2@AEAU?$MeshHitCallback@UPxRaycastHit@physx@@@42@PEBV12@@Z 00000001800cb210 f i GuMidphaseRTree.obj
 0001:000ca590       ??$collide@$00$0A@@MeshRayCollider@@SAXAEBVPxVec3@physx@@0M_NPEBVRTreeTriangleMesh@Gu@2@AEAU?$MeshHitCallback@UPxRaycastHit@physx@@@42@PEBV12@@Z 00000001800cb590 f i GuMidphaseRTree.obj
 0001:000ca7d0       ??$collide@$0A@$00@MeshRayCollider@@SAXAEBVPxVec3@physx@@0M_NPEBVRTreeTriangleMesh@Gu@2@AEAU?$MeshHitCallback@UPxRaycastHit@physx@@@42@PEBV12@@Z 00000001800cb7d0 f i GuMidphaseRTree.obj
 0001:000ccbc0       ??0?$RayRTreeCallback@$00$0A@@@QEAA@MAEAU?$MeshHitCallback@UPxRaycastHit@physx@@@Gu@physx@@HPEBXPEBVPxVec3@3@AEBV43@3M_N2@Z 00000001800cdbc0 f i GuMidphaseRTree.obj
 0001:000cccf0       ??1?$RayRTreeCallback@$00$00@@UEAA@XZ 00000001800cdcf0 f i GuMidphaseRTree.obj
 0001:000ccd80       ??1?$RayRTreeCallback@$00$0A@@@UEAA@XZ 00000001800cdd80 f i GuMidphaseRTree.obj
 0001:000ccd80       ??1?$RayRTreeCallback@$0A@$0A@@@UEAA@XZ 00000001800cdd80 f i GuMidphaseRTree.obj
 0001:000cce10       ??1?$RayRTreeCallback@$0A@$00@@UEAA@XZ 00000001800cde10 f i GuMidphaseRTree.obj
 0001:000cce98       ??_E?$RayRTreeCallback@$00$00@@W7EAAPEAXI@Z 00000001800cde98 f i GuMidphaseRTree.obj
 0001:000ccea4       ??_E?$RayRTreeCallback@$00$0A@@@W7EAAPEAXI@Z 00000001800cdea4 f i GuMidphaseRTree.obj
 0001:000ccea4       ??_E?$RayRTreeCallback@$0A@$0A@@@W7EAAPEAXI@Z 00000001800cdea4 f i GuMidphaseRTree.obj
 0001:000cceb0       ??_E?$RayRTreeCallback@$0A@$00@@W7EAAPEAXI@Z 00000001800cdeb0 f i GuMidphaseRTree.obj
 0001:000ccf20       ??_E?$RayRTreeCallback@$00$00@@UEAAPEAXI@Z 00000001800cdf20 f i GuMidphaseRTree.obj
 0001:000ccf20       ??_G?$RayRTreeCallback@$00$00@@UEAAPEAXI@Z 00000001800cdf20 f i GuMidphaseRTree.obj
 0001:000ccf60       ??_E?$RayRTreeCallback@$00$0A@@@UEAAPEAXI@Z 00000001800cdf60 f i GuMidphaseRTree.obj
 0001:000ccf60       ??_E?$RayRTreeCallback@$0A@$0A@@@UEAAPEAXI@Z 00000001800cdf60 f i GuMidphaseRTree.obj
 0001:000ccf60       ??_G?$RayRTreeCallback@$00$0A@@@UEAAPEAXI@Z 00000001800cdf60 f i GuMidphaseRTree.obj
 0001:000ccf60       ??_G?$RayRTreeCallback@$0A@$0A@@@UEAAPEAXI@Z 00000001800cdf60 f i GuMidphaseRTree.obj
 0001:000ccfa0       ??_E?$RayRTreeCallback@$0A@$00@@UEAAPEAXI@Z 00000001800cdfa0 f i GuMidphaseRTree.obj
 0001:000ccfa0       ??_G?$RayRTreeCallback@$0A@$00@@UEAAPEAXI@Z 00000001800cdfa0 f i GuMidphaseRTree.obj
 0001:000ccfe0       ??_ECallback@RTree@Gu@physx@@UEAAPEAXI@Z 00000001800cdfe0 f i GuMidphaseRTree.obj
 0001:000ccfe0       ??_GCallback@RTree@Gu@physx@@UEAAPEAXI@Z 00000001800cdfe0 f i GuMidphaseRTree.obj
 0001:000cd010       ??_ECallbackRaycast@RTree@Gu@physx@@UEAAPEAXI@Z 00000001800ce010 f i GuMidphaseRTree.obj
 0001:000cd010       ??_ECallbackRefit@RTree@Gu@physx@@UEAAPEAXI@Z 00000001800ce010 f i GuTriangleMeshRTree.obj
 0001:000cd010       ??_GCallbackRaycast@RTree@Gu@physx@@UEAAPEAXI@Z 00000001800ce010 f i GuMidphaseRTree.obj
 0001:000cd010       ??_GCallbackRefit@RTree@Gu@physx@@UEAAPEAXI@Z 00000001800ce010 f i GuTriangleMeshRTree.obj
 0001:000cd040       ??_ERayMeshColliderCallback@@UEAAPEAXI@Z 00000001800ce040 f i GuMidphaseRTree.obj
 0001:000cd040       ??_GRayMeshColliderCallback@@UEAAPEAXI@Z 00000001800ce040 f i GuMidphaseRTree.obj
 0001:000cd070       ?collideOBB@MeshRayCollider@@SAXAEBVBox@Gu@physx@@_NPEBVRTreeTriangleMesh@34@AEAU?$MeshHitCallback@UPxRaycastHit@physx@@@34@1@Z 00000001800ce070 f   GuMidphaseRTree.obj
 0001:000cd560       ?intersectBoxVsMesh_RTREE@Gu@physx@@YA_NAEBVBox@12@AEBVTriangleMesh@12@AEBVPxTransform@2@AEBVPxMeshScale@2@PEAULimitedResults@12@@Z 00000001800ce560 f   GuMidphaseRTree.obj
 0001:000cd5d0       ?intersectCapsuleVsMesh_RTREE@Gu@physx@@YA_NAEBVCapsule@12@AEBVTriangleMesh@12@AEBVPxTransform@2@AEBVPxMeshScale@2@PEAULimitedResults@12@@Z 00000001800ce5d0 f   GuMidphaseRTree.obj
 0001:000cd650       ?intersectOBB_RTREE@Gu@physx@@YAXPEBVTriangleMesh@12@AEBVBox@12@AEAU?$MeshHitCallback@UPxRaycastHit@physx@@@12@_N3@Z 00000001800ce650 f   GuMidphaseRTree.obj
 0001:000cd680       ?intersectSphereVsMesh_RTREE@Gu@physx@@YA_NAEBVSphere@12@AEBVTriangleMesh@12@AEBVPxTransform@2@AEBVPxMeshScale@2@PEAULimitedResults@12@@Z 00000001800ce680 f   GuMidphaseRTree.obj
 0001:000ce3d0       ?processHit@RayMeshColliderCallback@@UEAA_NAEBUPxRaycastHit@physx@@AEBVPxVec3@3@11AEAMPEBI@Z 00000001800cf3d0 f i GuMidphaseRTree.obj
 0001:000ce9c0       ?processResults@?$RayRTreeCallback@$00$00@@UEAA_NIPEAI@Z 00000001800cf9c0 f i GuMidphaseRTree.obj
 0001:000ced80       ?processResults@?$RayRTreeCallback@$00$00@@UEAA_NIPEAIAEAM@Z 00000001800cfd80 f i GuMidphaseRTree.obj
 0001:000cf130       ?processResults@?$RayRTreeCallback@$00$0A@@@UEAA_NIPEAI@Z 00000001800d0130 f i GuMidphaseRTree.obj
 0001:000cf130       ?processResults@?$RayRTreeCallback@$0A@$0A@@@UEAA_NIPEAI@Z 00000001800d0130 f i GuMidphaseRTree.obj
 0001:000cf3c0       ?processResults@?$RayRTreeCallback@$00$0A@@@UEAA_NIPEAIAEAM@Z 00000001800d03c0 f i GuMidphaseRTree.obj
 0001:000cf3c0       ?processResults@?$RayRTreeCallback@$0A@$0A@@@UEAA_NIPEAIAEAM@Z 00000001800d03c0 f i GuMidphaseRTree.obj
 0001:000cf660       ?processResults@?$RayRTreeCallback@$0A@$00@@UEAA_NIPEAI@Z 00000001800d0660 f i GuMidphaseRTree.obj
 0001:000cfcd0       ?processResults@?$RayRTreeCallback@$0A@$00@@UEAA_NIPEAIAEAM@Z 00000001800d0cd0 f i GuMidphaseRTree.obj
 0001:000d0350       ?raycast_triangleMesh_RTREE@Gu@physx@@YAIPEBVTriangleMesh@12@AEBVPxTriangleMeshGeometry@2@AEBVPxTransform@2@AEBVPxVec3@2@3MV?$PxFlags@W4Enum@PxHitFlag@physx@@G@2@IPEIAUPxRaycastHit@2@@Z 00000001800d1350 f   GuMidphaseRTree.obj
 0001:000d0b00       ?sweepBox_MeshGeom_RTREE@Gu@physx@@YA_NPEBVTriangleMesh@12@AEBVPxTriangleMeshGeometry@2@AEBVPxTransform@2@AEBVBox@12@AEBVPxVec3@2@MAEAUPxSweepHit@2@V?$PxFlags@W4Enum@PxHitFlag@physx@@G@2@M@Z 00000001800d1b00 f   GuMidphaseRTree.obj
 0001:000d1fa0       ?sweepCapsule_MeshGeom_RTREE@Gu@physx@@YA_NPEBVTriangleMesh@12@AEBVPxTriangleMeshGeometry@2@AEBVPxTransform@2@AEBVCapsule@12@AEBVPxVec3@2@MAEAUPxSweepHit@2@V?$PxFlags@W4Enum@PxHitFlag@physx@@G@2@M@Z 00000001800d2fa0 f   GuMidphaseRTree.obj
 0001:000d27a0       ?sweepConvex_MeshGeom_RTREE@Gu@physx@@YAXPEBVTriangleMesh@12@AEBVBox@12@AEBVPxVec3@2@MAEAUSweepConvexMeshHitCallback@12@_N@Z 00000001800d37a0 f   GuMidphaseRTree.obj
 0001:000d27f0       ??$gjk@U?$RelativeConvex@VTriangleV@Gu@physx@@@Gu@physx@@U?$LocalConvex@VConvexHullV@Gu@physx@@@23@@Gu@physx@@YA?AW4GjkStatus@01@AEBU?$RelativeConvex@VTriangleV@Gu@physx@@@01@AEBU?$LocalConvex@VConvexHullV@Gu@physx@@@01@AEBT__m128@@2AEAT5@333@Z 00000001800d37f0 f i GuOverlapTestsMesh.obj
 0001:000d3530       ??0ConvexVsMeshOverlapCallback@@QEAA@AEBVConvexMesh@Gu@physx@@AEBVPxMeshScale@3@AEBVFastVertex2ShapeScaling@Cm@3@AEBVPxTransform@3@3_NAEBVBox@23@@Z 00000001800d4530 f i GuOverlapTestsMesh.obj
 0001:000d3dc0       ??_EConvexVsMeshOverlapCallback@@UEAAPEAXI@Z 00000001800d4dc0 f i GuOverlapTestsMesh.obj
 0001:000d3dc0       ??_GConvexVsMeshOverlapCallback@@UEAAPEAXI@Z 00000001800d4dc0 f i GuOverlapTestsMesh.obj
 0001:000d3df0       ?GeomOverlapCallback_BoxMesh@@YA_NAEBVPxGeometry@physx@@AEBVPxTransform@2@01PEAUTriggerCache@Gu@2@@Z 00000001800d4df0 f   GuOverlapTestsMesh.obj
 0001:000d3f00       ?GeomOverlapCallback_CapsuleMesh@@YA_NAEBVPxGeometry@physx@@AEBVPxTransform@2@01PEAUTriggerCache@Gu@2@@Z 00000001800d4f00 f   GuOverlapTestsMesh.obj
 0001:000d4030       ?GeomOverlapCallback_ConvexMesh@@YA_NAEBVPxGeometry@physx@@AEBVPxTransform@2@01PEAUTriggerCache@Gu@2@@Z 00000001800d5030 f   GuOverlapTestsMesh.obj
 0001:000d4620       ?GeomOverlapCallback_SphereMesh@@YA_NAEBVPxGeometry@physx@@AEBVPxTransform@2@01PEAUTriggerCache@Gu@2@@Z 00000001800d5620 f   GuOverlapTestsMesh.obj
 0001:000d4690       ?checkOverlapAABB_triangleGeom@Gu@physx@@YA_NAEBVPxGeometry@2@AEBVPxTransform@2@AEBVPxBounds3@2@@Z 00000001800d5690 f   GuOverlapTestsMesh.obj
 0001:000d47a0       ?processHit@ConvexVsMeshOverlapCallback@@UEAA_NAEBUPxRaycastHit@physx@@AEBVPxVec3@3@11AEAMPEBI@Z 00000001800d57a0 f i GuOverlapTestsMesh.obj
 0001:000d4b30       ??0RTree@Gu@physx@@QEAA@W4PxEMPTY@2@@Z 00000001800d5b30 f   GuRTree.obj
 0001:000d4b40       ?exportExtraData@RTree@Gu@physx@@QEAAXAEAVPxSerializationContext@3@@Z 00000001800d5b40 f   GuRTree.obj
 0001:000d4b80       ?importExtraData@RTree@Gu@physx@@QEAAXAEAVPxDeserializationContext@3@@Z 00000001800d5b80 f   GuRTree.obj
 0001:000d4bb0       ?load@RTree@Gu@physx@@QEAA_NAEAVPxInputStream@3@I_N@Z 00000001800d5bb0 f   GuRTree.obj
 0001:000d4eb0       ?refitAllStaticTree@RTree@Gu@physx@@QEAAXAEAUCallbackRefit@123@PEAVPxBounds3@3@@Z 00000001800d5eb0 f   GuRTree.obj
 0001:000d5420       ?validate@RTree@Gu@physx@@QEAAXPEAUCallbackRefit@123@@Z 00000001800d6420 f   GuRTree.obj
 0001:000d5650       ?validateRecursive@RTree@Gu@physx@@IEAAXIURTreeNodeQ@23@PEAURTreePage@23@PEAUCallbackRefit@123@@Z 00000001800d6650 f   GuRTree.obj
 0001:000d5810       ??$traverseRay@$00@RTree@Gu@physx@@QEBAXAEBVPxVec3@2@0IPEAIPEAUCallbackRaycast@012@PEBV32@M@Z 00000001800d6810 f i GuRTreeQueries.obj
 0001:000d5bb0       ??$traverseRay@$0A@@RTree@Gu@physx@@QEBAXAEBVPxVec3@2@0IPEAIPEAUCallbackRaycast@012@PEBV32@M@Z 00000001800d6bb0 f i GuRTreeQueries.obj
 0001:000d5f00       ?traverseAABB@RTree@Gu@physx@@QEBAXAEBVPxVec3@3@0IPEAIPEAUCallback@123@@Z 00000001800d6f00 f   GuRTreeQueries.obj
 0001:000d60c0       ?traverseOBB@RTree@Gu@physx@@QEBAXAEBVBox@23@IPEAIPEAUCallback@123@@Z 00000001800d70c0 f   GuRTreeQueries.obj
 0001:000d69a0       ??0SweepBoxMeshHitCallback@Gu@physx@@QEAA@W4Enum@CallbackMode@12@AEBVMatrix34Padded@12@M_NAEBVBox@12@AEBVPxVec3@2@44AEBV?$PxFlags@W4Enum@PxHitFlag@physx@@G@2@M2M@Z 00000001800d79a0 f   GuSweepsMesh.obj
 0001:000d6ab0       ??0SweepCapsuleMeshHitCallback@Gu@physx@@QEAA@AEAUPxSweepHit@2@AEBVMatrix34@Cm@2@M_NAEBVCapsule@12@AEBVPxVec3@2@AEBV?$PxFlags@W4Enum@PxHitFlag@physx@@G@2@2M@Z 00000001800d7ab0 f   GuSweepsMesh.obj
 0001:000d6b80       ??0SweepConvexMeshHitCallback@Gu@physx@@QEAA@AEBUConvexHullData@12@AEBVPxMeshScale@2@AEBVFastVertex2ShapeScaling@Cm@2@AEBVPxTransform@2@3AEBVPxVec3@2@MV?$PxFlags@W4Enum@PxHitFlag@physx@@G@2@_NM6M@Z 00000001800d7b80 f   GuSweepsMesh.obj
 0001:000d7500       ??_ESweepBoxMeshHitCallback@Gu@physx@@UEAAPEAXI@Z 00000001800d8500 f i GuSweepsMesh.obj
 0001:000d7500       ??_GSweepBoxMeshHitCallback@Gu@physx@@UEAAPEAXI@Z 00000001800d8500 f i GuSweepsMesh.obj
 0001:000d7530       ??_ESweepCapsuleMeshHitCallback@Gu@physx@@UEAAPEAXI@Z 00000001800d8530 f i GuSweepsMesh.obj
 0001:000d7530       ??_GSweepCapsuleMeshHitCallback@Gu@physx@@UEAAPEAXI@Z 00000001800d8530 f i GuSweepsMesh.obj
 0001:000d7560       ??_ESweepConvexMeshHitCallback@Gu@physx@@UEAAPEAXI@Z 00000001800d8560 f i GuSweepsMesh.obj
 0001:000d7560       ??_GSweepConvexMeshHitCallback@Gu@physx@@UEAAPEAXI@Z 00000001800d8560 f i GuSweepsMesh.obj
 0001:000d7590       ??_ESweepShapeMeshHitCallback@Gu@physx@@UEAAPEAXI@Z 00000001800d8590 f i GuSweepsMesh.obj
 0001:000d7590       ??_GSweepShapeMeshHitCallback@Gu@physx@@UEAAPEAXI@Z 00000001800d8590 f i GuSweepsMesh.obj
 0001:000d75c0       ?finalizeHit@SweepBoxMeshHitCallback@Gu@physx@@QEBA_NAEAUPxSweepHit@3@AEBVPxTriangleMeshGeometry@3@AEBVPxTransform@3@2AEBVPxVec3@3@_N4@Z 00000001800d85c0 f   GuSweepsMesh.obj
 0001:000d7c80       ?finalizeHit@SweepCapsuleMeshHitCallback@Gu@physx@@QEBA_NAEAUPxSweepHit@3@AEBVCapsule@23@AEBVPxTriangleMeshGeometry@3@AEBVPxTransform@3@_N@Z 00000001800d8c80 f   GuSweepsMesh.obj
 0001:000d7e10       ?finalizeHit@SweepConvexMeshHitCallback@Gu@physx@@QEAA_NAEAUPxSweepHit@3@AEBVPxTriangleMeshGeometry@3@AEBVPxTransform@3@AEBVPxConvexMeshGeometry@3@2AEBVPxVec3@3@M_N555@Z 00000001800d8e10 f   GuSweepsMesh.obj
 0001:000d82f0       ?processHit@SweepBoxMeshHitCallback@Gu@physx@@UEAA_NAEBUPxRaycastHit@3@AEBVPxVec3@3@11AEAMPEBI@Z 00000001800d92f0 f   GuSweepsMesh.obj
 0001:000d8ad0       ?processHit@SweepCapsuleMeshHitCallback@Gu@physx@@UEAA_NAEBUPxRaycastHit@3@AEBVPxVec3@3@11AEAMPEBI@Z 00000001800d9ad0 f   GuSweepsMesh.obj
 0001:000d8ff0       ?processHit@SweepConvexMeshHitCallback@Gu@physx@@UEAA_NAEBUPxRaycastHit@3@AEBVPxVec3@3@11AEAMPEBI@Z 00000001800d9ff0 f   GuSweepsMesh.obj
 0001:000d9710       ?sweepBox_MeshGeom@@YA_NAEBVPxGeometry@physx@@AEBVPxTransform@2@AEBVPxBoxGeometry@2@1AEBVBox@Gu@2@AEBVPxVec3@2@MAEAUPxSweepHit@2@V?$PxFlags@W4Enum@PxHitFlag@physx@@G@2@M@Z 00000001800da710 f   GuSweepsMesh.obj
 0001:000d97a0       ?sweepCapsule_MeshGeom@@YA_NAEBVPxGeometry@physx@@AEBVPxTransform@2@AEBVPxCapsuleGeometry@2@1AEBVCapsule@Gu@2@AEBVPxVec3@2@MAEAUPxSweepHit@2@V?$PxFlags@W4Enum@PxHitFlag@physx@@G@2@M@Z 00000001800da7a0 f   GuSweepsMesh.obj
 0001:000d9830       ?sweepConvex_MeshGeom@@YA_NAEBVPxGeometry@physx@@AEBVPxTransform@2@AEBVPxConvexMeshGeometry@2@1AEBVPxVec3@2@MAEAUPxSweepHit@2@V?$PxFlags@W4Enum@PxHitFlag@physx@@G@2@M@Z 00000001800da830 f   GuSweepsMesh.obj
 0001:000da480       ??0TriangleMesh@Gu@physx@@QEAA@AEAVGuMeshFactory@2@AEAVTriangleMeshData@12@@Z 00000001800db480 f   GuTriangleMesh.obj
 0001:000da610       ??1TriangleMesh@Gu@physx@@UEAA@XZ 00000001800db610 f   GuTriangleMesh.obj
 0001:000da7e0       ??_ETriangleMesh@Gu@physx@@WBA@EAAPEAXI@Z 00000001800db7e0 f i GuTriangleMesh.obj
 0001:000da7f0       ??_ETriangleMesh@Gu@physx@@UEAAPEAXI@Z 00000001800db7f0 f i GuTriangleMesh.obj
 0001:000da7f0       ??_GTriangleMesh@Gu@physx@@UEAAPEAXI@Z 00000001800db7f0 f i GuTriangleMesh.obj
 0001:000da860       ?exportExtraData@TriangleMesh@Gu@physx@@UEAAXAEAVPxSerializationContext@3@@Z 00000001800db860 f   GuTriangleMesh.obj
 0001:000da9c0       ?getLocalBounds@TriangleMesh@Gu@physx@@UEBA?AVPxBounds3@3@XZ 00000001800db9c0 f i GuTriangleMesh.obj
 0001:000daa50       ?getNbVertices@TriangleMesh@Gu@physx@@UEBAIXZ 00000001800dba50 f i GuTriangleMesh.obj
 0001:000daa60       ?getTriangleMaterialIndex@TriangleMesh@Gu@physx@@UEBAGI@Z 00000001800dba60 f i GuTriangleMesh.obj
 0001:000daa80       ?getTriangleMeshFlags@TriangleMesh@Gu@physx@@UEBA?AV?$PxFlags@W4Enum@PxTriangleMeshFlag@physx@@E@3@XZ 00000001800dba80 f i GuTriangleMesh.obj
 0001:000daa90       ?getTrianglesRemap@TriangleMesh@Gu@physx@@UEBAPEBIXZ 00000001800dba90 f i GuTriangleMesh.obj
 0001:000daaa0       ?getVertices@TriangleMesh@Gu@physx@@UEBAPEBVPxVec3@3@XZ 00000001800dbaa0 f i GuTriangleMesh.obj
 0001:000daab0       ?getVerticesForModification@TriangleMesh@Gu@physx@@UEAAPEAVPxVec3@3@XZ 00000001800dbab0 f   GuTriangleMesh.obj
 0001:000daaf0       ?importExtraData@TriangleMesh@Gu@physx@@QEAAXAEAVPxDeserializationContext@3@@Z 00000001800dbaf0 f   GuTriangleMesh.obj
 0001:000dac00       ?isKindOf@PxTriangleMesh@physx@@MEBA_NPEBD@Z 00000001800dbc00 f i GuTriangleMesh.obj
 0001:000dac50       ?onRefCountZero@TriangleMesh@Gu@physx@@UEAAXXZ 00000001800dbc50 f   GuTriangleMesh.obj
 0001:000dacf0       ?refitBVH@TriangleMesh@Gu@physx@@UEAA?AVPxBounds3@3@XZ 00000001800dbcf0 f   GuTriangleMesh.obj
 0001:000dadc0       ??0BV4TriangleMesh@Gu@physx@@QEAA@AEAVGuMeshFactory@2@AEAVTriangleMeshData@12@@Z 00000001800dbdc0 f   GuTriangleMeshBV4.obj
 0001:000dae54       ??_EBV4TriangleMesh@Gu@physx@@WBA@EAAPEAXI@Z 00000001800dbe54 f i GuTriangleMeshBV4.obj
 0001:000dae60       ??_EBV4TriangleMesh@Gu@physx@@UEAAPEAXI@Z 00000001800dbe60 f i GuTriangleMeshBV4.obj
 0001:000dae60       ??_GBV4TriangleMesh@Gu@physx@@UEAAPEAXI@Z 00000001800dbe60 f i GuTriangleMeshBV4.obj
 0001:000daef0       ?createObject@BV4TriangleMesh@Gu@physx@@SAPEAVTriangleMesh@23@AEAPEAEAEAVPxDeserializationContext@3@@Z 00000001800dbef0 f   GuTriangleMeshBV4.obj
 0001:000dafc0       ?exportExtraData@BV4TriangleMesh@Gu@physx@@UEAAXAEAVPxSerializationContext@3@@Z 00000001800dbfc0 f   GuTriangleMeshBV4.obj
 0001:000db000       ?getConcreteTypeName@BV4TriangleMesh@Gu@physx@@UEBAPEBDXZ 00000001800dc000 f i GuTriangleMeshBV4.obj
 0001:000db010       ?getMidphaseID@BV4TriangleMesh@Gu@physx@@UEBA?AW4Enum@PxMeshMidPhase@3@XZ 00000001800dc010 f i GuTriangleMeshBV4.obj
 0001:000db010       ?length@charNode@@UEBAHXZ  00000001800dc010 f i libvcruntime:undname.obj
 0001:000db010       ?raw_length@charNode@@UEBAHXZ 00000001800dc010 f i libvcruntime:undname.obj
 0001:000db010       DllMain                    00000001800dc010 f i LIBCMT:dll_dllmain_stub.obj
 0001:000db010       _get_startup_argv_mode     00000001800dc010 f i LIBCMT:argv_mode.obj
 0001:000db020       ??0RTreeTriangleMesh@Gu@physx@@QEAA@AEAVGuMeshFactory@2@AEAVTriangleMeshData@12@@Z 00000001800dc020 f   GuTriangleMeshRTree.obj
 0001:000db198       ??_ERTreeTriangleMesh@Gu@physx@@WBA@EAAPEAXI@Z 00000001800dc198 f i GuTriangleMeshRTree.obj
 0001:000db1b0       ??_E?$RefitCallback@G@physx@@UEAAPEAXI@Z 00000001800dc1b0 f i GuTriangleMeshRTree.obj
 0001:000db1b0       ??_E?$RefitCallback@I@physx@@UEAAPEAXI@Z 00000001800dc1b0 f i GuTriangleMeshRTree.obj
 0001:000db1b0       ??_G?$RefitCallback@G@physx@@UEAAPEAXI@Z 00000001800dc1b0 f i GuTriangleMeshRTree.obj
 0001:000db1b0       ??_G?$RefitCallback@I@physx@@UEAAPEAXI@Z 00000001800dc1b0 f i GuTriangleMeshRTree.obj
 0001:000db1e0       ??_ERTreeTriangleMesh@Gu@physx@@UEAAPEAXI@Z 00000001800dc1e0 f i GuTriangleMeshRTree.obj
 0001:000db1e0       ??_GRTreeTriangleMesh@Gu@physx@@UEAAPEAXI@Z 00000001800dc1e0 f i GuTriangleMeshRTree.obj
 0001:000db2a0       ?createObject@RTreeTriangleMesh@Gu@physx@@SAPEAVTriangleMesh@23@AEAPEAEAEAVPxDeserializationContext@3@@Z 00000001800dc2a0 f   GuTriangleMeshRTree.obj
 0001:000db320       ?exportExtraData@RTreeTriangleMesh@Gu@physx@@UEAAXAEAVPxSerializationContext@3@@Z 00000001800dc320 f   GuTriangleMeshRTree.obj
 0001:000db360       ?getConcreteTypeName@RTreeTriangleMesh@Gu@physx@@UEBAPEBDXZ 00000001800dc360 f i GuTriangleMeshRTree.obj
 0001:000db370       ?getMidphaseID@RTreeTriangleMesh@Gu@physx@@UEBA?AW4Enum@PxMeshMidPhase@3@XZ 00000001800dc370 f i GuTriangleMeshRTree.obj
 0001:000db380       ?getVerticesForModification@RTreeTriangleMesh@Gu@physx@@UEAAPEAVPxVec3@3@XZ 00000001800dc380 f   GuTriangleMeshRTree.obj
 0001:000db390       ?recomputeBounds@?$RefitCallback@G@physx@@UEAAXIAEAT__m128@@0@Z 00000001800dc390 f i GuTriangleMeshRTree.obj
 0001:000db6b0       ?recomputeBounds@?$RefitCallback@I@physx@@UEAAXIAEAT__m128@@0@Z 00000001800dc6b0 f i GuTriangleMeshRTree.obj
 0001:000db9d0       ?refitBVH@RTreeTriangleMesh@Gu@physx@@UEAA?AVPxBounds3@3@XZ 00000001800dc9d0 f   GuTriangleMeshRTree.obj
 0001:000dbbe0       ??0BV32Tree@Gu@physx@@QEAA@PEAVSourceMesh@12@AEBVPxBounds3@2@@Z 00000001800dcbe0 f   GuBV32.obj
 0001:000dbca0       ??0BV32Tree@Gu@physx@@QEAA@XZ 00000001800dcca0 f   GuBV32.obj
 0001:000dbcd0       ??1BV32Tree@Gu@physx@@QEAA@XZ 00000001800dccd0 f   GuBV32.obj
 0001:000dbce0       ?calculateLeafNode@BV32Tree@Gu@physx@@QEAAXAEAUBV32Data@23@@Z 00000001800dcce0 f   GuBV32.obj
 0001:000dbee0       ?createSOAformatNode@BV32Tree@Gu@physx@@QEAAXAEAUBV32DataPacked@23@AEBUBV32Data@23@IAEAI2@Z 00000001800dcee0 f   GuBV32.obj
 0001:000dc330       ?load@BV32Tree@Gu@physx@@QEAA_NAEAVPxInputStream@3@_N@Z 00000001800dd330 f   GuBV32.obj
 0001:000dc560       ?release@BV32Tree@Gu@physx@@QEAAXXZ 00000001800dd560 f   GuBV32.obj
 0001:000dc5f0       ??0BV32Node@@QEAA@XZ       00000001800dd5f0 f i GuBV32Build.obj
 0001:000dc770       ?BuildBV32Ex@Gu@physx@@YA_NAEAVBV32Tree@12@AEAVSourceMesh@12@MI@Z 00000001800dd770 f   GuBV32Build.obj
 0001:000dfd50       ?pcmContactBoxBox@Gu@physx@@YA_NAEBVGeometryUnion@12@0AEBVPxTransform@2@1AEBUNarrowPhaseParams@12@AEAUCache@12@AEAVContactBuffer@12@PEAVRenderOutput@Cm@2@@Z 00000001800e0d50 f   GuPCMContactBoxBox.obj
 0001:000e0b20       ??$gjkPenetration@U?$RelativeConvex@VBoxV@Gu@physx@@@Gu@physx@@U?$LocalConvex@VConvexHullNoScaleV@Gu@physx@@@23@@Gu@physx@@YA?AW4GjkStatus@01@AEBU?$RelativeConvex@VBoxV@Gu@physx@@@01@AEBU?$LocalConvex@VConvexHullNoScaleV@Gu@physx@@@01@AEBT__m128@@2_NPEIAE4AEAEAEAUGjkOutput@01@@Z 00000001800e1b20 f i GuPCMContactBoxConvex.obj
 0001:000e2d50       ?pcmContactBoxConvex@Gu@physx@@YA_NAEBVGeometryUnion@12@0AEBVPxTransform@2@1AEBUNarrowPhaseParams@12@AEAUCache@12@AEAVContactBuffer@12@PEAVRenderOutput@Cm@2@@Z 00000001800e3d50 f   GuPCMContactBoxConvex.obj
 0001:000e3b90       ?support@?$LocalConvex@VConvexHullNoScaleV@Gu@physx@@@Gu@physx@@UEBA?AT__m128@@AEBT4@@Z 00000001800e4b90 f i GuPCMContactBoxConvex.obj
 0001:000e3be0       ?support@?$LocalConvex@VConvexHullNoScaleV@Gu@physx@@@Gu@physx@@UEBA?AT__m128@@AEBT4@AEAH@Z 00000001800e4be0 f i GuPCMContactBoxConvex.obj
 0001:000e3c40       ?supportPoint@?$LocalConvex@VConvexHullNoScaleV@Gu@physx@@@Gu@physx@@UEBA?AT__m128@@H@Z 00000001800e4c40 f i GuPCMContactBoxConvex.obj
 0001:000e3c70       ?pcmContactCapsuleBox@Gu@physx@@YA_NAEBVGeometryUnion@12@0AEBVPxTransform@2@1AEBUNarrowPhaseParams@12@AEAUCache@12@AEAVContactBuffer@12@PEAVRenderOutput@Cm@2@@Z 00000001800e4c70 f   GuPCMContactCapsuleBox.obj
 0001:000e4c20       ?pcmContactCapsuleCapsule@Gu@physx@@YA_NAEBVGeometryUnion@12@0AEBVPxTransform@2@1AEBUNarrowPhaseParams@12@AEAUCache@12@AEAVContactBuffer@12@PEAVRenderOutput@Cm@2@@Z 00000001800e5c20 f   GuPCMContactCapsuleCapsule.obj
 0001:000e5480       ??$gjkPenetration@U?$LocalConvex@VCapsuleV@Gu@physx@@@Gu@physx@@U?$LocalConvex@VConvexHullNoScaleV@Gu@physx@@@23@@Gu@physx@@YA?AW4GjkStatus@01@AEBU?$LocalConvex@VCapsuleV@Gu@physx@@@01@AEBU?$LocalConvex@VConvexHullNoScaleV@Gu@physx@@@01@AEBT__m128@@2_NPEIAE4AEAEAEAUGjkOutput@01@@Z 00000001800e6480 f i GuPCMContactCapsuleConvex.obj
 0001:000e71c0       ?pcmContactCapsuleConvex@Gu@physx@@YA_NAEBVGeometryUnion@12@0AEBVPxTransform@2@1AEBUNarrowPhaseParams@12@AEAUCache@12@AEAVContactBuffer@12@PEAVRenderOutput@Cm@2@@Z 00000001800e81c0 f   GuPCMContactCapsuleConvex.obj
 0001:000e83e0       ??0PCMMeshContactGeneration@Gu@physx@@QEAA@AEBT__m128@@0AEBVPsTransformV@aos@shdfnd@2@1AEAVMultiplePersistentContactManifold@12@AEAVContactBuffer@12@PEAV?$InlineArray@I$0EEA@V?$ReflectionAllocator@I@shdfnd@physx@@@62@PEAVRenderOutput@Cm@2@@Z 00000001800e93e0 f i GuPCMContactCapsuleHeightField.obj
 0001:000e8cf0       ??_EPCMCapsuleVsHeightfieldContactGenerationCallback@physx@@UEAAPEAXI@Z 00000001800e9cf0 f i GuPCMContactCapsuleHeightField.obj
 0001:000e8cf0       ??_GPCMCapsuleVsHeightfieldContactGenerationCallback@physx@@UEAAPEAXI@Z 00000001800e9cf0 f i GuPCMContactCapsuleHeightField.obj
 0001:000e8d20       ?onEvent@?$PCMHeightfieldContactGenerationCallback@UPCMCapsuleVsHeightfieldContactGenerationCallback@physx@@@Gu@physx@@UEAA_NIPEAI@Z 00000001800e9d20 f i GuPCMContactCapsuleHeightField.obj
 0001:000e92d0       ?pcmContactCapsuleHeightField@Gu@physx@@YA_NAEBVGeometryUnion@12@0AEBVPxTransform@2@1AEBUNarrowPhaseParams@12@AEAUCache@12@AEAVContactBuffer@12@PEAVRenderOutput@Cm@2@@Z 00000001800ea2d0 f   GuPCMContactCapsuleHeightField.obj
 0001:000ea020       ??$processTriangleCache@$0BA@@PCMCapsuleVsMeshContactGenerationCallback@physx@@QEAAXAEAU?$TriangleCache@$0BA@@Gu@1@@Z 00000001800eb020 f i GuPCMContactCapsuleMesh.obj
 0001:000ea0b0       ??_EPCMCapsuleVsMeshContactGenerationCallback@physx@@UEAAPEAXI@Z 00000001800eb0b0 f i GuPCMContactCapsuleMesh.obj
 0001:000ea0b0       ??_GPCMCapsuleVsMeshContactGenerationCallback@physx@@UEAAPEAXI@Z 00000001800eb0b0 f i GuPCMContactCapsuleMesh.obj
 0001:000ea0e0       ?pcmContactCapsuleMesh@Gu@physx@@YA_NAEBVGeometryUnion@12@0AEBVPxTransform@2@1AEBUNarrowPhaseParams@12@AEAUCache@12@AEAVContactBuffer@12@PEAVRenderOutput@Cm@2@@Z 00000001800eb0e0 f   GuPCMContactCapsuleMesh.obj
 0001:000eafb0       ?processHit@?$PCMMeshContactGenerationCallback@UPCMCapsuleVsMeshContactGenerationCallback@physx@@@Gu@physx@@UEAA_NAEBUPxRaycastHit@3@AEBVPxVec3@3@11AEAMPEBI@Z 00000001800ebfb0 f i GuPCMContactCapsuleMesh.obj
 0001:000eb380       ??$sort@USortedTriangle@Gu@physx@@U?$Less@USortedTriangle@Gu@physx@@@shdfnd@3@V?$ReflectionAllocator@USortedTriangle@Gu@physx@@@53@@shdfnd@physx@@YAXPEAUSortedTriangle@Gu@1@IAEBU?$Less@USortedTriangle@Gu@physx@@@01@AEBV?$ReflectionAllocator@USortedTriangle@Gu@physx@@@01@I@Z 00000001800ec380 f i GuPCMContactConvexCommon.obj
 0001:000eb830       ?addContactsToPatch@PCMConvexVsMeshContactGeneration@Gu@physx@@QEAAXAEBT__m128@@I@Z 00000001800ec830 f   GuPCMContactConvexCommon.obj
 0001:000ec160       ?addToPatch@PCMSphereVsMeshContactGeneration@Gu@physx@@QEAAXAEBT__m128@@0T4@I@Z 00000001800ed160 f   GuPCMContactConvexCommon.obj
 0001:000ec820       ?allocate@?$ReflectionAllocator@USortedTriangle@Gu@physx@@@shdfnd@physx@@QEAAPEAX_KPEBDH@Z 00000001800ed820 f i GuPCMContactConvexCommon.obj
 0001:000ec8c0       ?doSupport@?$SupportLocalImpl@VTriangleV@Gu@physx@@@Gu@physx@@UEBA?AT__m128@@AEBT4@@Z 00000001800ed8c0 f i GuPCMContactConvexCommon.obj
 0001:000ec950       ?doSupport@?$SupportLocalImpl@VTriangleV@Gu@physx@@@Gu@physx@@UEBAXAEBT__m128@@AEAT4@1@Z 00000001800ed950 f i GuPCMContactConvexCommon.obj
 0001:000ec9c0       ?generateContacts@PCMCapsuleVsMeshContactGeneration@Gu@physx@@SA_NAEBT__m128@@0000I000PEAVMeshPersistentContact@23@AEAI@Z 00000001800ed9c0 f   GuPCMContactConvexCommon.obj
 0001:000ece10       ?generateEE@PCMCapsuleVsMeshContactGeneration@Gu@physx@@QEAAXAEBT__m128@@000I00PEAVMeshPersistentContact@23@AEAI@Z 00000001800ede10 f   GuPCMContactConvexCommon.obj
 0001:000ed090       ?generateEEMTD@PCMCapsuleVsMeshContactGeneration@Gu@physx@@SAXAEBT__m128@@000I00PEAVMeshPersistentContact@23@AEAI@Z 00000001800ee090 f   GuPCMContactConvexCommon.obj
 0001:000ed2e0       ?generateLastContacts@PCMConvexVsMeshContactGeneration@Gu@physx@@QEAAXXZ 00000001800ee2e0 f   GuPCMContactConvexCommon.obj
 0001:000ed770       ?generateLastContacts@PCMSphereVsMeshContactGeneration@Gu@physx@@QEAAXXZ 00000001800ee770 f   GuPCMContactConvexCommon.obj
 0001:000edb80       ?get@?$CacheMap@UCachedEdge@Gu@physx@@$0IA@@Gu@physx@@QEBAPEBUCachedEdge@23@AEBU423@@Z 00000001800eeb80 f i GuPCMContactConvexCommon.obj
 0001:000edc00       ?growAndPushBack@?$Array@USortedTriangle@Gu@physx@@V?$InlineAllocator@$0IAA@V?$ReflectionAllocator@USortedTriangle@Gu@physx@@@shdfnd@physx@@@shdfnd@3@@shdfnd@physx@@IEAAAEAUSortedTriangle@Gu@3@AEBU453@@Z 00000001800eec00 f i GuPCMContactConvexCommon.obj
 0001:000ee280       ?pcmDistanceSegmentTriangleSquared@Gu@physx@@YA?AT__m128@@AEBT3@0000AEAT3@11@Z 00000001800ef280 f   GuPCMContactConvexCommon.obj
 0001:000eebd0       ?populateVerts@?$SupportLocalImpl@VTriangleV@Gu@physx@@@Gu@physx@@UEBAXPEBEIPEBVPxVec3@3@PEAT__m128@@@Z 00000001800efbd0 f i GuPCMContactConvexCommon.obj
 0001:000eed10       ?processTriangle@PCMCapsuleVsMeshContactGeneration@Gu@physx@@QEAA_NPEBVPxVec3@3@IEPEBI@Z 00000001800efd10 f   GuPCMContactConvexCommon.obj
 0001:000ef8c0       ?processTriangle@PCMCapsuleVsMeshContactGeneration@Gu@physx@@SA_NAEBVTriangleV@23@IAEBVCapsuleV@23@AEBT__m128@@EPEAVMeshPersistentContact@23@AEAI@Z 00000001800f08c0 f   GuPCMContactConvexCommon.obj
 0001:000efbe0       ?processTriangle@PCMConvexVsMeshContactGeneration@Gu@physx@@QEAA_NPEBVPxVec3@3@IEPEBI@Z 00000001800f0be0 f   GuPCMContactConvexCommon.obj
 0001:000f0010       ?processTriangle@PCMConvexVsMeshContactGeneration@Gu@physx@@SA_NAEBUPolygonalData@23@PEAVSupportLocal@23@PEBVPxVec3@3@IEAEBT__m128@@_NAEBVPsTransformV@aos@shdfnd@3@AEBVPsMatTransformV@9shdfnd@3@PEAVMeshPersistentContact@23@AEAI@Z 00000001800f1010 f   GuPCMContactConvexCommon.obj
 0001:000f0290       ?processTriangle@PCMSphereVsMeshContactGeneration@Gu@physx@@QEAA_NPEBVPxVec3@3@IEPEBI@Z 00000001800f1290 f   GuPCMContactConvexCommon.obj
 0001:000f06a0       ??$gjkPenetration@U?$RelativeConvex@VConvexHullNoScaleV@Gu@physx@@@Gu@physx@@U?$LocalConvex@VConvexHullNoScaleV@Gu@physx@@@23@@Gu@physx@@YA?AW4GjkStatus@01@AEBU?$RelativeConvex@VConvexHullNoScaleV@Gu@physx@@@01@AEBU?$LocalConvex@VConvexHullNoScaleV@Gu@physx@@@01@AEBT__m128@@2_NPEIAE4AEAEAEAUGjkOutput@01@@Z 00000001800f16a0 f i GuPCMContactConvexConvex.obj
 0001:000f21d0       ??$gjkPenetration@U?$RelativeConvex@VConvexHullNoScaleV@Gu@physx@@@Gu@physx@@U?$LocalConvex@VConvexHullV@Gu@physx@@@23@@Gu@physx@@YA?AW4GjkStatus@01@AEBU?$RelativeConvex@VConvexHullNoScaleV@Gu@physx@@@01@AEBU?$LocalConvex@VConvexHullV@Gu@physx@@@01@AEBT__m128@@2_NPEIAE4AEAEAEAUGjkOutput@01@@Z 00000001800f31d0 f i GuPCMContactConvexConvex.obj
 0001:000f3da0       ??$gjkPenetration@U?$RelativeConvex@VConvexHullV@Gu@physx@@@Gu@physx@@U?$LocalConvex@VConvexHullNoScaleV@Gu@physx@@@23@@Gu@physx@@YA?AW4GjkStatus@01@AEBU?$RelativeConvex@VConvexHullV@Gu@physx@@@01@AEBU?$LocalConvex@VConvexHullNoScaleV@Gu@physx@@@01@AEBT__m128@@2_NPEIAE4AEAEAEAUGjkOutput@01@@Z 00000001800f4da0 f i GuPCMContactConvexConvex.obj
 0001:000f63b0       ?pcmContactConvexConvex@Gu@physx@@YA_NAEBVGeometryUnion@12@0AEBVPxTransform@2@1AEBUNarrowPhaseParams@12@AEAUCache@12@AEAVContactBuffer@12@PEAVRenderOutput@Cm@2@@Z 00000001800f73b0 f   GuPCMContactConvexConvex.obj
 0001:000f7570       ?support@?$RelativeConvex@VConvexHullNoScaleV@Gu@physx@@@Gu@physx@@UEBA?AT__m128@@AEBT4@@Z 00000001800f8570 f i GuPCMContactConvexConvex.obj
 0001:000f7620       ?support@?$RelativeConvex@VConvexHullNoScaleV@Gu@physx@@@Gu@physx@@UEBA?AT__m128@@AEBT4@AEAH@Z 00000001800f8620 f i GuPCMContactConvexConvex.obj
 0001:000f76e0       ?supportPoint@?$RelativeConvex@VConvexHullNoScaleV@Gu@physx@@@Gu@physx@@UEBA?AT__m128@@H@Z 00000001800f86e0 f i GuPCMContactConvexConvex.obj
 0001:000f7740       ??_EPCMConvexVsHeightfieldContactGenerationCallback@physx@@UEAAPEAXI@Z 00000001800f8740 f i GuPCMContactConvexHeightField.obj
 0001:000f7740       ??_GPCMConvexVsHeightfieldContactGenerationCallback@physx@@UEAAPEAXI@Z 00000001800f8740 f i GuPCMContactConvexHeightField.obj
 0001:000f7770       ?PCMContactConvexHeightfield@Gu@physx@@YA_NAEBUPolygonalData@12@PEAVSupportLocal@12@AEBT__m128@@AEBVPxBounds3@2@AEBVPxHeightFieldGeometry@2@AEBVPxTransform@2@5MAEAVContactBuffer@12@AEBVFastVertex2ShapeScaling@Cm@2@_NAEAVMultiplePersistentContactManifold@12@PEAVRenderOutput@Cm@2@@Z 00000001800f8770 f   GuPCMContactConvexHeightField.obj
 0001:000f8230       ?onEvent@?$PCMHeightfieldContactGenerationCallback@UPCMConvexVsHeightfieldContactGenerationCallback@physx@@@Gu@physx@@UEAA_NIPEAI@Z 00000001800f9230 f i GuPCMContactConvexHeightField.obj
 0001:000f87e0       ?pcmContactBoxHeightField@Gu@physx@@YA_NAEBVGeometryUnion@12@0AEBVPxTransform@2@1AEBUNarrowPhaseParams@12@AEAUCache@12@AEAVContactBuffer@12@PEAVRenderOutput@Cm@2@@Z 00000001800f97e0 f   GuPCMContactConvexHeightField.obj
 0001:000f8a60       ?pcmContactConvexHeightField@Gu@physx@@YA_NAEBVGeometryUnion@12@0AEBVPxTransform@2@1AEBUNarrowPhaseParams@12@AEAUCache@12@AEAVContactBuffer@12@PEAVRenderOutput@Cm@2@@Z 00000001800f9a60 f   GuPCMContactConvexHeightField.obj
 0001:000f90a0       ??$processTriangleCache@$0BA@@PCMConvexVsMeshContactGenerationCallback@physx@@QEAAXAEAU?$TriangleCache@$0BA@@Gu@1@@Z 00000001800fa0a0 f i GuPCMContactConvexMesh.obj
 0001:000f9130       ??_EPCMConvexVsMeshContactGenerationCallback@physx@@UEAAPEAXI@Z 00000001800fa130 f i GuPCMContactConvexMesh.obj
 0001:000f9130       ??_GPCMConvexVsMeshContactGenerationCallback@physx@@UEAAPEAXI@Z 00000001800fa130 f i GuPCMContactConvexMesh.obj
 0001:000f9160       ?PCMContactConvexMesh@Gu@physx@@YA_NAEBUPolygonalData@12@PEAVSupportLocal@12@AEBT__m128@@AEBVPxBounds3@2@AEBUPxTriangleMeshGeometryLL@2@AEBVPxTransform@2@5MAEAVContactBuffer@12@AEBVFastVertex2ShapeScaling@Cm@2@7_N8AEAVMultiplePersistentContactManifold@12@PEAVRenderOutput@Cm@2@@Z 00000001800fa160 f   GuPCMContactConvexMesh.obj
 0001:000f9d30       ?pcmContactBoxMesh@Gu@physx@@YA_NAEBVGeometryUnion@12@0AEBVPxTransform@2@1AEBUNarrowPhaseParams@12@AEAUCache@12@AEAVContactBuffer@12@PEAVRenderOutput@Cm@2@@Z 00000001800fad30 f   GuPCMContactConvexMesh.obj
 0001:000fa060       ?pcmContactConvexMesh@Gu@physx@@YA_NAEBVGeometryUnion@12@0AEBVPxTransform@2@1AEBUNarrowPhaseParams@12@AEAUCache@12@AEAVContactBuffer@12@PEAVRenderOutput@Cm@2@@Z 00000001800fb060 f   GuPCMContactConvexMesh.obj
 0001:000fa750       ?processHit@?$PCMMeshContactGenerationCallback@UPCMConvexVsMeshContactGenerationCallback@physx@@@Gu@physx@@UEAA_NAEBUPxRaycastHit@3@AEBVPxVec3@3@11AEAMPEBI@Z 00000001800fb750 f i GuPCMContactConvexMesh.obj
 0001:000fab80       ?addGJKEPAContacts@Gu@physx@@YA_NPEBUGjkConvex@12@0AEBVPsMatTransformV@aos@shdfnd@2@W4GjkStatus@12@PEAVPersistentContact@12@T__m128@@4AEAUGjkOutput@12@AEAVPersistentContactManifold@12@@Z 00000001800fbb80 f   GuPCMContactGenBoxConvex.obj
 0001:000fad80       ?buildPartialHull@Gu@physx@@YAXAEBUPolygonalData@12@PEAVSupportLocal@12@AEAVSeparatingAxes@12@AEBT__m128@@3@Z 00000001800fbd80 f   GuPCMContactGenBoxConvex.obj
 0001:000fb030       ?computeMTD@Gu@physx@@YA_NAEAUPolygonalData@12@0PEAVSupportLocal@12@1AEAT__m128@@2@Z 00000001800fc030 f   GuPCMContactGenBoxConvex.obj
 0001:000fb6a0       ?generateFullContactManifold@Gu@physx@@YA_NAEAUPolygonalData@12@0PEAVSupportLocal@12@1PEAVPersistentContact@12@AEAIAEBT__m128@@444MM_NPEAVRenderOutput@Cm@2@M@Z 00000001800fc6a0 f   GuPCMContactGenBoxConvex.obj
 0001:000fcec0       ?generatedContacts@Gu@physx@@YAXAEAUPolygonalData@12@0AEBUHullPolygonData@12@1PEAVSupportLocal@12@2AEBVPsMatTransformV@aos@shdfnd@2@PEAVPersistentContact@12@AEAIAEBT__m128@@PEAVRenderOutput@Cm@2@@Z 00000001800fdec0 f   GuPCMContactGenBoxConvex.obj
 0001:000fe5a0       ?computeMTD@Gu@physx@@YA_NAEBVCapsuleV@12@AEAUPolygonalData@12@PEAVSupportLocal@12@AEAT__m128@@3@Z 00000001800ff5a0 f   GuPCMContactGenSphereCapsule.obj
 0001:000fe690       ?generateCapsuleBoxFullContactManifold@Gu@physx@@YA_NAEBVCapsuleV@12@AEAUPolygonalData@12@PEAVSupportLocal@12@AEBVPsMatTransformV@aos@shdfnd@2@PEAVPersistentContact@12@AEAIAEBT__m128@@AEAT__m128@@6M_NMPEAVRenderOutput@Cm@2@@Z 00000001800ff690 f   GuPCMContactGenSphereCapsule.obj
 0001:000fef00       ?generateFullContactManifold@Gu@physx@@YA_NAEBVCapsuleV@12@AEAUPolygonalData@12@PEAVSupportLocal@12@AEBVPsMatTransformV@aos@shdfnd@2@PEAVPersistentContact@12@AEAIAEBT__m128@@AEAT__m128@@6M_NM@Z 00000001800fff00 f   GuPCMContactGenSphereCapsule.obj
 0001:000ff7e0       ?generateSphereFullContactManifold@Gu@physx@@YA_NAEBVCapsuleV@12@AEAUPolygonalData@12@PEAVSupportLocal@12@PEAVPersistentContact@12@AEAIAEBT__m128@@AEAT7@_N@Z 00000001801007e0 f   GuPCMContactGenSphereCapsule.obj
 0001:000ffc40       ?generatedCapsuleBoxFaceContacts@Gu@physx@@YAXAEBVCapsuleV@12@AEAUPolygonalData@12@AEBUHullPolygonData@12@PEAVSupportLocal@12@AEBVPsMatTransformV@aos@shdfnd@2@PEAVPersistentContact@12@AEAIAEBT__m128@@7@Z 0000000180100c40 f   GuPCMContactGenSphereCapsule.obj
 0001:001003f0       ?generatedContactsEEContacts@Gu@physx@@YAXAEBVCapsuleV@12@AEAUPolygonalData@12@AEBUHullPolygonData@12@PEAVSupportLocal@12@AEBVPsMatTransformV@aos@shdfnd@2@PEAVPersistentContact@12@AEAIAEBT__m128@@7@Z 00000001801013f0 f   GuPCMContactGenSphereCapsule.obj
 0001:001010b0       ?pcmContactPlaneBox@Gu@physx@@YA_NAEBVGeometryUnion@12@0AEBVPxTransform@2@1AEBUNarrowPhaseParams@12@AEAUCache@12@AEAVContactBuffer@12@PEAVRenderOutput@Cm@2@@Z 00000001801020b0 f   GuPCMContactPlaneBox.obj
 0001:00101c50       ?pcmContactPlaneCapsule@Gu@physx@@YA_NAEBVGeometryUnion@12@0AEBVPxTransform@2@1AEBUNarrowPhaseParams@12@AEAUCache@12@AEAVContactBuffer@12@PEAVRenderOutput@Cm@2@@Z 0000000180102c50 f   GuPCMContactPlaneCapsule.obj
 0001:00102410       ?pcmContactPlaneConvex@Gu@physx@@YA_NAEBVGeometryUnion@12@0AEBVPxTransform@2@1AEBUNarrowPhaseParams@12@AEAUCache@12@AEAVContactBuffer@12@PEAVRenderOutput@Cm@2@@Z 0000000180103410 f   GuPCMContactPlaneConvex.obj
 0001:00102d80       ?pcmContactSphereBox@Gu@physx@@YA_NAEBVGeometryUnion@12@0AEBVPxTransform@2@1AEBUNarrowPhaseParams@12@AEAUCache@12@AEAVContactBuffer@12@PEAVRenderOutput@Cm@2@@Z 0000000180103d80 f   GuPCMContactSphereBox.obj
 0001:00103200       ?pcmContactSphereCapsule@Gu@physx@@YA_NAEBVGeometryUnion@12@0AEBVPxTransform@2@1AEBUNarrowPhaseParams@12@AEAUCache@12@AEAVContactBuffer@12@PEAVRenderOutput@Cm@2@@Z 0000000180104200 f   GuPCMContactSphereCapsule.obj
 0001:00103660       ?pcmContactSphereConvex@Gu@physx@@YA_NAEBVGeometryUnion@12@0AEBVPxTransform@2@1AEBUNarrowPhaseParams@12@AEAUCache@12@AEAVContactBuffer@12@PEAVRenderOutput@Cm@2@@Z 0000000180104660 f   GuPCMContactSphereConvex.obj
 0001:00104410       ??1?$Array@USortedTriangle@Gu@physx@@V?$InlineAllocator@$0IAA@V?$ReflectionAllocator@USortedTriangle@Gu@physx@@@shdfnd@physx@@@shdfnd@3@@shdfnd@physx@@QEAA@XZ 0000000180105410 f i GuPCMContactSphereHeightField.obj
 0001:00104480       ??_EPCMSphereVsHeightfieldContactGenerationCallback@physx@@UEAAPEAXI@Z 0000000180105480 f i GuPCMContactSphereHeightField.obj
 0001:00104480       ??_GPCMSphereVsHeightfieldContactGenerationCallback@physx@@UEAAPEAXI@Z 0000000180105480 f i GuPCMContactSphereHeightField.obj
 0001:001044d0       ?onEvent@?$PCMHeightfieldContactGenerationCallback@UPCMSphereVsHeightfieldContactGenerationCallback@physx@@@Gu@physx@@UEAA_NIPEAI@Z 00000001801054d0 f i GuPCMContactSphereHeightField.obj
 0001:00104a80       ?pcmContactSphereHeightField@Gu@physx@@YA_NAEBVGeometryUnion@12@0AEBVPxTransform@2@1AEBUNarrowPhaseParams@12@AEAUCache@12@AEAVContactBuffer@12@PEAVRenderOutput@Cm@2@@Z 0000000180105a80 f   GuPCMContactSphereHeightField.obj
 0001:00105550       ??$processTriangleCache@$0BA@@PCMSphereVsMeshContactGenerationCallback@physx@@QEAAXAEAU?$TriangleCache@$0BA@@Gu@1@@Z 0000000180106550 f i GuPCMContactSphereMesh.obj
 0001:001055e0       ??_EPCMSphereVsMeshContactGenerationCallback@physx@@UEAAPEAXI@Z 00000001801065e0 f i GuPCMContactSphereMesh.obj
 0001:001055e0       ??_GPCMSphereVsMeshContactGenerationCallback@physx@@UEAAPEAXI@Z 00000001801065e0 f i GuPCMContactSphereMesh.obj
 0001:00105630       ?pcmContactSphereMesh@Gu@physx@@YA_NAEBVGeometryUnion@12@0AEBVPxTransform@2@1AEBUNarrowPhaseParams@12@AEAUCache@12@AEAVContactBuffer@12@PEAVRenderOutput@Cm@2@@Z 0000000180106630 f   GuPCMContactSphereMesh.obj
 0001:00106250       ?processHit@?$PCMMeshContactGenerationCallback@UPCMSphereVsMeshContactGenerationCallback@physx@@@Gu@physx@@UEAA_NAEBUPxRaycastHit@3@AEBVPxVec3@3@11AEAMPEBI@Z 0000000180107250 f i GuPCMContactSphereMesh.obj
 0001:00106620       ?pcmContactSpherePlane@Gu@physx@@YA_NAEBVGeometryUnion@12@0AEBVPxTransform@2@1AEBUNarrowPhaseParams@12@AEAUCache@12@AEAVContactBuffer@12@PEAVRenderOutput@Cm@2@@Z 0000000180107620 f   GuPCMContactSpherePlane.obj
 0001:001067b0       ?pcmContactSphereSphere@Gu@physx@@YA_NAEBVGeometryUnion@12@0AEBVPxTransform@2@1AEBUNarrowPhaseParams@12@AEAUCache@12@AEAVContactBuffer@12@PEAVRenderOutput@Cm@2@@Z 00000001801077b0 f   GuPCMContactSphereSphere.obj
 0001:00106890       ?getPCMConvexData@Gu@physx@@YAXAEBVConvexHullV@12@_NAEAUPolygonalData@12@@Z 0000000180107890 f   GuPCMShapeConvex.obj
 0001:001069f0       ?getPCMConvexData@Gu@physx@@YA_NAEBVGeometryUnion@12@AEAVFastVertex2ShapeScaling@Cm@2@AEAVPxBounds3@2@AEAUPolygonalData@12@@Z 00000001801079f0 f   GuPCMShapeConvex.obj
 0001:00106db0       ?getPolygonalData@PCMPolygonalBox@Gu@physx@@QEBAXPEIAUPolygonalData@23@@Z 0000000180107db0 f   GuPCMShapeConvex.obj
 0001:00106e00       ?generatePolyDataContactManifold@PCMConvexVsMeshContactGeneration@Gu@physx@@QEAA_NAEAVTriangleV@23@IIEPEAVMeshPersistentContact@23@AEAIAEBT__m128@@AEAT6@@Z 0000000180107e00 f   GuPCMTriangleContactGen.obj
 0001:00106f20       ?generateTriangleFullContactManifold@PCMConvexVsMeshContactGeneration@Gu@physx@@QEAA_NAEAVTriangleV@23@IPEBIEAEBUPolygonalData@23@PEAV?$SupportLocalImpl@VTriangleV@Gu@physx@@@23@PEAVSupportLocal@23@PEAVMeshPersistentContact@23@AEAIAEBT__m128@@AEAT9@@Z 0000000180107f20 f   GuPCMTriangleContactGen.obj
 0001:00107820       ?generateTriangleFullContactManifold@PCMConvexVsMeshContactGeneration@Gu@physx@@SA_NAEAVTriangleV@23@IEAEBUPolygonalData@23@PEAV?$SupportLocalImpl@VTriangleV@Gu@physx@@@23@PEAVSupportLocal@23@PEAVMeshPersistentContact@23@AEAIAEBT__m128@@AEAT9@PEAVRenderOutput@Cm@3@@Z 0000000180108820 f   GuPCMTriangleContactGen.obj
 0001:00109f50       ?addBatchManifoldContacts2@PersistentContactManifold@Gu@physx@@QEAAXPEBVPersistentContact@23@I@Z 000000018010af50 f   GuPersistentContactManifold.obj
 0001:00109fc0       ?addBatchManifoldContacts@PersistentContactManifold@Gu@physx@@QEAAXPEBVPersistentContact@23@IM@Z 000000018010afc0 f   GuPersistentContactManifold.obj
 0001:0010a040       ?addBatchManifoldContactsCluster@PersistentContactManifold@Gu@physx@@QEAAXPEBVPersistentContact@23@I@Z 000000018010b040 f   GuPersistentContactManifold.obj
 0001:0010a2c0       ?addManifoldContactPoints@MultiplePersistentContactManifold@Gu@physx@@QEAAXPEAVMeshPersistentContact@23@IPEAPEAUPCMContactPatch@23@IAEBT__m128@@2E@Z 000000018010b2c0 f   GuPersistentContactManifold.obj
 0001:0010a6b0       ?addManifoldContactsToContactBuffer@MultiplePersistentContactManifold@Gu@physx@@QEAA_NAEAVContactBuffer@23@AEBVPsTransformV@aos@shdfnd@3@1AEBT__m128@@@Z 000000018010b6b0 f   GuPersistentContactManifold.obj
 0001:0010a940       ?addManifoldContactsToContactBuffer@MultiplePersistentContactManifold@Gu@physx@@QEAA_NAEAVContactBuffer@23@AEBVPsTransformV@aos@shdfnd@3@@Z 000000018010b940 f   GuPersistentContactManifold.obj
 0001:0010abb0       ?addManifoldContactsToContactBuffer@PersistentContactManifold@Gu@physx@@QEAAXAEAVContactBuffer@23@AEBT__m128@@1AEBVPsTransformV@aos@shdfnd@3@11@Z 000000018010bbb0 f   GuPersistentContactManifold.obj
 0001:0010ad40       ?addManifoldContactsToContactBuffer@PersistentContactManifold@Gu@physx@@QEAAXAEAVContactBuffer@23@AEBT__m128@@AEBVPsMatTransformV@aos@shdfnd@3@@Z 000000018010bd40 f   GuPersistentContactManifold.obj
 0001:0010adf0       ?addManifoldContactsToContactBuffer@PersistentContactManifold@Gu@physx@@QEAAXAEAVContactBuffer@23@AEBT__m128@@AEBVPsTransformV@aos@shdfnd@3@1@Z 000000018010bdf0 f   GuPersistentContactManifold.obj
 0001:0010af50       ?addManifoldPoint2@PersistentContactManifold@Gu@physx@@QEAAIAEBT__m128@@000@Z 000000018010bf50 f   GuPersistentContactManifold.obj
 0001:0010b080       ?addManifoldPoint@Gu@physx@@YAXPEAVPersistentContact@12@AEAVPersistentContactManifold@12@AEAUGjkOutput@12@AEBVPsMatTransformV@aos@shdfnd@2@T__m128@@@Z 000000018010c080 f   GuPersistentContactManifold.obj
 0001:0010b230       ?addManifoldPoint@PersistentContactManifold@Gu@physx@@QEAAIAEBT__m128@@000@Z 000000018010c230 f   GuPersistentContactManifold.obj
 0001:0010b680       ?drawLine@MultiplePersistentContactManifold@Gu@physx@@SAXAEAVRenderOutput@Cm@3@AEBT__m128@@1I@Z 000000018010c680 f   GuPersistentContactManifold.obj
 0001:0010b740       ?drawLine@MultiplePersistentContactManifold@Gu@physx@@SAXAEAVRenderOutput@Cm@3@VPxVec3@3@1I@Z 000000018010c740 f   GuPersistentContactManifold.obj
 0001:0010b800       ?drawManifold@MultiplePersistentContactManifold@Gu@physx@@QEAAXAEAVRenderOutput@Cm@3@AEBVPsTransformV@aos@shdfnd@3@1@Z 000000018010c800 f   GuPersistentContactManifold.obj
 0001:0010bfb0       ?drawPoint@MultiplePersistentContactManifold@Gu@physx@@SAXAEAVRenderOutput@Cm@3@AEBT__m128@@MI@Z 000000018010cfb0 f   GuPersistentContactManifold.obj
 0001:0010c190       ?drawPolygon@MultiplePersistentContactManifold@Gu@physx@@SAXAEAVRenderOutput@Cm@3@AEBVPsTransformV@aos@shdfnd@3@PEAT__m128@@II@Z 000000018010d190 f   GuPersistentContactManifold.obj
 0001:0010c450       ?findRotationMatrixFromZAxis@Gu@physx@@YA?AUMat33V@aos@shdfnd@2@AEBT__m128@@@Z 000000018010d450 f   GuPersistentContactManifold.obj
 0001:0010c6e0       ?fromBuffer@MultiplePersistentContactManifold@Gu@physx@@QEAAXPEIAE@Z 000000018010d6e0 f   GuPersistentContactManifold.obj
 0001:0010c840       ?reduceBatchContacts2@PersistentContactManifold@Gu@physx@@QEAAXPEBVPersistentContact@23@I@Z 000000018010d840 f   GuPersistentContactManifold.obj
 0001:0010ca40       ?reduceBatchContacts@PersistentContactManifold@Gu@physx@@QEAAXPEBVPersistentContact@23@IM@Z 000000018010da40 f   GuPersistentContactManifold.obj
 0001:0010cf10       ?reduceBatchContactsCapsule@SinglePersistentContactManifold@Gu@physx@@QEAA?AT__m128@@PEBVMeshPersistentContact@23@IAEAUPCMContactPatch@23@@Z 000000018010df10 f   GuPersistentContactManifold.obj
 0001:0010d1a0       ?reduceBatchContactsCluster@PersistentContactManifold@Gu@physx@@QEAAXPEBVPersistentContact@23@I@Z 000000018010e1a0 f   GuPersistentContactManifold.obj
 0001:0010d650       ?reduceBatchContactsConvex@SinglePersistentContactManifold@Gu@physx@@QEAA?AT__m128@@PEBVMeshPersistentContact@23@IAEAUPCMContactPatch@23@@Z 000000018010e650 f   GuPersistentContactManifold.obj
 0001:0010dc50       ?reduceContacts@SinglePersistentContactManifold@Gu@physx@@SAIPEAVMeshPersistentContact@23@I@Z 000000018010ec50 f   GuPersistentContactManifold.obj
 0001:0010e150       ?reduceContactsForPCM@PersistentContactManifold@Gu@physx@@QEAAIAEBT__m128@@00@Z 000000018010f150 f   GuPersistentContactManifold.obj
 0001:0010e6e0       ?refreshContactPoints@SinglePersistentContactManifold@Gu@physx@@QEAA?AT__m128@@AEBVPsMatTransformV@aos@shdfnd@3@AEBT4@1@Z 000000018010f6e0 f   GuPersistentContactManifold.obj
 0001:0010e840       ?replaceManifoldPoint@PersistentContactManifold@Gu@physx@@QEAA_NAEBT__m128@@000@Z 000000018010f840 f   GuPersistentContactManifold.obj
 0001:0010e900       ?sweepBoxBox@Gu@physx@@YA_NAEBVBox@12@0AEBVPxVec3@2@MV?$PxFlags@W4Enum@PxHitFlag@physx@@G@2@AEAUPxSweepHit@2@@Z 000000018010f900 f   GuSweepBoxBox.obj
 0001:0010fec0       ?sweepBoxSphere@Gu@physx@@YA_NAEBVBox@12@MAEBVPxVec3@2@1MAEAMAEAV42@V?$PxFlags@W4Enum@PxHitFlag@physx@@G@2@@Z 0000000180110ec0 f   GuSweepBoxSphere.obj
 0001:00110b80       ?sweepBoxTriangle@Gu@physx@@YA_NAEBVPxTriangle@2@AEBVPxBounds3@2@AEBVPxVec3@2@2AEAV52@3AEAM_N@Z 0000000180111b80 f   GuSweepBoxTriangle_FeatureBased.obj
 0001:001121e0       ?triBoxSweepTestBoxSpace@Gu@physx@@YAHAEBVPxTriangle@2@AEBVPxVec3@2@11MAEAM_N@Z 00000001801131e0 f   GuSweepBoxTriangle_SAT.obj
 0001:00113b10       ?sweepCapsuleBox@Gu@physx@@YA_NAEBVCapsule@12@AEBVPxTransform@2@AEBVPxVec3@2@2MAEAV52@AEAM3V?$PxFlags@W4Enum@PxHitFlag@physx@@G@2@@Z 0000000180114b10 f   GuSweepCapsuleBox.obj
 0001:00113eb0       ?distancePointSegmentSquared@Gu@physx@@YAMAEBVSegment@12@AEBVPxVec3@2@PEAM@Z 0000000180114eb0 f i GuSweepCapsuleCapsule.obj
 0001:00114230       ?sweepCapsuleCapsule@Gu@physx@@YA_NAEBVCapsule@12@0AEBVPxVec3@2@MAEAMAEAV42@3IAEAG@Z 0000000180115230 f   GuSweepCapsuleCapsule.obj
 0001:00115090       ?sweepCapsuleTriangles_Precise@Gu@physx@@YA_NIPEIBVPxTriangle@2@AEBVCapsule@12@AEBVPxVec3@2@MPEIBIAEAUPxSweepHit@2@AEAV52@V?$PxFlags@W4Enum@PxHitFlag@physx@@G@2@_NPEBVBoxPadded@12@@Z 0000000180116090 f   GuSweepCapsuleTriangle.obj
 0001:00117030       ?sweepSphereCapsule@Gu@physx@@YA_NAEBVSphere@12@AEBVCapsule@12@AEBVPxVec3@2@MAEAMAEAV52@4V?$PxFlags@W4Enum@PxHitFlag@physx@@G@2@@Z 0000000180118030 f   GuSweepSphereCapsule.obj
 0001:001176f0       ?sweepSphereSphere@Gu@physx@@YA_NAEBVPxVec3@2@M0M0AEAMAEAV32@@Z 00000001801186f0 f   GuSweepSphereSphere.obj
 0001:00117940       ?sweepSphereTriangles@Gu@physx@@YA_NIPEIBVPxTriangle@2@AEBVPxVec3@2@M1MPEIBIAEAUPxSweepHit@2@AEAV42@_N555@Z 0000000180118940 f   GuSweepSphereTriangle.obj
 0001:001181d0       ?sweepSphereVSQuad@Gu@physx@@YA_NPEIBVPxVec3@2@AEBV32@1M1AEAM@Z 00000001801191d0 f   GuSweepSphereTriangle.obj
 0001:00119720       ?sweepSphereVSTri@Gu@physx@@YA_NPEIBVPxVec3@2@AEBV32@1M1AEAMAEA_N_N@Z 000000018011a720 f   GuSweepSphereTriangle.obj
 0001:0011a5b0       ??$gjk@U?$LocalConvex@VTriangleV@Gu@physx@@@Gu@physx@@U?$LocalConvex@VBoxV@Gu@physx@@@23@@Gu@physx@@YA?AW4GjkStatus@01@AEBU?$LocalConvex@VTriangleV@Gu@physx@@@01@AEBU?$LocalConvex@VBoxV@Gu@physx@@@01@AEBT__m128@@2AEAT5@333@Z 000000018011b5b0 f i GuSweepTriangleUtils.obj
 0001:0011b210       ?computeBoxTriImpactData@Gu@physx@@YAXAEAVPxVec3@2@0AEBV32@1AEBVPxTriangle@2@M@Z 000000018011c210 f   GuSweepTriangleUtils.obj
 0001:0011b520       ?computeEdgeEdgeNormal@Gu@physx@@YAXAEAVPxVec3@2@AEBV32@1111M@Z 000000018011c520 f   GuSweepTriangleUtils.obj
 0001:0011b7e0       ?computeSphereTriImpactData@Gu@physx@@YAXAEAVPxVec3@2@0AEBV32@1MAEBVPxTriangle@2@@Z 000000018011c7e0 f   GuSweepTriangleUtils.obj
 0001:0011bcbd       __tailMerge_physxfoundation_64_dll 000000018011ccbd     PhysXFoundation_64:PhysXFoundation_64.dll
 0001:0011bd36       __imp_load_PxGetFoundation 000000018011cd36 f   PhysXFoundation_64:PhysXFoundation_64.dll
 0001:0011bd42       __imp_load_?getAllocator@shdfnd@physx@@YAAEAVPxAllocatorCallback@2@XZ 000000018011cd42 f   PhysXFoundation_64:PhysXFoundation_64.dll
 0001:0011bd4e       __imp_load_?getInstance@Foundation@shdfnd@physx@@SAAEAV123@XZ 000000018011cd4e f   PhysXFoundation_64:PhysXFoundation_64.dll
 0001:0011bd5a       __imp_load_?error@Foundation@shdfnd@physx@@QEAAXW4Enum@PxErrorCode@3@PEBDH1ZZ 000000018011cd5a f   PhysXFoundation_64:PhysXFoundation_64.dll
 0001:0011bd66       __imp_load_?vsnprintf@shdfnd@physx@@YAHPEAD_KPEBD0@Z 000000018011cd66 f   PhysXFoundation_64:PhysXFoundation_64.dll
 0001:0011bd72       __imp_load_??0MutexImpl@shdfnd@physx@@QEAA@XZ 000000018011cd72 f   PhysXFoundation_64:PhysXFoundation_64.dll
 0001:0011bd7e       __imp_load_??1MutexImpl@shdfnd@physx@@QEAA@XZ 000000018011cd7e f   PhysXFoundation_64:PhysXFoundation_64.dll
 0001:0011bd8a       __imp_load_?lock@MutexImpl@shdfnd@physx@@QEAAXXZ 000000018011cd8a f   PhysXFoundation_64:PhysXFoundation_64.dll
 0001:0011bd96       __imp_load_?unlock@MutexImpl@shdfnd@physx@@QEAAXXZ 000000018011cd96 f   PhysXFoundation_64:PhysXFoundation_64.dll
 0001:0011bda2       __imp_load_?getSize@MutexImpl@shdfnd@physx@@SAIXZ 000000018011cda2 f   PhysXFoundation_64:PhysXFoundation_64.dll
 0001:0011bdae       __imp_load_?atomicDecrement@shdfnd@physx@@YAHPECH@Z 000000018011cdae f   PhysXFoundation_64:PhysXFoundation_64.dll
 0001:0011bdba       __imp_load_?PxTransformFromSegment@physx@@YA?AVPxTransform@1@AEBVPxVec3@1@0PEAM@Z 000000018011cdba f   PhysXFoundation_64:PhysXFoundation_64.dll
 0001:0011bdc6       __imp_load_?optimizeBoundingBox@shdfnd@physx@@YA?AVPxVec3@2@AEAVPxMat33@2@@Z 000000018011cdc6 f   PhysXFoundation_64:PhysXFoundation_64.dll
 0001:0011bdd2       __imp_load_?allocate@TempAllocator@shdfnd@physx@@QEAAPEAX_KPEBDH@Z 000000018011cdd2 f   PhysXFoundation_64:PhysXFoundation_64.dll
 0001:0011bdde       __imp_load_?deallocate@TempAllocator@shdfnd@physx@@QEAAXPEAX@Z 000000018011cdde f   PhysXFoundation_64:PhysXFoundation_64.dll
 0001:0011bdea       __imp_load_?atomicIncrement@shdfnd@physx@@YAHPECH@Z 000000018011cdea f   PhysXFoundation_64:PhysXFoundation_64.dll
 0001:0011bee4       ?DloadAcquireSectionWriteAccess@@YAXXZ 000000018011cee4 f i Delayimp:delayhlp.obj
 0001:0011bfa0       ?DloadGetSRWLockFunctionPointers@@YAEXZ 000000018011cfa0 f i Delayimp:delayhlp.obj
 0001:0011c040       ?DloadMakePermanentImageCommit@@YAXPEAX_K@Z 000000018011d040 f i Delayimp:delayhlp.obj
 0001:0011c0d8       ?DloadObtainSection@@YAPEAXPEAK0@Z 000000018011d0d8 f i Delayimp:delayhlp.obj
 0001:0011c174       ?DloadProtectSection@@YAXPEAX_KKPEAK@Z 000000018011d174 f i Delayimp:delayhlp.obj
 0001:0011c26c       ?DloadReleaseSectionWriteAccess@@YAXXZ 000000018011d26c f i Delayimp:delayhlp.obj
 0001:0011c318       __delayLoadHelper2         000000018011d318 f   Delayimp:delayhlp.obj
 0001:0011c614       ??3@YAXPEAX_K@Z            000000018011d614 f   LIBCMT:delete_scalar_size.obj
 0001:0011c614       ??_V@YAXPEAX@Z             000000018011d614 f   LIBCMT:delete_array.obj
 0001:0011c61c       ??_Etype_info@@UEAAPEAXI@Z 000000018011d61c f i LIBCMT:std_type_info_static.obj
 0001:0011c61c       ??_Gtype_info@@UEAAPEAXI@Z 000000018011d61c f i LIBCMT:std_type_info_static.obj
 0001:0011c648       ?__scrt_initialize_type_info@@YAXXZ 000000018011d648 f   LIBCMT:tncleanup.obj
 0001:0011c658       ?__scrt_uninitialize_type_info@@YAXXZ 000000018011d658 f   LIBCMT:tncleanup.obj
 0001:0011c680       __chkstk                   000000018011d680 f   LIBCMT:chkstk.obj
 0001:0011c680       _alloca_probe              000000018011d680 f   LIBCMT:chkstk.obj
 0001:0011c6d0       __vdecl_sinf4              000000018011d6d0 f   LIBCMT:svml_ssinf4_dispatch.obj
 0001:0011c6f0       __libm_sse2_sincosf_       000000018011d6f0 f   LIBCMT:svml_ssinf4_dispatch.obj
 0001:0011c733       __libm_sse2_sincosf4_      000000018011d733 f   LIBCMT:svml_ssinf4_dispatch.obj
 0001:0011c740       ??3@YAXPEAX@Z              000000018011d740 f   LIBCMT:delete_scalar.obj
 0001:0011ca58       _DllMainCRTStartup         000000018011da58 f   LIBCMT:dll_dllmain.obj
 0001:0011ca98       __isa_available_init       000000018011da98 f   LIBCMT:cpu_disp.obj
 0001:0011cd70       __sse2_sinf4@@16           000000018011dd70 f   LIBCMT:svml_ssinf4_sse2.obj
 0001:0011d6b0       __sse4_sinf4@@16           000000018011e6b0 f   LIBCMT:svml_ssinf4_sse4.obj
 0001:0011de24       __security_init_cookie     000000018011ee24 f   LIBCMT:gs_support.obj
 0001:0011ded0       __local_stdio_printf_options 000000018011eed0 f i LIBCMT:default_local_stdio_options.obj
 0001:0011ded8       __local_stdio_scanf_options 000000018011eed8 f i LIBCMT:default_local_stdio_options.obj
 0001:0011dee0       __scrt_initialize_default_local_stdio_options 000000018011eee0 f   LIBCMT:default_local_stdio_options.obj
 0001:0011defc       __scrt_acquire_startup_lock 000000018011eefc f   LIBCMT:utility.obj
 0001:0011df38       __scrt_dllmain_after_initialize_c 000000018011ef38 f   LIBCMT:utility.obj
 0001:0011df6c       __scrt_dllmain_before_initialize_c 000000018011ef6c f   LIBCMT:utility.obj
 0001:0011df84       __scrt_dllmain_crt_thread_attach 000000018011ef84 f   LIBCMT:utility.obj
 0001:0011dfac       __scrt_dllmain_crt_thread_detach 000000018011efac f   LIBCMT:utility.obj
 0001:0011dfc4       __scrt_dllmain_exception_filter 000000018011efc4 f   LIBCMT:utility.obj
 0001:0011e024       __scrt_dllmain_uninitialize_c 000000018011f024 f   LIBCMT:utility.obj
 0001:0011e054       __scrt_dllmain_uninitialize_critical 000000018011f054 f   LIBCMT:utility.obj
 0001:0011e068       __scrt_initialize_crt      000000018011f068 f   LIBCMT:utility.obj
 0001:0011e0a4       __scrt_initialize_onexit_tables 000000018011f0a4 f   LIBCMT:utility.obj
 0001:0011e130       __scrt_is_nonwritable_in_current_image 000000018011f130 f   LIBCMT:utility.obj
 0001:0011e1c8       __scrt_release_startup_lock 000000018011f1c8 f   LIBCMT:utility.obj
 0001:0011e1ec       __scrt_uninitialize_crt    000000018011f1ec f   LIBCMT:utility.obj
 0001:0011e218       __scrt_get_dyn_tls_init_callback 000000018011f218 f   LIBCMT:dyn_tls_init.obj
 0001:0011e220       __crt_debugger_hook        000000018011f220 f   LIBCMT:utility_desktop.obj
 0001:0011e228       __scrt_fastfail            000000018011f228 f   LIBCMT:utility_desktop.obj
 0001:0011e370       _RTC_Initialize            000000018011f370 f   LIBCMT:initsect.obj
 0001:0011e3ac       _RTC_Terminate             000000018011f3ac f   LIBCMT:initsect.obj
 0001:0011e3f0       __common_ssin_cout_rare    000000018011f3f0 f   LIBCMT:svml_s_sin_cout.obj
 0001:0011e460       __scrt_is_ucrt_dll_in_use  000000018011f460 f   LIBCMT:ucrt_detection.obj
 0001:0011e46c       _get_purecall_handler      000000018011f46c f   libvcruntime:purevirt.obj
 0001:0011e478       _purecall                  000000018011f478 f   libvcruntime:purevirt.obj
 0001:0011e49c       __std_type_info_compare    000000018011f49c f   libvcruntime:std_type_info.obj
 0001:0011e4c4       __std_type_info_destroy_list 000000018011f4c4 f   libvcruntime:std_type_info.obj
 0001:0011e4f0       __std_type_info_name       000000018011f4f0 f   libvcruntime:std_type_info.obj
 0001:0011e610       strstr                     000000018011f610 f   libvcruntime:strstr.obj
 0001:0011e800       __C_specific_handler       000000018011f800 f   libvcruntime:riscchandler.obj
 0001:0011ea18       __vcrt_initialize          000000018011fa18 f   libvcruntime:initialization.obj
 0001:0011ea40       __vcrt_thread_attach       000000018011fa40 f   libvcruntime:initialization.obj
 0001:0011ea54       __vcrt_thread_detach       000000018011fa54 f   libvcruntime:initialization.obj
 0001:0011ea64       __vcrt_uninitialize        000000018011fa64 f   libvcruntime:initialization.obj
 0001:0011ea80       __vcrt_uninitialize_critical 000000018011fa80 f   libvcruntime:initialization.obj
 0001:0011ea90       __DestructExceptionObject  000000018011fa90 f   libvcruntime:ehhelpers.obj
 0001:0011eb00       ?_CallMemberFunction0@@YAXQEAX0@Z 000000018011fb00 f i libvcruntime:ehhelpers.obj
 0001:0011eb04       _IsExceptionObjectToBeDestroyed 000000018011fb04 f   libvcruntime:ehhelpers.obj
 0001:0011eb34       __AdjustPointer            000000018011fb34 f   libvcruntime:ehhelpers.obj
 0001:0011eb58       __FrameUnwindFilter        000000018011fb58 f   libvcruntime:ehhelpers.obj
 0001:0011ebc0       __std_terminate            000000018011fbc0 f   libvcruntime:ehhelpers.obj
 0001:0011ebcc       ??$?0$00@DName@@QEAA@PEBDU?$StringLifeSelector@$00@@@Z 000000018011fbcc f i libvcruntime:undname.obj
 0001:0011ec0c       ??$?0$01@DName@@QEAA@PEBDU?$StringLifeSelector@$01@@@Z 000000018011fc0c f i libvcruntime:undname.obj
 0001:0011ec0c       ??$?0$0A@@DName@@QEAA@PEBDU?$StringLifeSelector@$0A@@@@Z 000000018011fc0c f i libvcruntime:undname.obj
 0001:0011ec4c       ??$?0$01@pcharNode@@QEAA@PEBDHU?$StringLifeSelector@$01@@@Z 000000018011fc4c f i libvcruntime:undname.obj
 0001:0011ec4c       ??$?0$0A@@pcharNode@@QEAA@PEBDHU?$StringLifeSelector@$0A@@@@Z 000000018011fc4c f i libvcruntime:undname.obj
 0001:0011ecc0       ??$append@VDNameNode@@@DName@@AEAAXPEBVDNameNode@@@Z 000000018011fcc0 f i libvcruntime:undname.obj
 0001:0011ecc0       ??$append@VDNameStatusNode@@@DName@@AEAAXPEBVDNameStatusNode@@@Z 000000018011fcc0 f i libvcruntime:undname.obj
 0001:0011ecc0       ??$append@VcharNode@@@DName@@AEAAXPEBVcharNode@@@Z 000000018011fcc0 f i libvcruntime:undname.obj
 0001:0011ecc0       ??$append@VpcharNode@@@DName@@AEAAXPEBVpcharNode@@@Z 000000018011fcc0 f i libvcruntime:undname.obj
 0001:0011ed24       ??$doPchar@$00@DName@@AEAAXPEBDH@Z 000000018011fd24 f i libvcruntime:undname.obj
 0001:0011edbc       ??$doPchar@$01@DName@@AEAAXPEBDH@Z 000000018011fdbc f i libvcruntime:undname.obj
 0001:0011edbc       ??$doPchar@$0A@@DName@@AEAAXPEBDH@Z 000000018011fdbc f i libvcruntime:undname.obj
 0001:0011ee54       ??0DName@@QEAA@AEAPEBDD@Z  000000018011fe54 f   libvcruntime:undname.obj
 0001:0011ef08       ??0DName@@QEAA@AEBUStringLiteral@@@Z 000000018011ff08 f   libvcruntime:undname.obj
 0001:0011ef34       ??0DName@@QEAA@PEAV0@@Z    000000018011ff34 f   libvcruntime:undname.obj
 0001:0011efb8       ??0DName@@QEAA@_J@Z        000000018011ffb8 f   libvcruntime:undname.obj
 0001:0011f05c       ??0DName@@QEAA@_K@Z        000000018012005c f   libvcruntime:undname.obj
 0001:0011f0e4       ??0UnDecorator@@QEAA@PEBDP6APEADJ@ZK@Z 00000001801200e4 f i libvcruntime:undname.obj
 0001:0011f198       ??2@YAPEAX_KAEAV_HeapManager@@H@Z 0000000180120198 f   libvcruntime:undname.obj
 0001:0011f1c4       ??AReplicator@@QEBA?AVDName@@H@Z 00000001801201c4 f   libvcruntime:undname.obj
 0001:0011f204       ??HDName@@QEBA?AV0@AEBUStringLiteral@@@Z 0000000180120204 f   libvcruntime:undname.obj
 0001:0011f230       ??HDName@@QEBA?AV0@AEBV0@@Z 0000000180120230 f   libvcruntime:undname.obj
 0001:0011f25c       ??HDName@@QEBA?AV0@D@Z     000000018012025c f   libvcruntime:undname.obj
 0001:0011f288       ??HDName@@QEBA?AV0@W4DNameStatus@@@Z 0000000180120288 f   libvcruntime:undname.obj
 0001:0011f2b4       ??YDName@@QEAAAEAV0@AEBUStringLiteral@@@Z 00000001801202b4 f   libvcruntime:undname.obj
 0001:0011f334       ??YDName@@QEAAAEAV0@AEBV0@@Z 0000000180120334 f   libvcruntime:undname.obj
 0001:0011f3e8       ??YDName@@QEAAAEAV0@D@Z    00000001801203e8 f   libvcruntime:undname.obj
 0001:0011f454       ??YDName@@QEAAAEAV0@W4DNameStatus@@@Z 0000000180120454 f   libvcruntime:undname.obj
 0001:0011f4c0       ??YReplicator@@QEAAAEAV0@AEBVDName@@@Z 00000001801204c0 f   libvcruntime:undname.obj
 0001:0011f518       ?UScore@UnDecorator@@SA?AUStringLiteral@@W4Tokens@@@Z 0000000180120518 f   libvcruntime:undname.obj
 0001:0011f564       ?composeDeclaration@UnDecorator@@CA?AVDName@@AEBV2@@Z 0000000180120564 f i libvcruntime:undname.obj
 0001:00120520       ?doPchar@DName@@AEAAXD@Z   0000000180121520 f   libvcruntime:undname.obj
 0001:00120570       ?getAddressOf@UnDecorator@@CA?AVDName@@XZ 0000000180121570 f   libvcruntime:undname.obj
 0001:00120600       ?getArgumentList@UnDecorator@@CA?AVDName@@XZ 0000000180121600 f   libvcruntime:undname.obj
 0001:00120794       ?getArgumentTypes@UnDecorator@@CA?AVDName@@XZ 0000000180121794 f   libvcruntime:undname.obj
 0001:001208e0       ?getArrayAccess@UnDecorator@@CA?AVDName@@XZ 00000001801218e0 f   libvcruntime:undname.obj
 0001:0012097c       ?getArrayObject@UnDecorator@@CA?AVDName@@XZ 000000018012197c f   libvcruntime:undname.obj
 0001:00120a4c       ?getArrayType@UnDecorator@@CA?AVDName@@AEBV2@@Z 0000000180121a4c f i libvcruntime:undname.obj
 0001:00120ca8       ?getBasedType@UnDecorator@@CA?AVDName@@XZ 0000000180121ca8 f   libvcruntime:undname.obj
 0001:00120da0       ?getBasicDataType@UnDecorator@@CA?AVDName@@AEBV2@@Z 0000000180121da0 f   libvcruntime:undname.obj
 0001:001213a4       ?getCallingConvention@UnDecorator@@CA?AVDName@@XZ 00000001801223a4 f   libvcruntime:undname.obj
 0001:001214c4       ?getDataIndirectType@UnDecorator@@CA?AVDName@@AEBV2@W4IndirectionKind@@0H@Z 00000001801224c4 f   libvcruntime:undname.obj
 0001:00121f78       ?getDataType@UnDecorator@@CA?AVDName@@PEAV2@@Z 0000000180122f78 f   libvcruntime:undname.obj
 0001:0012208c       ?getDecoratedName@UnDecorator@@CA?AVDName@@XZ 000000018012308c f   libvcruntime:undname.obj
 0001:00122374       ?getDimension@UnDecorator@@CA?AVDName@@_N@Z 0000000180123374 f   libvcruntime:undname.obj
 0001:001224bc       ?getDispatchTarget@UnDecorator@@CA?AVDName@@XZ 00000001801234bc f   libvcruntime:undname.obj
 0001:0012251c       ?getECSUDataType@UnDecorator@@CA?AVDName@@XZ 000000018012351c f   libvcruntime:undname.obj
 0001:00122718       ?getEnumType@UnDecorator@@CA?AVDName@@XZ 0000000180123718 f i libvcruntime:undname.obj
 0001:00122840       ?getExtendedDataIndirectType@UnDecorator@@CA?AVDName@@AEAW4IndirectionKind@@AEA_NH@Z 0000000180123840 f   libvcruntime:undname.obj
 0001:00122ab0       ?getExternalDataType@UnDecorator@@CA?AVDName@@AEBV2@@Z 0000000180123ab0 f i libvcruntime:undname.obj
 0001:00122b70       ?getFloatingPoint@UnDecorator@@CA?AVDName@@H@Z 0000000180123b70 f   libvcruntime:undname.obj
 0001:00122cd8       ?getFunctionIndirectType@UnDecorator@@CA?AVDName@@AEBV2@@Z 0000000180123cd8 f   libvcruntime:undname.obj
 0001:0012320c       ?getLastChar@DNameStatusNode@@UEBADXZ 000000018012420c f i libvcruntime:undname.obj
 0001:00123218       ?getLastChar@charNode@@UEBADXZ 0000000180124218 f i libvcruntime:undname.obj
 0001:0012321c       ?getLastChar@pDNameNode@@UEBADXZ 000000018012421c f i libvcruntime:undname.obj
 0001:00123248       ?getLastChar@pairNode@@UEBADXZ 0000000180124248 f i libvcruntime:undname.obj
 0001:00123280       ?getLastChar@pcharNode@@UEBADXZ 0000000180124280 f i libvcruntime:undname.obj
 0001:00123294       ?getLexicalFrame@UnDecorator@@CA?AVDName@@XZ 0000000180124294 f i libvcruntime:undname.obj
 0001:001232f8       ?getMemberAccess@UnDecorator@@CA?AVDName@@XZ 00000001801242f8 f   libvcruntime:undname.obj
 0001:0012338c       ?getMemoryWithBuffer@_HeapManager@@QEAAPEAX_K@Z 000000018012438c f   libvcruntime:undname.obj
 0001:0012341c       ?getNoexcept@UnDecorator@@CA?AVDName@@XZ 000000018012441c f   libvcruntime:undname.obj
 0001:00123480       ?getNumberOfDimensions@UnDecorator@@CAHXZ 0000000180124480 f   libvcruntime:undname.obj
 0001:001234dc       ?getOperatorName@UnDecorator@@CA?AVDName@@_NPEA_N@Z 00000001801244dc f i libvcruntime:undname.obj
 0001:00123e78       ?getPointerToMember@UnDecorator@@CA?AVDName@@XZ 0000000180124e78 f   libvcruntime:undname.obj
 0001:00123f70       ?getPrimaryDataType@UnDecorator@@CA?AVDName@@AEBV2@@Z 0000000180124f70 f   libvcruntime:undname.obj
 0001:00124228       ?getPtrRefDataType@UnDecorator@@CA?AVDName@@AEBV2@H@Z 0000000180125228 f   libvcruntime:undname.obj
 0001:001243f4       ?getPtrRefType@UnDecorator@@CA?AVDName@@AEBV2@0W4IndirectionKind@@@Z 00000001801253f4 f   libvcruntime:undname.obj
 0001:001245dc       ?getRestrictionSpec@UnDecorator@@CA?AVDName@@XZ 00000001801255dc f   libvcruntime:undname.obj
 0001:001247b8       ?getReturnType@UnDecorator@@CA?AVDName@@PEAV2@@Z 00000001801257b8 f   libvcruntime:undname.obj
 0001:001247ec       ?getScope@UnDecorator@@CA?AVDName@@XZ 00000001801257ec f   libvcruntime:undname.obj
 0001:00124ca4       ?getScopedName@UnDecorator@@CA?AVDName@@XZ 0000000180125ca4 f   libvcruntime:undname.obj
 0001:00124de4       ?getSignedDimension@UnDecorator@@CA?AVDName@@XZ 0000000180125de4 f   libvcruntime:undname.obj
 0001:00124e6c       ?getString@DNameStatusNode@@UEBAPEADPEAD0@Z 0000000180125e6c f i libvcruntime:undname.obj
 0001:00124eb4       ?getString@charNode@@UEBAPEADPEAD0@Z 0000000180125eb4 f i libvcruntime:undname.obj
 0001:00124ec8       ?getString@pDNameNode@@UEBAPEADPEAD0@Z 0000000180125ec8 f i libvcruntime:undname.obj
 0001:00124ef8       ?getString@pairNode@@UEBAPEADPEAD0@Z 0000000180125ef8 f i libvcruntime:undname.obj
 0001:00124f44       ?getString@pcharNode@@UEBAPEADPEAD0@Z 0000000180125f44 f i libvcruntime:undname.obj
 0001:00124f7c       ?getStringEncoding@UnDecorator@@CA?AVDName@@W4PrefixKind@@H@Z 0000000180125f7c f   libvcruntime:undname.obj
 0001:0012508c       ?getStringObject@UnDecorator@@CA?AVDName@@XZ 000000018012608c f   libvcruntime:undname.obj
 0001:0012511c       ?getSymbolName@UnDecorator@@CA?AVDName@@XZ 000000018012611c f i libvcruntime:undname.obj
 0001:00125168       ?getTemplateArgumentList@UnDecorator@@CA?AVDName@@XZ 0000000180126168 f   libvcruntime:undname.obj
 0001:00125388       ?getTemplateName@UnDecorator@@CA?AVDName@@_N@Z 0000000180126388 f   libvcruntime:undname.obj
 0001:00125638       ?getTemplateNonTypeArgument@UnDecorator@@CA?AVDName@@XZ 0000000180126638 f   libvcruntime:undname.obj
 0001:00125b88       ?getTemplateTypeArgument@UnDecorator@@CA?AVDName@@XZ 0000000180126b88 f   libvcruntime:undname.obj
 0001:00125cf0       ?getThrowTypes@UnDecorator@@CA?AVDName@@XZ 0000000180126cf0 f   libvcruntime:undname.obj
 0001:00125d14       ?getTypeEncoding@UnDecorator@@CAHXZ 0000000180126d14 f i libvcruntime:undname.obj
 0001:001260cc       ?getUndecoratedName@UnDecorator@@QEAAPEADPEADH@Z 00000001801270cc f i libvcruntime:undname.obj
 0001:0012622c       ?getUnionObject@UnDecorator@@CA?AVDName@@XZ 000000018012722c f   libvcruntime:undname.obj
 0001:00126304       ?getVCallThunkType@UnDecorator@@CA?AVDName@@XZ 0000000180127304 f i libvcruntime:undname.obj
 0001:0012637c       ?getValue@UnDecorator@@CA?AV?$optional@_K@std@@XZ 000000018012737c f   libvcruntime:undname.obj
 0001:001263c0       ?getValueObject@UnDecorator@@CA?AVDName@@XZ 00000001801273c0 f   libvcruntime:undname.obj
 0001:00126544       ?getVdispMapType@UnDecorator@@CA?AVDName@@AEBV2@@Z 0000000180127544 f i libvcruntime:undname.obj
 0001:001265c0       ?getVfTableType@UnDecorator@@CA?AVDName@@AEBV2@@Z 00000001801275c0 f i libvcruntime:undname.obj
 0001:001267cc       ?getZName@UnDecorator@@CA?AVDName@@_N0@Z 00000001801277cc f   libvcruntime:undname.obj
 0001:00126aa4       ?length@DNameStatusNode@@UEBAHXZ 0000000180127aa4 f i libvcruntime:undname.obj
 0001:00126aa4       ?raw_length@DNameStatusNode@@UEBAHXZ 0000000180127aa4 f i libvcruntime:undname.obj
 0001:00126aa8       ?length@pDNameNode@@UEBAHXZ 0000000180127aa8 f i libvcruntime:undname.obj
 0001:00126ad0       ?length@pairNode@@UEBAHXZ  0000000180127ad0 f i libvcruntime:undname.obj
 0001:00126b18       ?make@DNameStatusNode@@SAPEBV1@W4DNameStatus@@@Z 0000000180127b18 f i libvcruntime:undname.obj
 0001:00126b38       ?parseDecoratedName@UnDecorator@@CA?AVDName@@XZ 0000000180127b38 f   libvcruntime:undname.obj
 0001:00126c50       ?raw_length@pDNameNode@@UEBAHXZ 0000000180127c50 f i libvcruntime:undname.obj
 0001:00126c54       __unDName                  0000000180127c54 f   libvcruntime:undname.obj
 0001:00126c7c       __unDNameEx                0000000180127c7c f   libvcruntime:undname.obj
 0001:00126d6c       snprintf                   0000000180127d6c f i libvcruntime:undname.obj
 0001:00126dc4       sprintf_s                  0000000180127dc4 f i libvcruntime:undname.obj
 0001:00126e50       _NLG_Notify                0000000180127e50 f   libvcruntime:notify.obj
 0001:00126e70       __NLG_Dispatch2            0000000180127e70 f   libvcruntime:notify.obj
 0001:00126e80       __NLG_Return2              0000000180127e80 f   libvcruntime:notify.obj
 0001:00126e84       __except_validate_context_record 0000000180127e84 f   libvcruntime:jbcxrval.obj
 0001:00126ebc       __vcrt_freefls             0000000180127ebc f   libvcruntime:per_thread_data.obj
 0001:00126edc       __vcrt_freeptd_for_this_thread 0000000180127edc f   libvcruntime:per_thread_data.obj
 0001:00126f24       __vcrt_getptd              0000000180127f24 f   libvcruntime:per_thread_data.obj
 0001:00126f40       __vcrt_getptd_noexit       0000000180127f40 f   libvcruntime:per_thread_data.obj
 0001:00127000       __vcrt_initialize_ptd      0000000180128000 f   libvcruntime:per_thread_data.obj
 0001:00127048       __vcrt_uninitialize_ptd    0000000180128048 f   libvcruntime:per_thread_data.obj
 0001:0012706c       __vcrt_initialize_locks    000000018012806c f   libvcruntime:locks.obj
 0001:001270b4       __vcrt_lock                00000001801280b4 f   libvcruntime:locks.obj
 0001:001270d0       __vcrt_uninitialize_locks  00000001801280d0 f   libvcruntime:locks.obj
 0001:00127108       __vcrt_unlock              0000000180128108 f   libvcruntime:locks.obj
 0001:00127124       ??$_CallSETranslator@V__FrameHandler3@@@@YAHPEAUEHExceptionRecord@@PEA_KPEAU_CONTEXT@@PEAU_xDISPATCHER_CONTEXT@@PEBU_s_FuncInfo@@K1H@Z 0000000180128124 f i libvcruntime:risctrnsctrl.obj
 0001:00127178       ??$_CallSETranslator@V__FrameHandler4@@@@YAHPEAUEHExceptionRecord@@PEA_KPEAU_CONTEXT@@PEAU_xDISPATCHER_CONTEXT@@PEAUFuncInfo4@FH4@@K1H@Z 0000000180128178 f i libvcruntime:risctrnsctrl.obj
 0001:001271cc       ?CatchTryBlock@__FrameHandler3@@SAPEBU_s_TryBlockMapEntry@@PEBU_s_FuncInfo@@H@Z 00000001801281cc f   libvcruntime:risctrnsctrl.obj
 0001:00127230       ?DecompFuncInfo@FH4@@YA_JPEAEAEAUFuncInfo4@1@_KH_N@Z 0000000180128230 f i libvcruntime:risctrnsctrl.obj
 0001:00127368       ?ExecutionInCatch@__FrameHandler3@@SA_NPEAU_xDISPATCHER_CONTEXT@@PEBU_s_FuncInfo@@@Z 0000000180128368 f   libvcruntime:risctrnsctrl.obj
 0001:00127394       ?ExecutionInCatch@__FrameHandler4@@SA_NPEAU_xDISPATCHER_CONTEXT@@PEAUFuncInfo4@FH4@@@Z 0000000180128394 f   libvcruntime:risctrnsctrl.obj
 0001:0012739c       ?FrameUnwindToEmptyState@__FrameHandler3@@SAXPEA_KPEAU_xDISPATCHER_CONTEXT@@PEBU_s_FuncInfo@@@Z 000000018012839c f   libvcruntime:risctrnsctrl.obj
 0001:00127400       ?FrameUnwindToEmptyState@__FrameHandler4@@SAXPEA_KPEAU_xDISPATCHER_CONTEXT@@PEAUFuncInfo4@FH4@@@Z 0000000180128400 f   libvcruntime:risctrnsctrl.obj
 0001:00127434       ?GetEstablisherFrame@__FrameHandler3@@SAPEA_KPEA_KPEAU_xDISPATCHER_CONTEXT@@PEBU_s_FuncInfo@@0@Z 0000000180128434 f   libvcruntime:risctrnsctrl.obj
 0001:00127504       ?GetEstablisherFrame@__FrameHandler4@@SAPEA_KPEA_KPEAU_xDISPATCHER_CONTEXT@@PEAUFuncInfo4@FH4@@0@Z 0000000180128504 f   libvcruntime:risctrnsctrl.obj
 0001:00127528       ?GetRangeOfTrysToCheck@__FrameHandler3@@SA?AU?$pair@Viterator@TryBlockMap@__FrameHandler3@@V123@@std@@AEAVTryBlockMap@1@HPEAU_xDISPATCHER_CONTEXT@@PEBU_s_FuncInfo@@H@Z 0000000180128528 f   libvcruntime:risctrnsctrl.obj
 0001:0012765c       ?GetRangeOfTrysToCheck@__FrameHandler4@@SA?AU?$pair@Viterator@TryBlockMap4@FH4@@V123@@std@@AEAVTryBlockMap4@FH4@@HPEAU_xDISPATCHER_CONTEXT@@PEAUFuncInfo4@5@H@Z 000000018012865c f   libvcruntime:risctrnsctrl.obj
 0001:001277c8       ?UnwindNestedFrames@__FrameHandler3@@SAXPEA_KPEAUEHExceptionRecord@@PEAU_CONTEXT@@0PEAXPEBU_s_FuncInfo@@HHPEBU_s_HandlerType@@PEAU_xDISPATCHER_CONTEXT@@E@Z 00000001801287c8 f   libvcruntime:risctrnsctrl.obj
 0001:001278cc       ?UnwindNestedFrames@__FrameHandler4@@SAXPEA_KPEAUEHExceptionRecord@@PEAU_CONTEXT@@0PEAXPEAUFuncInfo4@FH4@@HHPEAUHandlerType4@5@PEAU_xDISPATCHER_CONTEXT@@E@Z 00000001801288cc f   libvcruntime:risctrnsctrl.obj
 0001:001279ec       ?setBuffer@TryBlockMap4@FH4@@QEAAXViterator@12@@Z 00000001801289ec f i libvcruntime:risctrnsctrl.obj
 0001:00127bb0       _CreateFrameInfo           0000000180128bb0 f   libvcruntime:risctrnsctrl.obj
 0001:00127bec       _FindAndUnlinkFrame        0000000180128bec f   libvcruntime:risctrnsctrl.obj
 0001:00127c40       _GetImageBase              0000000180128c40 f   libvcruntime:risctrnsctrl.obj
 0001:00127c54       _GetThrowImageBase         0000000180128c54 f   libvcruntime:risctrnsctrl.obj
 0001:00127c68       _SetImageBase              0000000180128c68 f   libvcruntime:risctrnsctrl.obj
 0001:00127c80       _SetThrowImageBase         0000000180128c80 f   libvcruntime:risctrnsctrl.obj
 0001:00127c98       __CxxFrameHandler3         0000000180128c98 f   libvcruntime:risctrnsctrl.obj
 0001:00127d20       __CxxFrameHandler4         0000000180128d20 f   libvcruntime:risctrnsctrl.obj
 0001:00127f30       __vcrt_FlsAlloc            0000000180128f30 f   libvcruntime:winapi_downlevel.obj
 0001:00127f78       __vcrt_FlsFree             0000000180128f78 f   libvcruntime:winapi_downlevel.obj
 0001:00127fc0       __vcrt_FlsGetValue         0000000180128fc0 f   libvcruntime:winapi_downlevel.obj
 0001:00128008       __vcrt_FlsSetValue         0000000180129008 f   libvcruntime:winapi_downlevel.obj
 0001:0012805c       __vcrt_InitializeCriticalSectionEx 000000018012905c f   libvcruntime:winapi_downlevel.obj
 0001:001280c0       ?GetCurrentState@__FrameHandler3@@SAHPEA_KPEAU_xDISPATCHER_CONTEXT@@PEBU_s_FuncInfo@@@Z 00000001801290c0 f   libvcruntime:ehstate.obj
 0001:001280e8       ?GetUnwindTryBlock@__FrameHandler3@@SAHPEA_KPEAU_xDISPATCHER_CONTEXT@@PEBU_s_FuncInfo@@@Z 00000001801290e8 f   libvcruntime:ehstate.obj
 0001:00128114       ?SetState@__FrameHandler3@@SAXPEA_KPEBU_s_FuncInfo@@H@Z 0000000180129114 f   libvcruntime:ehstate.obj
 0001:00128120       ?SetUnwindTryBlock@__FrameHandler3@@SAXPEA_KPEAU_xDISPATCHER_CONTEXT@@PEBU_s_FuncInfo@@H@Z 0000000180129120 f   libvcruntime:ehstate.obj
 0001:0012815c       ?StateFromControlPc@__FrameHandler3@@SAHPEBU_s_FuncInfo@@PEAU_xDISPATCHER_CONTEXT@@@Z 000000018012915c f   libvcruntime:ehstate.obj
 0001:00128164       ?StateFromControlPc@__FrameHandler4@@SAHPEAUFuncInfo4@FH4@@PEAU_xDISPATCHER_CONTEXT@@@Z 0000000180129164 f   libvcruntime:ehstate.obj
 0001:0012816c       ?StateFromIp@__FrameHandler3@@SAHPEBU_s_FuncInfo@@PEAU_xDISPATCHER_CONTEXT@@_K@Z 000000018012916c f   libvcruntime:ehstate.obj
 0001:001281d4       ?StateFromIp@__FrameHandler4@@SAHPEAUFuncInfo4@FH4@@PEAU_xDISPATCHER_CONTEXT@@_K@Z 00000001801291d4 f   libvcruntime:ehstate.obj
 0001:0012992c       ??$TypeMatchHelper@V__FrameHandler3@@@@YAHPEBU_s_HandlerType@@PEBU_s_CatchableType@@PEBU_s_ThrowInfo@@@Z 000000018012a92c f i libvcruntime:frame.obj
 0001:00129a6c       ??$TypeMatchHelper@V__FrameHandler4@@@@YAHPEAUHandlerType4@FH4@@PEBU_s_CatchableType@@PEBU_s_ThrowInfo@@@Z 000000018012aa6c f i libvcruntime:frame.obj
 0001:00129bb8       ??$__InternalCxxFrameHandler@V__FrameHandler3@@@@YA?AW4_EXCEPTION_DISPOSITION@@PEAUEHExceptionRecord@@PEA_KPEAU_CONTEXT@@PEAU_xDISPATCHER_CONTEXT@@PEBU_s_FuncInfo@@H1E@Z 000000018012abb8 f i libvcruntime:frame.obj
 0001:00129df0       ??$__InternalCxxFrameHandler@V__FrameHandler4@@@@YA?AW4_EXCEPTION_DISPOSITION@@PEAUEHExceptionRecord@@PEA_KPEAU_CONTEXT@@PEAU_xDISPATCHER_CONTEXT@@PEAUFuncInfo4@FH4@@H1E@Z 000000018012adf0 f i libvcruntime:frame.obj
 0001:0012a084       ??$__InternalCxxFrameHandlerWrapper@V__FrameHandler3@@@@YA?AW4_EXCEPTION_DISPOSITION@@PEAUEHExceptionRecord@@PEA_KPEAU_CONTEXT@@PEAU_xDISPATCHER_CONTEXT@@PEBU_s_FuncInfo@@H1E@Z 000000018012b084 f i libvcruntime:frame.obj
 0001:0012a08c       ??$__InternalCxxFrameHandlerWrapper@V__FrameHandler4@@@@YA?AW4_EXCEPTION_DISPOSITION@@PEAUEHExceptionRecord@@PEA_KPEAU_CONTEXT@@PEAU_xDISPATCHER_CONTEXT@@PEAUFuncInfo4@FH4@@H1E@Z 000000018012b08c f i libvcruntime:frame.obj
 0001:0012a0d8       ??0HandlerMap4@FH4@@QEAA@PEBUTryBlockMapEntry4@1@_KH@Z 000000018012b0d8 f i libvcruntime:frame.obj
 0001:0012a15c       ??0TryBlockMap4@FH4@@QEAA@PEBUFuncInfo4@1@_K@Z 000000018012b15c f i libvcruntime:frame.obj
 0001:0012a240       ??0bad_exception@std@@QEAA@AEBV01@@Z 000000018012b240 f i libvcruntime:frame.obj
 0001:0012a27c       ??0bad_exception@std@@QEAA@XZ 000000018012b27c f i libvcruntime:frame.obj
 0001:0012a29c       ??0exception@std@@QEAA@AEBV01@@Z 000000018012b29c f i libvcruntime:frame.obj
 0001:0012a2d0       ??1bad_exception@std@@UEAA@XZ 000000018012b2d0 f i libvcruntime:frame.obj
 0001:0012a2e4       ??_Ebad_exception@std@@UEAAPEAXI@Z 000000018012b2e4 f i libvcruntime:frame.obj
 0001:0012a2e4       ??_Eexception@std@@UEAAPEAXI@Z 000000018012b2e4 f i libvcruntime:frame.obj
 0001:0012a2e4       ??_Gbad_exception@std@@UEAAPEAXI@Z 000000018012b2e4 f i libvcruntime:frame.obj
 0001:0012a2e4       ??_Gexception@std@@UEAAPEAXI@Z 000000018012b2e4 f i libvcruntime:frame.obj
 0001:0012a328       ?CxxCallCatchBlock@__FrameHandler3@@SAPEAXPEAU_EXCEPTION_RECORD@@@Z 000000018012b328 f   libvcruntime:frame.obj
 0001:0012a514       ?CxxCallCatchBlock@__FrameHandler4@@SAPEAXPEAU_EXCEPTION_RECORD@@@Z 000000018012b514 f   libvcruntime:frame.obj
 0001:0012a764       ?DecompHandler@HandlerMap4@FH4@@AEAAXXZ 000000018012b764 f i libvcruntime:frame.obj
 0001:0012a9ac       ?FrameUnwindToState@__FrameHandler3@@SAXPEA_KPEAU_xDISPATCHER_CONTEXT@@PEBU_s_FuncInfo@@H@Z 000000018012b9ac f   libvcruntime:frame.obj
 0001:0012ab38       ?FrameUnwindToState@__FrameHandler4@@SAXPEA_KPEAU_xDISPATCHER_CONTEXT@@PEAUFuncInfo4@FH4@@H@Z 000000018012bb38 f   libvcruntime:frame.obj
 0001:0012ae40       ?GetHandlerSearchState@__FrameHandler3@@SAHPEA_KPEAU_xDISPATCHER_CONTEXT@@PEBU_s_FuncInfo@@@Z 000000018012be40 f i libvcruntime:frame.obj
 0001:0012b050       ?ReadEntry@UWMap4@FH4@@AEAAXPEAPEAE@Z 000000018012c050 f i libvcruntime:frame.obj
 0001:0012b0ec       ?_CallMemberFunction1@@YAXQEAX00@Z 000000018012c0ec f i libvcruntime:frame.obj
 0001:0012b0f8       ?_CallMemberFunction2@@YAXQEAX00H@Z 000000018012c0f8 f i libvcruntime:frame.obj
 0001:0012b108       ?getStartStop@UWMap4@FH4@@QEAAXHHAEAViterator@12@0@Z 000000018012c108 f i libvcruntime:frame.obj
 0001:0012b1d8       ?getStateFromIterators@UWMap4@FH4@@SAHAEBViterator@12@H0H0@Z 000000018012c1d8 f i libvcruntime:frame.obj
 0001:0012b288       ?what@exception@std@@UEBAPEBDXZ 000000018012c288 f i libvcruntime:frame.obj
 0001:0012b2e0       _CallSettingFrame          000000018012c2e0 f   libvcruntime:handlers.obj
 0001:0012b320       _CallSettingFrame_LookupContinuationIndex 000000018012c320 f   libvcruntime:handlers.obj
 0001:0012b350       _CallSettingFrame_NotifyContinuationAddr 000000018012c350 f   libvcruntime:handlers.obj
 0001:0012b380       _CallSettingFrameEncoded   000000018012c380 f   libvcruntime:handlers.obj
 0001:0012b3c8       __std_exception_copy       000000018012c3c8 f   libvcruntime:std_exception.obj
 0001:0012b458       __std_exception_destroy    000000018012c458 f   libvcruntime:std_exception.obj
 0001:0012b480       _CxxThrowException         000000018012c480 f   libvcruntime:throw.obj
 0001:0012b530       cosf                       000000018012c530 f   libucrt:cosf.obj
 0001:0012ba30       sinf                       000000018012ca30 f   libucrt:sinf.obj
 0001:0012c130       tanf                       000000018012d130 f   libucrt:tanf.obj
 0001:0012c7c0       strcmp                     000000018012d7c0 f   libucrt:strcmp.obj
 0001:0012c828       _fpclass                   000000018012d828 f   libucrt:ieeemisc.obj
 0001:0012c8b0       acosf                      000000018012d8b0 f   libucrt:acosf.obj
 0001:0012cadc       free                       000000018012dadc f   libucrt:free.obj
 0001:0012caf0       _initterm                  000000018012daf0 f   libucrt:initterm.obj
 0001:0012cb34       _initterm_e                000000018012db34 f   libucrt:initterm.obj
 0001:0012cb7c       _seh_filter_dll            000000018012db7c f   libucrt:exception_filter.obj
 0001:0012cb90       _seh_filter_exe            000000018012db90 f   libucrt:exception_filter.obj
 0001:0012cfa8       __acrt_initialize_thread_local_exit_callback 000000018012dfa8 f   libucrt:exit.obj
 0001:0012cfb0       _cexit                     000000018012dfb0 f   libucrt:exit.obj
 0001:0012cfc0       _exit                      000000018012dfc0 f   libucrt:exit.obj
 0001:0012cfcc       _is_c_termination_complete 000000018012dfcc f   libucrt:exit.obj
 0001:0012d19c       __acrt_allocate_buffer_for_argv 000000018012e19c f   libucrt:argv_parsing.obj
 0001:0012d1fc       _configure_narrow_argv     000000018012e1fc f   libucrt:argv_parsing.obj
 0001:0012d584       __dcrt_uninitialize_environments_nolock 000000018012e584 f   libucrt:environment_initialization.obj
 0001:0012d5c8       _initialize_narrow_environment 000000018012e5c8 f   libucrt:environment_initialization.obj
 0001:0012d72c       _execute_onexit_table      000000018012e72c f   libucrt:onexit.obj
 0001:0012d770       _initialize_onexit_table   000000018012e770 f   libucrt:onexit.obj
 0001:0012d7d0       __acrt_uninitialize_command_line 000000018012e7d0 f   libucrt:argv_data.obj
 0001:0012d8c8       __acrt_initialize          000000018012e8c8 f   libucrt:initialization.obj
 0001:0012d8dc       __acrt_thread_attach       000000018012e8dc f   libucrt:initialization.obj
 0001:0012d8f0       __acrt_thread_detach       000000018012e8f0 f   libucrt:initialization.obj
 0001:0012d900       __acrt_uninitialize        000000018012e900 f   libucrt:initialization.obj
 0001:0012d938       __acrt_uninitialize_critical 000000018012e938 f   libucrt:initialization.obj
 0001:0012d948       terminate                  000000018012e948 f   libucrt:terminate.obj
 0001:0012d974       abort                      000000018012e974 f   libucrt:abort.obj
 0001:0012d9cc       malloc                     000000018012e9cc f   libucrt:malloc.obj
 0001:0012d9d4       strcpy_s                   000000018012e9d4 f   libucrt:strcpy_s.obj
 0001:0012dbe4       ??$ensure_buffer_is_big_enough@D@formatting_buffer@__crt_stdio_output@@QEAA_N_KAEAV__crt_cached_ptd_host@@@Z 000000018012ebe4 f i libucrt:output.obj
 0001:0012dc8c       ??$parse_integer@KV?$c_string_character_source@D@__crt_strtox@@$0A@@__crt_strtox@@YAKAEAV__crt_cached_ptd_host@@V?$c_string_character_source@D@0@H_N@Z 000000018012ec8c f i libucrt:output.obj
 0001:0012df40       ??$type_case_integer@$07@?$output_processor@DV?$string_output_adapter@D@__crt_stdio_output@@V?$format_validation_base@DV?$string_output_adapter@D@__crt_stdio_output@@@2@@__crt_stdio_output@@AEAA_N_N@Z 000000018012ef40 f i libucrt:output.obj
 0001:0012df40       ??$type_case_integer@$07@?$output_processor@DV?$string_output_adapter@D@__crt_stdio_output@@V?$standard_base@DV?$string_output_adapter@D@__crt_stdio_output@@@2@@__crt_stdio_output@@AEAA_N_N@Z 000000018012ef40 f i libucrt:output.obj
 0001:0012e144       ??$type_case_integer@$09@?$output_processor@DV?$string_output_adapter@D@__crt_stdio_output@@V?$format_validation_base@DV?$string_output_adapter@D@__crt_stdio_output@@@2@@__crt_stdio_output@@AEAA_N_N@Z 000000018012f144 f i libucrt:output.obj
 0001:0012e144       ??$type_case_integer@$09@?$output_processor@DV?$string_output_adapter@D@__crt_stdio_output@@V?$standard_base@DV?$string_output_adapter@D@__crt_stdio_output@@@2@@__crt_stdio_output@@AEAA_N_N@Z 000000018012f144 f i libucrt:output.obj
 0001:0012e348       ??$type_case_integer@$0BA@@?$output_processor@DV?$string_output_adapter@D@__crt_stdio_output@@V?$format_validation_base@DV?$string_output_adapter@D@__crt_stdio_output@@@2@@__crt_stdio_output@@AEAA_N_N@Z 000000018012f348 f i libucrt:output.obj
 0001:0012e348       ??$type_case_integer@$0BA@@?$output_processor@DV?$string_output_adapter@D@__crt_stdio_output@@V?$standard_base@DV?$string_output_adapter@D@__crt_stdio_output@@@2@@__crt_stdio_output@@AEAA_N_N@Z 000000018012f348 f i libucrt:output.obj
 0001:0012e54c       ??$type_case_integer_parse_into_buffer@I$07@?$output_processor@DV?$string_output_adapter@D@__crt_stdio_output@@V?$format_validation_base@DV?$string_output_adapter@D@__crt_stdio_output@@@2@@__crt_stdio_output@@AEAAXI_N@Z 000000018012f54c f i libucrt:output.obj
 0001:0012e54c       ??$type_case_integer_parse_into_buffer@I$07@?$output_processor@DV?$string_output_adapter@D@__crt_stdio_output@@V?$standard_base@DV?$string_output_adapter@D@__crt_stdio_output@@@2@@__crt_stdio_output@@AEAAXI_N@Z 000000018012f54c f i libucrt:output.obj
 0001:0012e5bc       ??$type_case_integer_parse_into_buffer@I$09@?$output_processor@DV?$string_output_adapter@D@__crt_stdio_output@@V?$format_validation_base@DV?$string_output_adapter@D@__crt_stdio_output@@@2@@__crt_stdio_output@@AEAAXI_N@Z 000000018012f5bc f i libucrt:output.obj
 0001:0012e5bc       ??$type_case_integer_parse_into_buffer@I$09@?$output_processor@DV?$string_output_adapter@D@__crt_stdio_output@@V?$standard_base@DV?$string_output_adapter@D@__crt_stdio_output@@@2@@__crt_stdio_output@@AEAAXI_N@Z 000000018012f5bc f i libucrt:output.obj
 0001:0012e668       ??$type_case_integer_parse_into_buffer@I$0BA@@?$output_processor@DV?$string_output_adapter@D@__crt_stdio_output@@V?$format_validation_base@DV?$string_output_adapter@D@__crt_stdio_output@@@2@@__crt_stdio_output@@AEAAXI_N@Z 000000018012f668 f i libucrt:output.obj
 0001:0012e668       ??$type_case_integer_parse_into_buffer@I$0BA@@?$output_processor@DV?$string_output_adapter@D@__crt_stdio_output@@V?$standard_base@DV?$string_output_adapter@D@__crt_stdio_output@@@2@@__crt_stdio_output@@AEAAXI_N@Z 000000018012f668 f i libucrt:output.obj
 0001:0012e6ec       ??$type_case_integer_parse_into_buffer@_K$07@?$output_processor@DV?$string_output_adapter@D@__crt_stdio_output@@V?$format_validation_base@DV?$string_output_adapter@D@__crt_stdio_output@@@2@@__crt_stdio_output@@AEAAX_K_N@Z 000000018012f6ec f i libucrt:output.obj
 0001:0012e6ec       ??$type_case_integer_parse_into_buffer@_K$07@?$output_processor@DV?$string_output_adapter@D@__crt_stdio_output@@V?$standard_base@DV?$string_output_adapter@D@__crt_stdio_output@@@2@@__crt_stdio_output@@AEAAX_K_N@Z 000000018012f6ec f i libucrt:output.obj
 0001:0012e75c       ??$type_case_integer_parse_into_buffer@_K$09@?$output_processor@DV?$string_output_adapter@D@__crt_stdio_output@@V?$format_validation_base@DV?$string_output_adapter@D@__crt_stdio_output@@@2@@__crt_stdio_output@@AEAAX_K_N@Z 000000018012f75c f i libucrt:output.obj
 0001:0012e75c       ??$type_case_integer_parse_into_buffer@_K$09@?$output_processor@DV?$string_output_adapter@D@__crt_stdio_output@@V?$standard_base@DV?$string_output_adapter@D@__crt_stdio_output@@@2@@__crt_stdio_output@@AEAAX_K_N@Z 000000018012f75c f i libucrt:output.obj
 0001:0012e80c       ??$type_case_integer_parse_into_buffer@_K$0BA@@?$output_processor@DV?$string_output_adapter@D@__crt_stdio_output@@V?$format_validation_base@DV?$string_output_adapter@D@__crt_stdio_output@@@2@@__crt_stdio_output@@AEAAX_K_N@Z 000000018012f80c f i libucrt:output.obj
 0001:0012e80c       ??$type_case_integer_parse_into_buffer@_K$0BA@@?$output_processor@DV?$string_output_adapter@D@__crt_stdio_output@@V?$standard_base@DV?$string_output_adapter@D@__crt_stdio_output@@@2@@__crt_stdio_output@@AEAAX_K_N@Z 000000018012f80c f i libucrt:output.obj
 0001:0012e890       ?crop_zeroes@__crt_stdio_output@@YAXPEADQEAU__crt_locale_pointers@@@Z 000000018012f890 f i libucrt:output.obj
 0001:0012e900       ?get_raw_ptd@__crt_cached_ptd_host@@QEAAPEAU__acrt_ptd@@XZ 000000018012f900 f i libucrt:output.obj
 0001:0012e968       ?parse_int_from_format_string@?$output_processor@DV?$string_output_adapter@D@__crt_stdio_output@@V?$format_validation_base@DV?$string_output_adapter@D@__crt_stdio_output@@@2@@__crt_stdio_output@@AEAA_NQEAH@Z 000000018012f968 f i libucrt:output.obj
 0001:0012e968       ?parse_int_from_format_string@?$output_processor@DV?$string_output_adapter@D@__crt_stdio_output@@V?$standard_base@DV?$string_output_adapter@D@__crt_stdio_output@@@2@@__crt_stdio_output@@AEAA_NQEAH@Z 000000018012f968 f i libucrt:output.obj
 0001:0012e9f8       ?process@?$output_processor@DV?$string_output_adapter@D@__crt_stdio_output@@V?$format_validation_base@DV?$string_output_adapter@D@__crt_stdio_output@@@2@@__crt_stdio_output@@QEAAHXZ 000000018012f9f8 f i libucrt:output.obj
 0001:0012ed7c       ?process@?$output_processor@DV?$string_output_adapter@D@__crt_stdio_output@@V?$standard_base@DV?$string_output_adapter@D@__crt_stdio_output@@@2@@__crt_stdio_output@@QEAAHXZ 000000018012fd7c f i libucrt:output.obj
 0001:0012f0fc       ?state_case_size@?$output_processor@DV?$string_output_adapter@D@__crt_stdio_output@@V?$format_validation_base@DV?$string_output_adapter@D@__crt_stdio_output@@@2@@__crt_stdio_output@@AEAA_NXZ 00000001801300fc f i libucrt:output.obj
 0001:0012f0fc       ?state_case_size@?$output_processor@DV?$string_output_adapter@D@__crt_stdio_output@@V?$standard_base@DV?$string_output_adapter@D@__crt_stdio_output@@@2@@__crt_stdio_output@@AEAA_NXZ 00000001801300fc f i libucrt:output.obj
 0001:0012f284       ?state_case_type@?$output_processor@DV?$string_output_adapter@D@__crt_stdio_output@@V?$format_validation_base@DV?$string_output_adapter@D@__crt_stdio_output@@@2@@__crt_stdio_output@@AEAA_NXZ 0000000180130284 f i libucrt:output.obj
 0001:0012f284       ?state_case_type@?$output_processor@DV?$string_output_adapter@D@__crt_stdio_output@@V?$standard_base@DV?$string_output_adapter@D@__crt_stdio_output@@@2@@__crt_stdio_output@@AEAA_NXZ 0000000180130284 f i libucrt:output.obj
 0001:0012f688       ?type_case_Z@?$output_processor@DV?$string_output_adapter@D@__crt_stdio_output@@V?$format_validation_base@DV?$string_output_adapter@D@__crt_stdio_output@@@2@@__crt_stdio_output@@AEAA_NXZ 0000000180130688 f i libucrt:output.obj
 0001:0012f688       ?type_case_Z@?$output_processor@DV?$string_output_adapter@D@__crt_stdio_output@@V?$standard_base@DV?$string_output_adapter@D@__crt_stdio_output@@@2@@__crt_stdio_output@@AEAA_NXZ 0000000180130688 f i libucrt:output.obj
 0001:0012f704       ?type_case_a@?$output_processor@DV?$string_output_adapter@D@__crt_stdio_output@@V?$format_validation_base@DV?$string_output_adapter@D@__crt_stdio_output@@@2@@__crt_stdio_output@@AEAA_NXZ 0000000180130704 f i libucrt:output.obj
 0001:0012f704       ?type_case_a@?$output_processor@DV?$string_output_adapter@D@__crt_stdio_output@@V?$standard_base@DV?$string_output_adapter@D@__crt_stdio_output@@@2@@__crt_stdio_output@@AEAA_NXZ 0000000180130704 f i libucrt:output.obj
 0001:0012f958       ?type_case_c_tchar@?$output_processor@DV?$string_output_adapter@D@__crt_stdio_output@@V?$format_validation_base@DV?$string_output_adapter@D@__crt_stdio_output@@@2@@__crt_stdio_output@@AEAA_ND@Z 0000000180130958 f i libucrt:output.obj
 0001:0012f958       ?type_case_c_tchar@?$output_processor@DV?$string_output_adapter@D@__crt_stdio_output@@V?$standard_base@DV?$string_output_adapter@D@__crt_stdio_output@@@2@@__crt_stdio_output@@AEAA_ND@Z 0000000180130958 f i libucrt:output.obj
 0001:0012fa2c       ?type_case_n@?$output_processor@DV?$string_output_adapter@D@__crt_stdio_output@@V?$format_validation_base@DV?$string_output_adapter@D@__crt_stdio_output@@@2@@__crt_stdio_output@@AEAA_NXZ 0000000180130a2c f i libucrt:output.obj
 0001:0012fa2c       ?type_case_n@?$output_processor@DV?$string_output_adapter@D@__crt_stdio_output@@V?$standard_base@DV?$string_output_adapter@D@__crt_stdio_output@@@2@@__crt_stdio_output@@AEAA_NXZ 0000000180130a2c f i libucrt:output.obj
 0001:0012fae4       ?type_case_s@?$output_processor@DV?$string_output_adapter@D@__crt_stdio_output@@V?$format_validation_base@DV?$string_output_adapter@D@__crt_stdio_output@@@2@@__crt_stdio_output@@AEAA_NXZ 0000000180130ae4 f i libucrt:output.obj
 0001:0012fae4       ?type_case_s@?$output_processor@DV?$string_output_adapter@D@__crt_stdio_output@@V?$standard_base@DV?$string_output_adapter@D@__crt_stdio_output@@@2@@__crt_stdio_output@@AEAA_NXZ 0000000180130ae4 f i libucrt:output.obj
 0001:0012fb80       ?update_locale_slow@__crt_cached_ptd_host@@AEAAXXZ 0000000180130b80 f i libucrt:output.obj
 0001:0012fbf8       ?write_string@?$string_output_adapter@D@__crt_stdio_output@@QEBAXQEBDHQEAHAEAV__crt_cached_ptd_host@@@Z 0000000180130bf8 f i libucrt:output.obj
 0001:0012fc9c       __stdio_common_vsprintf    0000000180130c9c f   libucrt:output.obj
 0001:0012fef0       __stdio_common_vsprintf_s  0000000180130ef0 f   libucrt:output.obj
 0001:00130004       ??$parse_integer@KV?$c_string_character_source@D@__crt_strtox@@$00@__crt_strtox@@YAKAEAV__crt_cached_ptd_host@@V?$c_string_character_source@D@0@H_N@Z 0000000180131004 f i libucrt:atox.obj
 0001:001302f4       _ischartype_l              00000001801312f4 f i libucrt:atox.obj
 0001:0013036c       atol                       000000018013136c f   libucrt:atox.obj
 0001:00130430       strncmp                    0000000180131430 f   libucrt:strncmp.obj
 0001:001304b0       calloc                     00000001801314b0 f   libucrt:calloc.obj
 0001:001304b8       wcsncmp                    00000001801314b8 f   libucrt:wcsncmp.obj
 0001:001304f0       __remainder_piby2d2f_forAsm 00000001801314f0 f   libucrt:remainder_piby2f_forasm.obj
 0001:00130640       __remainder_piby2_fma3     0000000180131640 f   libucrt:remainder_piby2_forfma3.obj
 0001:00130830       __remainder_piby2_fma3_bdl 0000000180131830 f   libucrt:remainder_piby2_forfma3.obj
 0001:001308a8       _cosf_special              00000001801318a8 f   libucrt:sincos_special.obj
 0001:00130948       _sinf_special              0000000180131948 f   libucrt:sincos_special.obj
 0001:0013095c       _tanf_special              000000018013195c f   libucrt:sincos_special.obj
 0001:00130970       _clrfp                     0000000180131970 f   libucrt:fpctrl.obj
 0001:00130990       _ctrlfp                    0000000180131990 f   libucrt:fpctrl.obj
 0001:00130a0c       _set_statfp                0000000180131a0c f   libucrt:fpctrl.obj
 0001:00130a2c       _statfp                    0000000180131a2c f   libucrt:fpctrl.obj
 0001:00130a40       __acrt_initialize_fma3     0000000180131a40 f   libucrt:fma3_available.obj
 0001:00130ab0       __remainder_piby2d2f_forC  0000000180131ab0 f   libucrt:remainder_piby2f_forc.obj
 0001:00130d60       _handle_error              0000000180131d60 f   libucrt:libm_error.obj
 0001:00130e88       _handle_errorf             0000000180131e88 f   libucrt:libm_error.obj
 0001:00130fbc       _handle_nan                0000000180131fbc f   libucrt:libm_error.obj
 0001:00130fd8       _handle_nanf               0000000180131fd8 f   libucrt:libm_error.obj
 0001:00130fe8       _free_base                 0000000180131fe8 f   libucrt:free_base.obj
 0001:0013139c       __acrt_freeptd             000000018013239c f   libucrt:per_thread_data.obj
 0001:001313e0       __acrt_getptd              00000001801323e0 f   libucrt:per_thread_data.obj
 0001:001314b4       __acrt_getptd_head         00000001801324b4 f   libucrt:per_thread_data.obj
 0001:00131558       __acrt_getptd_noexit       0000000180132558 f   libucrt:per_thread_data.obj
 0001:00131620       __acrt_getptd_noexit_explicit 0000000180132620 f   libucrt:per_thread_data.obj
 0001:001316e0       __acrt_initialize_ptd      00000001801326e0 f   libucrt:per_thread_data.obj
 0001:0013171c       __acrt_uninitialize_ptd    000000018013271c f   libucrt:per_thread_data.obj
 0001:00131740       __acrt_initialize_locks    0000000180132740 f   libucrt:locks.obj
 0001:00131788       __acrt_lock                0000000180132788 f   libucrt:locks.obj
 0001:001317a4       __acrt_uninitialize_locks  00000001801327a4 f   libucrt:locks.obj
 0001:001317dc       __acrt_unlock              00000001801327dc f   libucrt:locks.obj
 0001:001317f8       __acrt_app_verifier_enabled 00000001801327f8 f   libucrt:peb_access.obj
 0001:00131814       __acrt_is_secure_process   0000000180132814 f   libucrt:peb_access.obj
 0001:0013182c       __acrt_get_process_end_policy 000000018013282c f   libucrt:win_policies.obj
 0001:0013185c       ?get_raw_ptd_noexit@__crt_cached_ptd_host@@QEAAPEAU__acrt_ptd@@XZ 000000018013285c f i libucrt:invalid_parameter.obj
 0001:001318c8       ?value@?$dual_state_global@P6AXPEB_W00I_K@Z@__crt_state_management@@QEAAAEAP6AXPEB_W00I_K@ZAEAV__crt_cached_ptd_host@@@Z 00000001801328c8 f i libucrt:invalid_parameter.obj
 0001:00131914       __acrt_call_reportfault    0000000180132914 f   libucrt:invalid_parameter.obj
 0001:00131a70       __acrt_initialize_invalid_parameter_handler 0000000180132a70 f   libucrt:invalid_parameter.obj
 0001:00131a78       _invalid_parameter         0000000180132a78 f   libucrt:invalid_parameter.obj
 0001:00131b14       _invalid_parameter_internal 0000000180132b14 f   libucrt:invalid_parameter.obj
 0001:00131be0       _invalid_parameter_noinfo  0000000180132be0 f   libucrt:invalid_parameter.obj
 0001:00131c00       _invoke_watson             0000000180132c00 f   libucrt:invalid_parameter.obj
 0001:00131c48       __acrt_errno_from_os_error 0000000180132c48 f   libucrt:errno.obj
 0001:00131c90       __acrt_errno_map_os_error  0000000180132c90 f   libucrt:errno.obj
 0001:00131cd8       __acrt_errno_map_os_error_ptd 0000000180132cd8 f   libucrt:errno.obj
 0001:00131cfc       __doserrno                 0000000180132cfc f   libucrt:errno.obj
 0001:00131d1c       _errno                     0000000180132d1c f   libucrt:errno.obj
 0001:00131d3c       _calloc_base               0000000180132d3c f   libucrt:calloc_base.obj
 0001:00131dc8       ??$__acrt_convert_wcs_mbs_cp@D_WV<lambda_7c9dea7b4ca7285d2cdb541a38da6275>@@U__crt_win32_buffer_internal_dynamic_resizing@@@@YAHQEBDAEAV?$__crt_win32_buffer@_WU__crt_win32_buffer_internal_dynamic_resizing@@@@AEBV<lambda_7c9dea7b4ca7285d2cdb541a38da6275>@@I@Z 0000000180132dc8 f i libucrt:argv_wildcards.obj
 0001:00131f44       ??$__acrt_convert_wcs_mbs_cp@_WDV<lambda_d8593a27d1aa8c02be35c86a17d324c4>@@U__crt_win32_buffer_internal_dynamic_resizing@@@@YAHQEB_WAEAV?$__crt_win32_buffer@DU__crt_win32_buffer_internal_dynamic_resizing@@@@AEBV<lambda_d8593a27d1aa8c02be35c86a17d324c4>@@I@Z 0000000180132f44 f i libucrt:argv_wildcards.obj
 0001:001327e8       ??0_LocaleUpdate@@QEAA@QEAU__crt_locale_pointers@@@Z 00000001801337e8 f i libucrt:argv_wildcards.obj
 0001:00132884       __acrt_expand_narrow_argv_wildcards 0000000180133884 f   libucrt:argv_wildcards.obj
 0001:0013288c       ??$__acrt_convert_wcs_mbs_cp@_WDV<lambda_f788ae46380686e8b737efdd8c720d07>@@U__crt_win32_buffer_no_resizing@@@@YAHQEB_WAEAV?$__crt_win32_buffer@DU__crt_win32_buffer_no_resizing@@@@AEBV<lambda_f788ae46380686e8b737efdd8c720d07>@@I@Z 000000018013388c f i libucrt:getmodulefilenamea.obj
 0001:001329a8       __acrt_GetModuleFileNameA  00000001801339a8 f   libucrt:getmodulefilenamea.obj
 0001:001332c4       __acrt_initialize_multibyte 00000001801342c4 f   libucrt:mbctype.obj
 0001:00133324       __acrt_update_thread_multibyte_data 0000000180134324 f   libucrt:mbctype.obj
 0001:00133340       _setmbcp_nolock            0000000180134340 f   libucrt:mbctype.obj
 0001:00133674       _ismbblead                 0000000180134674 f   libucrt:ismbbyte.obj
 0001:00133688       __acrt_initialize_command_line 0000000180134688 f   libucrt:argv_data.obj
 0001:001336b0       __acrt_MultiByteToWideChar 00000001801346b0 f   libucrt:multibytetowidechar.obj
 0001:00133740       __acrt_WideCharToMultiByte 0000000180134740 f   libucrt:widechartomultibyte.obj
 0001:00133820       __dcrt_get_narrow_environment_from_os 0000000180134820 f   libucrt:get_environment_from_os.obj
 0001:00133930       _recalloc_base             0000000180134930 f   libucrt:recalloc.obj
 0001:00133b84       __acrt_AppPolicyGetProcessTerminationMethodInternal 0000000180134b84 f   libucrt:winapi_thunks.obj
 0001:00133bdc       __acrt_AreFileApisANSI     0000000180134bdc f   libucrt:winapi_thunks.obj
 0001:00133c20       __acrt_FlsAlloc            0000000180134c20 f   libucrt:winapi_thunks.obj
 0001:00133c28       __acrt_FlsFree             0000000180134c28 f   libucrt:winapi_thunks.obj
 0001:00133c30       __acrt_FlsGetValue         0000000180134c30 f   libucrt:winapi_thunks.obj
 0001:00133c38       __acrt_FlsSetValue         0000000180134c38 f   libucrt:winapi_thunks.obj
 0001:00133c40       __acrt_InitializeCriticalSectionEx 0000000180134c40 f   libucrt:winapi_thunks.obj
 0001:00133cb0       __acrt_LCMapStringEx       0000000180134cb0 f   libucrt:winapi_thunks.obj
 0001:00133d9c       __acrt_LocaleNameToLCID    0000000180134d9c f   libucrt:winapi_thunks.obj
 0001:00133dfc       __acrt_initialize_winapi_thunks 0000000180134dfc f   libucrt:winapi_thunks.obj
 0001:00133e20       __acrt_uninitialize_winapi_thunks 0000000180134e20 f   libucrt:winapi_thunks.obj
 0001:00133e64       __acrt_initialize_heap     0000000180134e64 f   libucrt:heap_handle.obj
 0001:00133e80       __acrt_uninitialize_heap   0000000180134e80 f   libucrt:heap_handle.obj
 0001:00134084       __acrt_initialize_lowio    0000000180135084 f   libucrt:ioinit.obj
 0001:001340c0       __acrt_uninitialize_lowio  00000001801350c0 f   libucrt:ioinit.obj
 0001:00134100       __acrt_execute_initializers 0000000180135100 f   libucrt:shared_initialization.obj
 0001:00134194       __acrt_execute_uninitializers 0000000180135194 f   libucrt:shared_initialization.obj
 0001:001341dc       __acrt_initialize_new_handler 00000001801351dc f   libucrt:new_handler.obj
 0001:001341e4       _callnewh                  00000001801351e4 f   libucrt:new_handler.obj
 0001:00134224       _query_new_handler         0000000180135224 f   libucrt:new_handler.obj
 0001:001342a4       __acrt_get_sigabrt_handler 00000001801352a4 f   libucrt:signal.obj
 0001:001342d4       __acrt_initialize_signal_handlers 00000001801352d4 f   libucrt:signal.obj
 0001:001342f4       raise                      00000001801352f4 f   libucrt:signal.obj
 0001:00134570       __acrt_has_user_matherr    0000000180135570 f   libucrt:matherr.obj
 0001:00134590       __acrt_initialize_user_matherr 0000000180135590 f   libucrt:matherr.obj
 0001:00134598       __acrt_invoke_user_matherr 0000000180135598 f   libucrt:matherr.obj
 0001:001347b4       __acrt_stdio_flush_nolock  00000001801357b4 f   libucrt:fflush.obj
 0001:00134840       _fflush_nolock             0000000180135840 f   libucrt:fflush.obj
 0001:00134914       _flushall                  0000000180135914 f   libucrt:fflush.obj
 0001:0013491c       __acrt_initialize_stdio    000000018013591c f   libucrt:_file.obj
 0001:00134a3c       __acrt_uninitialize_stdio  0000000180135a3c f   libucrt:_file.obj
 0001:00134a98       _lock_file                 0000000180135a98 f   libucrt:_file.obj
 0001:00134aa4       _unlock_file               0000000180135aa4 f   libucrt:_file.obj
 0001:00134ab0       _malloc_base               0000000180135ab0 f   libucrt:malloc_base.obj
 0001:00134b10       strnlen                    0000000180135b10 f   libucrt:strnlen.obj
 0001:00134c60       wcsnlen                    0000000180135c60 f   libucrt:strnlen.obj
 0001:00134e38       __acrt_update_locale_info  0000000180135e38 f   libucrt:locale_update.obj
 0001:00134e6c       __acrt_update_locale_info_explicit 0000000180135e6c f   libucrt:locale_update.obj
 0001:00134ea4       __acrt_update_multibyte_info 0000000180135ea4 f   libucrt:locale_update.obj
 0001:00134ed8       __acrt_update_multibyte_info_explicit 0000000180135ed8 f   libucrt:locale_update.obj
 0001:00135a24       __acrt_fp_format           0000000180136a24 f   libucrt:cvt.obj
 0001:00135d0c       _wctomb_internal           0000000180136d0c f   libucrt:wctomb.obj
 0001:00135ebc       _mbtowc_internal           0000000180136ebc f   libucrt:mbtowc.obj
 0001:00136034       _fileno                    0000000180137034 f   libucrt:fileno.obj
 0001:0013605c       _get_printf_count_output   000000018013705c f   libucrt:printf_count_output.obj
 0001:001360e4       __acrt_set_locale_changed  00000001801370e4 f   libucrt:wsetlocale.obj
 0001:001360f0       __acrt_uninitialize_locale 00000001801370f0 f   libucrt:wsetlocale.obj
 0001:00136120       __pctype_func              0000000180137120 f   libucrt:ctype.obj
 0001:00136150       _isctype_l                 0000000180137150 f   libucrt:isctype.obj
 0001:00136270       _get_fpsr                  0000000180137270 f   libucrt:fpsr.obj
 0001:00136280       _set_fpsr                  0000000180137280 f   libucrt:fpsr.obj
 0001:0013628a       _fclrf                     000000018013728a f   libucrt:fpsr.obj
 0001:0013629e       _frnd                      000000018013729e f   libucrt:fpsr.obj
 0001:001362c0       _raise_exc                 00000001801372c0 f   libucrt:fpexcept.obj
 0001:001362e8       _raise_exc_ex              00000001801372e8 f   libucrt:fpexcept.obj
 0001:001365f0       _raise_excf                00000001801375f0 f   libucrt:fpexcept.obj
 0001:0013661c       _set_errno_from_matherr    000000018013761c f   libucrt:fpexcept.obj
 0001:0013664c       __acrt_add_locale_ref      000000018013764c f   libucrt:locale_refcounting.obj
 0001:001366d8       __acrt_free_locale         00000001801376d8 f   libucrt:locale_refcounting.obj
 0001:00136850       __acrt_locale_add_lc_time_reference 0000000180137850 f   libucrt:locale_refcounting.obj
 0001:00136878       __acrt_locale_free_lc_time_if_unreferenced 0000000180137878 f   libucrt:locale_refcounting.obj
 0001:001368b0       __acrt_locale_release_lc_time_reference 00000001801378b0 f   libucrt:locale_refcounting.obj
 0001:001368d8       __acrt_release_locale_ref  00000001801378d8 f   libucrt:locale_refcounting.obj
 0001:00136980       __acrt_update_thread_locale_data 0000000180137980 f   libucrt:locale_refcounting.obj
 0001:001369f0       _updatetlocinfoEx_nolock   00000001801379f0 f   libucrt:locale_refcounting.obj
 0001:00136a58       _query_new_mode            0000000180137a58 f   libucrt:new_mode.obj
 0001:00136a60       qsort                      0000000180137a60 f   libucrt:qsort.obj
 0001:00136e70       strncpy_s                  0000000180137e70 f   libucrt:strncpy_s.obj
 0001:00137000       strpbrk                    0000000180138000 f   libucrt:strpbrk.obj
 0001:001373c8       _mbsdec                    00000001801383c8 f   libucrt:mbsdec.obj
 0001:001373d0       _mbsdec_l                  00000001801383d0 f   libucrt:mbsdec.obj
 0001:00137464       __acrt_GetStringTypeA      0000000180138464 f   libucrt:getstringtypea.obj
 0001:00137928       __acrt_LCMapStringA        0000000180138928 f   libucrt:lcmapstringa.obj
 0001:001379d8       _msize_base                00000001801389d8 f   libucrt:msize.obj
 0001:00137a14       _realloc_base              0000000180138a14 f   libucrt:realloc_base.obj
 0001:00137a90       __acrt_DownlevelLocaleNameToLCID 0000000180138a90 f   libucrt:lcidtoname_downlevel.obj
 0001:00137b34       __acrt_lowio_create_handle_array 0000000180138b34 f   libucrt:osfinfo.obj
 0001:00137bdc       __acrt_lowio_destroy_handle_array 0000000180138bdc f   libucrt:osfinfo.obj
 0001:00137c2c       __acrt_lowio_ensure_fh_exists 0000000180138c2c f   libucrt:osfinfo.obj
 0001:00137cd4       __acrt_lowio_lock_fh       0000000180138cd4 f   libucrt:osfinfo.obj
 0001:00137cfc       __acrt_lowio_unlock_fh     0000000180138cfc f   libucrt:osfinfo.obj
 0001:00137d24       _free_osfhnd               0000000180138d24 f   libucrt:osfinfo.obj
 0001:00137de0       _get_osfhandle             0000000180138de0 f   libucrt:osfinfo.obj
 0001:00137ee4       _commit                    0000000180138ee4 f   libucrt:commit.obj
 0001:00138780       _write_internal            0000000180139780 f   libucrt:write.obj
 0001:001388a0       _write_nolock              00000001801398a0 f   libucrt:write.obj
 0001:00138ba8       _fcloseall                 0000000180139ba8 f   libucrt:closeall.obj
 0001:00138c5c       __acrt_stdio_free_buffer_nolock 0000000180139c5c f   libucrt:_freebuf.obj
 0001:00138ca0       _isatty                    0000000180139ca0 f   libucrt:isatty.obj
 0001:00138dd0       __acrt_fp_strflt_to_string 0000000180139dd0 f   libucrt:_fptostr.obj
 0001:00138ee0       ?divide@__crt_strtox@@YA_KAEAUbig_integer@1@AEBU21@@Z 0000000180139ee0 f i libucrt:cfout.obj
 0001:0013937c       __acrt_fltout              000000018013a37c f   libucrt:cfout.obj
 0001:0013a694       fegetround                 000000018013b694 f   libucrt:fegetround.obj
 0001:0013a6a8       ?__c32rtomb_utf8@__crt_mbstring@@YA_KPEAD_UPEAU_Mbstatet@@AEAV__crt_cached_ptd_host@@@Z 000000018013b6a8 f   libucrt:c32rtomb.obj
 0001:0013a74c       ?__mbrtowc_utf8@__crt_mbstring@@YA_KPEA_WPEBD_KPEAU_Mbstatet@@AEAV__crt_cached_ptd_host@@@Z 000000018013b74c f   libucrt:mbrtowc.obj
 0001:0013a790       ?__mbsrtowcs_utf8@__crt_mbstring@@YA_KPEA_WPEAPEBD_KPEAU_Mbstatet@@AEAV__crt_cached_ptd_host@@@Z 000000018013b790 f   libucrt:mbrtowc.obj
 0001:0013a934       __acrt_locale_free_monetary 000000018013b934 f   libucrt:initmon.obj
 0001:0013aa40       __acrt_locale_free_numeric 000000018013ba40 f   libucrt:initnum.obj
 0001:0013aae0       __acrt_locale_free_time    000000018013bae0 f   libucrt:inittime.obj
 0001:0013abe8       __strncnt                  000000018013bbe8 f   libucrt:strncnt.obj
 0001:0013ac00       __ascii_wcsnicmp           000000018013bc00 f   libucrt:wcsnicmp.obj
 0001:0013ac4c       _query_app_type            000000018013bc4c f   libucrt:report_runtime_error.obj
 0001:0013ad00       _lseeki64_nolock_internal  000000018013bd00 f   libucrt:lseek.obj
 0001:0013ad08       _putwch_nolock             000000018013bd08 f   libucrt:putwch.obj
 0001:0013ae68       fclose                     000000018013be68 f   libucrt:fclose.obj
 0001:0013af00       _controlfp_s               000000018013bf00 f   libucrt:contrlfp.obj
 0001:0013af64       fegetenv                   000000018013bf64 f   libucrt:fegetenv.obj
 0001:0013af84       fesetenv                   000000018013bf84 f   libucrt:fesetenv.obj
 0001:0013afdc       feholdexcept               000000018013bfdc f   libucrt:feholdexcept.obj
 0001:0013b02c       ceil                       000000018013c02c f   libucrt:ceil.obj
 0001:0013b0f0       log10                      000000018013c0f0 f   libucrt:log10.obj
 0001:0013b69c       __acrt_fenv_get_common_round_control 000000018013c69c f   libucrt:_fenvutils.obj
 0001:0013b6a8       __acrt_fenv_get_control    000000018013c6a8 f   libucrt:_fenvutils.obj
 0001:0013b78c       __acrt_fenv_get_status     000000018013c78c f   libucrt:_fenvutils.obj
 0001:0013b7e4       __acrt_fenv_set_control    000000018013c7e4 f   libucrt:_fenvutils.obj
 0001:0013b91c       __acrt_fenv_set_status     000000018013c91c f   libucrt:_fenvutils.obj
 0001:0013b990       ?reset_and_return@__crt_mbstring@@YA_K_KPEAU_Mbstatet@@@Z 000000018013c990 f   libucrt:common_utf8.obj
 0001:0013b998       ?return_illegal_sequence@__crt_mbstring@@YA_KPEAU_Mbstatet@@AEAV__crt_cached_ptd_host@@@Z 000000018013c998 f   libucrt:common_utf8.obj
 0001:0013b9ac       ?__mbrtoc32_utf8@__crt_mbstring@@YA_KPEA_UPEBD_KPEAU_Mbstatet@@AEAV__crt_cached_ptd_host@@@Z 000000018013c9ac f   libucrt:mbrtoc32.obj
 0001:0013bb88       __dcrt_lowio_ensure_console_output_initialized 000000018013cb88 f   libucrt:initcon.obj
 0001:0013bbdc       __dcrt_terminate_console_output 000000018013cbdc f   libucrt:initcon.obj
 0001:0013bbf8       __dcrt_write_console       000000018013cbf8 f   libucrt:initcon.obj
 0001:0013bd30       _close_internal            000000018013cd30 f   libucrt:close.obj
 0001:0013bdf4       _close_nolock_internal     000000018013cdf4 f   libucrt:close.obj
 0001:0013bec4       ?__acrt_stdio_free_stream@@YAXV__crt_stdio_stream@@@Z 000000018013cec4 f   libucrt:stream.obj
 0001:0013bee0       _clearfp                   000000018013cee0 f   libucrt:ieee.obj
 0001:0013bf4c       _control87                 000000018013cf4c f   libucrt:ieee.obj
 0001:0013c1f0       _log10_special             000000018013d1f0 f   libucrt:log_special.obj
 0001:0013c2b0       _FindPESection             000000018013d2b0 f   LIBCMT:pesect.obj
 0001:0013c300       _IsNonwritableInCurrentImage 000000018013d300 f   LIBCMT:pesect.obj
 0001:0013c350       _ValidateImageBase         000000018013d350 f   LIBCMT:pesect.obj
 0001:0013c37c       __GSHandlerCheck           000000018013d37c f   LIBCMT:gshandler.obj
 0001:0013c39c       __GSHandlerCheckCommon     000000018013d39c f   LIBCMT:gshandler.obj
 0001:0013c410       __security_check_cookie    000000018013d410 f   LIBCMT:amdsecgs.obj
 0001:0013c430       __GSHandlerCheck_SEH       000000018013d430 f   LIBCMT:gshandlerseh.obj
 0001:0013c4b8       __raise_securityfailure    000000018013d4b8 f   LIBCMT:gs_report.obj
 0001:0013c4ec       __report_gsfailure         000000018013d4ec f   LIBCMT:gs_report.obj
 0001:0013c5c0       __report_rangecheckfailure 000000018013d5c0 f   LIBCMT:gs_report.obj
 0001:0013c5d4       __report_securityfailure   000000018013d5d4 f   LIBCMT:gs_report.obj
 0001:0013c758       __GSHandlerCheck_EH        000000018013d758 f   LIBCMT:gshandlereh.obj
 0001:0013c7d8       __C_specific_handler_noexcept 000000018013d7d8 f   libvcruntime:chandler_noexcept.obj
 0001:0013c824       strrchr                    000000018013d824 f   libvcruntime:strrchr.obj
 0001:0013c970       _guard_dispatch_icall_nop  000000018013d970 f   LIBCMT:guard_dispatch.obj
 0001:0013c990       _guard_xfg_dispatch_icall_nop 000000018013d990 f   LIBCMT:guard_xfg_dispatch.obj
 0001:0013c9c0       memcpy_repmovs             000000018013d9c0 f   libvcruntime:memcpy.obj
 0001:0013c9d0       memcpy                     000000018013d9d0 f   libvcruntime:memcpy.obj
 0001:0013c9d0       memcpy_$fo_default$        000000018013d9d0     libvcruntime:memcpy.obj
 0001:0013c9d0       memmove                    000000018013d9d0 f   libvcruntime:memcpy.obj
 0001:0013d060       memset_repstos             000000018013e060 f   libvcruntime:memset.obj
 0001:0013d070       memset                     000000018013e070 f   libvcruntime:memset.obj
 0002:00000000       __imp_FreeLibrary          000000018013f000     kernel32:KERNEL32.dll
 0002:00000008       __imp_GetProcAddress       000000018013f008     kernel32:KERNEL32.dll
 0002:00000010       __imp_LoadLibraryA         000000018013f010     kernel32:KERNEL32.dll
 0002:00000018       __imp_WriteConsoleW        000000018013f018     kernel32:KERNEL32.dll
 0002:00000020       __imp_RaiseException       000000018013f020     kernel32:KERNEL32.dll
 0002:00000028       __imp_GetLastError         000000018013f028     kernel32:KERNEL32.dll
 0002:00000030       __imp_GetSystemInfo        000000018013f030     kernel32:KERNEL32.dll
 0002:00000038       __imp_VirtualProtect       000000018013f038     kernel32:KERNEL32.dll
 0002:00000040       __imp_VirtualQuery         000000018013f040     kernel32:KERNEL32.dll
 0002:00000048       __imp_GetModuleHandleW     000000018013f048     kernel32:KERNEL32.dll
 0002:00000050       __imp_LoadLibraryExA       000000018013f050     kernel32:KERNEL32.dll
 0002:00000058       __imp_InitializeSListHead  000000018013f058     kernel32:KERNEL32.dll
 0002:00000060       __imp_QueryPerformanceCounter 000000018013f060     kernel32:KERNEL32.dll
 0002:00000068       __imp_GetCurrentProcessId  000000018013f068     kernel32:KERNEL32.dll
 0002:00000070       __imp_GetCurrentThreadId   000000018013f070     kernel32:KERNEL32.dll
 0002:00000078       __imp_GetSystemTimeAsFileTime 000000018013f078     kernel32:KERNEL32.dll
 0002:00000080       __imp_RtlCaptureContext    000000018013f080     kernel32:KERNEL32.dll
 0002:00000088       __imp_RtlLookupFunctionEntry 000000018013f088     kernel32:KERNEL32.dll
 0002:00000090       __imp_RtlVirtualUnwind     000000018013f090     kernel32:KERNEL32.dll
 0002:00000098       __imp_IsDebuggerPresent    000000018013f098     kernel32:KERNEL32.dll
 0002:000000a0       __imp_UnhandledExceptionFilter 000000018013f0a0     kernel32:KERNEL32.dll
 0002:000000a8       __imp_SetUnhandledExceptionFilter 000000018013f0a8     kernel32:KERNEL32.dll
 0002:000000b0       __imp_GetStartupInfoW      000000018013f0b0     kernel32:KERNEL32.dll
 0002:000000b8       __imp_IsProcessorFeaturePresent 000000018013f0b8     kernel32:KERNEL32.dll
 0002:000000c0       __imp_InterlockedPushEntrySList 000000018013f0c0     kernel32:KERNEL32.dll
 0002:000000c8       __imp_InterlockedFlushSList 000000018013f0c8     kernel32:KERNEL32.dll
 0002:000000d0       __imp_RtlUnwindEx          000000018013f0d0     kernel32:KERNEL32.dll
 0002:000000d8       __imp_SetLastError         000000018013f0d8     kernel32:KERNEL32.dll
 0002:000000e0       __imp_EnterCriticalSection 000000018013f0e0     kernel32:KERNEL32.dll
 0002:000000e8       __imp_LeaveCriticalSection 000000018013f0e8     kernel32:KERNEL32.dll
 0002:000000f0       __imp_DeleteCriticalSection 000000018013f0f0     kernel32:KERNEL32.dll
 0002:000000f8       __imp_InitializeCriticalSectionAndSpinCount 000000018013f0f8     kernel32:KERNEL32.dll
 0002:00000100       __imp_TlsAlloc             000000018013f100     kernel32:KERNEL32.dll
 0002:00000108       __imp_TlsGetValue          000000018013f108     kernel32:KERNEL32.dll
 0002:00000110       __imp_TlsSetValue          000000018013f110     kernel32:KERNEL32.dll
 0002:00000118       __imp_TlsFree              000000018013f118     kernel32:KERNEL32.dll
 0002:00000120       __imp_LoadLibraryExW       000000018013f120     kernel32:KERNEL32.dll
 0002:00000128       __imp_EncodePointer        000000018013f128     kernel32:KERNEL32.dll
 0002:00000130       __imp_RtlPcToFileHeader    000000018013f130     kernel32:KERNEL32.dll
 0002:00000138       __imp_GetCurrentProcess    000000018013f138     kernel32:KERNEL32.dll
 0002:00000140       __imp_ExitProcess          000000018013f140     kernel32:KERNEL32.dll
 0002:00000148       __imp_TerminateProcess     000000018013f148     kernel32:KERNEL32.dll
 0002:00000150       __imp_GetModuleHandleExW   000000018013f150     kernel32:KERNEL32.dll
 0002:00000158       __imp_GetModuleFileNameW   000000018013f158     kernel32:KERNEL32.dll
 0002:00000160       __imp_HeapFree             000000018013f160     kernel32:KERNEL32.dll
 0002:00000168       __imp_HeapAlloc            000000018013f168     kernel32:KERNEL32.dll
 0002:00000170       __imp_FindClose            000000018013f170     kernel32:KERNEL32.dll
 0002:00000178       __imp_FindFirstFileExW     000000018013f178     kernel32:KERNEL32.dll
 0002:00000180       __imp_FindNextFileW        000000018013f180     kernel32:KERNEL32.dll
 0002:00000188       __imp_IsValidCodePage      000000018013f188     kernel32:KERNEL32.dll
 0002:00000190       __imp_GetACP               000000018013f190     kernel32:KERNEL32.dll
 0002:00000198       __imp_GetOEMCP             000000018013f198     kernel32:KERNEL32.dll
 0002:000001a0       __imp_GetCPInfo            000000018013f1a0     kernel32:KERNEL32.dll
 0002:000001a8       __imp_GetCommandLineA      000000018013f1a8     kernel32:KERNEL32.dll
 0002:000001b0       __imp_GetCommandLineW      000000018013f1b0     kernel32:KERNEL32.dll
 0002:000001b8       __imp_MultiByteToWideChar  000000018013f1b8     kernel32:KERNEL32.dll
 0002:000001c0       __imp_WideCharToMultiByte  000000018013f1c0     kernel32:KERNEL32.dll
 0002:000001c8       __imp_GetEnvironmentStringsW 000000018013f1c8     kernel32:KERNEL32.dll
 0002:000001d0       __imp_FreeEnvironmentStringsW 000000018013f1d0     kernel32:KERNEL32.dll
 0002:000001d8       __imp_FlsAlloc             000000018013f1d8     kernel32:KERNEL32.dll
 0002:000001e0       __imp_FlsGetValue          000000018013f1e0     kernel32:KERNEL32.dll
 0002:000001e8       __imp_FlsSetValue          000000018013f1e8     kernel32:KERNEL32.dll
 0002:000001f0       __imp_FlsFree              000000018013f1f0     kernel32:KERNEL32.dll
 0002:000001f8       __imp_LCMapStringW         000000018013f1f8     kernel32:KERNEL32.dll
 0002:00000200       __imp_GetProcessHeap       000000018013f200     kernel32:KERNEL32.dll
 0002:00000208       __imp_GetStdHandle         000000018013f208     kernel32:KERNEL32.dll
 0002:00000210       __imp_GetFileType          000000018013f210     kernel32:KERNEL32.dll
 0002:00000218       __imp_GetStringTypeW       000000018013f218     kernel32:KERNEL32.dll
 0002:00000220       __imp_HeapSize             000000018013f220     kernel32:KERNEL32.dll
 0002:00000228       __imp_HeapReAlloc          000000018013f228     kernel32:KERNEL32.dll
 0002:00000230       __imp_SetStdHandle         000000018013f230     kernel32:KERNEL32.dll
 0002:00000238       __imp_FlushFileBuffers     000000018013f238     kernel32:KERNEL32.dll
 0002:00000240       __imp_WriteFile            000000018013f240     kernel32:KERNEL32.dll
 0002:00000248       __imp_GetConsoleOutputCP   000000018013f248     kernel32:KERNEL32.dll
 0002:00000250       __imp_GetConsoleMode       000000018013f250     kernel32:KERNEL32.dll
 0002:00000258       __imp_SetFilePointerEx     000000018013f258     kernel32:KERNEL32.dll
 0002:00000260       __imp_CreateFileW          000000018013f260     kernel32:KERNEL32.dll
 0002:00000268       __imp_CloseHandle          000000018013f268     kernel32:KERNEL32.dll
 0002:00000270       \177KERNEL32_NULL_THUNK_DATA 000000018013f270     kernel32:KERNEL32.dll
 0002:00000278       __guard_check_icall_fptr   000000018013f278     LIBCMT:guard_support.obj
 0002:00000280       __guard_xfg_check_icall_fptr 000000018013f280     LIBCMT:guard_support.obj
 0002:00000288       __guard_dispatch_icall_fptr 000000018013f288     LIBCMT:guard_support.obj
 0002:00000290       __guard_xfg_dispatch_icall_fptr 000000018013f290     LIBCMT:guard_support.obj
 0002:00000298       __guard_xfg_table_dispatch_icall_fptr 000000018013f298     LIBCMT:guard_support.obj
 0002:000002a0       __castguard_check_failure_os_handled_fptr 000000018013f2a0     LIBCMT:guard_support.obj
 0002:000002a8       __guard_memcpy_fptr        000000018013f2a8     libvcruntime:softmemtag.obj
 0002:000002b0       __xc_a                     000000018013f2b0     LIBCMT:initializers.obj
 0002:000016e0       __xc_z                     00000001801406e0     LIBCMT:initializers.obj
 0002:000016e8       __xi_a                     00000001801406e8     LIBCMT:initializers.obj
 0002:000016f0       __acrt_tran_fma3_initializer 00000001801406f0     libucrt:fma3_initializer.obj
 0002:000016f8       __acrt_multibyte_initializer 00000001801406f8     libucrt:multibyte_initializer.obj
 0002:00001700       __acrt_stdio_initializer   0000000180140700     libucrt:stdio_initializer.obj
 0002:00001708       __xi_z                     0000000180140708     LIBCMT:initializers.obj
 0002:00001710       __xp_a                     0000000180140710     LIBCMT:initializers.obj
 0002:00001718       __acrt_locale_terminator   0000000180140718     libucrt:locale_initializer.obj
 0002:00001720       __dcrt_console_output_terminator 0000000180140720     libucrt:console_output_initializer.obj
 0002:00001728       __acrt_stdio_terminator    0000000180140728     libucrt:stdio_initializer.obj
 0002:00001730       __xp_z                     0000000180140730     LIBCMT:initializers.obj
 0002:00001738       __xt_a                     0000000180140738     LIBCMT:initializers.obj
 0002:00001740       __xt_z                     0000000180140740     LIBCMT:initializers.obj
 0002:00001750       ??_7PxCollection@physx@@6B@ 0000000180140750     CmCollection.obj
 0002:000017d0       ??_C@_0BA@DLCJDKDM@NonTrackedAlloc@ 00000001801407d0     CmCollection.obj
 0002:000017e0       ??_7Collection@Cm@physx@@6B@ 00000001801407e0     CmCollection.obj
 0002:00001860       ??_C@_0GE@GBACBMOC@PxCollection?3?3add?5called?5for?5an@ 0000000180140860     CmCollection.obj
 0002:000018d0       ??_C@_0FA@KPEEBCAD@C?3?2Users?2Jungle?2Documents?2GitHu@ 00000001801408d0     CmCollection.obj
 0002:00001920       ??_C@_0EM@OMMGDOMK@PxCollection?3?3add?5called?5with?5a@ 0000000180140920     CmCollection.obj
 0002:00001970       ??_C@_0FJ@CPKLGFGB@C?3?2Users?2Jungle?2Documents?2GitHu@ 0000000180140970     CmCollection.obj
 0002:000019d0       ??_C@_0BM@OIFKLHDN@?$DMallocation?5names?5disabled?$DO@ 00000001801409d0     CmCollection.obj
 0002:000019f0       ??_C@_08MDGMHCHN@PtrTable@ 00000001801409f0     CmPtrTable.obj
 0002:000019fc       ??_C@_04GKJNKENE@void@     00000001801409fc     CmPtrTable.obj
 0002:00001a08       ??_C@_07DFEBJDHE@mSingle@  0000000180140a08     CmPtrTable.obj
 0002:00001a10       ??_C@_05NLHHBMOH@PxU16@    0000000180140a10     CmPtrTable.obj
 0002:00001a18       ??_C@_06EPKHJPIM@mCount@   0000000180140a18     CmPtrTable.obj
 0002:00001a20       ??_C@_04DDKJGDCM@bool@     0000000180140a20     CmPtrTable.obj
 0002:00001a28       ??_C@_0M@DAGELID@mOwnsMemory@ 0000000180140a28     CmPtrTable.obj
 0002:00001a38       ??_C@_0M@MMPOMMLP@mBufferUsed@ 0000000180140a38     CmPtrTable.obj
 0002:00001a48       ??_7RadixSort@Cm@physx@@6B@ 0000000180140a48     CmRadixSort.obj
 0002:00001a50       __xmm@00000001000000010000000100000001 0000000180140a50     CmRadixSort.obj
 0002:00001a60       __xmm@00000003000000020000000100000000 0000000180140a60     CmRadixSort.obj
 0002:00001a70       ??_7RadixSortBuffered@Cm@physx@@6B@ 0000000180140a70     CmRadixSortBuffered.obj
 0002:00001a80       ??_C@_0FH@LDHJBCJL@C?3?2Users?2Jungle?2Documents?2GitHu@ 0000000180140a80     CmRadixSortBuffered.obj
 0002:00001ad8       ?sBufferSize@DebugText@Cm@physx@@2HB 0000000180140ad8     CmRenderOutput.obj
 0002:00001ae0       ??_C@_0FB@OHHHCDHG@C?3?2Users?2Jungle?2Documents?2GitHu@ 0000000180140ae0     CmRenderOutput.obj
 0002:00001b34       __real@3e19999a            0000000180140b34     CmRenderOutput.obj
 0002:00001b38       __real@3e800000            0000000180140b38     CmRenderOutput.obj
 0002:00001b3c       __real@3f3504f3            0000000180140b3c     CmRenderOutput.obj
 0002:00001b40       __real@3f800000            0000000180140b40     CmRenderOutput.obj
 0002:00001b44       __real@3fddb3d7            0000000180140b44     CmRenderOutput.obj
 0002:00001b48       __real@40c90fdb            0000000180140b48     CmRenderOutput.obj
 0002:00001b50       __xmm@7fffffff7fffffff7fffffff7fffffff 0000000180140b50     CmRenderOutput.obj
 0002:00001b60       __xmm@80000000800000008000000080000000 0000000180140b60     CmRenderOutput.obj
 0002:00001b70       __real@3d4ccccd            0000000180140b70     CmVisualization.obj
 0002:00001b74       __real@3e490fdb            0000000180140b74     CmVisualization.obj
 0002:00001b78       __real@3e99999a            0000000180140b78     CmVisualization.obj
 0002:00001b7c       __real@3f000000            0000000180140b7c     CmVisualization.obj
 0002:00001b80       __real@3fc00000            0000000180140b80     CmVisualization.obj
 0002:00001b84       __real@c0000000            0000000180140b84     CmVisualization.obj
 0002:00001b90       __xmm@3f800000000000000000000000000000 0000000180140b90     CmVisualization.obj
 0002:00001ba0       ??_C@_0BB@CPDDPFKD@GetUpdatedModule@ 0000000180140ba0     CmWindowsModuleUpdateLoader.obj
 0002:00001bb8       ??_C@_0BA@EGLNOO@PhysXFoundation@ 0000000180140bb8     CmWindowsDelayLoadHook.obj
 0002:00001bc8       ??_C@_0M@ILKNCJKN@PhysXCommon@ 0000000180140bc8     CmWindowsDelayLoadHook.obj
 0002:00001c00       ??_C@_06EJKDJEDO@PxBase@   0000000180140c00     GuBounds.obj
 0002:00001c08       ??_C@_0N@CDGINLLF@PxConvexMesh@ 0000000180140c08     GuBounds.obj
 0002:00001c18       ??_C@_0O@PBAKPCEC@PxHeightField@ 0000000180140c18     GuBounds.obj
 0002:00001c28       ??_7PxBase@physx@@6B@      0000000180140c28     GuBounds.obj
 0002:00001c50       ??_C@_0DG@DFOCGHP@Gu?3?3GeometryUnion?3?3computeBound@ 0000000180140c50     GuBounds.obj
 0002:00001c90       ??_C@_0EP@DLFAEDPG@C?3?2Users?2Jungle?2Documents?2GitHu@ 0000000180140c90     GuBounds.obj
 0002:00001ce0       __real@358637bd            0000000180140ce0     GuBounds.obj
 0002:00001ce4       __real@3f400000            0000000180140ce4     GuBounds.obj
 0002:00001ce8       __real@3f7fffef            0000000180140ce8     GuBounds.obj
 0002:00001cec       __real@3f8147ae            0000000180140cec     GuBounds.obj
 0002:00001cf0       __real@7e7fffff            0000000180140cf0     GuBounds.obj
 0002:00001cf4       __real@7f7fffff            0000000180140cf4     GuBounds.obj
 0002:00001cf8       __real@fe7fffff            0000000180140cf8     GuBounds.obj
 0002:00001d00       __xmm@000000003a83126f3a83126f3a83126f 0000000180140d00     GuBounds.obj
 0002:00001d10       __xmm@00000000ba83126fba83126fba83126f 0000000180140d10     GuBounds.obj
 0002:00001d20       __xmm@3a83126f3a83126f3a83126f3a83126f 0000000180140d20     GuBounds.obj
 0002:00001d30       __xmm@3f0000003f0000003f0000003f000000 0000000180140d30     GuBounds.obj
 0002:00001d40       __xmm@3f8147ae3f8147ae3f8147ae3f8147ae 0000000180140d40     GuBounds.obj
 0002:00001d50       __xmm@ba83126fba83126fba83126fba83126f 0000000180140d50     GuBounds.obj
 0002:00001d80       __real@3f7ff972            0000000180140d80     GuBox.obj
 0002:00001db0       ??_7?$EntityReport@I@Gu@physx@@6B@ 0000000180140db0     GuCCTSweepTests.obj
 0002:00001dd0       __real@3b03126f            0000000180140dd0     GuCCTSweepTests.obj
 0002:00001dd4       __real@40000000            0000000180140dd4     GuCCTSweepTests.obj
 0002:00001e00       __real@38d1b717            0000000180140e00     GuGeometryQuery.obj
 0002:00001e04       __real@49742400            0000000180140e04     GuGeometryQuery.obj
 0002:00001e08       __real@bf800000            0000000180140e08     GuGeometryQuery.obj
 0002:00001e30       ??_C@_0FE@NEHKHBIA@C?3?2Users?2Jungle?2Documents?2GitHu@ 0000000180140e30     GuGeometryUnion.obj
 0002:00001ed0       ??_7GuMeshFactory@physx@@6B@ 0000000180140ed0     GuMeshFactory.obj
 0002:00001ed8       ??_7MeshDataBase@Gu@physx@@6B@ 0000000180140ed8     GuMeshFactory.obj
 0002:00001ee0       ??_C@_0FE@NCDPDOCK@C?3?2Users?2Jungle?2Documents?2GitHu@ 0000000180140ee0     GuMeshFactory.obj
 0002:00001f38       ??_7TriangleMeshData@Gu@physx@@6B@ 0000000180140f38     GuMeshFactory.obj
 0002:00001f40       ??_7RTreeTriangleData@Gu@physx@@6B@ 0000000180140f40     GuMeshFactory.obj
 0002:00001f48       ??_7BV4TriangleData@Gu@physx@@6B@ 0000000180140f48     GuMeshFactory.obj
 0002:00001f50       ??_C@_0FE@DMOJDAKN@C?3?2Users?2Jungle?2Documents?2GitHu@ 0000000180140f50     GuMeshFactory.obj
 0002:00001fb0       ??_C@_0GP@NHELMDAL@Loading?5triangle?5mesh?5failed?3?5D@ 0000000180140fb0     GuMeshFactory.obj
 0002:00002020       ??_C@_0BP@CDOKDACA@RTree?5binary?5image?5load?5error?4@ 0000000180141020     GuMeshFactory.obj
 0002:00002040       ??_C@_0BN@MJPNIELF@BV4?5binary?5image?5load?5error?4@ 0000000180141040     GuMeshFactory.obj
 0002:00002060       ??_C@_0BO@JDPABAOF@BV32?5binary?5image?5load?5error?4@ 0000000180141060     GuMeshFactory.obj
 0002:00002080       ??_C@_0FB@OOBKCKAP@C?3?2Users?2Jungle?2Documents?2GitHu@ 0000000180141080     GuMeshFactory.obj
 0002:00002100       ??_C@_0P@GGNFNHKF@PxTriangleMesh@ 0000000180141100     GuMetaData.obj
 0002:00002110       ??_C@_07GFCEJNGM@Valency@  0000000180141110     GuMetaData.obj
 0002:00002118       ??_C@_07NHGKEEIN@mOffset@  0000000180141118     GuMetaData.obj
 0002:00002120       ??_C@_0BB@BAGHBMNJ@BigConvexRawData@ 0000000180141120     GuMetaData.obj
 0002:00002138       ??_C@_07PBDEJAAC@mSubdiv@  0000000180141138     GuMetaData.obj
 0002:00002140       ??_C@_0L@HNPACPGH@mNbSamples@ 0000000180141140     GuMetaData.obj
 0002:0000214c       ??_C@_04NCKNBPPK@PxU8@     000000018014114c     GuMetaData.obj
 0002:00002158       ??_C@_08DEPEKJNI@mSamples@ 0000000180141158     GuMetaData.obj
 0002:00002164       ??_C@_05LMJPANIN@PxU32@    0000000180141164     GuMetaData.obj
 0002:00002170       ??_C@_08IJDNJBMI@mNbVerts@ 0000000180141170     GuMetaData.obj
 0002:00002180       ??_C@_0M@MMKMIJAF@mNbAdjVerts@ 0000000180141180     GuMetaData.obj
 0002:00002190       ??_C@_0L@EOKMNILC@mValencies@ 0000000180141190     GuMetaData.obj
 0002:000021a0       ??_C@_0P@DLGEAMHJ@mAdjacentVerts@ 00000001801411a0     GuMetaData.obj
 0002:000021b0       ??_C@_0O@PFOPBKAM@BigConvexData@ 00000001801411b0     GuMetaData.obj
 0002:000021c0       ??_C@_05PLKALGFN@mData@    00000001801411c0     GuMetaData.obj
 0002:000021c8       ??_C@_08PEMCLHEM@mVBuffer@ 00000001801411c8     GuMetaData.obj
 0002:000021d8       ??_C@_09FBMAGD@Alignment@  00000001801411d8     GuMetaData.obj
 0002:000021e8       ??_C@_0BE@KFHIBEEA@InternalObjectsData@ 00000001801411e8     GuMetaData.obj
 0002:000021fc       ??_C@_06GIEBFILM@PxReal@   00000001801411fc     GuMetaData.obj
 0002:00002208       ??_C@_07NKGFFIBH@mRadius@  0000000180141208     GuMetaData.obj
 0002:00002210       ??_C@_08EHFCACAE@mExtents@ 0000000180141210     GuMetaData.obj
 0002:00002220       ??_C@_0BA@LFMGGCBK@HullPolygonData@ 0000000180141220     GuMetaData.obj
 0002:00002230       ??_C@_06BOHHGLB@mPlane@    0000000180141230     GuMetaData.obj
 0002:00002238       ??_C@_06EHMLHGLN@mVRef8@   0000000180141238     GuMetaData.obj
 0002:00002240       ??_C@_09BAHHHINI@mMinIndex@ 0000000180141240     GuMetaData.obj
 0002:00002250       ??_C@_0P@GBLBPIPB@ConvexHullData@ 0000000180141250     GuMetaData.obj
 0002:00002260       ??_C@_09JDCJAPKD@PxBounds3@ 0000000180141260     GuMetaData.obj
 0002:0000226c       ??_C@_05NDNHIFA@mAABB@     000000018014126c     GuMetaData.obj
 0002:00002274       ??_C@_06KDGGGLIJ@PxVec3@   0000000180141274     GuMetaData.obj
 0002:00002280       ??_C@_0O@LNOGEMJI@mCenterOfMass@ 0000000180141280     GuMetaData.obj
 0002:00002290       ??_C@_09CNMCBBKH@mPolygons@ 0000000180141290     GuMetaData.obj
 0002:000022a0       ??_C@_0BC@KKPDCFJC@mBigConvexRawData@ 00000001801412a0     GuMetaData.obj
 0002:000022b8       ??_C@_08ELDMKGKH@mNbEdges@ 00000001801412b8     GuMetaData.obj
 0002:000022c8       ??_C@_0BA@CGLOHBAC@mNbHullVertices@ 00000001801412c8     GuMetaData.obj
 0002:000022d8       ??_C@_0M@HGFFLLDM@mNbPolygons@ 00000001801412d8     GuMetaData.obj
 0002:000022e8       ??_C@_09BHJEMDGO@mInternal@ 00000001801412e8     GuMetaData.obj
 0002:000022f8       ??_C@_0L@GMFHOMKA@ConvexMesh@ 00000001801412f8     GuMetaData.obj
 0002:00002308       ??_C@_0N@KECKKFLK@RefCountable@ 0000000180141308     GuMetaData.obj
 0002:00002318       ??_C@_09ILEBDLJH@mHullData@ 0000000180141318     GuMetaData.obj
 0002:00002324       ??_C@_03DKDIKGNC@mNb@      0000000180141324     GuMetaData.obj
 0002:00002328       ??_C@_0P@ENLHFHMD@mBigConvexData@ 0000000180141328     GuMetaData.obj
 0002:00002338       ??_C@_05ILALLCHK@mMass@    0000000180141338     GuMetaData.obj
 0002:00002340       ??_C@_07DBPDADGB@PxMat33@  0000000180141340     GuMetaData.obj
 0002:00002348       ??_C@_08FNBHNDBI@mInertia@ 0000000180141348     GuMetaData.obj
 0002:00002358       ??_C@_0O@FCKNKLMJ@GuMeshFactory@ 0000000180141358     GuMetaData.obj
 0002:00002368       ??_C@_0N@EGBCLMAK@mMeshFactory@ 0000000180141368     GuMetaData.obj
 0002:00002378       ??_C@_0BE@CJJAMAMK@PxHeightFieldSample@ 0000000180141378     GuMetaData.obj
 0002:0000238c       ??_C@_05MBLIPEMA@PxI16@    000000018014138c     GuMetaData.obj
 0002:00002394       ??_C@_06LNLHEAAG@height@   0000000180141394     GuMetaData.obj
 0002:000023a0       ??_C@_0N@HHDGHJN@PxBitAndByte@ 00000001801413a0     GuMetaData.obj
 0002:000023b0       ??_C@_0P@MBBMLBO@materialIndex0@ 00000001801413b0     GuMetaData.obj
 0002:000023c0       ??_C@_0P@BFAKPKFP@materialIndex1@ 00000001801413c0     GuMetaData.obj
 0002:000023d0       ??_C@_0BD@EBLPJEOE@PxHeightFieldFlags@ 00000001801413d0     GuMetaData.obj
 0002:000023e8       ??_C@_0BK@FNNCFFCN@PxHeightFieldFormat?3?3Enum@ 00000001801413e8     GuMetaData.obj
 0002:00002408       ??_C@_0BA@CLNFMAAA@HeightFieldData@ 0000000180141408     GuMetaData.obj
 0002:00002418       ??_C@_04IMCGAIPI@rows@     0000000180141418     GuMetaData.obj
 0002:00002420       ??_C@_07HIFEPIJN@columns@  0000000180141420     GuMetaData.obj
 0002:00002428       ??_C@_08MOAGOABI@rowLimit@ 0000000180141428     GuMetaData.obj
 0002:00002438       ??_C@_08BAGEHOBO@colLimit@ 0000000180141438     GuMetaData.obj
 0002:00002448       ??_C@_09LKDBLADF@nbColumns@ 0000000180141448     GuMetaData.obj
 0002:00002458       ??_C@_07ODIFGGLK@samples@  0000000180141458     GuMetaData.obj
 0002:00002460       ??_C@_0BE@POHEGOJG@convexEdgeThreshold@ 0000000180141460     GuMetaData.obj
 0002:00002474       ??_C@_05GECEPKB@flags@     0000000180141474     GuMetaData.obj
 0002:0000247c       ??_C@_06DLEPGFEF@format@   000000018014147c     GuMetaData.obj
 0002:00002488       ??_C@_0BF@MOGDNMPL@PxMaterialTableIndex@ 0000000180141488     GuMetaData.obj
 0002:000024a0       ??_C@_0M@JMJICJJO@HeightField@ 00000001801414a0     GuMetaData.obj
 0002:000024b0       ??_C@_0O@ENGHMLJP@mSampleStride@ 00000001801414b0     GuMetaData.obj
 0002:000024c0       ??_C@_0L@EBEEMFFB@mMinHeight@ 00000001801414c0     GuMetaData.obj
 0002:000024d0       ??_C@_0L@EAEIFPOF@mMaxHeight@ 00000001801414d0     GuMetaData.obj
 0002:000024e0       ??_C@_0N@FEFJOKKE@mModifyCount@ 00000001801414e0     GuMetaData.obj
 0002:000024f0       ??_C@_09PHDKHCK@RTreePage@ 00000001801414f0     GuMetaData.obj
 0002:000024fc       ??_C@_04LLPOBGED@minx@     00000001801414fc     GuMetaData.obj
 0002:00002504       ??_C@_04KCOFCHAC@miny@     0000000180141504     GuMetaData.obj
 0002:0000250c       ??_C@_04IJMIHEMB@minz@     000000018014150c     GuMetaData.obj
 0002:00002514       ??_C@_04GGOBOBGO@maxx@     0000000180141514     GuMetaData.obj
 0002:0000251c       ??_C@_04HPPKNACP@maxy@     000000018014151c     GuMetaData.obj
 0002:00002524       ??_C@_04FENHIDOM@maxz@     0000000180141524     GuMetaData.obj
 0002:0000252c       ??_C@_04HHDFEJON@ptrs@     000000018014152c     GuMetaData.obj
 0002:00002534       ??_C@_05FFEIGAJF@RTree@    0000000180141534     GuMetaData.obj
 0002:0000253c       ??_C@_06OMCHPNEO@PxVec4@   000000018014153c     GuMetaData.obj
 0002:00002548       ??_C@_0L@NBIFEFLN@mBoundsMin@ 0000000180141548     GuMetaData.obj
 0002:00002558       ??_C@_0L@MDAOKBNC@mBoundsMax@ 0000000180141558     GuMetaData.obj
 0002:00002568       ??_C@_0N@NJEHLCOF@mInvDiagonal@ 0000000180141568     GuMetaData.obj
 0002:00002578       ??_C@_0BA@BEFIGPFG@mDiagonalScaler@ 0000000180141578     GuMetaData.obj
 0002:00002588       ??_C@_09DICGGKGO@mPageSize@ 0000000180141588     GuMetaData.obj
 0002:00002598       ??_C@_0O@BOFFCNOL@mNumRootPages@ 0000000180141598     GuMetaData.obj
 0002:000025a8       ??_C@_0L@JKLGBKAE@mNumLevels@ 00000001801415a8     GuMetaData.obj
 0002:000025b8       ??_C@_0M@PHDOHJGK@mTotalNodes@ 00000001801415b8     GuMetaData.obj
 0002:000025c8       ??_C@_0M@GDGHALAO@mTotalPages@ 00000001801415c8     GuMetaData.obj
 0002:000025d4       ??_C@_06MHCBBJGP@mFlags@   00000001801415d4     GuMetaData.obj
 0002:000025dc       ??_C@_06MMNBLHOK@mPages@   00000001801415dc     GuMetaData.obj
 0002:000025e8       ??_C@_0L@LEOGNOEC@SourceMesh@ 00000001801415e8     GuMetaData.obj
 0002:000025f4       ??_C@_06JFCLJMNN@mVerts@   00000001801415f4     GuMetaData.obj
 0002:00002600       ??_C@_07MPIKOOAP@mNbTris@  0000000180141600     GuMetaData.obj
 0002:00002608       ??_C@_0N@FBMOMEHF@mTriangles32@ 0000000180141608     GuMetaData.obj
 0002:00002618       ??_C@_0N@DGCGNFBP@mTriangles16@ 0000000180141618     GuMetaData.obj
 0002:00002628       ??_C@_06DHAAKLFK@mRemap@   0000000180141628     GuMetaData.obj
 0002:00002630       ??_C@_0O@NLNHFNO@QuantizedAABB@ 0000000180141630     GuMetaData.obj
 0002:00002640       ??_C@_0BC@OOGBEMHH@mData?$FL0?$FN?4mExtents@ 0000000180141640     GuMetaData.obj
 0002:00002658       ??_C@_0BB@OCEDKIEF@mData?$FL0?$FN?4mCenter@ 0000000180141658     GuMetaData.obj
 0002:00002670       ??_C@_0BC@HFMEAABI@mData?$FL1?$FN?4mExtents@ 0000000180141670     GuMetaData.obj
 0002:00002688       ??_C@_0BB@CDMNHHIF@mData?$FL1?$FN?4mCenter@ 0000000180141688     GuMetaData.obj
 0002:000026a0       ??_C@_0BC@CFKNCOI@mData?$FL2?$FN?4mExtents@ 00000001801416a0     GuMetaData.obj
 0002:000026b8       ??_C@_0BB@LKCPBBIE@mData?$FL2?$FN?4mCenter@ 00000001801416b8     GuMetaData.obj
 0002:000026d0       ??_C@_0O@MJJKKPFN@BVDataPackedQ@ 00000001801416d0     GuMetaData.obj
 0002:000026e0       ??_C@_0M@PNCEBOG@LocalBounds@ 00000001801416e0     GuMetaData.obj
 0002:000026f0       ??_C@_07GNKDIIKJ@mCenter@  00000001801416f0     GuMetaData.obj
 0002:000026f8       ??_C@_05KNFBNCOH@float@    00000001801416f8     GuMetaData.obj
 0002:00002700       ??_C@_0BC@LADJKHPL@mExtentsMagnitude@ 0000000180141700     GuMetaData.obj
 0002:00002718       ??_C@_07HELIOLAF@BV4Tree@  0000000180141718     GuMetaData.obj
 0002:00002720       ??_C@_0P@EMMDNPMH@mMeshInterface@ 0000000180141720     GuMetaData.obj
 0002:00002730       ??_C@_0N@DCKMHLCL@mLocalBounds@ 0000000180141730     GuMetaData.obj
 0002:00002740       ??_C@_08EEJOMIJL@mNbNodes@ 0000000180141740     GuMetaData.obj
 0002:00002750       ??_C@_09FGKNPI@mInitData@  0000000180141750     GuMetaData.obj
 0002:00002760       ??_C@_0BC@CLDEHKCO@mCenterOrMinCoeff@ 0000000180141760     GuMetaData.obj
 0002:00002778       ??_C@_0BD@LAOLBNJ@mExtentsOrMaxCoeff@ 0000000180141778     GuMetaData.obj
 0002:00002790       ??_C@_0P@JEECKKBL@mUserAllocated@ 0000000180141790     GuMetaData.obj
 0002:000027a0       ??_C@_0L@GLIMNECG@mQuantized@ 00000001801417a0     GuMetaData.obj
 0002:000027b0       ??_C@_08BNDBAGDH@mPadding@ 00000001801417b0     GuMetaData.obj
 0002:000027c0       ??_C@_0N@OJNNNLIB@TriangleMesh@ 00000001801417c0     GuMetaData.obj
 0002:000027d0       ??_C@_0M@OGEDMEAL@mNbVertices@ 00000001801417d0     GuMetaData.obj
 0002:000027e0       ??_C@_0N@MGGDNHNI@mNbTriangles@ 00000001801417e0     GuMetaData.obj
 0002:000027f0       ??_C@_09LNNEGOJA@mVertices@ 00000001801417f0     GuMetaData.obj
 0002:00002800       ??_C@_0L@KBOFAKLO@mTriangles@ 0000000180141800     GuMetaData.obj
 0002:00002810       ??_C@_0P@MHDFIHLD@mExtraTrigData@ 0000000180141810     GuMetaData.obj
 0002:00002820       ??_C@_0N@MGIKKCI@mGeomEpsilon@ 0000000180141820     GuMetaData.obj
 0002:00002830       ??_C@_0BB@IFLOOCNA@mMaterialIndices@ 0000000180141830     GuMetaData.obj
 0002:00002848       ??_C@_0L@OPJMBFMI@mFaceRemap@ 0000000180141848     GuMetaData.obj
 0002:00002858       ??_C@_0N@BIOECAPM@mAdjacencies@ 0000000180141858     GuMetaData.obj
 0002:00002868       ??_C@_0BA@OCOIGPII@mGRB_triIndices@ 0000000180141868     GuMetaData.obj
 0002:00002878       ??_C@_0BE@JPINNDAH@mGRB_triAdjacencies@ 0000000180141878     GuMetaData.obj
 0002:00002890       ??_C@_0P@EDFJJHEF@mGRB_faceRemap@ 0000000180141890     GuMetaData.obj
 0002:000028a0       ??_C@_0O@CKMBAIFN@mGRB_BV32Tree@ 00000001801418a0     GuMetaData.obj
 0002:000028b0       ??_C@_0BC@IFGECKF@RTreeTriangleMesh@ 00000001801418b0     GuMetaData.obj
 0002:000028c4       ??_C@_06JDIHDDGN@mRTree@   00000001801418c4     GuMetaData.obj
 0002:000028d0       ??_C@_0BA@LNNFPOKA@BV4TriangleMesh@ 00000001801418d0     GuMetaData.obj
 0002:000028e0       ??_C@_08FKLPEGDB@mBV4Tree@ 00000001801418e0     GuMetaData.obj
 0002:000028f0       ??_C@_0BG@EAPGHGEI@MaterialIndicesStruct@ 00000001801418f0     GuMetaData.obj
 0002:00002908       ??_C@_07OKCKIPNN@indices@  0000000180141908     GuMetaData.obj
 0002:00002910       ??_C@_0L@KCBHBGBP@numIndices@ 0000000180141910     GuMetaData.obj
 0002:0000291c       ??_C@_03PNAAIPML@pad@      000000018014191c     GuMetaData.obj
 0002:00002920       ??_C@_05MOMFAHOB@pad64@    0000000180141920     GuMetaData.obj
 0002:00002928       ??_C@_0BK@GNJGHDGO@PxConvexMeshGeometryFlags@ 0000000180141928     GuMetaData.obj
 0002:00002948       ??_C@_0BJ@LIOOOKID@ShadowConvexMeshGeometry@ 0000000180141948     GuMetaData.obj
 0002:00002968       ??_C@_0BF@PJFPGDNP@PxGeometryType?3?3Enum@ 0000000180141968     GuMetaData.obj
 0002:00002980       ??_C@_05GNIIDDHH@mType@    0000000180141980     GuMetaData.obj
 0002:00002988       ??_C@_0M@JFNDEGCE@PxMeshScale@ 0000000180141988     GuMetaData.obj
 0002:00002994       ??_C@_05MHMEBBGO@scale@    0000000180141994     GuMetaData.obj
 0002:000029a0       ??_C@_0L@OKMLGDHH@convexMesh@ 00000001801419a0     GuMetaData.obj
 0002:000029b0       ??_C@_09PLMNFMJI@meshFlags@ 00000001801419b0     GuMetaData.obj
 0002:000029c0       ??_C@_0BB@EINMAHMD@paddingFromFlags@ 00000001801419c0     GuMetaData.obj
 0002:000029d8       ??_C@_08CICKEKCM@hullData@ 00000001801419d8     GuMetaData.obj
 0002:000029e8       ??_C@_0O@EOELHBFF@gpuCompatible@ 00000001801419e8     GuMetaData.obj
 0002:000029f8       ??_C@_0BE@FFPGAPHN@PxMeshGeometryFlags@ 00000001801419f8     GuMetaData.obj
 0002:00002a10       ??_C@_0BL@KABFLNEB@ShadowTriangleMeshGeometry@ 0000000180141a10     GuMetaData.obj
 0002:00002a30       ??_C@_0N@FKKDJAHE@triangleMesh@ 0000000180141a30     GuMetaData.obj
 0002:00002a40       ??_C@_08BEABJAHJ@meshData@ 0000000180141a40     GuMetaData.obj
 0002:00002a50       ??_C@_0BA@NGIONHFJ@materialIndices@ 0000000180141a50     GuMetaData.obj
 0002:00002a60       ??_C@_09JGGNEAGH@materials@ 0000000180141a60     GuMetaData.obj
 0002:00002a70       ??_C@_0BK@OIFEOHNJ@ShadowHeightFieldGeometry@ 0000000180141a70     GuMetaData.obj
 0002:00002a90       ??_C@_0M@IEKJPCGG@heightField@ 0000000180141a90     GuMetaData.obj
 0002:00002aa0       ??_C@_0M@LHLNPPJ@heightScale@ 0000000180141aa0     GuMetaData.obj
 0002:00002ab0       ??_C@_08GJPCBGLE@rowScale@ 0000000180141ab0     GuMetaData.obj
 0002:00002ac0       ??_C@_0M@HHBHEPCE@columnScale@ 0000000180141ac0     GuMetaData.obj
 0002:00002ad0       ??_C@_0BB@PMIIHDKK@heightFieldFlags@ 0000000180141ad0     GuMetaData.obj
 0002:00002ae8       ??_C@_0BA@DMOKLLHN@heightFieldData@ 0000000180141ae8     GuMetaData.obj
 0002:00002af8       ??_C@_0BE@IKADPPC@ShadowPlaneGeometry@ 0000000180141af8     GuMetaData.obj
 0002:00002b10       ??_C@_0BF@PIKLLBGN@ShadowSphereGeometry@ 0000000180141b10     GuMetaData.obj
 0002:00002b28       ??_C@_06KGHINEPG@radius@   0000000180141b28     GuMetaData.obj
 0002:00002b30       ??_C@_0BG@OBHJHKMO@ShadowCapsuleGeometry@ 0000000180141b30     GuMetaData.obj
 0002:00002b48       ??_C@_0L@PMAANELH@halfHeight@ 0000000180141b48     GuMetaData.obj
 0002:00002b58       ??_C@_0BC@DMJNHLLO@ShadowBoxGeometry@ 0000000180141b58     GuMetaData.obj
 0002:00002b70       ??_C@_0M@CMAEPJOI@halfExtents@ 0000000180141b70     GuMetaData.obj
 0002:00002b80       ??_C@_0BH@PKALDLFA@PxConvexMeshGeometryLL@ 0000000180141b80     GuMetaData.obj
 0002:00002b98       ??_C@_0BJ@GAFBNAAE@PxTriangleMeshGeometryLL@ 0000000180141b98     GuMetaData.obj
 0002:00002bb8       ??_C@_0BI@IIFLCNOC@PxHeightFieldGeometryLL@ 0000000180141bb8     GuMetaData.obj
 0002:00002bd0       ??_C@_0BA@NAHKMBFO@PxPlaneGeometry@ 0000000180141bd0     GuMetaData.obj
 0002:00002be0       ??_C@_0BB@CHBDIEFA@PxSphereGeometry@ 0000000180141be0     GuMetaData.obj
 0002:00002bf8       ??_C@_0BC@LJMOIOOK@PxCapsuleGeometry@ 0000000180141bf8     GuMetaData.obj
 0002:00002c10       ??_C@_0O@OEDJDNFP@PxBoxGeometry@ 0000000180141c10     GuMetaData.obj
 0002:00002c20       ??_C@_0BC@ICOOCLFG@Gu?3?3GeometryUnion@ 0000000180141c20     GuMetaData.obj
 0002:00002c38       ??_7?$SupportLocalImpl@VConvexHullV@Gu@physx@@@Gu@physx@@6B@ 0000000180141c38     GuMTD.obj
 0002:00002c58       ??_7?$SupportLocalImpl@VConvexHullNoScaleV@Gu@physx@@@Gu@physx@@6B@ 0000000180141c58     GuMTD.obj
 0002:00002c78       ??_7?$SupportLocalImpl@VBoxV@Gu@physx@@@Gu@physx@@6B@ 0000000180141c78     GuMTD.obj
 0002:00002c98       ??_7SupportLocal@Gu@physx@@6B@ 0000000180141c98     GuMTD.obj
 0002:00002ce0       ?absMask@?1??FAbs@aos@shdfnd@physx@@YA?AT__m128@@T5@@Z@4QBIB 0000000180141ce0     GuMTD.obj
 0002:00002cf0       ??_7GjkConvexBase@Gu@physx@@6B@ 0000000180141cf0     GuMTD.obj
 0002:00002d20       ??_7?$LocalConvex@VCapsuleV@Gu@physx@@@Gu@physx@@6B@ 0000000180141d20     GuMTD.obj
 0002:00002d50       ??_7?$LocalConvex@VConvexHullV@Gu@physx@@@Gu@physx@@6B@ 0000000180141d50     GuMTD.obj
 0002:00002d80       __real@2edbe6ff            0000000180141d80     GuMTD.obj
 0002:00002d84       __real@3ccccccd            0000000180141d84     GuMTD.obj
 0002:00002d88       __real@3dcccccd            0000000180141d88     GuMTD.obj
 0002:00002d8c       __real@ff7fffff            0000000180141d8c     GuMTD.obj
 0002:00002d90       __xmm@0000000000000000000000003f800000 0000000180141d90     GuMTD.obj
 0002:00002da0       __xmm@00000000000000003f80000000000000 0000000180141da0     GuMTD.obj
 0002:00002db0       __xmm@000000003f8000000000000000000000 0000000180141db0     GuMTD.obj
 0002:00002dc0       __xmm@000000003f8000003f8000003f800000 0000000180141dc0     GuMTD.obj
 0002:00002dd0       __xmm@00000000ffffffffffffffffffffffff 0000000180141dd0     GuMTD.obj
 0002:00002de0       __xmm@34000000340000003400000034000000 0000000180141de0     GuMTD.obj
 0002:00002df0       __xmm@358637bd358637bd358637bd358637bd 0000000180141df0     GuMTD.obj
 0002:00002e00       __xmm@3dcccccd3dcccccd3dcccccd3dcccccd 0000000180141e00     GuMTD.obj
 0002:00002e10       __xmm@3e4ccccd3e4ccccd3e4ccccd3e4ccccd 0000000180141e10     GuMTD.obj
 0002:00002e20       __xmm@3f7ff1413f7ff1413f7ff1413f7ff141 0000000180141e20     GuMTD.obj
 0002:00002e30       __xmm@3f7ff2e53f7ff2e53f7ff2e53f7ff2e5 0000000180141e30     GuMTD.obj
 0002:00002e40       __xmm@3f8000003f8000003f8000003f800000 0000000180141e40     GuMTD.obj
 0002:00002e50       __xmm@7f7fffff7f7fffff7f7fffff7f7fffff 0000000180141e50     GuMTD.obj
 0002:00002e60       __xmm@bf000000bf000000bf000000bf000000 0000000180141e60     GuMTD.obj
 0002:00002e70       ??_7?$RelativeConvex@VBoxV@Gu@physx@@@Gu@physx@@6B@ 0000000180141e70     GuOverlapTests.obj
 0002:00002ea0       ??_7?$RelativeConvex@VConvexHullV@Gu@physx@@@Gu@physx@@6B@ 0000000180141ea0     GuOverlapTests.obj
 0002:00002ed0       ??_C@_0EC@MLIJOGHA@Height?5Field?5Overlap?5test?5calle@ 0000000180141ed0     GuOverlapTests.obj
 0002:00002f20       ??_C@_0FF@NFEOOANL@C?3?2Users?2Jungle?2Documents?2GitHu@ 0000000180141f20     GuOverlapTests.obj
 0002:00002fa0       ??_C@_0EC@GJLDADPE@Height?5Field?5Raycast?5test?5calle@ 0000000180141fa0     GuRaycastTests.obj
 0002:00002ff0       ??_C@_0FF@CGIDJHHB@C?3?2Users?2Jungle?2Documents?2GitHu@ 0000000180141ff0     GuRaycastTests.obj
 0002:00003080       __real@1e3ce508            0000000180142080     GuRaycastTests.obj
 0002:00003084       __real@28800000            0000000180142084     GuRaycastTests.obj
 0002:00003088       __real@33d6bf95            0000000180142088     GuRaycastTests.obj
 0002:0000308c       __real@3727c5ac            000000018014208c     GuRaycastTests.obj
 0002:00003090       __real@3f0147ae            0000000180142090     GuRaycastTests.obj
 0002:00003094       __real@3f7ffffe            0000000180142094     GuRaycastTests.obj
 0002:00003098       __real@3f800347            0000000180142098     GuRaycastTests.obj
 0002:0000309c       __real@41200000            000000018014209c     GuRaycastTests.obj
 0002:000030a0       __real@80000000            00000001801420a0     GuRaycastTests.obj
 0002:000030a4       __real@b3d6bf95            00000001801420a4     GuRaycastTests.obj
 0002:000030a8       __real@b8d1b717            00000001801420a8     GuRaycastTests.obj
 0002:000030ac       __real@c1200000            00000001801420ac     GuRaycastTests.obj
 0002:000030e0       ??_7?$MeshHitCallback@UPxRaycastHit@physx@@@Gu@physx@@6B@ 00000001801420e0     GuSweepMTD.obj
 0002:000030f0       ??_7MeshMTDGenerationCallback@@6B@ 00000001801420f0     GuSweepMTD.obj
 0002:00003100       ??_7MidPhaseQueryLocalReport@@6B@ 0000000180142100     GuSweepMTD.obj
 0002:00003110       __real@3f933333            0000000180142110     GuSweepMTD.obj
 0002:00003120       __xmm@00000000000000003f8000003f800000 0000000180142120     GuSweepMTD.obj
 0002:00003130       __xmm@3e19999a3e19999a3e19999a3e19999a 0000000180142130     GuSweepMTD.obj
 0002:00003140       __xmm@3e8000003e8000003e8000003e800000 0000000180142140     GuSweepMTD.obj
 0002:00003170       __real@3c23d70a            0000000180142170     GuSweepSharedTests.obj
 0002:00003174       __real@42c80000            0000000180142174     GuSweepSharedTests.obj
 0002:00003180       __xmm@000000ff000000ff000000ff000000ff 0000000180142180     GuSweepSharedTests.obj
 0002:00003190       __xmm@ffffffffffffffffffffffffffffffff 0000000180142190     GuSweepSharedTests.obj
 0002:000031a0       ??_C@_0EA@GNDJNJGB@Height?5Field?5Sweep?5test?5called?5@ 00000001801421a0     GuSweepTests.obj
 0002:000031e0       ??_C@_0FD@HKCDCHDJ@C?3?2Users?2Jungle?2Documents?2GitHu@ 00000001801421e0     GuSweepTests.obj
 0002:00003260       ??_7?$LocalConvex@VBoxV@Gu@physx@@@Gu@physx@@6B@ 0000000180142260     GuSweepTests.obj
 0002:00003290       ??_7?$LocalConvex@VTriangleV@Gu@physx@@@Gu@physx@@6B@ 0000000180142290     GuSweepTests.obj
 0002:000032c0       __xmm@00000002000000020000000200000002 00000001801422c0     GuSweepTests.obj
 0002:000032d0       __xmm@3eaaaa9f3eaaaa9f3eaaaa9f3eaaaa9f 00000001801422d0     GuSweepTests.obj
 0002:00003300       ??_C@_0FG@BAGFKBAN@C?3?2Users?2Jungle?2Documents?2GitHu@ 0000000180142300     GuAABBTreeBuild.obj
 0002:00003380       ??_7PxBVHStructure@physx@@6B@ 0000000180142380     GuBVHStructure.obj
 0002:000033d0       ??_C@_0P@CDPKBIIF@PxBVHStructure@ 00000001801423d0     GuBVHStructure.obj
 0002:000033e0       ??_7RefCountable@Cm@physx@@6B@ 00000001801423e0     GuBVHStructure.obj
 0002:000033f0       ??_7BVHStructure@Gu@physx@@6BPxBVHStructure@2@@ 00000001801423f0     GuBVHStructure.obj
 0002:00003440       ??_7BVHStructure@Gu@physx@@6BRefCountable@Cm@2@@ 0000000180142440     GuBVHStructure.obj
 0002:00003450       ??_C@_0FF@FBBOBJDJ@C?3?2Users?2Jungle?2Documents?2GitHu@ 0000000180142450     GuBVHStructure.obj
 0002:000034a8       ??_C@_0DF@GMOKOMPK@Gu?3?3BVHStructure?3?3release?3?5doub@ 00000001801424a8     GuBVHStructure.obj
 0002:00003540       __real@00000000            0000000180142540     GuCCDSweepConvexMesh.obj
 0002:00003544       __real@3ca3d70a            0000000180142544     GuCCDSweepConvexMesh.obj
 0002:00003548       __real@3f8ccccd            0000000180142548     GuCCDSweepConvexMesh.obj
 0002:0000354c       __real@b58637bd            000000018014254c     GuCCDSweepConvexMesh.obj
 0002:00003550       __xmm@000000000000000000000000fe7fffff 0000000180142550     GuCCDSweepConvexMesh.obj
 0002:00003560       __xmm@fe7ffffffe7fffff7e7fffff7e7fffff 0000000180142560     GuCCDSweepConvexMesh.obj
 0002:00003590       ??_7?$RelativeConvex@VCapsuleV@Gu@physx@@@Gu@physx@@6B@ 0000000180142590     GuCCDSweepPrimitives.obj
 0002:000035c0       ??_7?$RelativeConvex@VTriangleV@Gu@physx@@@Gu@physx@@6B@ 00000001801425c0     GuCCDSweepPrimitives.obj
 0002:000035f0       __real@3ba3d70a            00000001801425f0     GuCCDSweepPrimitives.obj
 0002:000035f4       __real@501502f9            00000001801425f4     GuCCDSweepPrimitives.obj
 0002:00003700       __real@3f7fbe77            0000000180142700     GuContactBoxBox.obj
 0002:00003750       __real@3a83126f            0000000180142750     GuContactCapsuleCapsule.obj
 0002:00003754       __real@3f7ff2e5            0000000180142754     GuContactCapsuleCapsule.obj
 0002:000037e0       __real@358637be            00000001801427e0     GuContactCapsuleMesh.obj
 0002:000037e4       __real@3eaaaaab            00000001801427e4     GuContactCapsuleMesh.obj
 0002:000037e8       __real@3f8020c5            00000001801427e8     GuContactCapsuleMesh.obj
 0002:000037ec       __real@ba83126f            00000001801427ec     GuContactCapsuleMesh.obj
 0002:00003840       ??_7ConvexMeshContactGenerationCallback@@6B@ 0000000180142840     GuContactConvexMesh.obj
 0002:000038c0       __real@333bbd2e            00000001801428c0     GuContactPolygonPolygon.obj
 0002:000038c4       __real@3ec3ef15            00000001801428c4     GuContactPolygonPolygon.obj
 0002:000038c8       __real@3ec3ef16            00000001801428c8     GuContactPolygonPolygon.obj
 0002:000038cc       __real@3ec3ef17            00000001801428cc     GuContactPolygonPolygon.obj
 0002:000038d0       __real@3ec3ef18            00000001801428d0     GuContactPolygonPolygon.obj
 0002:000038d4       __real@3f6c835e            00000001801428d4     GuContactPolygonPolygon.obj
 0002:000038e0       __xmm@000000003ec3ef17bf6c835e00000000 00000001801428e0     GuContactPolygonPolygon.obj
 0002:000038f0       __xmm@000000003f6c835e3ec3ef1500000000 00000001801428f0     GuContactPolygonPolygon.obj
 0002:00003900       __xmm@3f3504f33f3504f3000000003ec3ef16 0000000180142900     GuContactPolygonPolygon.obj
 0002:00003910       __xmm@3f3504f3bf3504f3000000003f6c835e 0000000180142910     GuContactPolygonPolygon.obj
 0002:00003920       __xmm@3f6c835e00000000000000003f800000 0000000180142920     GuContactPolygonPolygon.obj
 0002:00003930       __xmm@bec3ef18000000003f800000b33bbd2e 0000000180142930     GuContactPolygonPolygon.obj
 0002:000039e0       ??_C@_0FA@GLHJHDNN@C?3?2Users?2Jungle?2Documents?2GitHu@ 00000001801429e0     GuContactSphereMesh.obj
 0002:00003a70       __real@bf000000            0000000180142a70     GuContactSphereSphere.obj
 0002:00003a80       ??_C@_0FN@PEKKMJIM@C?3?2Users?2Jungle?2Documents?2GitHu@ 0000000180142a80     GuBigConvexData.obj
 0002:00003b00       ??_7PxConvexMesh@physx@@6B@ 0000000180142b00     GuConvexMesh.obj
 0002:00003b78       ??_7ConvexMesh@Gu@physx@@6BPxConvexMesh@2@@ 0000000180142b78     GuConvexMesh.obj
 0002:00003c00       ??_7ConvexMesh@Gu@physx@@6BRefCountable@Cm@2@@ 0000000180142c00     GuConvexMesh.obj
 0002:00003c10       ??_C@_0FK@NAJDHKHF@C?3?2Users?2Jungle?2Documents?2GitHu@ 0000000180142c10     GuConvexMesh.obj
 0002:00003c70       ??_C@_0DM@NEJKOFIP@Loading?5convex?5mesh?5failed?3?5Dep@ 0000000180142c70     GuConvexMesh.obj
 0002:00003cb0       ??_C@_0DD@GDAMDLJL@Gu?3?3ConvexMesh?3?3release?3?5double@ 0000000180142cb0     GuConvexMesh.obj
 0002:00003d10       __xmm@000000000000000000000000ffffffff 0000000180142d10     GuConvexSupportTable.obj
 0002:00003d20       __xmm@0000000000000000ffffffff00000000 0000000180142d20     GuConvexSupportTable.obj
 0002:00003d30       __xmm@0000000000000000ffffffffffffffff 0000000180142d30     GuConvexSupportTable.obj
 0002:00003d40       __xmm@00000000ffffffff0000000000000000 0000000180142d40     GuConvexSupportTable.obj
 0002:00003d50       __xmm@00000000ffffffff00000000ffffffff 0000000180142d50     GuConvexSupportTable.obj
 0002:00003d60       __xmm@00000000ffffffffffffffff00000000 0000000180142d60     GuConvexSupportTable.obj
 0002:00003e10       __real@2b8cbccc            0000000180142e10     GuDistanceSegmentTriangle.obj
 0002:00003e20       __xmm@3f8000013f8000013f8000013f800001 0000000180142e20     GuDistanceSegmentTriangle.obj
 0002:00003e30       __xmm@b4000000b4000000b4000000b4000000 0000000180142e30     GuDistanceSegmentTriangle.obj
 0002:00003e90       __xmm@38d1b71738d1b71738d1b71738d1b717 0000000180142e90     GuGJKSimplex.obj
 0002:00003ea0       __xmm@b58637bdb58637bdb58637bdb58637bd 0000000180142ea0     GuGJKSimplex.obj
 0002:00003ed0       ??_7PxHeightField@physx@@6B@ 0000000180142ed0     GuHeightField.obj
 0002:00003f70       ??_7HeightField@Gu@physx@@6BPxHeightField@2@@ 0000000180142f70     GuHeightField.obj
 0002:00004020       ??_7HeightField@Gu@physx@@6BRefCountable@Cm@2@@ 0000000180143020     GuHeightField.obj
 0002:00004030       ??_C@_0DL@DNGFPCEG@Gu?3?3HeightField?3?3onRefCountZero@ 0000000180143030     GuHeightField.obj
 0002:00004070       ??_C@_0FH@IDHIDPBF@C?3?2Users?2Jungle?2Documents?2GitHu@ 0000000180143070     GuHeightField.obj
 0002:000040c8       ??_C@_0CI@DMKEKGNK@Gu?3?3HeightField?3?3load?3?5PX_ALLOC@ 00000001801430c8     GuHeightField.obj
 0002:000040f0       ??_C@_0EK@NCLLADPK@C?3?2Users?2Jungle?2Documents?2GitHu@ 00000001801430f0     GuHeightField.obj
 0002:00004160       __real@3a03126f            0000000180143160     GuHeightFieldUtil.obj
 0002:00004164       __real@3f19999a            0000000180143164     GuHeightFieldUtil.obj
 0002:000041d0       ??_7HeightFieldTraceSegmentReport@@6B@ 00000001801431d0     GuSweepsHF.obj
 0002:000041e0       ??_7CapsuleTraceSegmentReport@@6B@ 00000001801431e0     GuSweepsHF.obj
 0002:000041f0       ??_7ConvexTraceSegmentReport@@6B@ 00000001801431f0     GuSweepsHF.obj
 0002:00004200       ??_7BoxTraceSegmentReport@@6B@ 0000000180143200     GuSweepsHF.obj
 0002:00004210       __real@aedbe6ff            0000000180143210     GuSweepsHF.obj
 0002:00004240       __real@3089705f            0000000180143240     GuIntersectionRayBox.obj
 0002:00004244       __real@34000000            0000000180143244     GuIntersectionRayBox.obj
 0002:00004248       __real@b4000000            0000000180143248     GuIntersectionRayBox.obj
 0002:00004250       __xmm@000000003089705f3089705f3089705f 0000000180143250     GuIntersectionRayBox.obj
 0002:00004260       __xmm@00000000bf800000bf800000bf800000 0000000180143260     GuIntersectionRayBox.obj
 0002:000042b0       ??_C@_0FB@EGDEGNGH@C?3?2Users?2Jungle?2Documents?2GitHu@ 00000001801432b0     GuBV4.obj
 0002:00004330       ??_C@_0FG@PFNLHJB@C?3?2Users?2Jungle?2Documents?2GitHu@ 0000000180143330     GuBV4Build.obj
 0002:00004388       __real@38000100            0000000180143388     GuBV4Build.obj
 0002:0000438c       __real@3e93cd3a            000000018014338c     GuBV4Build.obj
 0002:00004390       __real@46fffe00            0000000180143390     GuBV4Build.obj
 0002:00004394       __real@be93cd3a            0000000180143394     GuBV4Build.obj
 0002:000043c0       __xmm@0000ffff0000ffff0000ffff0000ffff 00000001801433c0     GuBV4_AABBSweep.obj
 0002:000043d0       __xmm@3089705f3089705f3089705f3089705f 00000001801433d0     GuBV4_AABBSweep.obj
 0002:000043e0       __xmm@33d6bf9533d6bf9533d6bf9533d6bf95 00000001801433e0     GuBV4_AABBSweep.obj
 0002:000043f0       __xmm@40000000400000004000000040000000 00000001801433f0     GuBV4_AABBSweep.obj
 0002:000044c0       __real@40800000            00000001801434c0     GuBV4_SphereOverlap.obj
 0002:00004510       __xmm@00000000000000007f7fffff00000000 0000000180143510     GuMidphaseBV4.obj
 0002:00004580       ??_C@_0FD@EHCCILIF@Adjacency?5information?5not?5creat@ 0000000180143580     GuMeshQuery.obj
 0002:000045e0       ??_C@_0FH@IAJAMHHO@C?3?2Users?2Jungle?2Documents?2GitHu@ 00000001801435e0     GuMeshQuery.obj
 0002:00004638       __real@4cbebc20            0000000180143638     GuMeshQuery.obj
 0002:00004660       ??_7Callback@RTree@Gu@physx@@6B@ 0000000180143660     GuMidphaseRTree.obj
 0002:00004678       ??_7CallbackRaycast@RTree@Gu@physx@@6B@ 0000000180143678     GuMidphaseRTree.obj
 0002:00004678       ??_7CallbackRefit@RTree@Gu@physx@@6B@ 0000000180143678     GuTriangleMeshRTree.obj
 0002:00004688       ??_7?$RayRTreeCallback@$00$0A@@@6BCallbackRaycast@RTree@Gu@physx@@@ 0000000180143688     GuMidphaseRTree.obj
 0002:00004688       ??_7?$RayRTreeCallback@$0A@$0A@@@6BCallbackRaycast@RTree@Gu@physx@@@ 0000000180143688     GuMidphaseRTree.obj
 0002:00004698       ??_7?$RayRTreeCallback@$00$0A@@@6BCallback@RTree@Gu@physx@@@ 0000000180143698     GuMidphaseRTree.obj
 0002:00004698       ??_7?$RayRTreeCallback@$0A@$0A@@@6BCallback@RTree@Gu@physx@@@ 0000000180143698     GuMidphaseRTree.obj
 0002:000046b0       ??_7RayMeshColliderCallback@@6B@ 00000001801436b0     GuMidphaseRTree.obj
 0002:000046c0       ??_7?$RayRTreeCallback@$0A@$00@@6BCallbackRaycast@RTree@Gu@physx@@@ 00000001801436c0     GuMidphaseRTree.obj
 0002:000046d0       ??_7?$RayRTreeCallback@$0A@$00@@6BCallback@RTree@Gu@physx@@@ 00000001801436d0     GuMidphaseRTree.obj
 0002:000046e8       ??_7?$RayRTreeCallback@$00$00@@6BCallbackRaycast@RTree@Gu@physx@@@ 00000001801436e8     GuMidphaseRTree.obj
 0002:000046f8       ??_7?$RayRTreeCallback@$00$00@@6BCallback@RTree@Gu@physx@@@ 00000001801436f8     GuMidphaseRTree.obj
 0002:000047d0       ??_7ConvexVsMeshOverlapCallback@@6B@ 00000001801437d0     GuOverlapTestsMesh.obj
 0002:000047e0       ?MN@RTreePage@Gu@physx@@2MB 00000001801437e0     GuRTree.obj
 0002:000047e4       ?MX@RTreePage@Gu@physx@@2MB 00000001801437e4     GuRTree.obj
 0002:00004810       ??_C@_0FD@NBABJOFG@C?3?2Users?2Jungle?2Documents?2GitHu@ 0000000180143810     GuRTree.obj
 0002:000048e0       ??_7SweepShapeMeshHitCallback@Gu@physx@@6B@ 00000001801438e0     GuSweepsMesh.obj
 0002:000048f0       ??_7SweepCapsuleMeshHitCallback@Gu@physx@@6B@ 00000001801438f0     GuSweepsMesh.obj
 0002:00004900       ??_7SweepBoxMeshHitCallback@Gu@physx@@6B@ 0000000180143900     GuSweepsMesh.obj
 0002:00004910       ??_7SweepConvexMeshHitCallback@Gu@physx@@6B@ 0000000180143910     GuSweepsMesh.obj
 0002:00004940       ??_7PxTriangleMesh@physx@@6B@ 0000000180143940     GuTriangleMesh.obj
 0002:000049c8       ??_7TriangleMesh@Gu@physx@@6BPxTriangleMesh@2@@ 00000001801439c8     GuTriangleMesh.obj
 0002:00004a68       ??_7TriangleMesh@Gu@physx@@6BRefCountable@Cm@2@@ 0000000180143a68     GuTriangleMesh.obj
 0002:00004a78       ??_C@_0DF@DNLKAHAL@Gu?3?3TriangleMesh?3?3release?3?5doub@ 0000000180143a78     GuTriangleMesh.obj
 0002:00004ab0       ??_C@_0FK@OOMDNFJE@C?3?2Users?2Jungle?2Documents?2GitHu@ 0000000180143ab0     GuTriangleMesh.obj
 0002:00004b10       ??_C@_0GH@IGKFPLIJ@PxTriangleMesh?3?3getVerticesForM@ 0000000180143b10     GuTriangleMesh.obj
 0002:00004b80       ??_C@_0FF@LHAOBIMM@PxTriangleMesh?3?3refitBVH?$CI?$CJ?5is?5o@ 0000000180143b80     GuTriangleMesh.obj
 0002:00004c00       ??_C@_0BE@CNJKIINO@PxBVH34TriangleMesh@ 0000000180143c00     GuTriangleMeshBV4.obj
 0002:00004c18       ??_7BV4TriangleMesh@Gu@physx@@6BPxTriangleMesh@2@@ 0000000180143c18     GuTriangleMeshBV4.obj
 0002:00004cb8       ??_7BV4TriangleMesh@Gu@physx@@6BRefCountable@Cm@2@@ 0000000180143cb8     GuTriangleMeshBV4.obj
 0002:00004cf0       ??_C@_0BE@EIFHCCBO@PxBVH33TriangleMesh@ 0000000180143cf0     GuTriangleMeshRTree.obj
 0002:00004d08       ??_7RTreeTriangleMesh@Gu@physx@@6BPxTriangleMesh@2@@ 0000000180143d08     GuTriangleMeshRTree.obj
 0002:00004da8       ??_7RTreeTriangleMesh@Gu@physx@@6BRefCountable@Cm@2@@ 0000000180143da8     GuTriangleMeshRTree.obj
 0002:00004db8       ??_7?$RefitCallback@G@physx@@6B@ 0000000180143db8     GuTriangleMeshRTree.obj
 0002:00004dc8       ??_7?$RefitCallback@I@physx@@6B@ 0000000180143dc8     GuTriangleMeshRTree.obj
 0002:00004de0       __xmm@38383838383838383838383838383838 0000000180143de0     GuTriangleMeshRTree.obj
 0002:00004df0       ??_C@_0FC@KPNDCBIH@C?3?2Users?2Jungle?2Documents?2GitHu@ 0000000180143df0     GuBV32.obj
 0002:00004e70       ??_C@_0FH@NFFKBJEL@C?3?2Users?2Jungle?2Documents?2GitHu@ 0000000180143e70     GuBV32Build.obj
 0002:00004ef0       __xmm@00000000358637bd358637bd358637bd 0000000180143ef0     GuPCMContactBoxBox.obj
 0002:00004f00       __xmm@3d4ccccd3d4ccccd3d4ccccd3d4ccccd 0000000180143f00     GuPCMContactBoxBox.obj
 0002:00004f10       __xmm@3f4ccccd3f4ccccd3f4ccccd3f4ccccd 0000000180143f10     GuPCMContactBoxBox.obj
 0002:00004f20       __xmm@ffffffff00000000ffffffffffffffff 0000000180143f20     GuPCMContactBoxBox.obj
 0002:00004f50       ??_7?$LocalConvex@VConvexHullNoScaleV@Gu@physx@@@Gu@physx@@6B@ 0000000180143f50     GuPCMContactBoxConvex.obj
 0002:00004f80       __xmm@3f3504f33f3504f33f3504f33f3504f3 0000000180143f80     GuPCMContactBoxConvex.obj
 0002:00004fd0       __xmm@ffffffffffffffffffffffff00000000 0000000180143fd0     GuPCMContactCapsuleCapsule.obj
 0002:00005000       __xmm@3fa000003fa000003fa000003fa00000 0000000180144000     GuPCMContactCapsuleConvex.obj
 0002:00005030       ??_7PCMCapsuleVsHeightfieldContactGenerationCallback@physx@@6B@ 0000000180144030     GuPCMContactCapsuleHeightField.obj
 0002:00005040       __real@3f7f3b64            0000000180144040     GuPCMContactCapsuleHeightField.obj
 0002:00005050       __xmm@3f7ef9db3f7ef9db3f7ef9db3f7ef9db 0000000180144050     GuPCMContactCapsuleHeightField.obj
 0002:00005090       ??_7PCMCapsuleVsMeshContactGenerationCallback@physx@@6B@ 0000000180144090     GuPCMContactCapsuleMesh.obj
 0002:000050c0       ??_7?$SupportLocalImpl@VTriangleV@Gu@physx@@@Gu@physx@@6B@ 00000001801440c0     GuPCMContactConvexCommon.obj
 0002:000050e0       ??_C@_0FJ@MNJGJGGA@C?3?2Users?2Jungle?2Documents?2GitHu@ 00000001801440e0     GuPCMContactConvexCommon.obj
 0002:00005140       __xmm@3cf5c2803cf5c2803cf5c2803cf5c280 0000000180144140     GuPCMContactConvexCommon.obj
 0002:00005150       __xmm@3f7851ec3f7851ec3f7851ec3f7851ec 0000000180144150     GuPCMContactConvexCommon.obj
 0002:00005160       __xmm@3f7ff9723f7ff9723f7ff9723f7ff972 0000000180144160     GuPCMContactConvexCommon.obj
 0002:00005170       __xmm@3f7fffef3f7fffef3f7fffef3f7fffef 0000000180144170     GuPCMContactConvexCommon.obj
 0002:000051a0       ??_7?$RelativeConvex@VConvexHullNoScaleV@Gu@physx@@@Gu@physx@@6B@ 00000001801441a0     GuPCMContactConvexConvex.obj
 0002:000051f0       ??_7PCMConvexVsHeightfieldContactGenerationCallback@physx@@6B@ 00000001801441f0     GuPCMContactConvexHeightField.obj
 0002:00005200       __xmm@3f19999a3f19999a3f19999a3f19999a 0000000180144200     GuPCMContactConvexHeightField.obj
 0002:00005240       ??_7PCMConvexVsMeshContactGenerationCallback@physx@@6B@ 0000000180144240     GuPCMContactConvexMesh.obj
 0002:00005270       __xmm@3f34fdf43f34fdf43f34fdf43f34fdf4 0000000180144270     GuPCMContactGenBoxConvex.obj
 0002:000052a0       __xmm@3f80a3d73f80a3d73f80a3d73f80a3d7 00000001801442a0     GuPCMContactGenSphereCapsule.obj
 0002:000052b0       __xmm@bba3d70abba3d70abba3d70abba3d70a 00000001801442b0     GuPCMContactGenSphereCapsule.obj
 0002:00005300       __real@3b23d70b            0000000180144300     GuPCMContactPlaneCapsule.obj
 0002:00005310       __xmm@3ca3d70a3ca3d70a3ca3d70a3ca3d70a 0000000180144310     GuPCMContactPlaneCapsule.obj
 0002:000053c0       ??_7PCMSphereVsHeightfieldContactGenerationCallback@physx@@6B@ 00000001801443c0     GuPCMContactSphereHeightField.obj
 0002:00005400       ??_7PCMSphereVsMeshContactGenerationCallback@physx@@6B@ 0000000180144400     GuPCMContactSphereMesh.obj
 0002:00005450       __xmm@3727c5ac3727c5ac3727c5ac3727c5ac 0000000180144450     GuPCMContactSphereSphere.obj
 0002:00005470       ?gPCMBoxPolygonData@Gu@physx@@3QBEB 0000000180144470     GuPCMShapeConvex.obj
 0002:000054e0       ?invalidateThresholds@Gu@physx@@3QBMB 00000001801444e0     GuPersistentContactManifold.obj
 0002:000054f8       ?invalidateQuatThresholds@Gu@physx@@3QBMB 00000001801444f8     GuPersistentContactManifold.obj
 0002:00005510       ?invalidateThresholds2@Gu@physx@@3QBMB 0000000180144510     GuPersistentContactManifold.obj
 0002:00005520       ?invalidateQuatThresholds2@Gu@physx@@3QBMB 0000000180144520     GuPersistentContactManifold.obj
 0002:00005530       __xmm@ff7fffffff7fffffff7fffffff7fffff 0000000180144530     GuPersistentContactManifold.obj
 0002:00005540       __xmm@ffffffffffffffff00000000ffffffff 0000000180144540     GuPersistentContactManifold.obj
 0002:00005590       __real@b727c5ac            0000000180144590     GuSweepBoxSphere.obj
 0002:00005600       ??_C@_0FO@LOKIGPEE@C?3?2Users?2Jungle?2Documents?2GitHu@ 0000000180144600     GuSweepCapsuleBox.obj
 0002:00005680       __real@3f7fff58            0000000180144680     GuSweepCapsuleTriangle.obj
 0002:000056d0       __sz_PhysXFoundation_64_dll 00000001801446d0     PhysXFoundation_64:PhysXFoundation_64.dll
 0002:000056e8       ??_C@_1BK@DBDEIDLH@?$AAK?$AAE?$AAR?$AAN?$AAE?$AAL?$AA3?$AA2?$AA?4?$AAD?$AAL?$AAL@ 00000001801446e8     Delayimp:delayhlp.obj
 0002:00005708       ??_C@_0BI@OMNLIJDB@AcquireSRWLockExclusive@ 0000000180144708     Delayimp:delayhlp.obj
 0002:00005720       ??_C@_0BI@HMIEPCNJ@ReleaseSRWLockExclusive@ 0000000180144720     Delayimp:delayhlp.obj
 0002:00005738       __pfnDliFailureHook2       0000000180144738     Delayimp:delayhk1.obj
 0002:00005740       __bChangeProtectionOfWholeDloadSection 0000000180144740     Delayimp:delaygv1.obj
 0002:00005750       ??_7type_info@@6B@         0000000180144750     LIBCMT:std_type_info_static.obj
 0002:000057c0       _pDefaultRawDllMain        00000001801447c0     LIBCMT:dll_dllmain.obj
 0002:000057c0       _pRawDllMain               00000001801447c0     LIBCMT:dll_dllmain.obj
 0002:000057d0       _load_config_used          00000001801447d0     LIBCMT:loadcfg.obj
 0002:00005910       _pDestructExceptionObject  0000000180144910     libvcruntime:ehhelpers.obj
 0002:00006030       ??_C@_08EHJDFFNH@__based?$CI@ 0000000180145030     libvcruntime:undname.obj
 0002:00006040       ??_C@_07KOLFKCDI@__cdecl@  0000000180145040     libvcruntime:undname.obj
 0002:00006048       ??_C@_08GHMPAG@__pascal@   0000000180145048     libvcruntime:undname.obj
 0002:00006058       ??_C@_09IFJBGAPI@__stdcall@ 0000000180145058     libvcruntime:undname.obj
 0002:00006068       ??_C@_0L@NPHFGOKO@__thiscall@ 0000000180145068     libvcruntime:undname.obj
 0002:00006078       ??_C@_0L@JMKHOMEK@__fastcall@ 0000000180145078     libvcruntime:undname.obj
 0002:00006088       ??_C@_0N@BCKKPABJ@__vectorcall@ 0000000180145088     libvcruntime:undname.obj
 0002:00006098       ??_C@_09HIJEGCPM@__clrcall@ 0000000180145098     libvcruntime:undname.obj
 0002:000060a4       ??_C@_06GHPCKEAG@__eabi@   00000001801450a4     libvcruntime:undname.obj
 0002:000060b0       ??_C@_09IOPIDJLG@__swift_1@ 00000001801450b0     libvcruntime:undname.obj
 0002:000060c0       ??_C@_09KFNFGKHF@__swift_2@ 00000001801450c0     libvcruntime:undname.obj
 0002:000060d0       ??_C@_09LMMOFLDE@__swift_3@ 00000001801450d0     libvcruntime:undname.obj
 0002:000060e0       ??_C@_07JOMMBBKO@__ptr64@  00000001801450e0     libvcruntime:undname.obj
 0002:000060e8       ??_C@_0L@PILCLIHE@__restrict@ 00000001801450e8     libvcruntime:undname.obj
 0002:000060f8       ??_C@_0M@GFIIJFMG@__unaligned@ 00000001801450f8     libvcruntime:undname.obj
 0002:00006108       ??_C@_09DHDLOLLB@restrict?$CI@ 0000000180145108     libvcruntime:undname.obj
 0002:00006112       ??_C@_00CNPNBAHC@@         0000000180145112     libvcruntime:undname.obj
 0002:00006114       ??_C@_04NIHEBCM@?5new@     0000000180145114     libvcruntime:undname.obj
 0002:00006120       ??_C@_07FPCDHGMM@?5delete@ 0000000180145120     libvcruntime:undname.obj
 0002:00006128       ??_C@_01NEMOKFLO@?$DN@     0000000180145128     libvcruntime:undname.obj
 0002:0000612c       ??_C@_02GPIOPFAK@?$DO?$DO@ 000000018014512c     libvcruntime:undname.obj
 0002:00006130       ??_C@_02FODMEDOG@?$DM?$DM@ 0000000180145130     libvcruntime:undname.obj
 0002:00006134       ??_C@_01DCLJPIOD@?$CB@     0000000180145134     libvcruntime:undname.obj
 0002:00006138       ??_C@_02EGOFBIJA@?$DN?$DN@ 0000000180145138     libvcruntime:undname.obj
 0002:0000613c       ??_C@_02FDNJECIE@?$CB?$DN@ 000000018014513c     libvcruntime:undname.obj
 0002:00006140       ??_C@_02GPECMEKF@?$FL?$FN@ 0000000180145140     libvcruntime:undname.obj
 0002:00006148       ??_C@_08LHJFAFGD@operator@ 0000000180145148     libvcruntime:undname.obj
 0002:00006154       ??_C@_02HBOOOICD@?9?$DO@   0000000180145154     libvcruntime:undname.obj
 0002:00006158       ??_C@_01NBENCBCI@?$CK@     0000000180145158     libvcruntime:undname.obj
 0002:0000615c       ??_C@_02ECNGHCIF@?$CL?$CL@ 000000018014515c     libvcruntime:undname.obj
 0002:00006160       ??_C@_02BAABKJLB@?9?9@     0000000180145160     libvcruntime:undname.obj
 0002:00006164       ??_C@_01JOAMLHOP@?9@       0000000180145164     libvcruntime:undname.obj
 0002:00006168       ??_C@_01MIFGBAGJ@?$CL@     0000000180145168     libvcruntime:undname.obj
 0002:0000616c       ??_C@_01HNPIGOCE@?$CG@     000000018014516c     libvcruntime:undname.obj
 0002:00006170       ??_C@_03MNHNFDLC@?9?$DO?$CK@ 0000000180145170     libvcruntime:undname.obj
 0002:00006174       ??_C@_01KMDKNFGN@?1@       0000000180145174     libvcruntime:undname.obj
 0002:00006178       ??_C@_01FGNFDNOH@?$CF@     0000000180145178     libvcruntime:undname.obj
 0002:0000617c       ??_C@_01MNNFJEPP@?$DM@     000000018014517c     libvcruntime:undname.obj
 0002:00006180       ??_C@_02EHCHHCKH@?$DM?$DN@ 0000000180145180     libvcruntime:undname.obj
 0002:00006184       ??_C@_01PPODPGHN@?$DO@     0000000180145184     libvcruntime:undname.obj
 0002:00006188       ??_C@_02EEKDKGMJ@?$DO?$DN@ 0000000180145188     libvcruntime:undname.obj
 0002:0000618c       ??_C@_01IHBHIGKO@?0@       000000018014518c     libvcruntime:undname.obj
 0002:00006190       ??_C@_02HCKGKOFO@?$CI?$CJ@ 0000000180145190     libvcruntime:undname.obj
 0002:00006194       ??_C@_01PJKLJHI@?$HO@      0000000180145194     libvcruntime:undname.obj
 0002:00006198       ??_C@_01JKBOJNNK@?$FO@     0000000180145198     libvcruntime:undname.obj
 0002:0000619c       ??_C@_01DNKMNLPK@?$HM@     000000018014519c     libvcruntime:undname.obj
 0002:000061a0       ??_C@_02PPKAJPJL@?$CG?$CG@ 00000001801451a0     libvcruntime:undname.obj
 0002:000061a4       ??_C@_02NONPIBCD@?$HM?$HM@ 00000001801451a4     libvcruntime:undname.obj
 0002:000061a8       ??_C@_02FPIMKNGF@?$CK?$DN@ 00000001801451a8     libvcruntime:undname.obj
 0002:000061ac       ??_C@_02FOEOMHFC@?$CL?$DN@ 00000001801451ac     libvcruntime:undname.obj
 0002:000061b0       ??_C@_02FKMDLLOA@?9?$DN@   00000001801451b0     libvcruntime:undname.obj
 0002:000061b4       ??_C@_02FJEHGPIO@?1?$DN@   00000001801451b4     libvcruntime:undname.obj
 0002:000061b8       ??_C@_02FENAOKFI@?$CF?$DN@ 00000001801451b8     libvcruntime:undname.obj
 0002:000061bc       ??_C@_03IKFCCPFF@?$DO?$DO?$DN@ 00000001801451bc     libvcruntime:undname.obj
 0002:000061c0       ??_C@_03CDNPDDLA@?$DM?$DM?$DN@ 00000001801451c0     libvcruntime:undname.obj
 0002:000061c4       ??_C@_02FGJGFEAB@?$CG?$DN@ 00000001801451c4     libvcruntime:undname.obj
 0002:000061c8       ??_C@_02DHLNPPGH@?$HM?$DN@ 00000001801451c8     libvcruntime:undname.obj
 0002:000061cc       ??_C@_02MHEGNOJ@?$FO?$DN@  00000001801451cc     libvcruntime:undname.obj
 0002:000061d0       ??_C@_09IFPLHPGF@?$GAvftable?8@ 00000001801451d0     libvcruntime:undname.obj
 0002:000061e0       ??_C@_09BLBHBJP@?$GAvbtable?8@ 00000001801451e0     libvcruntime:undname.obj
 0002:000061f0       ??_C@_07FEEIOKP@?$GAvcall?8@ 00000001801451f0     libvcruntime:undname.obj
 0002:000061f8       ??_C@_08LLFFHHDJ@?$GAtypeof?8@ 00000001801451f8     libvcruntime:undname.obj
 0002:00006208       ??_C@_0BF@KDPPACIK@?$GAlocal?5static?5guard?8@ 0000000180145208     libvcruntime:undname.obj
 0002:00006220       ??_C@_08OBABFOLI@?$GAstring?8@ 0000000180145220     libvcruntime:undname.obj
 0002:00006230       ??_C@_0BD@JDLKDPAB@?$GAvbase?5destructor?8@ 0000000180145230     libvcruntime:undname.obj
 0002:00006248       ??_C@_0BN@DEGPLNFK@?$GAvector?5deleting?5destructor?8@ 0000000180145248     libvcruntime:undname.obj
 0002:00006268       ??_C@_0BO@OBMKPJIG@?$GAdefault?5constructor?5closure?8@ 0000000180145268     libvcruntime:undname.obj
 0002:00006288       ??_C@_0BN@IMDCHIKM@?$GAscalar?5deleting?5destructor?8@ 0000000180145288     libvcruntime:undname.obj
 0002:000062a8       ??_C@_0BO@PFGOCPJJ@?$GAvector?5constructor?5iterator?8@ 00000001801452a8     libvcruntime:undname.obj
 0002:000062c8       ??_C@_0BN@LFPFMEDL@?$GAvector?5destructor?5iterator?8@ 00000001801452c8     libvcruntime:undname.obj
 0002:000062e8       ??_C@_0CE@IKBNEHA@?$GAvector?5vbase?5constructor?5itera@ 00000001801452e8     libvcruntime:undname.obj
 0002:00006310       ??_C@_0BL@NILFHHPC@?$GAvirtual?5displacement?5map?8@ 0000000180145310     libvcruntime:undname.obj
 0002:00006330       ??_C@_0CB@JONCMFFK@?$GAeh?5vector?5constructor?5iterator@ 0000000180145330     libvcruntime:undname.obj
 0002:00006358       ??_C@_0CA@GCEOPDGL@?$GAeh?5vector?5destructor?5iterator?8@ 0000000180145358     libvcruntime:undname.obj
 0002:00006378       ??_C@_0CH@OOJPLCPH@?$GAeh?5vector?5vbase?5constructor?5it@ 0000000180145378     libvcruntime:undname.obj
 0002:000063a0       ??_C@_0BL@LLKPOHJI@?$GAcopy?5constructor?5closure?8@ 00000001801453a0     libvcruntime:undname.obj
 0002:000063c0       ??_C@_0BA@KBCDOMBN@?$GAudt?5returning?8@ 00000001801453c0     libvcruntime:undname.obj
 0002:000063d0       ??_C@_03KLGMFNMG@?$GAEH@   00000001801453d0     libvcruntime:undname.obj
 0002:000063d4       ??_C@_05KHLCHHI@?$GARTTI@  00000001801453d4     libvcruntime:undname.obj
 0002:000063e0       ??_C@_0BA@KKLDJDLB@?$GAlocal?5vftable?8@ 00000001801453e0     libvcruntime:undname.obj
 0002:000063f0       ??_C@_0CE@IIHCMGGL@?$GAlocal?5vftable?5constructor?5clos@ 00000001801453f0     libvcruntime:undname.obj
 0002:00006414       ??_C@_06FHBGPFGH@?5new?$FL?$FN@ 0000000180145414     libvcruntime:undname.obj
 0002:00006420       ??_C@_09LBNFPBCA@?5delete?$FL?$FN@ 0000000180145420     libvcruntime:undname.obj
 0002:00006430       ??_C@_0P@HJKNJFNN@?$GAomni?5callsig?8@ 0000000180145430     libvcruntime:undname.obj
 0002:00006440       ??_C@_0BL@CNOONJFP@?$GAplacement?5delete?5closure?8@ 0000000180145440     libvcruntime:undname.obj
 0002:00006460       ??_C@_0BN@CKNJLHMB@?$GAplacement?5delete?$FL?$FN?5closure?8@ 0000000180145460     libvcruntime:undname.obj
 0002:00006480       ??_C@_0CG@CFDHKGGD@?$GAmanaged?5vector?5constructor?5ite@ 0000000180145480     libvcruntime:undname.obj
 0002:000064a8       ??_C@_0CF@IMGKMJNO@?$GAmanaged?5vector?5destructor?5iter@ 00000001801454a8     libvcruntime:undname.obj
 0002:000064d0       ??_C@_0CG@HLDDJMAG@?$GAeh?5vector?5copy?5constructor?5ite@ 00000001801454d0     libvcruntime:undname.obj
 0002:000064f8       ??_C@_0CM@FCBBDIGB@?$GAeh?5vector?5vbase?5copy?5construct@ 00000001801454f8     libvcruntime:undname.obj
 0002:00006528       ??_C@_0BL@CLIPGLGB@?$GAdynamic?5initializer?5for?5?8@ 0000000180145528     libvcruntime:undname.obj
 0002:00006548       ??_C@_0CB@PDBIFEP@?$GAdynamic?5atexit?5destructor?5for?5@ 0000000180145548     libvcruntime:undname.obj
 0002:00006570       ??_C@_0CD@CGAJBKEJ@?$GAvector?5copy?5constructor?5iterat@ 0000000180145570     libvcruntime:undname.obj
 0002:00006598       ??_C@_0CJ@GJELGAMM@?$GAvector?5vbase?5copy?5constructor?5@ 0000000180145598     libvcruntime:undname.obj
 0002:000065c8       ??_C@_0CL@FGIJHLCE@?$GAmanaged?5vector?5copy?5constructo@ 00000001801455c8     libvcruntime:undname.obj
 0002:000065f8       ??_C@_0BM@PMGGMLDN@?$GAlocal?5static?5thread?5guard?8@ 00000001801455f8     libvcruntime:undname.obj
 0002:00006618       ??_C@_0N@BDNMDMOL@operator?5?$CC?$CC?5@ 0000000180145618     libvcruntime:undname.obj
 0002:00006628       ??_C@_0BC@GGEBGALA@operator?5co_await@ 0000000180145628     libvcruntime:undname.obj
 0002:00006640       ??_C@_0M@GAAIMMOH@operator?$DM?$DN?$DO@ 0000000180145640     libvcruntime:undname.obj
 0002:00006650       ??_C@_0BC@DAFEJGAK@?5Type?5Descriptor?8@ 0000000180145650     libvcruntime:undname.obj
 0002:00006668       ??_C@_0BM@LDKODKLH@?5Base?5Class?5Descriptor?5at?5?$CI@ 0000000180145668     libvcruntime:undname.obj
 0002:00006688       ??_C@_0BD@LGICGFMM@?5Base?5Class?5Array?8@ 0000000180145688     libvcruntime:undname.obj
 0002:000066a0       ??_C@_0BN@MECKDCOJ@?5Class?5Hierarchy?5Descriptor?8@ 00000001801456a0     libvcruntime:undname.obj
 0002:000066c0       ??_C@_0BK@CFCOFLF@?5Complete?5Object?5Locator?8@ 00000001801456c0     libvcruntime:undname.obj
 0002:000066e0       ??_C@_0BG@JNJLAMPM@?$GAanonymous?5namespace?8@ 00000001801456e0     libvcruntime:undname.obj
 0002:000066f8       ??_C@_04HEJADOOB@CV?3?5@   00000001801456f8     libvcruntime:undname.obj
 0002:00006700       ??_C@_02MOLJINC@?3?3@      0000000180145700     libvcruntime:undname.obj
 0002:00006708       ??_C@_0BE@JAEOCHPE@template?9parameter?9@ 0000000180145708     libvcruntime:undname.obj
 0002:00006720       ??_C@_0BF@LNLGBBNL@?$GAtemplate?9parameter?9@ 0000000180145720     libvcruntime:undname.obj
 0002:00006738       ??_C@_0O@KHGCOMHP@generic?9type?9@ 0000000180145738     libvcruntime:undname.obj
 0002:00006748       ??_C@_0P@ODDENDLM@?$GAgeneric?9type?9@ 0000000180145748     libvcruntime:undname.obj
 0002:00006758       ??_C@_02OHHJMEON@?8?8@     0000000180145758     libvcruntime:undname.obj
 0002:00006760       ??_C@_0BN@IBLMMFAP@?$GAnon?9type?9template?9parameter@ 0000000180145760     libvcruntime:undname.obj
 0002:00006780       ??_C@_03DLDNIBIK@?$CFlf@   0000000180145780     libvcruntime:undname.obj
 0002:00006784       ??_C@_04OFALKAJ@?$DP?$DP_C@ 0000000180145784     libvcruntime:undname.obj
 0002:0000678c       ??_C@_03KHICJKCI@?4?4?4@   000000018014578c     libvcruntime:undname.obj
 0002:00006790       ??_C@_04HIBGFPH@NULL@      0000000180145790     libvcruntime:undname.obj
 0002:00006798       ??_C@_02DPKJAMEF@?$CFd@    0000000180145798     libvcruntime:undname.obj
 0002:000067a0       ??_C@_0BK@IHCCFNEL@?$GAtemplate?9type?9parameter?9@ 00000001801457a0     libvcruntime:undname.obj
 0002:000067c0       ??_C@_0BK@OFCNNNKO@?$GAgeneric?9class?9parameter?9@ 00000001801457c0     libvcruntime:undname.obj
 0002:000067e0       ??_C@_0BL@NGJBLFIL@?$GAgeneric?9method?9parameter?9@ 00000001801457e0     libvcruntime:undname.obj
 0002:00006800       ??_C@_07OHNGEDJK@nullptr@  0000000180145800     libvcruntime:undname.obj
 0002:00006808       ??_C@_06COJIGPIB@lambda@   0000000180145808     libvcruntime:undname.obj
 0002:00006810       ??_C@_0BE@EODMJLIF@?$GAtemplate?9parameter@ 0000000180145810     libvcruntime:undname.obj
 0002:00006824       ??_C@_03OPGICMGF@?$HN?8?5@ 0000000180145824     libvcruntime:undname.obj
 0002:00006828       ??_C@_02IGFCGPIL@?$HN?8@   0000000180145828     libvcruntime:undname.obj
 0002:00006830       ??_C@_0N@CBHHHENL@?$GAvtordispex?$HL@ 0000000180145830     libvcruntime:undname.obj
 0002:00006840       ??_C@_0L@GHPFDFH@?$GAvtordisp?$HL@ 0000000180145840     libvcruntime:undname.obj
 0002:00006850       ??_C@_0L@HNGCOGAE@?$GAadjustor?$HL@ 0000000180145850     libvcruntime:undname.obj
 0002:00006860       ??_C@_0CB@KJDOOODE@?$GAlocal?5static?5destructor?5helper@ 0000000180145860     libvcruntime:undname.obj
 0002:00006888       ??_C@_0DB@ILEFOCIJ@?$GAtemplate?5static?5data?5member?5co@ 0000000180145888     libvcruntime:undname.obj
 0002:000068c0       ??_C@_0DA@HGFJFBBE@?$GAtemplate?5static?5data?5member?5de@ 00000001801458c0     libvcruntime:undname.obj
 0002:000068f0       ??_C@_07PGOEDBHP@static?5@ 00000001801458f0     libvcruntime:undname.obj
 0002:000068f8       ??_C@_08NIEOINHE@virtual?5@ 00000001801458f8     libvcruntime:undname.obj
 0002:00006908       ??_C@_09LAPHOOG@private?3?5@ 0000000180145908     libvcruntime:undname.obj
 0002:00006918       ??_C@_0M@GAIFPFIP@protected?3?5@ 0000000180145918     libvcruntime:undname.obj
 0002:00006928       ??_C@_08GPDDCMKI@public?3?5@ 0000000180145928     libvcruntime:undname.obj
 0002:00006938       ??_C@_08KJLFOPNE@?$FLthunk?$FN?3@ 0000000180145938     libvcruntime:undname.obj
 0002:00006948       ??_C@_0M@DHNBOJMP@extern?5?$CCC?$CC?5@ 0000000180145948     libvcruntime:undname.obj
 0002:00006954       ??_C@_02KCKGHPCA@?$CJ?5@   0000000180145954     libvcruntime:undname.obj
 0002:00006958       ??_C@_05CIHEBHNO@char?5@   0000000180145958     libvcruntime:undname.obj
 0002:00006960       ??_C@_06EHJMALKF@short?5@  0000000180145960     libvcruntime:undname.obj
 0002:00006968       ??_C@_04LAHKHJMA@int?5@    0000000180145968     libvcruntime:undname.obj
 0002:00006970       ??_C@_05CJIMAING@long?5@   0000000180145970     libvcruntime:undname.obj
 0002:00006978       ??_C@_09EBBEKKIH@unsigned?5@ 0000000180145978     libvcruntime:undname.obj
 0002:00006984       ??_C@_05BEFAKPML@void?5@   0000000180145984     libvcruntime:undname.obj
 0002:00006990       ??_C@_09GAIEOBLP@volatile?5@ 0000000180145990     libvcruntime:undname.obj
 0002:000069a0       ??_C@_08PABEKFH@volatile@  00000001801459a0     libvcruntime:undname.obj
 0002:000069b0       ??_C@_0BA@LKIJLKPP@std?3?3nullptr_t?5@ 00000001801459b0     libvcruntime:undname.obj
 0002:000069c0       ??_C@_0P@GCOCNKDM@std?3?3nullptr_t@ 00000001801459c0     libvcruntime:undname.obj
 0002:000069d0       ??_C@_0L@EGPHHEKN@?$DMellipsis?$DO@ 00000001801459d0     libvcruntime:undname.obj
 0002:000069dc       ??_C@_04EENFHACM@?0?4?4?4@ 00000001801459dc     libvcruntime:undname.obj
 0002:000069e8       ??_C@_0M@ELJOJFFH@?0?$DMellipsis?$DO@ 00000001801459e8     libvcruntime:undname.obj
 0002:000069f8       ??_C@_09DNHFEOJI@?5noexcept@ 00000001801459f8     libvcruntime:undname.obj
 0002:00006a04       ??_C@_03PBJBJNON@cpu@      0000000180145a04     libvcruntime:undname.obj
 0002:00006a08       ??_C@_03DCBBJBAA@amp@      0000000180145a08     libvcruntime:undname.obj
 0002:00006a0c       ??_C@_02KEGNLNML@?0?5@     0000000180145a0c     libvcruntime:undname.obj
 0002:00006a10       ??_C@_04ENMBGAPA@char@     0000000180145a10     libvcruntime:undname.obj
 0002:00006a18       ??_C@_05BFKKPKCG@short@    0000000180145a18     libvcruntime:undname.obj
 0002:00006a20       ??_C@_03JBIPMCLC@int@      0000000180145a20     libvcruntime:undname.obj
 0002:00006a24       ??_C@_04GOKPGOLB@long@     0000000180145a24     libvcruntime:undname.obj
 0002:00006a2c       ??_C@_06BNJCAIGJ@double@   0000000180145a2c     libvcruntime:undname.obj
 0002:00006a34       ??_C@_06EBGKOKIG@__int8@   0000000180145a34     libvcruntime:undname.obj
 0002:00006a40       ??_C@_07ICFHOGAF@__int16@  0000000180145a40     libvcruntime:undname.obj
 0002:00006a48       ??_C@_07OFLPPHGP@__int32@  0000000180145a48     libvcruntime:undname.obj
 0002:00006a50       ??_C@_07LFCOJCAC@__int64@  0000000180145a50     libvcruntime:undname.obj
 0002:00006a58       ??_C@_08GAHOLHEO@__int128@ 0000000180145a58     libvcruntime:undname.obj
 0002:00006a68       ??_C@_09EEKGDCPH@?$DMunknown?$DO@ 0000000180145a68     libvcruntime:undname.obj
 0002:00006a78       ??_C@_07CFHGOPCN@char8_t@  0000000180145a78     libvcruntime:undname.obj
 0002:00006a80       ??_C@_08HBIPOFJB@char16_t@ 0000000180145a80     libvcruntime:undname.obj
 0002:00006a90       ??_C@_08IECNCBKG@char32_t@ 0000000180145a90     libvcruntime:undname.obj
 0002:00006aa0       ??_C@_07CLGGIAMF@wchar_t@  0000000180145aa0     libvcruntime:undname.obj
 0002:00006aa8       ??_C@_04HAPDLBFF@auto@     0000000180145aa8     libvcruntime:undname.obj
 0002:00006ab0       ??_C@_0P@LHCGKIGK@decltype?$CIauto?$CJ@ 0000000180145ab0     libvcruntime:undname.obj
 0002:00006ac0       ??_C@_05PCNBGHCF@this?5@   0000000180145ac0     libvcruntime:undname.obj
 0002:00006ac8       ??_C@_06GCICPBLB@__w64?5@  0000000180145ac8     libvcruntime:undname.obj
 0002:00006ad0       ??_C@_07NFANNNEC@UNKNOWN@  0000000180145ad0     libvcruntime:undname.obj
 0002:00006ad8       ??_C@_07EDHNAJHC@signed?5@ 0000000180145ad8     libvcruntime:undname.obj
 0002:00006ae0       ??_C@_05BNCCCJPP@const@    0000000180145ae0     libvcruntime:undname.obj
 0002:00006ae8       ??_C@_09EFNPDFFP@?5volatile@ 0000000180145ae8     libvcruntime:undname.obj
 0002:00006af8       ??_C@_0P@GCIFDJCJ@?$GAunknown?5ecsu?8@ 0000000180145af8     libvcruntime:undname.obj
 0002:00006b08       ??_C@_06MOJHIBMG@union?5@  0000000180145b08     libvcruntime:undname.obj
 0002:00006b10       ??_C@_07DIBCDNGL@struct?5@ 0000000180145b10     libvcruntime:undname.obj
 0002:00006b18       ??_C@_06LJBABKPM@class?5@  0000000180145b18     libvcruntime:undname.obj
 0002:00006b20       ??_C@_08KOFANOFK@coclass?5@ 0000000180145b20     libvcruntime:undname.obj
 0002:00006b30       ??_C@_0N@DLIEFKNA@cointerface?5@ 0000000180145b30     libvcruntime:undname.obj
 0002:00006b40       ??_C@_05LJGMCFOG@enum?5@   0000000180145b40     libvcruntime:undname.obj
 0002:00006b48       ??_C@_06LIJLOJAG@const?5@  0000000180145b48     libvcruntime:undname.obj
 0002:00006b50       ??_C@_02KJPKDIBN@?$CG?5@   0000000180145b50     libvcruntime:undname.obj
 0002:00006b54       ??_C@_03PCKGMOPB@?$CG?$CG?5@ 0000000180145b54     libvcruntime:undname.obj
 0002:00006b58       ??_C@_0M@EALIELKG@cli?3?3array?$DM@ 0000000180145b58     libvcruntime:undname.obj
 0002:00006b68       ??_C@_0O@GKABPPIF@cli?3?3pin_ptr?$DM@ 0000000180145b68     libvcruntime:undname.obj
 0002:00006b78       ??_C@_02GOGNNPBN@?$CJ?$FL@ 0000000180145b78     libvcruntime:undname.obj
 0002:00006b7c       ??_C@_06EEGAIFAK@?$HLflat?$HN@ 0000000180145b7c     libvcruntime:undname.obj
 0002:00006b84       ??_C@_05JIBOFOHK@?$HLfor?5@ 0000000180145b84     libvcruntime:undname.obj
 0002:00006b8c       ??_C@_02MDINNEEG@s?5@      0000000180145b8c     libvcruntime:undname.obj
 0002:00006b98       ??_7charNode@@6B@          0000000180145b98     libvcruntime:undname.obj
 0002:00006bc0       ??_7pcharNode@@6B@         0000000180145bc0     libvcruntime:undname.obj
 0002:00006be8       ??_7pDNameNode@@6B@        0000000180145be8     libvcruntime:undname.obj
 0002:00006c10       ??_7DNameStatusNode@@6B@   0000000180145c10     libvcruntime:undname.obj
 0002:00006c38       ??_7pairNode@@6B@          0000000180145c38     libvcruntime:undname.obj
 0002:00006d60       ??_C@_04OKOHEJBO@?5?$DP?$DP?5@ 0000000180145d60     libvcruntime:undname.obj
 0002:00006d70       ?nodes@?1??make@DNameStatusNode@@SAPEBV2@W4DNameStatus@@@Z@4QBV2@B 0000000180145d70     libvcruntime:undname.obj
 0002:00006db0       ?s_negLengthTab@FH4@@3QBCB 0000000180145db0     libvcruntime:risctrnsctrl.obj
 0002:00006dc0       ?s_shiftTab@FH4@@3QBEB     0000000180145dc0     libvcruntime:risctrnsctrl.obj
 0002:00006f20       ??_C@_1DM@KHCHBNEB@?$AAa?$AAp?$AAi?$AA?9?$AAm?$AAs?$AA?9?$AAw?$AAi?$AAn?$AA?9?$AAc?$AAo?$AAr?$AAe@ 0000000180145f20     libvcruntime:winapi_downlevel.obj
 0002:00006f60       ??_C@_1DK@LPPGFMPP@?$AAa?$AAp?$AAi?$AA?9?$AAm?$AAs?$AA?9?$AAw?$AAi?$AAn?$AA?9?$AAc?$AAo?$AAr?$AAe@ 0000000180145f60     libvcruntime:winapi_downlevel.obj
 0002:00006fa0       ??_C@_1BC@GDMECMAK@?$AAk?$AAe?$AAr?$AAn?$AAe?$AAl?$AA3?$AA2@ 0000000180145fa0     libvcruntime:winapi_downlevel.obj
 0002:00006fb8       ??_C@_1BA@PFFKHIOG@?$AAa?$AAp?$AAi?$AA?9?$AAm?$AAs?$AA?9@ 0000000180145fb8     libvcruntime:winapi_downlevel.obj
 0002:00006fd0       ??_C@_08KNHFBNJ@FlsAlloc@  0000000180145fd0     libvcruntime:winapi_downlevel.obj
 0002:00006fe8       ??_C@_07PEJMOBNF@FlsFree@  0000000180145fe8     libvcruntime:winapi_downlevel.obj
 0002:00006ff8       ??_C@_0M@GDNOONDI@FlsGetValue@ 0000000180145ff8     libvcruntime:winapi_downlevel.obj
 0002:00007010       ??_C@_0M@JCPCPOEF@FlsSetValue@ 0000000180146010     libvcruntime:winapi_downlevel.obj
 0002:00007028       ??_C@_0BM@HCFOFFN@InitializeCriticalSectionEx@ 0000000180146028     libvcruntime:winapi_downlevel.obj
 0002:00007050       ??_7exception@std@@6B@     0000000180146050     libvcruntime:frame.obj
 0002:00007060       ??_C@_0BC@EOODALEL@Unknown?5exception@ 0000000180146060     libvcruntime:frame.obj
 0002:00007080       ??_7bad_exception@std@@6B@ 0000000180146080     libvcruntime:frame.obj
 0002:00007090       ??_C@_0O@DPKOEFFH@bad?5exception@ 0000000180146090     libvcruntime:frame.obj
 0002:000073e0       ??_C@_05FFFCHCED@acosf@    00000001801463e0     libucrt:acosf.obj
 0002:000073e8       __real@3b81ce6b            00000001801463e8     libucrt:acosf.obj
 0002:000073f0       __real@3c91a62633145c07    00000001801463f0     libucrt:acosf.obj
 0002:000073f8       __real@3d678bdd            00000001801463f8     libucrt:acosf.obj
 0002:000073fc       __real@3e3c94dc            00000001801463fc     libucrt:acosf.obj
 0002:00007400       __real@3f561f0d            0000000180146400     libucrt:acosf.obj
 0002:00007404       __real@3f8d6fa5            0000000180146404     libucrt:acosf.obj
 0002:00007408       __real@3fc90fdb            0000000180146408     libucrt:acosf.obj
 0002:00007410       __real@3ff921fb54442d18    0000000180146410     libucrt:acosf.obj
 0002:00007418       __real@400921fb54442d18    0000000180146418     libucrt:acosf.obj
 0002:00007420       __real@40490fdb            0000000180146420     libucrt:acosf.obj
 0002:00007424       __real@bc5b3fe1            0000000180146424     libucrt:acosf.obj
 0002:00007430       __acrt_exception_action_table 0000000180146430     libucrt:exception_filter.obj
 0002:000074f0       __acrt_signal_action_table_count 00000001801464f0     libucrt:exception_filter.obj
 0002:000074f8       __acrt_signal_action_first_fpe_index 00000001801464f8     libucrt:exception_filter.obj
 0002:00007500       __acrt_signal_action_fpe_count 0000000180146500     libucrt:exception_filter.obj
 0002:00007558       ??_C@_1BI@BGOHAHKC@?$AAm?$AAs?$AAc?$AAo?$AAr?$AAe?$AAe?$AA?4?$AAd?$AAl?$AAl@ 0000000180146558     libucrt:exit.obj
 0002:00007570       ??_C@_0P@MIGLKIOC@CorExitProcess@ 0000000180146570     libucrt:exit.obj
 0002:000076d0       ?standard_lookup_table_spectre@__crt_stdio_output@@3V?$spectre_mitigated_lookup_table@Ustate_transition_pair@__crt_stdio_output@@$0IA@@1@B 00000001801466d0     libucrt:output.obj
 0002:000077d0       ?format_validation_lookup_table_spectre@__crt_stdio_output@@3V?$spectre_mitigated_lookup_table@Ustate_transition_pair@__crt_stdio_output@@$0IA@@1@B 00000001801467d0     libucrt:output.obj
 0002:000078d0       ??_C@_1O@CEDCILHN@?$AA?$CI?$AAn?$AAu?$AAl?$AAl?$AA?$CJ@ 00000001801468d0     libucrt:output.obj
 0002:000078e0       ??_C@_06OJHGLDPL@?$CInull?$CJ@ 00000001801468e0     libucrt:output.obj
 0002:00007a60       ??_C@_04LAGPAAHP@sinf@     0000000180146a60     libucrt:sincos_special.obj
 0002:00007a68       ??_C@_04OBBKPIAC@cosf@     0000000180146a68     libucrt:sincos_special.obj
 0002:00007a70       ??_C@_04MHPLPEIA@tanf@     0000000180146a70     libucrt:sincos_special.obj
 0002:00007a80       __Lcosfarray               0000000180146a80     libucrt:lsincosf_array.obj
 0002:00007ab0       __Lsinfarray               0000000180146ab0     libucrt:lsincosf_array.obj
 0002:00007ad0       __L_2_by_pi_bits           0000000180146ad0     libucrt:l2_by_pi_bits.obj
 0002:00007da8       ??_C@_1M@HPNHIDJI@?$AAj?$AAa?$AA?9?$AAJ?$AAP@ 0000000180146da8     libucrt:mbctype.obj
 0002:00007db8       ??_C@_1M@BIBDDEMK@?$AAz?$AAh?$AA?9?$AAC?$AAN@ 0000000180146db8     libucrt:mbctype.obj
 0002:00007dc8       ??_C@_1M@JLOOOEGK@?$AAk?$AAo?$AA?9?$AAK?$AAR@ 0000000180146dc8     libucrt:mbctype.obj
 0002:00007dd8       ??_C@_1M@CLNBBOPM@?$AAz?$AAh?$AA?9?$AAT?$AAW@ 0000000180146dd8     libucrt:mbctype.obj
 0002:00007ea0       ??_C@_1EA@JGEFHKEI@?$AAa?$AAp?$AAi?$AA?9?$AAm?$AAs?$AA?9?$AAw?$AAi?$AAn?$AA?9?$AAc?$AAo?$AAr?$AAe@ 0000000180146ea0     libucrt:winapi_thunks.obj
 0002:00007ee0       ??_C@_1DI@KMEPCBPN@?$AAa?$AAp?$AAi?$AA?9?$AAm?$AAs?$AA?9?$AAw?$AAi?$AAn?$AA?9?$AAc?$AAo?$AAr?$AAe@ 0000000180146ee0     libucrt:winapi_thunks.obj
 0002:00007f18       ??_C@_1DI@IJCEHOCB@?$AAa?$AAp?$AAi?$AA?9?$AAm?$AAs?$AA?9?$AAw?$AAi?$AAn?$AA?9?$AAc?$AAo?$AAr?$AAe@ 0000000180146f18     libucrt:winapi_thunks.obj
 0002:00007f50       ??_C@_1EI@MPIAOHOC@?$AAa?$AAp?$AAi?$AA?9?$AAm?$AAs?$AA?9?$AAw?$AAi?$AAn?$AA?9?$AAc?$AAo?$AAr?$AAe@ 0000000180146f50     libucrt:winapi_thunks.obj
 0002:00007fa0       ??_C@_1FK@FPHCKFIE@?$AAa?$AAp?$AAi?$AA?9?$AAm?$AAs?$AA?9?$AAw?$AAi?$AAn?$AA?9?$AAc?$AAo?$AAr?$AAe@ 0000000180146fa0     libucrt:winapi_thunks.obj
 0002:00008000       ??_C@_1EM@DILCGIIO@?$AAa?$AAp?$AAi?$AA?9?$AAm?$AAs?$AA?9?$AAw?$AAi?$AAn?$AA?9?$AAc?$AAo?$AAr?$AAe@ 0000000180147000     libucrt:winapi_thunks.obj
 0002:00008050       ??_C@_1DM@LNCGDDPN@?$AAa?$AAp?$AAi?$AA?9?$AAm?$AAs?$AA?9?$AAw?$AAi?$AAn?$AA?9?$AAc?$AAo?$AAr?$AAe@ 0000000180147050     libucrt:winapi_thunks.obj
 0002:00008090       ??_C@_1DO@FPAPJEMD@?$AAa?$AAp?$AAi?$AA?9?$AAm?$AAs?$AA?9?$AAw?$AAi?$AAn?$AA?9?$AAc?$AAo?$AAr?$AAe@ 0000000180147090     libucrt:winapi_thunks.obj
 0002:000080d0       ??_C@_1DK@NDHNAHIO@?$AAa?$AAp?$AAi?$AA?9?$AAm?$AAs?$AA?9?$AAw?$AAi?$AAn?$AA?9?$AAc?$AAo?$AAr?$AAe@ 00000001801470d0     libucrt:winapi_thunks.obj
 0002:00008110       ??_C@_1DM@KGHDGBCM@?$AAa?$AAp?$AAi?$AA?9?$AAm?$AAs?$AA?9?$AAw?$AAi?$AAn?$AA?9?$AAc?$AAo?$AAr?$AAe@ 0000000180147110     libucrt:winapi_thunks.obj
 0002:00008150       ??_C@_1EO@IJIOEFOH@?$AAa?$AAp?$AAi?$AA?9?$AAm?$AAs?$AA?9?$AAw?$AAi?$AAn?$AA?9?$AAr?$AAt?$AAc?$AAo@ 0000000180147150     libucrt:winapi_thunks.obj
 0002:000081a0       ??_C@_1FG@HHGEKANL@?$AAa?$AAp?$AAi?$AA?9?$AAm?$AAs?$AA?9?$AAw?$AAi?$AAn?$AA?9?$AAs?$AAe?$AAc?$AAu@ 00000001801471a0     libucrt:winapi_thunks.obj
 0002:00008200       ??_C@_1EG@DBIOJECG@?$AAe?$AAx?$AAt?$AA?9?$AAm?$AAs?$AA?9?$AAw?$AAi?$AAn?$AA?9?$AAn?$AAt?$AAu?$AAs@ 0000000180147200     libucrt:winapi_thunks.obj
 0002:00008250       ??_C@_1EO@FIHMJCLF@?$AAe?$AAx?$AAt?$AA?9?$AAm?$AAs?$AA?9?$AAw?$AAi?$AAn?$AA?9?$AAn?$AAt?$AAu?$AAs@ 0000000180147250     libucrt:winapi_thunks.obj
 0002:000082a0       ??_C@_1BC@DNHGCMLG@?$AAa?$AAd?$AAv?$AAa?$AAp?$AAi?$AA3?$AA2@ 00000001801472a0     libucrt:winapi_thunks.obj
 0002:000082b8       ??_C@_1BG@CJPGBMEF@?$AAk?$AAe?$AAr?$AAn?$AAe?$AAl?$AAb?$AAa?$AAs?$AAe@ 00000001801472b8     libucrt:winapi_thunks.obj
 0002:000082d0       ??_C@_1M@OAIMIKLP@?$AAn?$AAt?$AAd?$AAl?$AAl@ 00000001801472d0     libucrt:winapi_thunks.obj
 0002:000082e0       ??_C@_1EG@DPGNFKGC@?$AAa?$AAp?$AAi?$AA?9?$AAm?$AAs?$AA?9?$AAw?$AAi?$AAn?$AA?9?$AAa?$AAp?$AAp?$AAm@ 00000001801472e0     libucrt:winapi_thunks.obj
 0002:00008328       ??_C@_1O@BCCLBEOE@?$AAu?$AAs?$AAe?$AAr?$AA3?$AA2@ 0000000180147328     libucrt:winapi_thunks.obj
 0002:00008338       ??_C@_1BA@IAIFMGEF@?$AAe?$AAx?$AAt?$AA?9?$AAm?$AAs?$AA?9@ 0000000180147338     libucrt:winapi_thunks.obj
 0002:00008350       ??_C@_0BA@FHFNEAED@AreFileApisANSI@ 0000000180147350     libucrt:winapi_thunks.obj
 0002:00008370       ??_C@_0O@KKBNKAPF@LCMapStringEx@ 0000000180147370     libucrt:winapi_thunks.obj
 0002:00008388       ??_C@_0BB@HBDEELFH@LocaleNameToLCID@ 0000000180147388     libucrt:winapi_thunks.obj
 0002:000083a0       ??_C@_0CF@OJOFEIGO@AppPolicyGetProcessTerminationM@ 00000001801473a0     libucrt:winapi_thunks.obj
 0002:000083d0       __lc_time_c                00000001801473d0     libucrt:nlsdata.obj
 0002:00008690       ??_C@_03KOEHGMDN@Sun@      0000000180147690     libucrt:nlsdata.obj
 0002:00008694       ??_C@_03PDAGKDH@Mon@       0000000180147694     libucrt:nlsdata.obj
 0002:00008698       ??_C@_03NAGEINEP@Tue@      0000000180147698     libucrt:nlsdata.obj
 0002:0000869c       ??_C@_03MHOMLAJA@Wed@      000000018014769c     libucrt:nlsdata.obj
 0002:000086a0       ??_C@_03IOFIKPDN@Thu@      00000001801476a0     libucrt:nlsdata.obj
 0002:000086a4       ??_C@_03IDIOELNC@Fri@      00000001801476a4     libucrt:nlsdata.obj
 0002:000086a8       ??_C@_03FEFJNEK@Sat@       00000001801476a8     libucrt:nlsdata.obj
 0002:000086ac       ??_C@_06OOPIFAJ@Sunday@    00000001801476ac     libucrt:nlsdata.obj
 0002:000086b4       ??_C@_06JLEDEDGH@Monday@   00000001801476b4     libucrt:nlsdata.obj
 0002:000086c0       ??_C@_07BAAGCFCM@Tuesday@  00000001801476c0     libucrt:nlsdata.obj
 0002:000086c8       ??_C@_09DLIGFAKA@Wednesday@ 00000001801476c8     libucrt:nlsdata.obj
 0002:000086d8       ??_C@_08HACCIKIA@Thursday@ 00000001801476d8     libucrt:nlsdata.obj
 0002:000086e4       ??_C@_06JECMNKMI@Friday@   00000001801476e4     libucrt:nlsdata.obj
 0002:000086f0       ??_C@_08INBOOONO@Saturday@ 00000001801476f0     libucrt:nlsdata.obj
 0002:000086fc       ??_C@_03JIHJHPIE@Jan@      00000001801476fc     libucrt:nlsdata.obj
 0002:00008700       ??_C@_03HJBDCHOM@Feb@      0000000180147700     libucrt:nlsdata.obj
 0002:00008704       ??_C@_03ODNJBKGA@Mar@      0000000180147704     libucrt:nlsdata.obj
 0002:00008708       ??_C@_03LEOLGMJP@Apr@      0000000180147708     libucrt:nlsdata.obj
 0002:0000870c       ??_C@_03CNMDKL@May@        000000018014770c     libucrt:nlsdata.obj
 0002:00008710       ??_C@_03IDFGHECI@Jun@      0000000180147710     libucrt:nlsdata.obj
 0002:00008714       ??_C@_03LBGABGKK@Jul@      0000000180147714     libucrt:nlsdata.obj
 0002:00008718       ??_C@_03IFJFEIGA@Aug@      0000000180147718     libucrt:nlsdata.obj
 0002:0000871c       ??_C@_03GGCAPAJC@Sep@      000000018014771c     libucrt:nlsdata.obj
 0002:00008720       ??_C@_03BMAOKBAD@Oct@      0000000180147720     libucrt:nlsdata.obj
 0002:00008724       ??_C@_03JPJOFNIA@Nov@      0000000180147724     libucrt:nlsdata.obj
 0002:00008728       ??_C@_03MKABNOCG@Dec@      0000000180147728     libucrt:nlsdata.obj
 0002:00008730       ??_C@_07CGJPFGJA@January@  0000000180147730     libucrt:nlsdata.obj
 0002:00008738       ??_C@_08GNJGEPFN@February@ 0000000180147738     libucrt:nlsdata.obj
 0002:00008744       ??_C@_05HPCKOFNC@March@    0000000180147744     libucrt:nlsdata.obj
 0002:0000874c       ??_C@_05DMJDNLEJ@April@    000000018014774c     libucrt:nlsdata.obj
 0002:00008754       ??_C@_04CNLMGBGM@June@     0000000180147754     libucrt:nlsdata.obj
 0002:0000875c       ??_C@_04MIEPOIFP@July@     000000018014775c     libucrt:nlsdata.obj
 0002:00008764       ??_C@_06LBBHFDDG@August@   0000000180147764     libucrt:nlsdata.obj
 0002:00008770       ??_C@_09BHHEALKD@September@ 0000000180147770     libucrt:nlsdata.obj
 0002:00008780       ??_C@_07JJNFCEND@October@  0000000180147780     libucrt:nlsdata.obj
 0002:00008788       ??_C@_08HCHEGEOA@November@ 0000000180147788     libucrt:nlsdata.obj
 0002:00008798       ??_C@_08EDHMEBNP@December@ 0000000180147798     libucrt:nlsdata.obj
 0002:000087a4       ??_C@_02DEDBPAFC@AM@       00000001801477a4     libucrt:nlsdata.obj
 0002:000087a8       ??_C@_02CJNFDJBF@PM@       00000001801477a8     libucrt:nlsdata.obj
 0002:000087b0       ??_C@_08BPBNCDIB@MM?1dd?1yy@ 00000001801477b0     libucrt:nlsdata.obj
 0002:000087c0       ??_C@_0BE@CKGJFCPC@dddd?0?5MMMM?5dd?0?5yyyy@ 00000001801477c0     libucrt:nlsdata.obj
 0002:000087d8       ??_C@_08JCCMCCIL@HH?3mm?3ss@ 00000001801477d8     libucrt:nlsdata.obj
 0002:000087e8       ??_C@_17MBGCMIPB@?$AAS?$AAu?$AAn@ 00000001801477e8     libucrt:nlsdata.obj
 0002:000087f0       ??_C@_17KBOMKBF@?$AAM?$AAo?$AAn@ 00000001801477f0     libucrt:nlsdata.obj
 0002:000087f8       ??_C@_17BMKGEGOJ@?$AAT?$AAu?$AAe@ 00000001801477f8     libucrt:nlsdata.obj
 0002:00008800       ??_C@_17CJEDCEPE@?$AAW?$AAe?$AAd@ 0000000180147800     libucrt:nlsdata.obj
 0002:00008808       ??_C@_17PDPHAADD@?$AAT?$AAh?$AAu@ 0000000180147808     libucrt:nlsdata.obj
 0002:00008810       ??_C@_17HFOLPPLP@?$AAF?$AAr?$AAi@ 0000000180147810     libucrt:nlsdata.obj
 0002:00008818       ??_C@_17GGIBDPIH@?$AAS?$AAa?$AAt@ 0000000180147818     libucrt:nlsdata.obj
 0002:00008820       ??_C@_1O@IHNHDHPB@?$AAS?$AAu?$AAn?$AAd?$AAa?$AAy@ 0000000180147820     libucrt:nlsdata.obj
 0002:00008830       ??_C@_1O@MMNBFLIA@?$AAM?$AAo?$AAn?$AAd?$AAa?$AAy@ 0000000180147830     libucrt:nlsdata.obj
 0002:00008840       ??_C@_1BA@ENFBFFEK@?$AAT?$AAu?$AAe?$AAs?$AAd?$AAa?$AAy@ 0000000180147840     libucrt:nlsdata.obj
 0002:00008850       ??_C@_1BE@EBOGMDOH@?$AAW?$AAe?$AAd?$AAn?$AAe?$AAs?$AAd?$AAa?$AAy@ 0000000180147850     libucrt:nlsdata.obj
 0002:00008868       ??_C@_1BC@HHMNLIHE@?$AAT?$AAh?$AAu?$AAr?$AAs?$AAd?$AAa?$AAy@ 0000000180147868     libucrt:nlsdata.obj
 0002:00008880       ??_C@_1O@PDICJHAG@?$AAF?$AAr?$AAi?$AAd?$AAa?$AAy@ 0000000180147880     libucrt:nlsdata.obj
 0002:00008890       ??_C@_1BC@ENMNNPAJ@?$AAS?$AAa?$AAt?$AAu?$AAr?$AAd?$AAa?$AAy@ 0000000180147890     libucrt:nlsdata.obj
 0002:000088a8       ??_C@_17DKNBKCHM@?$AAJ?$AAa?$AAn@ 00000001801478a8     libucrt:nlsdata.obj
 0002:000088b0       ??_C@_17LMDJEKJN@?$AAF?$AAe?$AAb@ 00000001801478b0     libucrt:nlsdata.obj
 0002:000088b8       ??_C@_17CKNLEDEC@?$AAM?$AAa?$AAr@ 00000001801478b8     libucrt:nlsdata.obj
 0002:000088c0       ??_C@_17LFPOIHDD@?$AAA?$AAp?$AAr@ 00000001801478c0     libucrt:nlsdata.obj
 0002:000088c8       ??_C@_17PNNKMEED@?$AAM?$AAa?$AAy@ 00000001801478c8     libucrt:nlsdata.obj
 0002:000088d0       ??_C@_17KCJGOCPB@?$AAJ?$AAu?$AAn@ 00000001801478d0     libucrt:nlsdata.obj
 0002:000088d8       ??_C@_17IJPCKHK@?$AAJ?$AAu?$AAl@ 00000001801478d8     libucrt:nlsdata.obj
 0002:000088e0       ??_C@_17ICPELBCN@?$AAA?$AAu?$AAg@ 00000001801478e0     libucrt:nlsdata.obj
 0002:000088e8       ??_C@_17HCHCOKMG@?$AAS?$AAe?$AAp@ 00000001801478e8     libucrt:nlsdata.obj
 0002:000088f0       ??_C@_17FNLKOI@?$AAO?$AAc?$AAt@ 00000001801478f0     libucrt:nlsdata.obj
 0002:000088f8       ??_C@_17BBDMLCIG@?$AAN?$AAo?$AAv@ 00000001801478f8     libucrt:nlsdata.obj
 0002:00008900       ??_C@_17EGKACKIF@?$AAD?$AAe?$AAc@ 0000000180147900     libucrt:nlsdata.obj
 0002:00008908       ??_C@_1BA@EFMEIEBA@?$AAJ?$AAa?$AAn?$AAu?$AAa?$AAr?$AAy@ 0000000180147908     libucrt:nlsdata.obj
 0002:00008918       ??_C@_1BC@JGDDFFAM@?$AAF?$AAe?$AAb?$AAr?$AAu?$AAa?$AAr?$AAy@ 0000000180147918     libucrt:nlsdata.obj
 0002:00008930       ??_C@_1M@IKEENEDF@?$AAM?$AAa?$AAr?$AAc?$AAh@ 0000000180147930     libucrt:nlsdata.obj
 0002:00008940       ??_C@_1M@GJNLMHFD@?$AAA?$AAp?$AAr?$AAi?$AAl@ 0000000180147940     libucrt:nlsdata.obj
 0002:00008950       ??_C@_19EPFLPGAP@?$AAJ?$AAu?$AAn?$AAe@ 0000000180147950     libucrt:nlsdata.obj
 0002:00008960       ??_C@_19BIFMLPCD@?$AAJ?$AAu?$AAl?$AAy@ 0000000180147960     libucrt:nlsdata.obj
 0002:00008970       ??_C@_1O@PAHLKOAC@?$AAA?$AAu?$AAg?$AAu?$AAs?$AAt@ 0000000180147970     libucrt:nlsdata.obj
 0002:00008980       ??_C@_1BE@DKAAMBJL@?$AAS?$AAe?$AAp?$AAt?$AAe?$AAm?$AAb?$AAe?$AAr@ 0000000180147980     libucrt:nlsdata.obj
 0002:00008998       ??_C@_1BA@EPANDLNG@?$AAO?$AAc?$AAt?$AAo?$AAb?$AAe?$AAr@ 0000000180147998     libucrt:nlsdata.obj
 0002:000089a8       ??_C@_1BC@BGLIFPF@?$AAN?$AAo?$AAv?$AAe?$AAm?$AAb?$AAe?$AAr@ 00000001801479a8     libucrt:nlsdata.obj
 0002:000089c0       ??_C@_1BC@FEMKIFH@?$AAD?$AAe?$AAc?$AAe?$AAm?$AAb?$AAe?$AAr@ 00000001801479c0     libucrt:nlsdata.obj
 0002:000089d4       ??_C@_15ODEHAHHF@?$AAA?$AAM@ 00000001801479d4     libucrt:nlsdata.obj
 0002:000089dc       ??_C@_15CLMNNGEL@?$AAP?$AAM@ 00000001801479dc     libucrt:nlsdata.obj
 0002:000089e8       ??_C@_1BC@IEBCMHCM@?$AAM?$AAM?$AA?1?$AAd?$AAd?$AA?1?$AAy?$AAy@ 00000001801479e8     libucrt:nlsdata.obj
 0002:00008a00       ??_C@_1CI@KNAKOEBC@?$AAd?$AAd?$AAd?$AAd?$AA?0?$AA?5?$AAM?$AAM?$AAM?$AAM?$AA?5?$AAd?$AAd?$AA?0?$AA?5@ 0000000180147a00     libucrt:nlsdata.obj
 0002:00008a28       ??_C@_1BC@GDGBMEMK@?$AAH?$AAH?$AA?3?$AAm?$AAm?$AA?3?$AAs?$AAs@ 0000000180147a28     libucrt:nlsdata.obj
 0002:00008a40       ??_C@_1M@BMHNFIME@?$AAe?$AAn?$AA?9?$AAU?$AAS@ 0000000180147a40     libucrt:nlsdata.obj
 0002:00008ad0       ??_C@_03OEIAHPBN@INF@      0000000180147ad0     libucrt:cvt.obj
 0002:00008ad4       ??_C@_03OJHLLCGB@inf@      0000000180147ad4     libucrt:cvt.obj
 0002:00008ad8       ??_C@_03LKNCIKJB@NAN@      0000000180147ad8     libucrt:cvt.obj
 0002:00008adc       ??_C@_03LHCJEHON@nan@      0000000180147adc     libucrt:cvt.obj
 0002:00008ae0       ??_C@_09OFJJIMPC@NAN?$CISNAN?$CJ@ 0000000180147ae0     libucrt:cvt.obj
 0002:00008af0       ??_C@_09IPFBKMDL@nan?$CIsnan?$CJ@ 0000000180147af0     libucrt:cvt.obj
 0002:00008b00       ??_C@_08IKHNHAJ@NAN?$CIIND?$CJ@ 0000000180147b00     libucrt:cvt.obj
 0002:00008b10       ??_C@_08OFCDMILK@nan?$CIind?$CJ@ 0000000180147b10     libucrt:cvt.obj
 0002:00008b1c       ??_C@_05KLBDPFGC@e?$CL000@ 0000000180147b1c     libucrt:cvt.obj
 0002:00008b30       __newctype                 0000000180147b30     libucrt:ctype.obj
 0002:00008e30       __newclmap                 0000000180147e30     libucrt:ctype.obj
 0002:00008fb0       __newcumap                 0000000180147fb0     libucrt:ctype.obj
 0002:00009140       ??_C@_05HGHHAHAP@log10@    0000000180148140     libucrt:fpexcept.obj
 0002:00009f90       ??_C@_15EMKDOKLE@?$AAa?$AAr@ 0000000180148f90     libucrt:lcidtoname_downlevel.obj
 0002:00009f98       ??_C@_15KNPADPLH@?$AAb?$AAg@ 0000000180148f98     libucrt:lcidtoname_downlevel.obj
 0002:00009fa0       ??_C@_15EDMHLDMO@?$AAc?$AAa@ 0000000180148fa0     libucrt:lcidtoname_downlevel.obj
 0002:00009fa8       ??_C@_1O@BPEAJADD@?$AAz?$AAh?$AA?9?$AAC?$AAH?$AAS@ 0000000180148fa8     libucrt:lcidtoname_downlevel.obj
 0002:00009fb8       ??_C@_15LJNHCMNK@?$AAc?$AAs@ 0000000180148fb8     libucrt:lcidtoname_downlevel.obj
 0002:00009fc0       ??_C@_15FOMCIDHG@?$AAd?$AAa@ 0000000180148fc0     libucrt:lcidtoname_downlevel.obj
 0002:00009fc8       ??_C@_15NBKABECB@?$AAd?$AAe@ 0000000180148fc8     libucrt:lcidtoname_downlevel.obj
 0002:00009fd0       ??_C@_15GHPEIIAO@?$AAe?$AAl@ 0000000180148fd0     libucrt:lcidtoname_downlevel.obj
 0002:00009fd8       ??_C@_15MNPNEAIF@?$AAe?$AAn@ 0000000180148fd8     libucrt:lcidtoname_downlevel.obj
 0002:00009fe0       ??_C@_15GPIOMPMH@?$AAe?$AAs@ 0000000180148fe0     libucrt:lcidtoname_downlevel.obj
 0002:00009fe8       ??_C@_15NGLOAKJC@?$AAf?$AAi@ 0000000180148fe8     libucrt:lcidtoname_downlevel.obj
 0002:00009ff0       ??_C@_15FBKGNKAM@?$AAf?$AAr@ 0000000180148ff0     libucrt:lcidtoname_downlevel.obj
 0002:00009ff8       ??_C@_15KGGCNEFK@?$AAh?$AAe@ 0000000180148ff8     libucrt:lcidtoname_downlevel.obj
 0002:0000a000       ??_C@_15PGHLIDMF@?$AAh?$AAu@ 0000000180149000     libucrt:lcidtoname_downlevel.obj
 0002:0000a008       ??_C@_15BIEMAPLM@?$AAi?$AAs@ 0000000180149008     libucrt:lcidtoname_downlevel.obj
 0002:0000a010       ??_C@_15IFJLDHAF@?$AAi?$AAt@ 0000000180149010     libucrt:lcidtoname_downlevel.obj
 0002:0000a018       ??_C@_15GEMIOCAG@?$AAj?$AAa@ 0000000180149018     libucrt:lcidtoname_downlevel.obj
 0002:0000a020       ??_C@_15EPELEGJA@?$AAk?$AAo@ 0000000180149020     libucrt:lcidtoname_downlevel.obj
 0002:0000a028       ??_C@_15NDDHIMN@?$AAn?$AAl@ 0000000180149028     libucrt:lcidtoname_downlevel.obj
 0002:0000a030       ??_C@_15BPIGNHCD@?$AAn?$AAo@ 0000000180149030     libucrt:lcidtoname_downlevel.obj
 0002:0000a038       ??_C@_15DEOPBLCG@?$AAp?$AAl@ 0000000180149038     libucrt:lcidtoname_downlevel.obj
 0002:0000a040       ??_C@_15KBECGEFG@?$AAp?$AAt@ 0000000180149040     libucrt:lcidtoname_downlevel.obj
 0002:0000a048       ??_C@_15GLJCBFMD@?$AAr?$AAo@ 0000000180149048     libucrt:lcidtoname_downlevel.obj
 0002:0000a050       ??_C@_15FEDGKCDI@?$AAr?$AAu@ 0000000180149050     libucrt:lcidtoname_downlevel.obj
 0002:0000a058       ??_C@_15GLKMLLHM@?$AAh?$AAr@ 0000000180149058     libucrt:lcidtoname_downlevel.obj
 0002:0000a060       ??_C@_15CPKMFBDB@?$AAs?$AAk@ 0000000180149060     libucrt:lcidtoname_downlevel.obj
 0002:0000a068       ??_C@_15BAAIOGMK@?$AAs?$AAq@ 0000000180149068     libucrt:lcidtoname_downlevel.obj
 0002:0000a070       ??_C@_15INNPNOHD@?$AAs?$AAv@ 0000000180149070     libucrt:lcidtoname_downlevel.obj
 0002:0000a078       ??_C@_15CABMMOGH@?$AAt?$AAh@ 0000000180149078     libucrt:lcidtoname_downlevel.obj
 0002:0000a080       ??_C@_15BPLIHJJM@?$AAt?$AAr@ 0000000180149080     libucrt:lcidtoname_downlevel.obj
 0002:0000a088       ??_C@_15NEOEKKDJ@?$AAu?$AAr@ 0000000180149088     libucrt:lcidtoname_downlevel.obj
 0002:0000a090       ??_C@_15NFICGAJK@?$AAi?$AAd@ 0000000180149090     libucrt:lcidtoname_downlevel.obj
 0002:0000a098       ??_C@_15PJPFLCCM@?$AAu?$AAk@ 0000000180149098     libucrt:lcidtoname_downlevel.obj
 0002:0000a0a0       ??_C@_15HPJPHDM@?$AAb?$AAe@ 00000001801490a0     libucrt:lcidtoname_downlevel.obj
 0002:0000a0a8       ??_C@_15LCHLGJII@?$AAs?$AAl@ 00000001801490a8     libucrt:lcidtoname_downlevel.obj
 0002:0000a0b0       ??_C@_15PCFJPHHO@?$AAe?$AAt@ 00000001801490b0     libucrt:lcidtoname_downlevel.obj
 0002:0000a0b8       ??_C@_15HPFPGODN@?$AAl?$AAv@ 00000001801490b8     libucrt:lcidtoname_downlevel.obj
 0002:0000a0c0       ??_C@_15NFFGKGLG@?$AAl?$AAt@ 00000001801490c0     libucrt:lcidtoname_downlevel.obj
 0002:0000a0c8       ??_C@_15BDAKCCHN@?$AAf?$AAa@ 00000001801490c8     libucrt:lcidtoname_downlevel.obj
 0002:0000a0d0       ??_C@_15NFGIAIAJ@?$AAv?$AAi@ 00000001801490d0     libucrt:lcidtoname_downlevel.obj
 0002:0000a0d8       ??_C@_15LMKNDMHN@?$AAh?$AAy@ 00000001801490d8     libucrt:lcidtoname_downlevel.obj
 0002:0000a0e0       ??_C@_15IJBHMCFL@?$AAa?$AAz@ 00000001801490e0     libucrt:lcidtoname_downlevel.obj
 0002:0000a0e8       ??_C@_15EKOFJABL@?$AAe?$AAu@ 00000001801490e8     libucrt:lcidtoname_downlevel.obj
 0002:0000a0f0       ??_C@_15BGHADCNK@?$AAm?$AAk@ 00000001801490f0     libucrt:lcidtoname_downlevel.obj
 0002:0000a0f8       ??_C@_15JDNICKHM@?$AAa?$AAf@ 00000001801490f8     libucrt:lcidtoname_downlevel.obj
 0002:0000a100       ??_C@_15KPJEDBKD@?$AAk?$AAa@ 0000000180149100     libucrt:lcidtoname_downlevel.obj
 0002:0000a108       ??_C@_15PDNFFFEO@?$AAf?$AAo@ 0000000180149108     libucrt:lcidtoname_downlevel.obj
 0002:0000a110       ??_C@_15OMLEGLOC@?$AAh?$AAi@ 0000000180149110     libucrt:lcidtoname_downlevel.obj
 0002:0000a118       ??_C@_15IDNNENKK@?$AAm?$AAs@ 0000000180149118     libucrt:lcidtoname_downlevel.obj
 0002:0000a120       ??_C@_15MACJNBMH@?$AAk?$AAk@ 0000000180149120     libucrt:lcidtoname_downlevel.obj
 0002:0000a128       ??_C@_15DKDJEOND@?$AAk?$AAy@ 0000000180149128     libucrt:lcidtoname_downlevel.obj
 0002:0000a130       ??_C@_15DFGDLJBG@?$AAs?$AAw@ 0000000180149130     libucrt:lcidtoname_downlevel.obj
 0002:0000a138       ??_C@_15BBFAICNG@?$AAu?$AAz@ 0000000180149138     libucrt:lcidtoname_downlevel.obj
 0002:0000a140       ??_C@_15DKNDCGEA@?$AAt?$AAt@ 0000000180149140     libucrt:lcidtoname_downlevel.obj
 0002:0000a148       ??_C@_15MGIFMDPL@?$AAp?$AAa@ 0000000180149148     libucrt:lcidtoname_downlevel.obj
 0002:0000a150       ??_C@_15HCNDBBA@?$AAg?$AAu@ 0000000180149150     libucrt:lcidtoname_downlevel.obj
 0002:0000a158       ??_C@_15FNBEIBON@?$AAt?$AAa@ 0000000180149158     libucrt:lcidtoname_downlevel.obj
 0002:0000a160       ??_C@_15NCHGBGLK@?$AAt?$AAe@ 0000000180149160     libucrt:lcidtoname_downlevel.obj
 0002:0000a168       ??_C@_15PHPHCBPF@?$AAk?$AAn@ 0000000180149168     libucrt:lcidtoname_downlevel.obj
 0002:0000a170       ??_C@_15DLGBCKMP@?$AAm?$AAr@ 0000000180149170     libucrt:lcidtoname_downlevel.obj
 0002:0000a178       ??_C@_15EABBLBFF@?$AAs?$AAa@ 0000000180149178     libucrt:lcidtoname_downlevel.obj
 0002:0000a180       ??_C@_15CBKOMCOI@?$AAm?$AAn@ 0000000180149180     libucrt:lcidtoname_downlevel.obj
 0002:0000a188       ??_C@_15CKDMCJAF@?$AAg?$AAl@ 0000000180149188     libucrt:lcidtoname_downlevel.obj
 0002:0000a190       ??_C@_17CNJFBPG@?$AAk?$AAo?$AAk@ 0000000180149190     libucrt:lcidtoname_downlevel.obj
 0002:0000a198       ??_C@_17FFBJICPL@?$AAs?$AAy?$AAr@ 0000000180149198     libucrt:lcidtoname_downlevel.obj
 0002:0000a1a0       ??_C@_17KPNDCPAF@?$AAd?$AAi?$AAv@ 00000001801491a0     libucrt:lcidtoname_downlevel.obj
 0002:0000a1a8       ??_C@_11LOCGONAA@@         00000001801491a8     libucrt:lcidtoname_downlevel.obj
 0002:0000a1b0       ??_C@_1M@OKAHONE@?$AAa?$AAr?$AA?9?$AAS?$AAA@ 00000001801491b0     libucrt:lcidtoname_downlevel.obj
 0002:0000a1c0       ??_C@_1M@FFFIGIGK@?$AAb?$AAg?$AA?9?$AAB?$AAG@ 00000001801491c0     libucrt:lcidtoname_downlevel.obj
 0002:0000a1d0       ??_C@_1M@BJNKEDC@?$AAc?$AAa?$AA?9?$AAE?$AAS@ 00000001801491d0     libucrt:lcidtoname_downlevel.obj
 0002:0000a1e0       ??_C@_1M@IJJHFJHA@?$AAc?$AAs?$AA?9?$AAC?$AAZ@ 00000001801491e0     libucrt:lcidtoname_downlevel.obj
 0002:0000a1f0       ??_C@_1M@CLPEOBGI@?$AAd?$AAa?$AA?9?$AAD?$AAK@ 00000001801491f0     libucrt:lcidtoname_downlevel.obj
 0002:0000a200       ??_C@_1M@MCMADGCB@?$AAd?$AAe?$AA?9?$AAD?$AAE@ 0000000180149200     libucrt:lcidtoname_downlevel.obj
 0002:0000a210       ??_C@_1M@OOCKEMAM@?$AAe?$AAl?$AA?9?$AAG?$AAR@ 0000000180149210     libucrt:lcidtoname_downlevel.obj
 0002:0000a220       ??_C@_1M@DDNJFGID@?$AAf?$AAi?$AA?9?$AAF?$AAI@ 0000000180149220     libucrt:lcidtoname_downlevel.obj
 0002:0000a230       ??_C@_1M@GLIPPMAC@?$AAf?$AAr?$AA?9?$AAF?$AAR@ 0000000180149230     libucrt:lcidtoname_downlevel.obj
 0002:0000a240       ??_C@_1M@GFMCHPE@?$AAh?$AAe?$AA?9?$AAI?$AAL@ 0000000180149240     libucrt:lcidtoname_downlevel.obj
 0002:0000a250       ??_C@_1M@MHLPGNKM@?$AAh?$AAu?$AA?9?$AAH?$AAU@ 0000000180149250     libucrt:lcidtoname_downlevel.obj
 0002:0000a260       ??_C@_1M@LPDDNNPN@?$AAi?$AAs?$AA?9?$AAI?$AAS@ 0000000180149260     libucrt:lcidtoname_downlevel.obj
 0002:0000a270       ??_C@_1M@MADIPODN@?$AAi?$AAt?$AA?9?$AAI?$AAT@ 0000000180149270     libucrt:lcidtoname_downlevel.obj
 0002:0000a280       ??_C@_1M@IHBJJGG@?$AAn?$AAl?$AA?9?$AAN?$AAL@ 0000000180149280     libucrt:lcidtoname_downlevel.obj
 0002:0000a290       ??_C@_1M@EANAGDL@?$AAn?$AAb?$AA?9?$AAN?$AAO@ 0000000180149290     libucrt:lcidtoname_downlevel.obj
 0002:0000a2a0       ??_C@_1M@NEIEMEGP@?$AAp?$AAl?$AA?9?$AAP?$AAL@ 00000001801492a0     libucrt:lcidtoname_downlevel.obj
 0002:0000a2b0       ??_C@_1M@BOCFIGEP@?$AAp?$AAt?$AA?9?$AAB?$AAR@ 00000001801492b0     libucrt:lcidtoname_downlevel.obj
 0002:0000a2c0       ??_C@_1M@IMPFOPBG@?$AAr?$AAo?$AA?9?$AAR?$AAO@ 00000001801492c0     libucrt:lcidtoname_downlevel.obj
 0002:0000a2d0       ??_C@_1M@IDNNEJMM@?$AAr?$AAu?$AA?9?$AAR?$AAU@ 00000001801492d0     libucrt:lcidtoname_downlevel.obj
 0002:0000a2e0       ??_C@_1M@LILEEOGM@?$AAh?$AAr?$AA?9?$AAH?$AAR@ 00000001801492e0     libucrt:lcidtoname_downlevel.obj
 0002:0000a2f0       ??_C@_1M@FKIFEHPB@?$AAs?$AAk?$AA?9?$AAS?$AAK@ 00000001801492f0     libucrt:lcidtoname_downlevel.obj
 0002:0000a300       ??_C@_1M@LJMAMNPJ@?$AAs?$AAq?$AA?9?$AAA?$AAL@ 0000000180149300     libucrt:lcidtoname_downlevel.obj
 0002:0000a310       ??_C@_1M@GIAKDKJK@?$AAs?$AAv?$AA?9?$AAS?$AAE@ 0000000180149310     libucrt:lcidtoname_downlevel.obj
 0002:0000a320       ??_C@_1M@MKJKIKCL@?$AAt?$AAh?$AA?9?$AAT?$AAH@ 0000000180149320     libucrt:lcidtoname_downlevel.obj
 0002:0000a330       ??_C@_1M@MFLCCMPB@?$AAt?$AAr?$AA?9?$AAT?$AAR@ 0000000180149330     libucrt:lcidtoname_downlevel.obj
 0002:0000a340       ??_C@_1M@OIJHDKJN@?$AAu?$AAr?$AA?9?$AAP?$AAK@ 0000000180149340     libucrt:lcidtoname_downlevel.obj
 0002:0000a350       ??_C@_1M@LHIPCIEK@?$AAi?$AAd?$AA?9?$AAI?$AAD@ 0000000180149350     libucrt:lcidtoname_downlevel.obj
 0002:0000a360       ??_C@_1M@MFMOBGI@?$AAu?$AAk?$AA?9?$AAU?$AAA@ 0000000180149360     libucrt:lcidtoname_downlevel.obj
 0002:0000a370       ??_C@_1M@OBGLJIPL@?$AAb?$AAe?$AA?9?$AAB?$AAY@ 0000000180149370     libucrt:lcidtoname_downlevel.obj
 0002:0000a380       ??_C@_1M@BCFAJEAD@?$AAs?$AAl?$AA?9?$AAS?$AAI@ 0000000180149380     libucrt:lcidtoname_downlevel.obj
 0002:0000a390       ??_C@_1M@FKFFEDDN@?$AAe?$AAt?$AA?9?$AAE?$AAE@ 0000000180149390     libucrt:lcidtoname_downlevel.obj
 0002:0000a3a0       ??_C@_1M@KGKKAACI@?$AAl?$AAv?$AA?9?$AAL?$AAV@ 00000001801493a0     libucrt:lcidtoname_downlevel.obj
 0002:0000a3b0       ??_C@_1M@IFGBIJO@?$AAl?$AAt?$AA?9?$AAL?$AAT@ 00000001801493b0     libucrt:lcidtoname_downlevel.obj
 0002:0000a3c0       ??_C@_1M@FGEAHEDM@?$AAf?$AAa?$AA?9?$AAI?$AAR@ 00000001801493c0     libucrt:lcidtoname_downlevel.obj
 0002:0000a3d0       ??_C@_1M@KBMAIBFN@?$AAv?$AAi?$AA?9?$AAV?$AAN@ 00000001801493d0     libucrt:lcidtoname_downlevel.obj
 0002:0000a3e0       ??_C@_1M@GPCBKDJK@?$AAh?$AAy?$AA?9?$AAA?$AAM@ 00000001801493e0     libucrt:lcidtoname_downlevel.obj
 0002:0000a3f0       ??_C@_1BG@BECMDDJB@?$AAa?$AAz?$AA?9?$AAA?$AAZ?$AA?9?$AAL?$AAa?$AAt?$AAn@ 00000001801493f0     libucrt:lcidtoname_downlevel.obj
 0002:0000a408       ??_C@_1M@MAOFCAEA@?$AAe?$AAu?$AA?9?$AAE?$AAS@ 0000000180149408     libucrt:lcidtoname_downlevel.obj
 0002:0000a418       ??_C@_1M@IGHABKPI@?$AAm?$AAk?$AA?9?$AAM?$AAK@ 0000000180149418     libucrt:lcidtoname_downlevel.obj
 0002:0000a428       ??_C@_1M@IAIGNEJG@?$AAt?$AAn?$AA?9?$AAZ?$AAA@ 0000000180149428     libucrt:lcidtoname_downlevel.obj
 0002:0000a438       ??_C@_1M@IIJCOJFA@?$AAx?$AAh?$AA?9?$AAZ?$AAA@ 0000000180149438     libucrt:lcidtoname_downlevel.obj
 0002:0000a448       ??_C@_1M@LGPJHNJH@?$AAz?$AAu?$AA?9?$AAZ?$AAA@ 0000000180149448     libucrt:lcidtoname_downlevel.obj
 0002:0000a458       ??_C@_1M@HOKAOIO@?$AAa?$AAf?$AA?9?$AAZ?$AAA@ 0000000180149458     libucrt:lcidtoname_downlevel.obj
 0002:0000a468       ??_C@_1M@DPCLHLIE@?$AAk?$AAa?$AA?9?$AAG?$AAE@ 0000000180149468     libucrt:lcidtoname_downlevel.obj
 0002:0000a478       ??_C@_1M@BLKMHJBI@?$AAf?$AAo?$AA?9?$AAF?$AAO@ 0000000180149478     libucrt:lcidtoname_downlevel.obj
 0002:0000a488       ??_C@_1M@LGGJAPPB@?$AAh?$AAi?$AA?9?$AAI?$AAN@ 0000000180149488     libucrt:lcidtoname_downlevel.obj
 0002:0000a498       ??_C@_1M@FIKPIHFE@?$AAm?$AAt?$AA?9?$AAM?$AAT@ 0000000180149498     libucrt:lcidtoname_downlevel.obj
 0002:0000a4a8       ??_C@_1M@HEGGPBFA@?$AAs?$AAe?$AA?9?$AAN?$AAO@ 00000001801494a8     libucrt:lcidtoname_downlevel.obj
 0002:0000a4b8       ??_C@_1M@EIBJEEPA@?$AAm?$AAs?$AA?9?$AAM?$AAY@ 00000001801494b8     libucrt:lcidtoname_downlevel.obj
 0002:0000a4c8       ??_C@_1M@FHLBGMPP@?$AAk?$AAk?$AA?9?$AAK?$AAZ@ 00000001801494c8     libucrt:lcidtoname_downlevel.obj
 0002:0000a4d8       ??_C@_1M@NGJJLCGI@?$AAk?$AAy?$AA?9?$AAK?$AAG@ 00000001801494d8     libucrt:lcidtoname_downlevel.obj
 0002:0000a4e8       ??_C@_1M@GIENNBFC@?$AAs?$AAw?$AA?9?$AAK?$AAE@ 00000001801494e8     libucrt:lcidtoname_downlevel.obj
 0002:0000a4f8       ??_C@_1BG@NDGMJIMJ@?$AAu?$AAz?$AA?9?$AAU?$AAZ?$AA?9?$AAL?$AAa?$AAt?$AAn@ 00000001801494f8     libucrt:lcidtoname_downlevel.obj
 0002:0000a510       ??_C@_1M@IDCCIHBC@?$AAt?$AAt?$AA?9?$AAR?$AAU@ 0000000180149510     libucrt:lcidtoname_downlevel.obj
 0002:0000a520       ??_C@_1M@LOICPMOJ@?$AAb?$AAn?$AA?9?$AAI?$AAN@ 0000000180149520     libucrt:lcidtoname_downlevel.obj
 0002:0000a530       ??_C@_1M@KPKKNEAH@?$AAp?$AAa?$AA?9?$AAI?$AAN@ 0000000180149530     libucrt:lcidtoname_downlevel.obj
 0002:0000a540       ??_C@_1M@PJGPPBOG@?$AAg?$AAu?$AA?9?$AAI?$AAN@ 0000000180149540     libucrt:lcidtoname_downlevel.obj
 0002:0000a550       ??_C@_1M@KMKMOPHI@?$AAt?$AAa?$AA?9?$AAI?$AAN@ 0000000180149550     libucrt:lcidtoname_downlevel.obj
 0002:0000a560       ??_C@_1M@KFEHEPAC@?$AAt?$AAe?$AA?9?$AAI?$AAN@ 0000000180149560     libucrt:lcidtoname_downlevel.obj
 0002:0000a570       ??_C@_1M@CDCLMGHI@?$AAk?$AAn?$AA?9?$AAI?$AAN@ 0000000180149570     libucrt:lcidtoname_downlevel.obj
 0002:0000a580       ??_C@_1M@MIODLDKF@?$AAm?$AAl?$AA?9?$AAI?$AAN@ 0000000180149580     libucrt:lcidtoname_downlevel.obj
 0002:0000a590       ??_C@_1M@PBIEACPO@?$AAm?$AAr?$AA?9?$AAI?$AAN@ 0000000180149590     libucrt:lcidtoname_downlevel.obj
 0002:0000a5a0       ??_C@_1M@NIDEAGPH@?$AAs?$AAa?$AA?9?$AAI?$AAN@ 00000001801495a0     libucrt:lcidtoname_downlevel.obj
 0002:0000a5b0       ??_C@_1M@FHIHCBIO@?$AAm?$AAn?$AA?9?$AAM?$AAN@ 00000001801495b0     libucrt:lcidtoname_downlevel.obj
 0002:0000a5c0       ??_C@_1M@JAIJPENP@?$AAc?$AAy?$AA?9?$AAG?$AAB@ 00000001801495c0     libucrt:lcidtoname_downlevel.obj
 0002:0000a5d0       ??_C@_1M@PHGFBEPN@?$AAg?$AAl?$AA?9?$AAE?$AAS@ 00000001801495d0     libucrt:lcidtoname_downlevel.obj
 0002:0000a5e0       ??_C@_1O@KPIPDNCP@?$AAk?$AAo?$AAk?$AA?9?$AAI?$AAN@ 00000001801495e0     libucrt:lcidtoname_downlevel.obj
 0002:0000a5f0       ??_C@_1O@KNHJLDJA@?$AAs?$AAy?$AAr?$AA?9?$AAS?$AAY@ 00000001801495f0     libucrt:lcidtoname_downlevel.obj
 0002:0000a600       ??_C@_1O@MKEKBLAH@?$AAd?$AAi?$AAv?$AA?9?$AAM?$AAV@ 0000000180149600     libucrt:lcidtoname_downlevel.obj
 0002:0000a610       ??_C@_1O@OHDCKDDF@?$AAq?$AAu?$AAz?$AA?9?$AAB?$AAO@ 0000000180149610     libucrt:lcidtoname_downlevel.obj
 0002:0000a620       ??_C@_1M@LEPJNLFD@?$AAn?$AAs?$AA?9?$AAZ?$AAA@ 0000000180149620     libucrt:lcidtoname_downlevel.obj
 0002:0000a630       ??_C@_1M@OMLEIIJB@?$AAm?$AAi?$AA?9?$AAN?$AAZ@ 0000000180149630     libucrt:lcidtoname_downlevel.obj
 0002:0000a640       ??_C@_1M@PMPEAILG@?$AAa?$AAr?$AA?9?$AAI?$AAQ@ 0000000180149640     libucrt:lcidtoname_downlevel.obj
 0002:0000a650       ??_C@_1M@CNKPNOEE@?$AAd?$AAe?$AA?9?$AAC?$AAH@ 0000000180149650     libucrt:lcidtoname_downlevel.obj
 0002:0000a660       ??_C@_1M@LKMGMLKO@?$AAe?$AAn?$AA?9?$AAG?$AAB@ 0000000180149660     libucrt:lcidtoname_downlevel.obj
 0002:0000a670       ??_C@_1M@PGKJFFGL@?$AAe?$AAs?$AA?9?$AAM?$AAX@ 0000000180149670     libucrt:lcidtoname_downlevel.obj
 0002:0000a680       ??_C@_1M@DNNANBDC@?$AAf?$AAr?$AA?9?$AAB?$AAE@ 0000000180149680     libucrt:lcidtoname_downlevel.obj
 0002:0000a690       ??_C@_1M@HLGMDFHM@?$AAi?$AAt?$AA?9?$AAC?$AAH@ 0000000180149690     libucrt:lcidtoname_downlevel.obj
 0002:0000a6a0       ??_C@_1M@CLLBGJH@?$AAn?$AAl?$AA?9?$AAB?$AAE@ 00000001801496a0     libucrt:lcidtoname_downlevel.obj
 0002:0000a6b0       ??_C@_1M@BODBOGLF@?$AAn?$AAn?$AA?9?$AAN?$AAO@ 00000001801496b0     libucrt:lcidtoname_downlevel.obj
 0002:0000a6c0       ??_C@_1M@HFFAHKAD@?$AAp?$AAt?$AA?9?$AAP?$AAT@ 00000001801496c0     libucrt:lcidtoname_downlevel.obj
 0002:0000a6d0       ??_C@_1BG@LNOAKHIE@?$AAs?$AAr?$AA?9?$AAS?$AAP?$AA?9?$AAL?$AAa?$AAt?$AAn@ 00000001801496d0     libucrt:lcidtoname_downlevel.obj
 0002:0000a6e8       ??_C@_1M@HBMHBGAK@?$AAs?$AAv?$AA?9?$AAF?$AAI@ 00000001801496e8     libucrt:lcidtoname_downlevel.obj
 0002:0000a6f8       ??_C@_1BG@DGCJGJBE@?$AAa?$AAz?$AA?9?$AAA?$AAZ?$AA?9?$AAC?$AAy?$AAr?$AAl@ 00000001801496f8     libucrt:lcidtoname_downlevel.obj
 0002:0000a710       ??_C@_1M@KEJDAAHB@?$AAs?$AAe?$AA?9?$AAS?$AAE@ 0000000180149710     libucrt:lcidtoname_downlevel.obj
 0002:0000a720       ??_C@_1M@HEIBJJAD@?$AAm?$AAs?$AA?9?$AAB?$AAN@ 0000000180149720     libucrt:lcidtoname_downlevel.obj
 0002:0000a730       ??_C@_1BG@PBGJMCEM@?$AAu?$AAz?$AA?9?$AAU?$AAZ?$AA?9?$AAC?$AAy?$AAr?$AAl@ 0000000180149730     libucrt:lcidtoname_downlevel.obj
 0002:0000a748       ??_C@_1O@LAOBCMDF@?$AAq?$AAu?$AAz?$AA?9?$AAE?$AAC@ 0000000180149748     libucrt:lcidtoname_downlevel.obj
 0002:0000a758       ??_C@_1M@POEEMAIO@?$AAa?$AAr?$AA?9?$AAE?$AAG@ 0000000180149758     libucrt:lcidtoname_downlevel.obj
 0002:0000a768       ??_C@_1M@EFAKDEDL@?$AAz?$AAh?$AA?9?$AAH?$AAK@ 0000000180149768     libucrt:lcidtoname_downlevel.obj
 0002:0000a778       ??_C@_1M@HKKIJHGI@?$AAd?$AAe?$AA?9?$AAA?$AAT@ 0000000180149778     libucrt:lcidtoname_downlevel.obj
 0002:0000a788       ??_C@_1M@KBFBEHJF@?$AAe?$AAn?$AA?9?$AAA?$AAU@ 0000000180149788     libucrt:lcidtoname_downlevel.obj
 0002:0000a798       ??_C@_1M@MNPLFAAH@?$AAe?$AAs?$AA?9?$AAE?$AAS@ 0000000180149798     libucrt:lcidtoname_downlevel.obj
 0002:0000a7a8       ??_C@_1M@HJOOJFMA@?$AAf?$AAr?$AA?9?$AAC?$AAA@ 00000001801497a8     libucrt:lcidtoname_downlevel.obj
 0002:0000a7b8       ??_C@_1BG@JPOFPNAB@?$AAs?$AAr?$AA?9?$AAS?$AAP?$AA?9?$AAC?$AAy?$AAr?$AAl@ 00000001801497b8     libucrt:lcidtoname_downlevel.obj
 0002:0000a7d0       ??_C@_1M@LNFOCMOB@?$AAs?$AAe?$AA?9?$AAF?$AAI@ 00000001801497d0     libucrt:lcidtoname_downlevel.obj
 0002:0000a7e0       ??_C@_1O@MGJBOAMB@?$AAq?$AAu?$AAz?$AA?9?$AAP?$AAE@ 00000001801497e0     libucrt:lcidtoname_downlevel.obj
 0002:0000a7f0       ??_C@_1M@GJINLBOK@?$AAa?$AAr?$AA?9?$AAL?$AAY@ 00000001801497f0     libucrt:lcidtoname_downlevel.obj
 0002:0000a800       ??_C@_1M@GGMNHJNL@?$AAz?$AAh?$AA?9?$AAS?$AAG@ 0000000180149800     libucrt:lcidtoname_downlevel.obj
 0002:0000a810       ??_C@_1M@HOIKODND@?$AAd?$AAe?$AA?9?$AAL?$AAU@ 0000000180149810     libucrt:lcidtoname_downlevel.obj
 0002:0000a820       ??_C@_1M@DDOCCGFG@?$AAe?$AAn?$AA?9?$AAC?$AAA@ 0000000180149820     libucrt:lcidtoname_downlevel.obj
 0002:0000a830       ??_C@_1M@BNOEMJLF@?$AAe?$AAs?$AA?9?$AAG?$AAT@ 0000000180149830     libucrt:lcidtoname_downlevel.obj
 0002:0000a840       ??_C@_1M@EOGNKEK@?$AAf?$AAr?$AA?9?$AAC?$AAH@ 0000000180149840     libucrt:lcidtoname_downlevel.obj
 0002:0000a850       ??_C@_1M@FLIDJFHL@?$AAh?$AAr?$AA?9?$AAB?$AAA@ 0000000180149850     libucrt:lcidtoname_downlevel.obj
 0002:0000a860       ??_C@_1O@FMCELNAJ@?$AAs?$AAm?$AAj?$AA?9?$AAN?$AAO@ 0000000180149860     libucrt:lcidtoname_downlevel.obj
 0002:0000a870       ??_C@_1M@JHGLJMGJ@?$AAa?$AAr?$AA?9?$AAD?$AAZ@ 0000000180149870     libucrt:lcidtoname_downlevel.obj
 0002:0000a880       ??_C@_1M@JKKFDCNP@?$AAz?$AAh?$AA?9?$AAM?$AAO@ 0000000180149880     libucrt:lcidtoname_downlevel.obj
 0002:0000a890       ??_C@_1M@GEEFALPE@?$AAd?$AAe?$AA?9?$AAL?$AAI@ 0000000180149890     libucrt:lcidtoname_downlevel.obj
 0002:0000a8a0       ??_C@_1M@IGEOFBG@?$AAe?$AAn?$AA?9?$AAN?$AAZ@ 00000001801498a0     libucrt:lcidtoname_downlevel.obj
 0002:0000a8b0       ??_C@_1M@KDBONEHP@?$AAe?$AAs?$AA?9?$AAC?$AAR@ 00000001801498b0     libucrt:lcidtoname_downlevel.obj
 0002:0000a8c0       ??_C@_1M@FHMDOHNN@?$AAf?$AAr?$AA?9?$AAL?$AAU@ 00000001801498c0     libucrt:lcidtoname_downlevel.obj
 0002:0000a8d0       ??_C@_1BG@NFKKMAFG@?$AAb?$AAs?$AA?9?$AAB?$AAA?$AA?9?$AAL?$AAa?$AAt?$AAn@ 00000001801498d0     libucrt:lcidtoname_downlevel.obj
 0002:0000a8e8       ??_C@_1O@IMNBEMCI@?$AAs?$AAm?$AAj?$AA?9?$AAS?$AAE@ 00000001801498e8     libucrt:lcidtoname_downlevel.obj
 0002:0000a8f8       ??_C@_1M@DHHMBNDP@?$AAa?$AAr?$AA?9?$AAM?$AAA@ 00000001801498f8     libucrt:lcidtoname_downlevel.obj
 0002:0000a908       ??_C@_1M@BNBLJCGH@?$AAe?$AAn?$AA?9?$AAI?$AAE@ 0000000180149908     libucrt:lcidtoname_downlevel.obj
 0002:0000a918       ??_C@_1M@GEPAFMDL@?$AAe?$AAs?$AA?9?$AAP?$AAA@ 0000000180149918     libucrt:lcidtoname_downlevel.obj
 0002:0000a928       ??_C@_1M@OJONDMDL@?$AAf?$AAr?$AA?9?$AAM?$AAC@ 0000000180149928     libucrt:lcidtoname_downlevel.obj
 0002:0000a938       ??_C@_1BG@OBCNFJB@?$AAs?$AAr?$AA?9?$AAB?$AAA?$AA?9?$AAL?$AAa?$AAt?$AAn@ 0000000180149938     libucrt:lcidtoname_downlevel.obj
 0002:0000a950       ??_C@_1O@KEMEEGPO@?$AAs?$AAm?$AAa?$AA?9?$AAN?$AAO@ 0000000180149950     libucrt:lcidtoname_downlevel.obj
 0002:0000a960       ??_C@_1M@ELMGFODK@?$AAa?$AAr?$AA?9?$AAT?$AAN@ 0000000180149960     libucrt:lcidtoname_downlevel.obj
 0002:0000a970       ??_C@_1M@BHDLHFAF@?$AAe?$AAn?$AA?9?$AAZ?$AAA@ 0000000180149970     libucrt:lcidtoname_downlevel.obj
 0002:0000a980       ??_C@_1M@BMGIGLIF@?$AAe?$AAs?$AA?9?$AAD?$AAO@ 0000000180149980     libucrt:lcidtoname_downlevel.obj
 0002:0000a990       ??_C@_1BG@CMBHIPBE@?$AAs?$AAr?$AA?9?$AAB?$AAA?$AA?9?$AAC?$AAy?$AAr?$AAl@ 0000000180149990     libucrt:lcidtoname_downlevel.obj
 0002:0000a9a8       ??_C@_1O@HEDBLHNP@?$AAs?$AAm?$AAa?$AA?9?$AAS?$AAE@ 00000001801499a8     libucrt:lcidtoname_downlevel.obj
 0002:0000a9b8       ??_C@_1M@DAGCADIM@?$AAa?$AAr?$AA?9?$AAO?$AAM@ 00000001801499b8     libucrt:lcidtoname_downlevel.obj
 0002:0000a9c8       ??_C@_1M@FODLMICG@?$AAe?$AAn?$AA?9?$AAJ?$AAM@ 00000001801499c8     libucrt:lcidtoname_downlevel.obj
 0002:0000a9d8       ??_C@_1M@DNMLCIHB@?$AAe?$AAs?$AA?9?$AAV?$AAE@ 00000001801499d8     libucrt:lcidtoname_downlevel.obj
 0002:0000a9e8       ??_C@_1O@EOKHMKJK@?$AAs?$AAm?$AAs?$AA?9?$AAF?$AAI@ 00000001801499e8     libucrt:lcidtoname_downlevel.obj
 0002:0000a9f8       ??_C@_1M@CAFJMKOF@?$AAa?$AAr?$AA?9?$AAY?$AAE@ 00000001801499f8     libucrt:lcidtoname_downlevel.obj
 0002:0000aa08       ??_C@_1M@CBFHIJLI@?$AAe?$AAn?$AA?9?$AAC?$AAB@ 0000000180149a08     libucrt:lcidtoname_downlevel.obj
 0002:0000aa18       ??_C@_1M@BGNFLDN@?$AAe?$AAs?$AA?9?$AAC?$AAO@ 0000000180149a18     libucrt:lcidtoname_downlevel.obj
 0002:0000aa28       ??_C@_1O@JMPHMAMC@?$AAs?$AAm?$AAn?$AA?9?$AAF?$AAI@ 0000000180149a28     libucrt:lcidtoname_downlevel.obj
 0002:0000aa38       ??_C@_1M@JLANABKE@?$AAa?$AAr?$AA?9?$AAS?$AAY@ 0000000180149a38     libucrt:lcidtoname_downlevel.obj
 0002:0000aa48       ??_C@_1M@HPKGCFGN@?$AAe?$AAn?$AA?9?$AAB?$AAZ@ 0000000180149a48     libucrt:lcidtoname_downlevel.obj
 0002:0000aa58       ??_C@_1M@OLJCMLGM@?$AAe?$AAs?$AA?9?$AAP?$AAE@ 0000000180149a58     libucrt:lcidtoname_downlevel.obj
 0002:0000aa68       ??_C@_1M@MKKGFKLE@?$AAa?$AAr?$AA?9?$AAJ?$AAO@ 0000000180149a68     libucrt:lcidtoname_downlevel.obj
 0002:0000aa78       ??_C@_1M@EKPGLDNI@?$AAe?$AAn?$AA?9?$AAT?$AAT@ 0000000180149a78     libucrt:lcidtoname_downlevel.obj
 0002:0000aa88       ??_C@_1M@OONGHFHE@?$AAe?$AAs?$AA?9?$AAA?$AAR@ 0000000180149a88     libucrt:lcidtoname_downlevel.obj
 0002:0000aa98       ??_C@_1M@OOJFGBHE@?$AAa?$AAr?$AA?9?$AAL?$AAB@ 0000000180149a98     libucrt:lcidtoname_downlevel.obj
 0002:0000aaa8       ??_C@_1M@GCEJHNEG@?$AAe?$AAn?$AA?9?$AAZ?$AAW@ 0000000180149aa8     libucrt:lcidtoname_downlevel.obj
 0002:0000aab8       ??_C@_1M@JNOCAHJI@?$AAe?$AAs?$AA?9?$AAE?$AAC@ 0000000180149ab8     libucrt:lcidtoname_downlevel.obj
 0002:0000aac8       ??_C@_1M@JEFHPGGB@?$AAa?$AAr?$AA?9?$AAK?$AAW@ 0000000180149ac8     libucrt:lcidtoname_downlevel.obj
 0002:0000aad8       ??_C@_1M@MLKIBJOJ@?$AAe?$AAn?$AA?9?$AAP?$AAH@ 0000000180149ad8     libucrt:lcidtoname_downlevel.obj
 0002:0000aae8       ??_C@_1M@BDNIPEND@?$AAe?$AAs?$AA?9?$AAC?$AAL@ 0000000180149ae8     libucrt:lcidtoname_downlevel.obj
 0002:0000aaf8       ??_C@_1M@MPNMEKBD@?$AAa?$AAr?$AA?9?$AAA?$AAE@ 0000000180149af8     libucrt:lcidtoname_downlevel.obj
 0002:0000ab08       ??_C@_1M@KBJALCPI@?$AAe?$AAs?$AA?9?$AAU?$AAY@ 0000000180149b08     libucrt:lcidtoname_downlevel.obj
 0002:0000ab18       ??_C@_1M@LLCCOAGA@?$AAa?$AAr?$AA?9?$AAB?$AAH@ 0000000180149b18     libucrt:lcidtoname_downlevel.obj
 0002:0000ab28       ??_C@_1M@PBFNCDEL@?$AAe?$AAs?$AA?9?$AAP?$AAY@ 0000000180149b28     libucrt:lcidtoname_downlevel.obj
 0002:0000ab38       ??_C@_1M@EDGINPNP@?$AAa?$AAr?$AA?9?$AAQ?$AAA@ 0000000180149b38     libucrt:lcidtoname_downlevel.obj
 0002:0000ab48       ??_C@_1M@MKDBIIJI@?$AAe?$AAs?$AA?9?$AAB?$AAO@ 0000000180149b48     libucrt:lcidtoname_downlevel.obj
 0002:0000ab58       ??_C@_1M@CPKKEBLD@?$AAe?$AAs?$AA?9?$AAS?$AAV@ 0000000180149b58     libucrt:lcidtoname_downlevel.obj
 0002:0000ab68       ??_C@_1M@NDBGMMJL@?$AAe?$AAs?$AA?9?$AAH?$AAN@ 0000000180149b68     libucrt:lcidtoname_downlevel.obj
 0002:0000ab78       ??_C@_1M@JIJIBHDP@?$AAe?$AAs?$AA?9?$AAN?$AAI@ 0000000180149b78     libucrt:lcidtoname_downlevel.obj
 0002:0000ab88       ??_C@_1M@CGFMKEEK@?$AAe?$AAs?$AA?9?$AAP?$AAR@ 0000000180149b88     libucrt:lcidtoname_downlevel.obj
 0002:0000ab98       ??_C@_1O@ICJHKIIK@?$AAz?$AAh?$AA?9?$AAC?$AAH?$AAT@ 0000000180149b98     libucrt:lcidtoname_downlevel.obj
 0002:0000aba8       ??_C@_15CLNEJCE@?$AAs?$AAr@ 0000000180149ba8     libucrt:lcidtoname_downlevel.obj
 0002:0000b9f0       ??_C@_1M@KAHEKEIG@?$AAa?$AAf?$AA?9?$AAz?$AAa@ 000000018014a9f0     libucrt:lcidtoname_downlevel.obj
 0002:0000ba00       ??_C@_1M@GIECOABL@?$AAa?$AAr?$AA?9?$AAa?$AAe@ 000000018014aa00     libucrt:lcidtoname_downlevel.obj
 0002:0000ba10       ??_C@_1M@BMLMEKGI@?$AAa?$AAr?$AA?9?$AAb?$AAh@ 000000018014aa10     libucrt:lcidtoname_downlevel.obj
 0002:0000ba20       ??_C@_1M@DAPFDGGB@?$AAa?$AAr?$AA?9?$AAd?$AAz@ 000000018014aa20     libucrt:lcidtoname_downlevel.obj
 0002:0000ba30       ??_C@_1M@FJNKGKIG@?$AAa?$AAr?$AA?9?$AAe?$AAg@ 000000018014aa30     libucrt:lcidtoname_downlevel.obj
 0002:0000ba40       ??_C@_1M@FLGKKCLO@?$AAa?$AAr?$AA?9?$AAi?$AAq@ 000000018014aa40     libucrt:lcidtoname_downlevel.obj
 0002:0000ba50       ??_C@_1M@GNDIPALM@?$AAa?$AAr?$AA?9?$AAj?$AAo@ 000000018014aa50     libucrt:lcidtoname_downlevel.obj
 0002:0000ba60       ??_C@_1M@DDMJFMGJ@?$AAa?$AAr?$AA?9?$AAk?$AAw@ 000000018014aa60     libucrt:lcidtoname_downlevel.obj
 0002:0000ba70       ??_C@_1M@EJALMLHM@?$AAa?$AAr?$AA?9?$AAl?$AAb@ 000000018014aa70     libucrt:lcidtoname_downlevel.obj
 0002:0000ba80       ??_C@_1M@MOBDBLOC@?$AAa?$AAr?$AA?9?$AAl?$AAy@ 000000018014aa80     libucrt:lcidtoname_downlevel.obj
 0002:0000ba90       ??_C@_1M@JAOCLHDH@?$AAa?$AAr?$AA?9?$AAm?$AAa@ 000000018014aa90     libucrt:lcidtoname_downlevel.obj
 0002:0000baa0       ??_C@_1M@JHPMKJIE@?$AAa?$AAr?$AA?9?$AAo?$AAm@ 000000018014aaa0     libucrt:lcidtoname_downlevel.obj
 0002:0000bab0       ??_C@_1M@OEPGHFNH@?$AAa?$AAr?$AA?9?$AAq?$AAa@ 000000018014aab0     libucrt:lcidtoname_downlevel.obj
 0002:0000bac0       ??_C@_1M@KJDONENM@?$AAa?$AAr?$AA?9?$AAs?$AAa@ 000000018014aac0     libucrt:lcidtoname_downlevel.obj
 0002:0000bad0       ??_C@_1M@DMJDKLKM@?$AAa?$AAr?$AA?9?$AAs?$AAy@ 000000018014aad0     libucrt:lcidtoname_downlevel.obj
 0002:0000bae0       ??_C@_1M@OMFIPEDC@?$AAa?$AAr?$AA?9?$AAt?$AAn@ 000000018014aae0     libucrt:lcidtoname_downlevel.obj
 0002:0000baf0       ??_C@_1M@IHMHGAON@?$AAa?$AAr?$AA?9?$AAy?$AAe@ 000000018014aaf0     libucrt:lcidtoname_downlevel.obj
 0002:0000bb00       ??_C@_1BG@KDCPGJGB@?$AAa?$AAz?$AA?9?$AAa?$AAz?$AA?9?$AAc?$AAy?$AAr?$AAl@ 000000018014ab00     libucrt:lcidtoname_downlevel.obj
 0002:0000bb18       ??_C@_1BG@IBCKDDOE@?$AAa?$AAz?$AA?9?$AAa?$AAz?$AA?9?$AAl?$AAa?$AAt?$AAn@ 000000018014ab18     libucrt:lcidtoname_downlevel.obj
 0002:0000bb30       ??_C@_1M@EGPFDCPD@?$AAb?$AAe?$AA?9?$AAb?$AAy@ 000000018014ab30     libucrt:lcidtoname_downlevel.obj
 0002:0000bb40       ??_C@_1M@PCMGMCGC@?$AAb?$AAg?$AA?9?$AAb?$AAg@ 000000018014ab40     libucrt:lcidtoname_downlevel.obj
 0002:0000bb50       ??_C@_1M@BJBMFGOB@?$AAb?$AAn?$AA?9?$AAi?$AAn@ 000000018014ab50     libucrt:lcidtoname_downlevel.obj
 0002:0000bb60       ??_C@_1BG@EAKMMACD@?$AAb?$AAs?$AA?9?$AAb?$AAa?$AA?9?$AAl?$AAa?$AAt?$AAn@ 000000018014ab60     libucrt:lcidtoname_downlevel.obj
 0002:0000bb78       ??_C@_1M@KGADAODK@?$AAc?$AAa?$AA?9?$AAe?$AAs@ 000000018014ab78     libucrt:lcidtoname_downlevel.obj
 0002:0000bb88       ??_C@_1M@COAJPDHI@?$AAc?$AAs?$AA?9?$AAc?$AAz@ 000000018014ab88     libucrt:lcidtoname_downlevel.obj
 0002:0000bb98       ??_C@_1M@DHBHFONH@?$AAc?$AAy?$AA?9?$AAg?$AAb@ 000000018014ab98     libucrt:lcidtoname_downlevel.obj
 0002:0000bba8       ??_C@_1M@IMGKELGA@?$AAd?$AAa?$AA?9?$AAd?$AAk@ 000000018014aba8     libucrt:lcidtoname_downlevel.obj
 0002:0000bbb8       ??_C@_1M@NNDGDNGA@?$AAd?$AAe?$AA?9?$AAa?$AAt@ 000000018014abb8     libucrt:lcidtoname_downlevel.obj
 0002:0000bbc8       ??_C@_1M@IKDBHEEM@?$AAd?$AAe?$AA?9?$AAc?$AAh@ 000000018014abc8     libucrt:lcidtoname_downlevel.obj
 0002:0000bbd8       ??_C@_1M@GFFOJMCJ@?$AAd?$AAe?$AA?9?$AAd?$AAe@ 000000018014abd8     libucrt:lcidtoname_downlevel.obj
 0002:0000bbe8       ??_C@_1M@MDNLKBPM@?$AAd?$AAe?$AA?9?$AAl?$AAi@ 000000018014abe8     libucrt:lcidtoname_downlevel.obj
 0002:0000bbf8       ??_C@_1M@NJBEEJNL@?$AAd?$AAe?$AA?9?$AAl?$AAu@ 000000018014abf8     libucrt:lcidtoname_downlevel.obj
 0002:0000bc08       ??_C@_1O@GNNELBAP@?$AAd?$AAi?$AAv?$AA?9?$AAm?$AAv@ 000000018014ac08     libucrt:lcidtoname_downlevel.obj
 0002:0000bc18       ??_C@_1M@EJLEOGAE@?$AAe?$AAl?$AA?9?$AAg?$AAr@ 000000018014ac18     libucrt:lcidtoname_downlevel.obj
 0002:0000bc28       ??_C@_1M@GMPONJN@?$AAe?$AAn?$AA?9?$AAa?$AAu@ 000000018014ac28     libucrt:lcidtoname_downlevel.obj
 0002:0000bc38       ??_C@_1M@NIDIIPGF@?$AAe?$AAn?$AA?9?$AAb?$AAz@ 000000018014ac38     libucrt:lcidtoname_downlevel.obj
 0002:0000bc48       ??_C@_1M@JEHMIMFO@?$AAe?$AAn?$AA?9?$AAc?$AAa@ 000000018014ac48     libucrt:lcidtoname_downlevel.obj
 0002:0000bc58       ??_C@_1M@IGMJCDLA@?$AAe?$AAn?$AA?9?$AAc?$AAb@ 000000018014ac58     libucrt:lcidtoname_downlevel.obj
 0002:0000bc68       ??_C@_1M@BNFIGBKG@?$AAe?$AAn?$AA?9?$AAg?$AAb@ 000000018014ac68     libucrt:lcidtoname_downlevel.obj
 0002:0000bc78       ??_C@_1M@LKIFDIGP@?$AAe?$AAn?$AA?9?$AAi?$AAe@ 000000018014ac78     libucrt:lcidtoname_downlevel.obj
 0002:0000bc88       ??_C@_1M@PJKFGCCO@?$AAe?$AAn?$AA?9?$AAj?$AAm@ 000000018014ac88     libucrt:lcidtoname_downlevel.obj
 0002:0000bc98       ??_C@_1M@KPPKEPBO@?$AAe?$AAn?$AA?9?$AAn?$AAz@ 000000018014ac98     libucrt:lcidtoname_downlevel.obj
 0002:0000bca8       ??_C@_1M@GMDGLDOB@?$AAe?$AAn?$AA?9?$AAp?$AAh@ 000000018014aca8     libucrt:lcidtoname_downlevel.obj
 0002:0000bcb8       ??_C@_1M@ONGIBJNA@?$AAe?$AAn?$AA?9?$AAt?$AAt@ 000000018014acb8     libucrt:lcidtoname_downlevel.obj
 0002:0000bcc8       ??_C@_1M@LLODPCMM@?$AAe?$AAn?$AA?9?$AAu?$AAs@ 000000018014acc8     libucrt:lcidtoname_downlevel.obj
 0002:0000bcd8       ??_C@_1M@LAKFNPAN@?$AAe?$AAn?$AA?9?$AAz?$AAa@ 000000018014acd8     libucrt:lcidtoname_downlevel.obj
 0002:0000bce8       ??_C@_1M@MFNHNHEO@?$AAe?$AAn?$AA?9?$AAz?$AAw@ 000000018014ace8     libucrt:lcidtoname_downlevel.obj
 0002:0000bcf8       ??_C@_1M@EJEINPHM@?$AAe?$AAs?$AA?9?$AAa?$AAr@ 000000018014acf8     libucrt:lcidtoname_downlevel.obj
 0002:0000bd08       ??_C@_1M@GNKPCCJA@?$AAe?$AAs?$AA?9?$AAb?$AAo@ 000000018014ad08     libucrt:lcidtoname_downlevel.obj
 0002:0000bd18       ??_C@_1M@LEEGFONL@?$AAe?$AAs?$AA?9?$AAc?$AAl@ 000000018014ad18     libucrt:lcidtoname_downlevel.obj
 0002:0000bd28       ??_C@_1M@KGPDPBDF@?$AAe?$AAs?$AA?9?$AAc?$AAo@ 000000018014ad28     libucrt:lcidtoname_downlevel.obj
 0002:0000bd38       ??_C@_1M@EIAHOHH@?$AAe?$AAs?$AA?9?$AAc?$AAr@ 000000018014ad38     libucrt:lcidtoname_downlevel.obj
 0002:0000bd48       ??_C@_1M@LLPGMBIN@?$AAe?$AAs?$AA?9?$AAd?$AAo@ 000000018014ad48     libucrt:lcidtoname_downlevel.obj
 0002:0000bd58       ??_C@_1M@DKHMKNJA@?$AAe?$AAs?$AA?9?$AAe?$AAc@ 000000018014ad58     libucrt:lcidtoname_downlevel.obj
 0002:0000bd68       ??_C@_1M@GKGFPKAP@?$AAe?$AAs?$AA?9?$AAe?$AAs@ 000000018014ad68     libucrt:lcidtoname_downlevel.obj
 0002:0000bd78       ??_C@_1M@LKHKGDLN@?$AAe?$AAs?$AA?9?$AAg?$AAt@ 000000018014ad78     libucrt:lcidtoname_downlevel.obj
 0002:0000bd88       ??_C@_1M@HEIIGGJD@?$AAe?$AAs?$AA?9?$AAh?$AAn@ 000000018014ad88     libucrt:lcidtoname_downlevel.obj
 0002:0000bd98       ??_C@_1M@FBDHPPGD@?$AAe?$AAs?$AA?9?$AAm?$AAx@ 000000018014ad98     libucrt:lcidtoname_downlevel.obj
 0002:0000bda8       ??_C@_1M@DPAGLNDH@?$AAe?$AAs?$AA?9?$AAn?$AAi@ 000000018014ada8     libucrt:lcidtoname_downlevel.obj
 0002:0000bdb8       ??_C@_1M@MDGOPGDD@?$AAe?$AAs?$AA?9?$AAp?$AAa@ 000000018014adb8     libucrt:lcidtoname_downlevel.obj
 0002:0000bdc8       ??_C@_1M@EMAMGBGE@?$AAe?$AAs?$AA?9?$AAp?$AAe@ 000000018014adc8     libucrt:lcidtoname_downlevel.obj
 0002:0000bdd8       ??_C@_1M@IBMCAOEC@?$AAe?$AAs?$AA?9?$AAp?$AAr@ 000000018014add8     libucrt:lcidtoname_downlevel.obj
 0002:0000bde8       ??_C@_1M@FGMDIJED@?$AAe?$AAs?$AA?9?$AAp?$AAy@ 000000018014ade8     libucrt:lcidtoname_downlevel.obj
 0002:0000bdf8       ??_C@_1M@IIDEOLLL@?$AAe?$AAs?$AA?9?$AAs?$AAv@ 000000018014adf8     libucrt:lcidtoname_downlevel.obj
 0002:0000be08       ??_C@_1M@GAOBIPA@?$AAe?$AAs?$AA?9?$AAu?$AAy@ 000000018014ae08     libucrt:lcidtoname_downlevel.obj
 0002:0000be18       ??_C@_1M@JKFFICHJ@?$AAe?$AAs?$AA?9?$AAv?$AAe@ 000000018014ae18     libucrt:lcidtoname_downlevel.obj
 0002:0000be28       ??_C@_1M@PNMLOJDF@?$AAe?$AAt?$AA?9?$AAe?$AAe@ 000000018014ae28     libucrt:lcidtoname_downlevel.obj
 0002:0000be38       ??_C@_1M@GHHLIKEI@?$AAe?$AAu?$AA?9?$AAe?$AAs@ 000000018014ae38     libucrt:lcidtoname_downlevel.obj
 0002:0000be48       ??_C@_1M@PBNONODE@?$AAf?$AAa?$AA?9?$AAi?$AAr@ 000000018014ae48     libucrt:lcidtoname_downlevel.obj
 0002:0000be58       ??_C@_1M@JEEHPMIL@?$AAf?$AAi?$AA?9?$AAf?$AAi@ 000000018014ae58     libucrt:lcidtoname_downlevel.obj
 0002:0000be68       ??_C@_1M@LMDCNDBA@?$AAf?$AAo?$AA?9?$AAf?$AAo@ 000000018014ae68     libucrt:lcidtoname_downlevel.obj
 0002:0000be78       ??_C@_1M@JKEOHLDK@?$AAf?$AAr?$AA?9?$AAb?$AAe@ 000000018014ae78     libucrt:lcidtoname_downlevel.obj
 0002:0000be88       ??_C@_1M@NOHADPMI@?$AAf?$AAr?$AA?9?$AAc?$AAa@ 000000018014ae88     libucrt:lcidtoname_downlevel.obj
 0002:0000be98       ??_C@_1M@KDHIHAEC@?$AAf?$AAr?$AA?9?$AAc?$AAh@ 000000018014ae98     libucrt:lcidtoname_downlevel.obj
 0002:0000bea8       ??_C@_1M@MMBBFGAK@?$AAf?$AAr?$AA?9?$AAf?$AAr@ 000000018014aea8     libucrt:lcidtoname_downlevel.obj
 0002:0000beb8       ??_C@_1M@PAFNENNF@?$AAf?$AAr?$AA?9?$AAl?$AAu@ 000000018014aeb8     libucrt:lcidtoname_downlevel.obj
 0002:0000bec8       ??_C@_1M@EOHDJGDD@?$AAf?$AAr?$AA?9?$AAm?$AAc@ 000000018014aec8     libucrt:lcidtoname_downlevel.obj
 0002:0000bed8       ??_C@_1M@FAPLLOPF@?$AAg?$AAl?$AA?9?$AAe?$AAs@ 000000018014aed8     libucrt:lcidtoname_downlevel.obj
 0002:0000bee8       ??_C@_1M@FOPBFLOO@?$AAg?$AAu?$AA?9?$AAi?$AAn@ 000000018014aee8     libucrt:lcidtoname_downlevel.obj
 0002:0000bef8       ??_C@_1M@KBMCINPM@?$AAh?$AAe?$AA?9?$AAi?$AAl@ 000000018014aef8     libucrt:lcidtoname_downlevel.obj
 0002:0000bf08       ??_C@_1M@BBPHKFPJ@?$AAh?$AAi?$AA?9?$AAi?$AAn@ 000000018014af08     libucrt:lcidtoname_downlevel.obj
 0002:0000bf18       ??_C@_1M@PMBNDPHD@?$AAh?$AAr?$AA?9?$AAb?$AAa@ 000000018014af18     libucrt:lcidtoname_downlevel.obj
 0002:0000bf28       ??_C@_1M@BPCKOEGE@?$AAh?$AAr?$AA?9?$AAh?$AAr@ 000000018014af28     libucrt:lcidtoname_downlevel.obj
 0002:0000bf38       ??_C@_1M@GACBMHKE@?$AAh?$AAu?$AA?9?$AAh?$AAu@ 000000018014af38     libucrt:lcidtoname_downlevel.obj
 0002:0000bf48       ??_C@_1M@MILPAJJC@?$AAh?$AAy?$AA?9?$AAa?$AAm@ 000000018014af48     libucrt:lcidtoname_downlevel.obj
 0002:0000bf58       ??_C@_1M@BABBICEC@?$AAi?$AAd?$AA?9?$AAi?$AAd@ 000000018014af58     libucrt:lcidtoname_downlevel.obj
 0002:0000bf68       ??_C@_1M@BIKNHHPF@?$AAi?$AAs?$AA?9?$AAi?$AAs@ 000000018014af68     libucrt:lcidtoname_downlevel.obj
 0002:0000bf78       ??_C@_1M@NMPCJPHE@?$AAi?$AAt?$AA?9?$AAc?$AAh@ 000000018014af78     libucrt:lcidtoname_downlevel.obj
 0002:0000bf88       ??_C@_1M@GHKGFEDF@?$AAi?$AAt?$AA?9?$AAi?$AAt@ 000000018014af88     libucrt:lcidtoname_downlevel.obj
 0002:0000bf98       ??_C@_1M@NIEJCJJA@?$AAj?$AAa?$AA?9?$AAj?$AAp@ 000000018014af98     libucrt:lcidtoname_downlevel.obj
 0002:0000bfa8       ??_C@_1M@JILFNBIM@?$AAk?$AAa?$AA?9?$AAg?$AAe@ 000000018014afa8     libucrt:lcidtoname_downlevel.obj
 0002:0000bfb8       ??_C@_1M@PACPMGPH@?$AAk?$AAk?$AA?9?$AAk?$AAz@ 000000018014afb8     libucrt:lcidtoname_downlevel.obj
 0002:0000bfc8       ??_C@_1M@IELFGMHA@?$AAk?$AAn?$AA?9?$AAi?$AAn@ 000000018014afc8     libucrt:lcidtoname_downlevel.obj
 0002:0000bfd8       ??_C@_1O@IBBJHCH@?$AAk?$AAo?$AAk?$AA?9?$AAi?$AAn@ 000000018014afd8     libucrt:lcidtoname_downlevel.obj
 0002:0000bfe8       ??_C@_1M@DMHAEOGC@?$AAk?$AAo?$AA?9?$AAk?$AAr@ 000000018014afe8     libucrt:lcidtoname_downlevel.obj
 0002:0000bff8       ??_C@_1M@HBAHBIGA@?$AAk?$AAy?$AA?9?$AAk?$AAg@ 000000018014aff8     libucrt:lcidtoname_downlevel.obj
 0002:0000c008       ??_C@_1M@KPMILCJG@?$AAl?$AAt?$AA?9?$AAl?$AAt@ 000000018014b008     libucrt:lcidtoname_downlevel.obj
 0002:0000c018       ??_C@_1M@BDEKKCA@?$AAl?$AAv?$AA?9?$AAl?$AAv@ 000000018014b018     libucrt:lcidtoname_downlevel.obj
 0002:0000c028       ??_C@_1M@ELCKCCJJ@?$AAm?$AAi?$AA?9?$AAn?$AAz@ 000000018014b028     libucrt:lcidtoname_downlevel.obj
 0002:0000c038       ??_C@_1M@CBOOLAPA@?$AAm?$AAk?$AA?9?$AAm?$AAk@ 000000018014b038     libucrt:lcidtoname_downlevel.obj
 0002:0000c048       ??_C@_1M@GPHNBJKN@?$AAm?$AAl?$AA?9?$AAi?$AAn@ 000000018014b048     libucrt:lcidtoname_downlevel.obj
 0002:0000c058       ??_C@_1M@PABJILIG@?$AAm?$AAn?$AA?9?$AAm?$AAn@ 000000018014b058     libucrt:lcidtoname_downlevel.obj
 0002:0000c068       ??_C@_1M@FGBKKIPG@?$AAm?$AAr?$AA?9?$AAi?$AAn@ 000000018014b068     libucrt:lcidtoname_downlevel.obj
 0002:0000c078       ??_C@_1M@NDBPDDAL@?$AAm?$AAs?$AA?9?$AAb?$AAn@ 000000018014b078     libucrt:lcidtoname_downlevel.obj
 0002:0000c088       ??_C@_1M@OPIHOOPI@?$AAm?$AAs?$AA?9?$AAm?$AAy@ 000000018014b088     libucrt:lcidtoname_downlevel.obj
 0002:0000c098       ??_C@_1M@PPDBCNFM@?$AAm?$AAt?$AA?9?$AAm?$AAt@ 000000018014b098     libucrt:lcidtoname_downlevel.obj
 0002:0000c0a8       ??_C@_1M@KDJDKMDD@?$AAn?$AAb?$AA?9?$AAn?$AAo@ 000000018014b0a8     libucrt:lcidtoname_downlevel.obj
 0002:0000c0b8       ??_C@_1M@KFCFLMJP@?$AAn?$AAl?$AA?9?$AAb?$AAe@ 000000018014b0b8     libucrt:lcidtoname_downlevel.obj
 0002:0000c0c8       ??_C@_1M@KPOPDDGO@?$AAn?$AAl?$AA?9?$AAn?$AAl@ 000000018014b0c8     libucrt:lcidtoname_downlevel.obj
 0002:0000c0d8       ??_C@_1M@LJKPEMLN@?$AAn?$AAn?$AA?9?$AAn?$AAo@ 000000018014b0d8     libucrt:lcidtoname_downlevel.obj
 0002:0000c0e8       ??_C@_1M@BDGHHBFL@?$AAn?$AAs?$AA?9?$AAz?$AAa@ 000000018014b0e8     libucrt:lcidtoname_downlevel.obj
 0002:0000c0f8       ??_C@_1M@IDEHOAP@?$AAp?$AAa?$AA?9?$AAi?$AAn@ 000000018014b0f8     libucrt:lcidtoname_downlevel.obj
 0002:0000c108       ??_C@_1M@HDBKGOGH@?$AAp?$AAl?$AA?9?$AAp?$AAl@ 000000018014b108     libucrt:lcidtoname_downlevel.obj
 0002:0000c118       ??_C@_1M@LJLLCMEH@?$AAp?$AAt?$AA?9?$AAb?$AAr@ 000000018014b118     libucrt:lcidtoname_downlevel.obj
 0002:0000c128       ??_C@_1M@NCMONAAL@?$AAp?$AAt?$AA?9?$AAp?$AAt@ 000000018014b128     libucrt:lcidtoname_downlevel.obj
 0002:0000c138       ??_C@_1O@EAKMAJDN@?$AAq?$AAu?$AAz?$AA?9?$AAb?$AAo@ 000000018014b138     libucrt:lcidtoname_downlevel.obj
 0002:0000c148       ??_C@_1O@BHHPIGDN@?$AAq?$AAu?$AAz?$AA?9?$AAe?$AAc@ 000000018014b148     libucrt:lcidtoname_downlevel.obj
 0002:0000c158       ??_C@_1O@GBAPEKMJ@?$AAq?$AAu?$AAz?$AA?9?$AAp?$AAe@ 000000018014b158     libucrt:lcidtoname_downlevel.obj
 0002:0000c168       ??_C@_1M@CLGLEFBO@?$AAr?$AAo?$AA?9?$AAr?$AAo@ 000000018014b168     libucrt:lcidtoname_downlevel.obj
 0002:0000c178       ??_C@_1M@CEEDODME@?$AAr?$AAu?$AA?9?$AAr?$AAu@ 000000018014b178     libucrt:lcidtoname_downlevel.obj
 0002:0000c188       ??_C@_1M@HPKKKMPP@?$AAs?$AAa?$AA?9?$AAi?$AAn@ 000000018014b188     libucrt:lcidtoname_downlevel.obj
 0002:0000c198       ??_C@_1M@BKMAIGOJ@?$AAs?$AAe?$AA?9?$AAf?$AAi@ 000000018014b198     libucrt:lcidtoname_downlevel.obj
 0002:0000c1a8       ??_C@_1M@NDPIFLFI@?$AAs?$AAe?$AA?9?$AAn?$AAo@ 000000018014b1a8     libucrt:lcidtoname_downlevel.obj
 0002:0000c1b8       ??_C@_1M@DANKKHJ@?$AAs?$AAe?$AA?9?$AAs?$AAe@ 000000018014b1b8     libucrt:lcidtoname_downlevel.obj
 0002:0000c1c8       ??_C@_1M@PNBLONPJ@?$AAs?$AAk?$AA?9?$AAs?$AAk@ 000000018014b1c8     libucrt:lcidtoname_downlevel.obj
 0002:0000c1d8       ??_C@_1M@LFMODOAL@?$AAs?$AAl?$AA?9?$AAs?$AAi@ 000000018014b1d8     libucrt:lcidtoname_downlevel.obj
 0002:0000c1e8       ??_C@_1O@DFKOMPG@?$AAs?$AAm?$AAa?$AA?9?$AAn?$AAo@ 000000018014b1e8     libucrt:lcidtoname_downlevel.obj
 0002:0000c1f8       ??_C@_1O@NDKPBNNH@?$AAs?$AAm?$AAa?$AA?9?$AAs?$AAe@ 000000018014b1f8     libucrt:lcidtoname_downlevel.obj
 0002:0000c208       ??_C@_1O@PLLKBHAB@?$AAs?$AAm?$AAj?$AA?9?$AAn?$AAo@ 000000018014b208     libucrt:lcidtoname_downlevel.obj
 0002:0000c218       ??_C@_1O@CLEPOGCA@?$AAs?$AAm?$AAj?$AA?9?$AAs?$AAe@ 000000018014b218     libucrt:lcidtoname_downlevel.obj
 0002:0000c228       ??_C@_1O@DLGJGKMK@?$AAs?$AAm?$AAn?$AA?9?$AAf?$AAi@ 000000018014b228     libucrt:lcidtoname_downlevel.obj
 0002:0000c238       ??_C@_1O@OJDJGAJC@?$AAs?$AAm?$AAs?$AA?9?$AAf?$AAi@ 000000018014b238     libucrt:lcidtoname_downlevel.obj
 0002:0000c248       ??_C@_1M@BOFOGHPB@?$AAs?$AAq?$AA?9?$AAa?$AAl@ 000000018014b248     libucrt:lcidtoname_downlevel.obj
 0002:0000c258       ??_C@_1BG@LJBBIPGB@?$AAs?$AAr?$AA?9?$AAb?$AAa?$AA?9?$AAc?$AAy?$AAr?$AAl@ 000000018014b258     libucrt:lcidtoname_downlevel.obj
 0002:0000c270       ??_C@_1BG@JLBENFOE@?$AAs?$AAr?$AA?9?$AAb?$AAa?$AA?9?$AAl?$AAa?$AAt?$AAn@ 000000018014b270     libucrt:lcidtoname_downlevel.obj
 0002:0000c288       ??_C@_1BG@KODPNHE@?$AAs?$AAr?$AA?9?$AAs?$AAp?$AA?9?$AAc?$AAy?$AAr?$AAl@ 000000018014b288     libucrt:lcidtoname_downlevel.obj
 0002:0000c2a0       ??_C@_1BG@CIOGKHPB@?$AAs?$AAr?$AA?9?$AAs?$AAp?$AA?9?$AAl?$AAa?$AAt?$AAn@ 000000018014b2a0     libucrt:lcidtoname_downlevel.obj
 0002:0000c2b8       ??_C@_1M@NGFJLMAC@?$AAs?$AAv?$AA?9?$AAf?$AAi@ 000000018014b2b8     libucrt:lcidtoname_downlevel.obj
 0002:0000c2c8       ??_C@_1M@MPJEJAJC@?$AAs?$AAv?$AA?9?$AAs?$AAe@ 000000018014b2c8     libucrt:lcidtoname_downlevel.obj
 0002:0000c2d8       ??_C@_1M@MPNDHLFK@?$AAs?$AAw?$AA?9?$AAk?$AAe@ 000000018014b2d8     libucrt:lcidtoname_downlevel.obj
 0002:0000c2e8       ??_C@_1O@KOHBJJI@?$AAs?$AAy?$AAr?$AA?9?$AAs?$AAy@ 000000018014b2e8     libucrt:lcidtoname_downlevel.obj
 0002:0000c2f8       ??_C@_1M@LDCEFHA@?$AAt?$AAa?$AA?9?$AAi?$AAn@ 000000018014b2f8     libucrt:lcidtoname_downlevel.obj
 0002:0000c308       ??_C@_1M@CNJOFAK@?$AAt?$AAe?$AA?9?$AAi?$AAn@ 000000018014b308     libucrt:lcidtoname_downlevel.obj
 0002:0000c318       ??_C@_1M@GNAECACD@?$AAt?$AAh?$AA?9?$AAt?$AAh@ 000000018014b318     libucrt:lcidtoname_downlevel.obj
 0002:0000c328       ??_C@_1M@CHBIHOJO@?$AAt?$AAn?$AA?9?$AAz?$AAa@ 000000018014b328     libucrt:lcidtoname_downlevel.obj
 0002:0000c338       ??_C@_1M@GCCMIGPJ@?$AAt?$AAr?$AA?9?$AAt?$AAr@ 000000018014b338     libucrt:lcidtoname_downlevel.obj
 0002:0000c348       ??_C@_1M@CELMCNBK@?$AAt?$AAt?$AA?9?$AAr?$AAu@ 000000018014b348     libucrt:lcidtoname_downlevel.obj
 0002:0000c358       ??_C@_1M@KLMCELGA@?$AAu?$AAk?$AA?9?$AAu?$AAa@ 000000018014b358     libucrt:lcidtoname_downlevel.obj
 0002:0000c368       ??_C@_1M@EPAJJAJF@?$AAu?$AAr?$AA?9?$AAp?$AAk@ 000000018014b368     libucrt:lcidtoname_downlevel.obj
 0002:0000c378       ??_C@_1BG@GEGPMCDJ@?$AAu?$AAz?$AA?9?$AAu?$AAz?$AA?9?$AAc?$AAy?$AAr?$AAl@ 000000018014b378     libucrt:lcidtoname_downlevel.obj
 0002:0000c390       ??_C@_1BG@EGGKJILM@?$AAu?$AAz?$AA?9?$AAu?$AAz?$AA?9?$AAl?$AAa?$AAt?$AAn@ 000000018014b390     libucrt:lcidtoname_downlevel.obj
 0002:0000c3a8       ??_C@_1M@GFOCLFF@?$AAv?$AAi?$AA?9?$AAv?$AAn@ 000000018014b3a8     libucrt:lcidtoname_downlevel.obj
 0002:0000c3b8       ??_C@_1M@CPAMEDFI@?$AAx?$AAh?$AA?9?$AAz?$AAa@ 000000018014b3b8     libucrt:lcidtoname_downlevel.obj
 0002:0000c3c8       ??_C@_1O@EBKIFIGN@?$AAz?$AAh?$AA?9?$AAc?$AAh?$AAs@ 000000018014b3c8     libucrt:lcidtoname_downlevel.obj
 0002:0000c3d8       ??_C@_1O@NMHPGANE@?$AAz?$AAh?$AA?9?$AAc?$AAh?$AAt@ 000000018014b3d8     libucrt:lcidtoname_downlevel.obj
 0002:0000c3e8       ??_C@_1M@LPINJOMC@?$AAz?$AAh?$AA?9?$AAc?$AAn@ 000000018014b3e8     libucrt:lcidtoname_downlevel.obj
 0002:0000c3f8       ??_C@_1M@OCJEJODD@?$AAz?$AAh?$AA?9?$AAh?$AAk@ 000000018014b3f8     libucrt:lcidtoname_downlevel.obj
 0002:0000c408       ??_C@_1M@DNDLJINH@?$AAz?$AAh?$AA?9?$AAm?$AAo@ 000000018014b408     libucrt:lcidtoname_downlevel.obj
 0002:0000c418       ??_C@_1M@MBFDNDND@?$AAz?$AAh?$AA?9?$AAs?$AAg@ 000000018014b418     libucrt:lcidtoname_downlevel.obj
 0002:0000c428       ??_C@_1M@IMEPLEPE@?$AAz?$AAh?$AA?9?$AAt?$AAw@ 000000018014b428     libucrt:lcidtoname_downlevel.obj
 0002:0000c438       ??_C@_1M@BBGHNHJP@?$AAz?$AAu?$AA?9?$AAz?$AAa@ 000000018014b438     libucrt:lcidtoname_downlevel.obj
 0002:0000c470       ?large_power_data@?1??multiply_by_power_of_ten@__crt_strtox@@YA_NAEAUbig_integer@2@I@Z@4QBIB 000000018014b470     libucrt:cfout.obj
 0002:0000cd80       ?large_power_indices@?1??multiply_by_power_of_ten@__crt_strtox@@YA_NAEAUbig_integer@2@I@Z@4QBUunpack_index@?1??12@YA_N0I@Z@B 000000018014bd80     libucrt:cfout.obj
 0002:0000ce18       ?small_powers_of_ten@?1??multiply_by_power_of_ten@__crt_strtox@@YA_NAEAUbig_integer@2@I@Z@4QBIB 000000018014be18     libucrt:cfout.obj
 0002:0000ce3c       ??_C@_01GBGANLPD@0@        000000018014be3c     libucrt:cfout.obj
 0002:0000ce40       ??_C@_05DNEBIAHO@1?$CDINF@ 000000018014be40     libucrt:cfout.obj
 0002:0000ce48       ??_C@_06IMKFLFPG@1?$CDQNAN@ 000000018014be48     libucrt:cfout.obj
 0002:0000ce50       ??_C@_06PGGFOGJG@1?$CDSNAN@ 000000018014be50     libucrt:cfout.obj
 0002:0000ce58       ??_C@_05PHHOCPM@1?$CDIND@  000000018014be58     libucrt:cfout.obj
 0002:0000ce60       __real@3ff0000000000000    000000018014be60     libucrt:ceil.obj
 0002:0000d0c0       ??_C@_1BA@BALFACEM@?$AAC?$AAO?$AAN?$AAO?$AAU?$AAT?$AA$@ 000000018014c0c0     libucrt:initcon.obj
 0002:0000d0d0       __log10_256_lead           000000018014c0d0     libucrt:log10_256_lead_tail_table.obj
 0002:0000d8e0       __log10_256_tail           000000018014c8e0     libucrt:log10_256_lead_tail_table.obj
 0002:0000e0f0       __log_F_inv_qword          000000018014d0f0     libucrt:log_f_inv_qword_table.obj
 0002:0000eb00       ??_R4type_info@@6B@        000000018014db00     LIBCMT:std_type_info_static.obj
 0002:0000eb28       ??_R3type_info@@8          000000018014db28     LIBCMT:std_type_info_static.obj
 0002:0000eb40       ??_R2type_info@@8          000000018014db40     LIBCMT:std_type_info_static.obj
 0002:0000eb50       ??_R1A@?0A@EA@type_info@@8 000000018014db50     LIBCMT:std_type_info_static.obj
 0002:0000eb78       ??_R3DNameNode@@8          000000018014db78     libvcruntime:undname.obj
 0002:0000eb90       ??_R2DNameNode@@8          000000018014db90     libvcruntime:undname.obj
 0002:0000eba0       ??_R1A@?0A@EA@DNameNode@@8 000000018014dba0     libvcruntime:undname.obj
 0002:0000ebc8       ??_R4charNode@@6B@         000000018014dbc8     libvcruntime:undname.obj
 0002:0000ebf0       ??_R3charNode@@8           000000018014dbf0     libvcruntime:undname.obj
 0002:0000ec08       ??_R2charNode@@8           000000018014dc08     libvcruntime:undname.obj
 0002:0000ec20       ??_R1A@?0A@EA@charNode@@8  000000018014dc20     libvcruntime:undname.obj
 0002:0000ec48       ??_R4pcharNode@@6B@        000000018014dc48     libvcruntime:undname.obj
 0002:0000ec70       ??_R3pcharNode@@8          000000018014dc70     libvcruntime:undname.obj
 0002:0000ec88       ??_R2pcharNode@@8          000000018014dc88     libvcruntime:undname.obj
 0002:0000eca0       ??_R1A@?0A@EA@pcharNode@@8 000000018014dca0     libvcruntime:undname.obj
 0002:0000ecc8       ??_R4pDNameNode@@6B@       000000018014dcc8     libvcruntime:undname.obj
 0002:0000ecf0       ??_R3pDNameNode@@8         000000018014dcf0     libvcruntime:undname.obj
 0002:0000ed08       ??_R2pDNameNode@@8         000000018014dd08     libvcruntime:undname.obj
 0002:0000ed20       ??_R1A@?0A@EA@pDNameNode@@8 000000018014dd20     libvcruntime:undname.obj
 0002:0000ed48       ??_R4DNameStatusNode@@6B@  000000018014dd48     libvcruntime:undname.obj
 0002:0000ed70       ??_R3DNameStatusNode@@8    000000018014dd70     libvcruntime:undname.obj
 0002:0000ed88       ??_R2DNameStatusNode@@8    000000018014dd88     libvcruntime:undname.obj
 0002:0000eda0       ??_R1A@?0A@EA@DNameStatusNode@@8 000000018014dda0     libvcruntime:undname.obj
 0002:0000edc8       ??_R4pairNode@@6B@         000000018014ddc8     libvcruntime:undname.obj
 0002:0000edf0       ??_R3pairNode@@8           000000018014ddf0     libvcruntime:undname.obj
 0002:0000ee08       ??_R2pairNode@@8           000000018014de08     libvcruntime:undname.obj
 0002:0000ee20       ??_R1A@?0A@EA@pairNode@@8  000000018014de20     libvcruntime:undname.obj
 0002:0000ee48       ??_R4exception@std@@6B@    000000018014de48     libvcruntime:frame.obj
 0002:0000ee70       ??_R3exception@std@@8      000000018014de70     libvcruntime:frame.obj
 0002:0000ee88       ??_R2exception@std@@8      000000018014de88     libvcruntime:frame.obj
 0002:0000ee98       ??_R1A@?0A@EA@exception@std@@8 000000018014de98     libvcruntime:frame.obj
 0002:0000eec0       ??_R4bad_exception@std@@6B@ 000000018014dec0     libvcruntime:frame.obj
 0002:0000eee8       ??_R3bad_exception@std@@8  000000018014dee8     libvcruntime:frame.obj
 0002:0000ef00       ??_R2bad_exception@std@@8  000000018014df00     libvcruntime:frame.obj
 0002:0000ef18       ??_R1A@?0A@EA@bad_exception@std@@8 000000018014df18     libvcruntime:frame.obj
 0002:0000ef3c       __volatile_metadata        000000018014df3c     <linker-defined>
 0002:0000f590       __rtc_iaa                  000000018014e590     LIBCMT:initsect.obj
 0002:0000f598       __rtc_izz                  000000018014e598     LIBCMT:initsect.obj
 0002:0000f5a0       __rtc_taa                  000000018014e5a0     LIBCMT:initsect.obj
 0002:0000f5a8       __rtc_tzz                  000000018014e5a8     LIBCMT:initsect.obj
 0002:0001bc58       _TI2?AVbad_exception@std@@ 000000018015ac58     libvcruntime:frame.obj
 0002:0001bc78       _CTA2?AVbad_exception@std@@ 000000018015ac78     libvcruntime:frame.obj
 0002:0001bc90       _CT??_R0?AVbad_exception@std@@@8??0bad_exception@std@@QEAA@AEBV01@@Z24 000000018015ac90     libvcruntime:frame.obj
 0002:0001bcb8       _CT??_R0?AVexception@std@@@8??0exception@std@@QEAA@AEBV01@@Z24 000000018015acb8     libvcruntime:frame.obj
 0002:0001bcdc       __DELAY_IMPORT_DESCRIPTOR_physxfoundation_64_dll 000000018015acdc     PhysXFoundation_64:PhysXFoundation_64.dll
 0002:0001bcfc       __NULL_DELAY_IMPORT_DESCRIPTOR 000000018015acfc     PhysXFoundation_64:PhysXFoundation_64.dll
 0002:0001bda0       \177PhysXFoundation_64_NULL_THUNK_DATA_DLN 000000018015ada0     PhysXFoundation_64:PhysXFoundation_64.dll
 0002:0001c0c8       \177PhysXFoundation_64_NULL_THUNK_DATA_DLB 000000018015b0c8     PhysXFoundation_64:PhysXFoundation_64.dll
 0002:0002633c       __IMPORT_DESCRIPTOR_KERNEL32 000000018016533c     kernel32:KERNEL32.dll
 0002:00026350       __NULL_IMPORT_DESCRIPTOR   0000000180165350     kernel32:KERNEL32.dll
 0003:00000000       __pfnDliNotifyHook2        0000000180166000     CmWindowsDelayLoadHook.obj
 0003:00000020       ?gGeomMTDMethodTable@@3PAY06P6A_NAEAVPxVec3@physx@@AEAMAEBVPxGeometry@2@AEBVPxTransform@2@23@ZA 0000000180166020     GuMTD.obj
 0003:000001b0       ?gGeomOverlapMethodTable@@3PAY06P6A_NAEBVPxGeometry@physx@@AEBVPxTransform@2@01PEAUTriggerCache@Gu@2@@ZA 00000001801661b0     GuOverlapTests.obj
 0003:00000338       ?gRaycastMap@@3PAP6AIAEBVPxGeometry@physx@@AEBVPxTransform@2@AEBVPxVec3@2@2MV?$PxFlags@W4Enum@PxHitFlag@physx@@G@2@IPEIAUPxRaycastHit@2@@ZA 0000000180166338     GuRaycastTests.obj
 0003:00000370       ?gGeomSweepFuncs@@3UGeomSweepFuncs@Gu@physx@@A 0000000180166370     GuSweepTests.obj
 0003:00000490       ?g_SweepMethodTable@Gu@physx@@3PAY06P6AMAEBUCCDShape@12@0AEBVPxTransform@2@111MAEAVPxVec3@2@2MAEAIM@ZA 0000000180166490     GuCCDSweepPrimitives.obj
 0003:00000618       ?g_TriangleSweepMethodTable@Gu@physx@@3PAP6AMAEBVGeometryUnion@12@0AEBVPxTransform@2@111MAEAVPxVec3@2@2AEBVFastVertex2ShapeScaling@Cm@2@AEAVTriangleV@12@M@ZA 0000000180166618     GuCCDSweepPrimitives.obj
 0003:00000a14       _fltused                   0000000180166a14     LIBCMT:fltused.obj
 0003:00000a20       __isa_inverted             0000000180166a20     LIBCMT:cpu_disp.obj
 0003:00000a28       __isa_available            0000000180166a28     LIBCMT:cpu_disp.obj
 0003:00000a2c       __isa_enabled              0000000180166a2c     LIBCMT:cpu_disp.obj
 0003:00000a30       __memset_fast_string_threshold 0000000180166a30     LIBCMT:cpu_disp.obj
 0003:00000a38       __memset_nt_threshold      0000000180166a38     LIBCMT:cpu_disp.obj
 0003:00000a40       __scrt_native_dllmain_reason 0000000180166a40     LIBCMT:utility.obj
 0003:00000a80       __security_cookie          0000000180166a80     LIBCMT:gs_cookie.obj
 0003:00000ac0       __security_cookie_complement 0000000180166ac0     LIBCMT:gs_cookie.obj
 0003:00000af0       __abort_behavior           0000000180166af0     libucrt:abort.obj
 0003:00000b20       __acrt_initial_multibyte_data 0000000180166b20     libucrt:mbctype.obj
 0003:00001060       __acrt_initial_locale_data 0000000180167060     libucrt:nlsdata.obj
 0003:000011b8       __acrt_initial_locale_pointers 00000001801671b8     libucrt:nlsdata.obj
 0003:000011c8       __acrt_wide_c_locale_string 00000001801671c8     libucrt:nlsdata.obj
 0003:000011d0       _iob                       00000001801671d0     libucrt:_file.obj
 0003:000012e0       __globallocalestatus       00000001801672e0     libucrt:glstatus.obj
 0003:000012f0       __acrt_lconv_c             00000001801672f0     libucrt:localeconv.obj
 0003:00001388       __acrt_lconv_static_decimal 0000000180167388     libucrt:localeconv.obj
 0003:0000138c       __acrt_lconv_static_W_decimal 000000018016738c     libucrt:localeconv.obj
 0003:00001390       _lookuptrailbytes          0000000180167390     libucrt:read.obj
 0003:000014a0       ??_R0?AVCollection@Cm@physx@@@8 00000001801674a0     CmCollection.obj
 0003:000014d0       ??_R0D@8                   00000001801674d0     CmRenderOutput.obj
 0003:000014e8       ??_R0?AUPxDebugText@physx@@@8 00000001801674e8     CmRenderOutput.obj
 0003:00001510       ??_R0?AUPxDebugTriangle@physx@@@8 0000000180167510     CmRenderOutput.obj
 0003:00001540       ??_R0?AUPxDebugLine@physx@@@8 0000000180167540     CmRenderOutput.obj
 0003:00001568       ??_R0?AUPxDebugPoint@physx@@@8 0000000180167568     CmRenderOutput.obj
 0003:00001598       ??_R0?AVMutexImpl@shdfnd@physx@@@8 0000000180167598     GuMeshFactory.obj
 0003:000015c8       ??_R0?AVBVHStructure@Gu@physx@@@8 00000001801675c8     GuMeshFactory.obj
 0003:000015f8       ??_R0?AVHeightField@Gu@physx@@@8 00000001801675f8     GuMeshFactory.obj
 0003:00001628       ??_R0?AVConvexMesh@Gu@physx@@@8 0000000180167628     GuMeshFactory.obj
 0003:00001658       ??_R0?AVBV32Tree@Gu@physx@@@8 0000000180167658     GuMeshFactory.obj
 0003:00001680       ??_R0?AVBV4TriangleData@Gu@physx@@@8 0000000180167680     GuMeshFactory.obj
 0003:000016b0       ??_R0?AVRTreeTriangleData@Gu@physx@@@8 00000001801676b0     GuMeshFactory.obj
 0003:000016e8       ??_R0?AVBV4TriangleMesh@Gu@physx@@@8 00000001801676e8     GuMeshFactory.obj
 0003:00001718       ??_R0?AVRTreeTriangleMesh@Gu@physx@@@8 0000000180167718     GuMeshFactory.obj
 0003:00001750       ??_R0E@8                   0000000180167750     GuMeshFactory.obj
 0003:00001768       ??_R0G@8                   0000000180167768     GuMeshFactory.obj
 0003:00001780       ??_R0I@8                   0000000180167780     GuMeshFactory.obj
 0003:00001798       ??_R0PEAVGuMeshFactoryListener@physx@@@8 0000000180167798     GuMeshFactory.obj
 0003:000017d0       ??_R0?AVAABBTreeBuildNode@Gu@physx@@@8 00000001801677d0     GuAABBTreeBuild.obj
 0003:00001808       ??_R0?AUSlab@NodeAllocator@Gu@physx@@@8 0000000180167808     GuAABBTreeBuild.obj
 0003:00001840       ??_R0PEBUBVHNode@Gu@physx@@@8 0000000180167840     GuBVHStructure.obj
 0003:00001868       ??_R0?AVBigConvexData@physx@@@8 0000000180167868     GuConvexMesh.obj
 0003:00001898       ??_R0?AVIndTri16@Gu@physx@@@8 0000000180167898     GuBV4.obj
 0003:000018c0       ??_R0?AVIndTri32@Gu@physx@@@8 00000001801678c0     GuBV4.obj
 0003:000018f0       ??_R0?AU?$BVDataPackedT@VQuantizedAABB@Gu@physx@@@Gu@physx@@@8 00000001801678f0     GuBV4Build.obj
 0003:00001940       ??_R0?AUSlab@BV4BuildParams@@@8 0000000180167940     GuBV4Build.obj
 0003:00001970       ??_R0?AVAABBTreeNode@Gu@physx@@@8 0000000180167970     GuBV4Build.obj
 0003:000019a0       ??_R0?AUBV32Data@Gu@physx@@@8 00000001801679a0     GuBV32Build.obj
 0003:000019c8       ??_R0?AUBV32Node@@@8       00000001801679c8     GuBV32Build.obj
 0003:000019e8       ??_R0?AUSortedTriangle@Gu@physx@@@8 00000001801679e8     GuPCMContactConvexCommon.obj
 0003:00001a18       ??_R0?AVbad_exception@std@@@8 0000000180167a18     libvcruntime:frame.obj
 0003:00001a40       ??_R0?AVexception@std@@@8  0000000180167a40     libvcruntime:frame.obj
 0003:00001a68       ??_R0?AVtype_info@@@8      0000000180167a68     LIBCMT:std_type_info_static.obj
 0003:00001a88       ??_R0?AVDNameNode@@@8      0000000180167a88     libvcruntime:undname.obj
 0003:00001aa8       ??_R0?AVcharNode@@@8       0000000180167aa8     libvcruntime:undname.obj
 0003:00001ac8       ??_R0?AVpcharNode@@@8      0000000180167ac8     libvcruntime:undname.obj
 0003:00001ae8       ??_R0?AVpDNameNode@@@8     0000000180167ae8     libvcruntime:undname.obj
 0003:00001b10       ??_R0?AVDNameStatusNode@@@8 0000000180167b10     libvcruntime:undname.obj
 0003:00001b38       ??_R0?AVpairNode@@@8       0000000180167b38     libvcruntime:undname.obj
 0003:00001b58       __imp_PxGetFoundation      0000000180167b58     PhysXFoundation_64:PhysXFoundation_64.dll
 0003:00001b60       __imp_?deallocate@TempAllocator@shdfnd@physx@@QEAAXPEAX@Z 0000000180167b60     PhysXFoundation_64:PhysXFoundation_64.dll
 0003:00001b68       __imp_?getAllocator@shdfnd@physx@@YAAEAVPxAllocatorCallback@2@XZ 0000000180167b68     PhysXFoundation_64:PhysXFoundation_64.dll
 0003:00001b70       __imp_?getInstance@Foundation@shdfnd@physx@@SAAEAV123@XZ 0000000180167b70     PhysXFoundation_64:PhysXFoundation_64.dll
 0003:00001b78       __imp_?error@Foundation@shdfnd@physx@@QEAAXW4Enum@PxErrorCode@3@PEBDH1ZZ 0000000180167b78     PhysXFoundation_64:PhysXFoundation_64.dll
 0003:00001b80       __imp_?vsnprintf@shdfnd@physx@@YAHPEAD_KPEBD0@Z 0000000180167b80     PhysXFoundation_64:PhysXFoundation_64.dll
 0003:00001b88       __imp_??0MutexImpl@shdfnd@physx@@QEAA@XZ 0000000180167b88     PhysXFoundation_64:PhysXFoundation_64.dll
 0003:00001b90       __imp_??1MutexImpl@shdfnd@physx@@QEAA@XZ 0000000180167b90     PhysXFoundation_64:PhysXFoundation_64.dll
 0003:00001b98       __imp_?lock@MutexImpl@shdfnd@physx@@QEAAXXZ 0000000180167b98     PhysXFoundation_64:PhysXFoundation_64.dll
 0003:00001ba0       __imp_?unlock@MutexImpl@shdfnd@physx@@QEAAXXZ 0000000180167ba0     PhysXFoundation_64:PhysXFoundation_64.dll
 0003:00001ba8       __imp_?getSize@MutexImpl@shdfnd@physx@@SAIXZ 0000000180167ba8     PhysXFoundation_64:PhysXFoundation_64.dll
 0003:00001bb0       __imp_?atomicDecrement@shdfnd@physx@@YAHPECH@Z 0000000180167bb0     PhysXFoundation_64:PhysXFoundation_64.dll
 0003:00001bb8       __imp_?PxTransformFromSegment@physx@@YA?AVPxTransform@1@AEBVPxVec3@1@0PEAM@Z 0000000180167bb8     PhysXFoundation_64:PhysXFoundation_64.dll
 0003:00001bc0       __imp_?optimizeBoundingBox@shdfnd@physx@@YA?AVPxVec3@2@AEAVPxMat33@2@@Z 0000000180167bc0     PhysXFoundation_64:PhysXFoundation_64.dll
 0003:00001bc8       __imp_?allocate@TempAllocator@shdfnd@physx@@QEAAPEAX_KPEBDH@Z 0000000180167bc8     PhysXFoundation_64:PhysXFoundation_64.dll
 0003:00001bd0       __imp_?atomicIncrement@shdfnd@physx@@YAHPECH@Z 0000000180167bd0     PhysXFoundation_64:PhysXFoundation_64.dll
 0003:00001bd8       \177PhysXFoundation_64_NULL_THUNK_DATA_DLA 0000000180167bd8     PhysXFoundation_64:PhysXFoundation_64.dll
 0003:00002970       ?boxVertexTable@physx@@3QBT__m128@@B 0000000180168970     GuConvexSupportTable.obj
 0003:000044c0       __hmod__PhysXFoundation_64_dll 000000018016a4c0     PhysXFoundation_64:PhysXFoundation_64.dll
 0003:000044c8       ?DloadKernel32@@3PEAUHINSTANCE__@@EA 000000018016a4c8     Delayimp:delayhlp.obj
 0003:000044d0       ?DloadAcquireSRWLockExclusive@@3P6AXPEA_K@ZEA 000000018016a4d0     Delayimp:delayhlp.obj
 0003:000044d8       ?DloadReleaseSRWLockExclusive@@3P6AXPEA_K@ZEA 000000018016a4d8     Delayimp:delayhlp.obj
 0003:000044e0       ?DloadSrwLock@@3_KA        000000018016a4e0     Delayimp:delayhlp.obj
 0003:000044e8       ?DloadSectionLockCount@@3KA 000000018016a4e8     Delayimp:delayhlp.obj
 0003:000044ec       ?DloadSectionOldProtection@@3KA 000000018016a4ec     Delayimp:delayhlp.obj
 0003:000044f0       ?DloadSectionCommitPermanent@@3KA 000000018016a4f0     Delayimp:delayhlp.obj
 0003:00004500       ?__type_info_root_node@@3U__type_info_node@@A 000000018016a500     LIBCMT:tncleanup.obj
 0003:00004514       __avx10_version            000000018016a514     LIBCMT:cpu_disp.obj
 0003:00004518       __favor                    000000018016a518     LIBCMT:cpu_disp.obj
 0003:00004520       ?_OptionsStorage@?1??__local_stdio_printf_options@@9@4_KA 000000018016a520     LIBCMT:default_local_stdio_options.obj
 0003:00004528       ?_OptionsStorage@?1??__local_stdio_scanf_options@@9@4_KA 000000018016a528     LIBCMT:default_local_stdio_options.obj
 0003:00004530       __scrt_current_native_startup_state 000000018016a530     LIBCMT:utility.obj
 0003:00004538       __scrt_native_startup_lock 000000018016a538     LIBCMT:utility.obj
 0003:00004578       __scrt_debugger_hook_flag  000000018016a578     LIBCMT:utility_desktop.obj
 0003:00004580       ?__WinRTOutOfMemoryExceptionCallback@@3P6APEAXXZEA 000000018016a580     libvcruntime:ehhelpers.obj
 0003:00004588       __pPurecall                000000018016a588     libvcruntime:purevirt_data.obj
 0003:00004590       ?pArgList@UnDecorator@@0PEAVReplicator@@EA 000000018016a590     libvcruntime:undname.obj
 0003:00004598       ?pZNameList@UnDecorator@@0PEAVReplicator@@EA 000000018016a598     libvcruntime:undname.obj
 0003:000045a0       ?pTemplateArgList@UnDecorator@@0PEAVReplicator@@EA 000000018016a5a0     libvcruntime:undname.obj
 0003:000045a8       ?gName@UnDecorator@@0PEBDEB 000000018016a5a8     libvcruntime:undname.obj
 0003:000045b0       ?name@UnDecorator@@0PEBDEB 000000018016a5b0     libvcruntime:undname.obj
 0003:000045b8       ?disableFlags@UnDecorator@@0KA 000000018016a5b8     libvcruntime:undname.obj
 0003:000045bc       ?fExplicitTemplateParams@UnDecorator@@0_NA 000000018016a5bc     libvcruntime:undname.obj
 0003:000045bd       ?fGetTemplateArgumentList@UnDecorator@@0_NA 000000018016a5bd     libvcruntime:undname.obj
 0003:000045c0       ?m_pGetParameter@UnDecorator@@0P6APEADJ@ZEA 000000018016a5c0     libvcruntime:undname.obj
 0003:000045c8       ?m_CHPENameOffset@UnDecorator@@0KA 000000018016a5c8     libvcruntime:undname.obj
 0003:000045cc       ?m_recursionLevel@UnDecorator@@0KA 000000018016a5cc     libvcruntime:undname.obj
 0003:00004818       _environ_table             000000018016a818     libucrt:environment_initialization.obj
 0003:00004820       _wenviron_table            000000018016a820     libucrt:environment_initialization.obj
 0003:00004828       __dcrt_initial_wide_environment 000000018016a828     libucrt:environment_initialization.obj
 0003:00004830       __dcrt_initial_narrow_environment 000000018016a830     libucrt:environment_initialization.obj
 0003:00004838       __acrt_atexit_table        000000018016a838     libucrt:onexit.obj
 0003:00004850       __acrt_at_quick_exit_table 000000018016a850     libucrt:onexit.obj
 0003:00004868       __fma3_is_available        000000018016a868     libucrt:fma3_available.obj
 0003:0000486c       __use_fma3_lib             000000018016a86c     libucrt:fma3_available.obj
 0003:00004ab0       _mbctype                   000000018016aab0     libucrt:mbctype.obj
 0003:00004ab8       _mbcasemap                 000000018016aab8     libucrt:mbctype.obj
 0003:00004ac0       __acrt_current_multibyte_data 000000018016aac0     libucrt:mbctype.obj
 0003:00004ad0       _pgmptr                    000000018016aad0     libucrt:argv_data.obj
 0003:00004ad8       __argc                     000000018016aad8     libucrt:argv_data.obj
 0003:00004ae0       __argv                     000000018016aae0     libucrt:argv_data.obj
 0003:00004ae8       __wargv                    000000018016aae8     libucrt:argv_data.obj
 0003:00004af0       _acmdln                    000000018016aaf0     libucrt:argv_data.obj
 0003:00004af8       _wcmdln                    000000018016aaf8     libucrt:argv_data.obj
 0003:00004ca8       __acrt_heap                000000018016aca8     libucrt:heap_handle.obj
 0003:00004cb0       __pioinfo                  000000018016acb0     libucrt:ioinit.obj
 0003:000050b0       _nhandle                   000000018016b0b0     libucrt:ioinit.obj
 0003:000050e8       __acrt_current_locale_data 000000018016b0e8     libucrt:nlsdata.obj
 0003:000050f0       _nstream                   000000018016b0f0     libucrt:_file.obj
 0003:000050f8       __piob                     000000018016b0f8     libucrt:_file.obj
 0003:00005100       __acrt_stdout_buffer       000000018016b100     libucrt:_sftbuf.obj
 0003:00005108       __acrt_stderr_buffer       000000018016b108     libucrt:_sftbuf.obj
 0003:00005120       __acrt_locale_changed_data 000000018016b120     libucrt:wsetlocale.obj
 0003:00005128       __acrt_lconv_static_null   000000018016b128     libucrt:localeconv.obj
 0003:0000512c       __acrt_lconv_static_W_null 000000018016b12c     libucrt:localeconv.obj
 0003:000056b0       __scrt_ucrt_dll_is_in_use  000000018016b6b0     <common>
 0003:000056b8       __dyn_tls_init_callback    000000018016b6b8     <common>
 0005:00000100       __common_ssin_reduction_data 0000000180173100     LIBCMT:svml_s_sin_data.obj
 0005:00000d00       __common_ssin_data         0000000180173d00     LIBCMT:svml_s_sin_data.obj

 entry point at        0001:0011ca58

 Static symbols

 0000:ffe87000       .debug$S                   0000000180000000     PhysXCommon_64.exp
 0000:ffe87000       .debug$S                   0000000180000000     kernel32:KERNEL32.dll
 0000:ffe87000       .debug$S                   0000000180000000     kernel32:KERNEL32.dll
 0000:ffe87000       .debug$S                   0000000180000000     kernel32:KERNEL32.dll
 0000:ffe87000       .debug$S                   0000000180000000     kernel32:KERNEL32.dll
 0000:ffe87000       .debug$S                   0000000180000000     kernel32:KERNEL32.dll
 0000:ffe87000       .debug$S                   0000000180000000     kernel32:KERNEL32.dll
 0000:ffe87000       .debug$S                   0000000180000000     kernel32:KERNEL32.dll
 0000:ffe87000       .debug$S                   0000000180000000     kernel32:KERNEL32.dll
 0000:ffe87000       .debug$S                   0000000180000000     kernel32:KERNEL32.dll
 0000:ffe87000       .debug$S                   0000000180000000     kernel32:KERNEL32.dll
 0000:ffe87000       .debug$S                   0000000180000000     kernel32:KERNEL32.dll
 0000:ffe87000       .debug$S                   0000000180000000     kernel32:KERNEL32.dll
 0000:ffe87000       .debug$S                   0000000180000000     kernel32:KERNEL32.dll
 0000:ffe87000       .debug$S                   0000000180000000     kernel32:KERNEL32.dll
 0000:ffe87000       .debug$S                   0000000180000000     kernel32:KERNEL32.dll
 0000:ffe87000       .debug$S                   0000000180000000     kernel32:KERNEL32.dll
 0000:ffe87000       .debug$S                   0000000180000000     kernel32:KERNEL32.dll
 0000:ffe87000       .debug$S                   0000000180000000     kernel32:KERNEL32.dll
 0000:ffe87000       .debug$S                   0000000180000000     kernel32:KERNEL32.dll
 0000:ffe87000       .debug$S                   0000000180000000     kernel32:KERNEL32.dll
 0000:ffe87000       .debug$S                   0000000180000000     kernel32:KERNEL32.dll
 0000:ffe87000       .debug$S                   0000000180000000     kernel32:KERNEL32.dll
 0000:ffe87000       .debug$S                   0000000180000000     kernel32:KERNEL32.dll
 0000:ffe87000       .debug$S                   0000000180000000     kernel32:KERNEL32.dll
 0000:ffe87000       .debug$S                   0000000180000000     kernel32:KERNEL32.dll
 0000:ffe87000       .debug$S                   0000000180000000     kernel32:KERNEL32.dll
 0000:ffe87000       .debug$S                   0000000180000000     kernel32:KERNEL32.dll
 0000:ffe87000       .debug$S                   0000000180000000     kernel32:KERNEL32.dll
 0000:ffe87000       .debug$S                   0000000180000000     kernel32:KERNEL32.dll
 0000:ffe87000       .debug$S                   0000000180000000     kernel32:KERNEL32.dll
 0000:ffe87000       .debug$S                   0000000180000000     kernel32:KERNEL32.dll
 0000:ffe87000       .debug$S                   0000000180000000     kernel32:KERNEL32.dll
 0000:ffe87000       .debug$S                   0000000180000000     kernel32:KERNEL32.dll
 0000:ffe87000       .debug$S                   0000000180000000     kernel32:KERNEL32.dll
 0000:ffe87000       .debug$S                   0000000180000000     kernel32:KERNEL32.dll
 0000:ffe87000       .debug$S                   0000000180000000     kernel32:KERNEL32.dll
 0000:ffe87000       .debug$S                   0000000180000000     kernel32:KERNEL32.dll
 0000:ffe87000       .debug$S                   0000000180000000     kernel32:KERNEL32.dll
 0000:ffe87000       .debug$S                   0000000180000000     kernel32:KERNEL32.dll
 0000:ffe87000       .debug$S                   0000000180000000     kernel32:KERNEL32.dll
 0000:ffe87000       .debug$S                   0000000180000000     kernel32:KERNEL32.dll
 0000:ffe87000       .debug$S                   0000000180000000     kernel32:KERNEL32.dll
 0000:ffe87000       .debug$S                   0000000180000000     kernel32:KERNEL32.dll
 0000:ffe87000       .debug$S                   0000000180000000     kernel32:KERNEL32.dll
 0000:ffe87000       .debug$S                   0000000180000000     kernel32:KERNEL32.dll
 0000:ffe87000       .debug$S                   0000000180000000     kernel32:KERNEL32.dll
 0000:ffe87000       .debug$S                   0000000180000000     kernel32:KERNEL32.dll
 0000:ffe87000       .debug$S                   0000000180000000     kernel32:KERNEL32.dll
 0000:ffe87000       .debug$S                   0000000180000000     kernel32:KERNEL32.dll
 0000:ffe87000       .debug$S                   0000000180000000     kernel32:KERNEL32.dll
 0000:ffe87000       .debug$S                   0000000180000000     kernel32:KERNEL32.dll
 0000:ffe87000       .debug$S                   0000000180000000     kernel32:KERNEL32.dll
 0000:ffe87000       .debug$S                   0000000180000000     kernel32:KERNEL32.dll
 0000:ffe87000       .debug$S                   0000000180000000     kernel32:KERNEL32.dll
 0000:ffe87000       .debug$S                   0000000180000000     kernel32:KERNEL32.dll
 0000:ffe87000       .debug$S                   0000000180000000     kernel32:KERNEL32.dll
 0000:ffe87000       .debug$S                   0000000180000000     kernel32:KERNEL32.dll
 0000:ffe87000       .debug$S                   0000000180000000     kernel32:KERNEL32.dll
 0000:ffe87000       .debug$S                   0000000180000000     kernel32:KERNEL32.dll
 0000:ffe87000       .debug$S                   0000000180000000     kernel32:KERNEL32.dll
 0000:ffe87000       .debug$S                   0000000180000000     kernel32:KERNEL32.dll
 0000:ffe87000       .debug$S                   0000000180000000     kernel32:KERNEL32.dll
 0000:ffe87000       .debug$S                   0000000180000000     kernel32:KERNEL32.dll
 0000:ffe87000       .debug$S                   0000000180000000     kernel32:KERNEL32.dll
 0000:ffe87000       .debug$S                   0000000180000000     kernel32:KERNEL32.dll
 0000:ffe87000       .debug$S                   0000000180000000     kernel32:KERNEL32.dll
 0000:ffe87000       .debug$S                   0000000180000000     kernel32:KERNEL32.dll
 0000:ffe87000       .debug$S                   0000000180000000     kernel32:KERNEL32.dll
 0000:ffe87000       .debug$S                   0000000180000000     kernel32:KERNEL32.dll
 0000:ffe87000       .debug$S                   0000000180000000     kernel32:KERNEL32.dll
 0000:ffe87000       .debug$S                   0000000180000000     kernel32:KERNEL32.dll
 0000:ffe87000       .debug$S                   0000000180000000     kernel32:KERNEL32.dll
 0000:ffe87000       .debug$S                   0000000180000000     kernel32:KERNEL32.dll
 0000:ffe87000       .debug$S                   0000000180000000     kernel32:KERNEL32.dll
 0000:ffe87000       .debug$S                   0000000180000000     kernel32:KERNEL32.dll
 0000:ffe87000       .debug$S                   0000000180000000     kernel32:KERNEL32.dll
 0000:ffe87000       .debug$S                   0000000180000000     kernel32:KERNEL32.dll
 0000:ffe87000       .debug$S                   0000000180000000     kernel32:KERNEL32.dll
 0000:ffe87000       .debug$S                   0000000180000000     kernel32:KERNEL32.dll
 0000:ffe87000       .debug$S                   0000000180000000     kernel32:KERNEL32.dll
 0000:ffe87000       .debug$S                   0000000180000000     kernel32:KERNEL32.dll
 0000:ffe87000       .debug$S                   0000000180000000     kernel32:KERNEL32.dll
 0000:ffe87000       .debug$S                   0000000180000000     kernel32:KERNEL32.dll
 0000:ffe87000       .debug$S                   0000000180000000     kernel32:KERNEL32.dll
 0000:ffe87000       .debug$S                   0000000180000000     kernel32:KERNEL32.dll
 0000:ffe87000       .debug$S                   0000000180000000     kernel32:KERNEL32.dll
 0000:ffe87000       .debug$S                   0000000180000000     kernel32:KERNEL32.dll
 0000:ffe87000       .debug$S                   0000000180000000     kernel32:KERNEL32.dll
 0000:ffe87000       .debug$S                   0000000180000000     kernel32:KERNEL32.dll
 0000:ffe87000       .debug$S                   0000000180000000     kernel32:KERNEL32.dll
 0000:ffe87000       .debug$S                   0000000180000000     kernel32:KERNEL32.dll
 0000:ffe87000       .debug$S                   0000000180000000     kernel32:KERNEL32.dll
 0000:ffe87000       .debug$S                   0000000180000000     kernel32:KERNEL32.dll
 0000:ffe87000       .debug$S                   0000000180000000     kernel32:KERNEL32.dll
 0000:ffe87000       .debug$S                   0000000180000000     PhysXFoundation_64:PhysXFoundation_64.dll
 0000:ffe87000       .debug$S                   0000000180000000     PhysXFoundation_64:PhysXFoundation_64.dll
 0000:ffe87000       .debug$S                   0000000180000000     PhysXFoundation_64:PhysXFoundation_64.dll
 0000:ffe87000       .debug$S                   0000000180000000     PhysXFoundation_64:PhysXFoundation_64.dll
 0000:ffe87000       .debug$S                   0000000180000000     PhysXFoundation_64:PhysXFoundation_64.dll
 0000:ffe87000       .debug$S                   0000000180000000     PhysXFoundation_64:PhysXFoundation_64.dll
 0000:ffe87000       .debug$S                   0000000180000000     PhysXFoundation_64:PhysXFoundation_64.dll
 0000:ffe87000       .debug$S                   0000000180000000     PhysXFoundation_64:PhysXFoundation_64.dll
 0000:ffe87000       .debug$S                   0000000180000000     PhysXFoundation_64:PhysXFoundation_64.dll
 0000:ffe87000       .debug$S                   0000000180000000     PhysXFoundation_64:PhysXFoundation_64.dll
 0000:ffe87000       .debug$S                   0000000180000000     PhysXFoundation_64:PhysXFoundation_64.dll
 0000:ffe87000       .debug$S                   0000000180000000     PhysXFoundation_64:PhysXFoundation_64.dll
 0000:ffe87000       .debug$S                   0000000180000000     PhysXFoundation_64:PhysXFoundation_64.dll
 0000:ffe87000       .debug$S                   0000000180000000     PhysXFoundation_64:PhysXFoundation_64.dll
 0000:ffe87000       .debug$S                   0000000180000000     PhysXFoundation_64:PhysXFoundation_64.dll
 0000:ffe87000       .debug$S                   0000000180000000     PhysXFoundation_64:PhysXFoundation_64.dll
 0001:00000000       ??__EmaxFError@_VecMathTests@aos@shdfnd@physx@@YAXXZ 0000000180001000 f   GuBounds.obj
 0001:00000010       ??__EmaxV3Error@_VecMathTests@aos@shdfnd@physx@@YAXXZ 0000000180001010 f   GuBounds.obj
 0001:00000020       ??__EmaxV4Error@_VecMathTests@aos@shdfnd@physx@@YAXXZ 0000000180001020 f   GuBounds.obj
 0001:00000030       ??__EminFError@_VecMathTests@aos@shdfnd@physx@@YAXXZ 0000000180001030 f   GuBounds.obj
 0001:00000040       ??__EminV3Error@_VecMathTests@aos@shdfnd@physx@@YAXXZ 0000000180001040 f   GuBounds.obj
 0001:00000050       ??__EminV4Error@_VecMathTests@aos@shdfnd@physx@@YAXXZ 0000000180001050 f   GuBounds.obj
 0001:00000060       ??__EmaxFError@_VecMathTests@aos@shdfnd@physx@@YAXXZ 0000000180001060 f   GuBox.obj
 0001:00000070       ??__EmaxV3Error@_VecMathTests@aos@shdfnd@physx@@YAXXZ 0000000180001070 f   GuBox.obj
 0001:00000080       ??__EmaxV4Error@_VecMathTests@aos@shdfnd@physx@@YAXXZ 0000000180001080 f   GuBox.obj
 0001:00000090       ??__EminFError@_VecMathTests@aos@shdfnd@physx@@YAXXZ 0000000180001090 f   GuBox.obj
 0001:000000a0       ??__EminV3Error@_VecMathTests@aos@shdfnd@physx@@YAXXZ 00000001800010a0 f   GuBox.obj
 0001:000000b0       ??__EminV4Error@_VecMathTests@aos@shdfnd@physx@@YAXXZ 00000001800010b0 f   GuBox.obj
 0001:000000c0       ??__EmaxFError@_VecMathTests@aos@shdfnd@physx@@YAXXZ 00000001800010c0 f   GuCCTSweepTests.obj
 0001:000000d0       ??__EmaxV3Error@_VecMathTests@aos@shdfnd@physx@@YAXXZ 00000001800010d0 f   GuCCTSweepTests.obj
 0001:000000e0       ??__EmaxV4Error@_VecMathTests@aos@shdfnd@physx@@YAXXZ 00000001800010e0 f   GuCCTSweepTests.obj
 0001:000000f0       ??__EminFError@_VecMathTests@aos@shdfnd@physx@@YAXXZ 00000001800010f0 f   GuCCTSweepTests.obj
 0001:00000100       ??__EminV3Error@_VecMathTests@aos@shdfnd@physx@@YAXXZ 0000000180001100 f   GuCCTSweepTests.obj
 0001:00000110       ??__EminV4Error@_VecMathTests@aos@shdfnd@physx@@YAXXZ 0000000180001110 f   GuCCTSweepTests.obj
 0001:00000120       ??__EmaxFError@_VecMathTests@aos@shdfnd@physx@@YAXXZ 0000000180001120 f   GuGeometryQuery.obj
 0001:00000130       ??__EmaxV3Error@_VecMathTests@aos@shdfnd@physx@@YAXXZ 0000000180001130 f   GuGeometryQuery.obj
 0001:00000140       ??__EmaxV4Error@_VecMathTests@aos@shdfnd@physx@@YAXXZ 0000000180001140 f   GuGeometryQuery.obj
 0001:00000150       ??__EminFError@_VecMathTests@aos@shdfnd@physx@@YAXXZ 0000000180001150 f   GuGeometryQuery.obj
 0001:00000160       ??__EminV3Error@_VecMathTests@aos@shdfnd@physx@@YAXXZ 0000000180001160 f   GuGeometryQuery.obj
 0001:00000170       ??__EminV4Error@_VecMathTests@aos@shdfnd@physx@@YAXXZ 0000000180001170 f   GuGeometryQuery.obj
 0001:00000180       ??__EmaxFError@_VecMathTests@aos@shdfnd@physx@@YAXXZ 0000000180001180 f   GuGeometryUnion.obj
 0001:00000190       ??__EmaxV3Error@_VecMathTests@aos@shdfnd@physx@@YAXXZ 0000000180001190 f   GuGeometryUnion.obj
 0001:000001a0       ??__EmaxV4Error@_VecMathTests@aos@shdfnd@physx@@YAXXZ 00000001800011a0 f   GuGeometryUnion.obj
 0001:000001b0       ??__EminFError@_VecMathTests@aos@shdfnd@physx@@YAXXZ 00000001800011b0 f   GuGeometryUnion.obj
 0001:000001c0       ??__EminV3Error@_VecMathTests@aos@shdfnd@physx@@YAXXZ 00000001800011c0 f   GuGeometryUnion.obj
 0001:000001d0       ??__EminV4Error@_VecMathTests@aos@shdfnd@physx@@YAXXZ 00000001800011d0 f   GuGeometryUnion.obj
 0001:000001e0       ??__EmaxFError@_VecMathTests@aos@shdfnd@physx@@YAXXZ 00000001800011e0 f   GuInternal.obj
 0001:000001f0       ??__EmaxV3Error@_VecMathTests@aos@shdfnd@physx@@YAXXZ 00000001800011f0 f   GuInternal.obj
 0001:00000200       ??__EmaxV4Error@_VecMathTests@aos@shdfnd@physx@@YAXXZ 0000000180001200 f   GuInternal.obj
 0001:00000210       ??__EminFError@_VecMathTests@aos@shdfnd@physx@@YAXXZ 0000000180001210 f   GuInternal.obj
 0001:00000220       ??__EminV3Error@_VecMathTests@aos@shdfnd@physx@@YAXXZ 0000000180001220 f   GuInternal.obj
 0001:00000230       ??__EminV4Error@_VecMathTests@aos@shdfnd@physx@@YAXXZ 0000000180001230 f   GuInternal.obj
 0001:00000240       ??__EmaxFError@_VecMathTests@aos@shdfnd@physx@@YAXXZ 0000000180001240 f   GuMeshFactory.obj
 0001:00000250       ??__EmaxV3Error@_VecMathTests@aos@shdfnd@physx@@YAXXZ 0000000180001250 f   GuMeshFactory.obj
 0001:00000260       ??__EmaxV4Error@_VecMathTests@aos@shdfnd@physx@@YAXXZ 0000000180001260 f   GuMeshFactory.obj
 0001:00000270       ??__EminFError@_VecMathTests@aos@shdfnd@physx@@YAXXZ 0000000180001270 f   GuMeshFactory.obj
 0001:00000280       ??__EminV3Error@_VecMathTests@aos@shdfnd@physx@@YAXXZ 0000000180001280 f   GuMeshFactory.obj
 0001:00000290       ??__EminV4Error@_VecMathTests@aos@shdfnd@physx@@YAXXZ 0000000180001290 f   GuMeshFactory.obj
 0001:000002a0       ??__EmaxFError@_VecMathTests@aos@shdfnd@physx@@YAXXZ 00000001800012a0 f   GuMetaData.obj
 0001:000002b0       ??__EmaxV3Error@_VecMathTests@aos@shdfnd@physx@@YAXXZ 00000001800012b0 f   GuMetaData.obj
 0001:000002c0       ??__EmaxV4Error@_VecMathTests@aos@shdfnd@physx@@YAXXZ 00000001800012c0 f   GuMetaData.obj
 0001:000002d0       ??__EminFError@_VecMathTests@aos@shdfnd@physx@@YAXXZ 00000001800012d0 f   GuMetaData.obj
 0001:000002e0       ??__EminV3Error@_VecMathTests@aos@shdfnd@physx@@YAXXZ 00000001800012e0 f   GuMetaData.obj
 0001:000002f0       ??__EminV4Error@_VecMathTests@aos@shdfnd@physx@@YAXXZ 00000001800012f0 f   GuMetaData.obj
 0001:00000300       ??__EmaxFError@_VecMathTests@aos@shdfnd@physx@@YAXXZ 0000000180001300 f   GuMTD.obj
 0001:00000310       ??__EmaxV3Error@_VecMathTests@aos@shdfnd@physx@@YAXXZ 0000000180001310 f   GuMTD.obj
 0001:00000320       ??__EmaxV4Error@_VecMathTests@aos@shdfnd@physx@@YAXXZ 0000000180001320 f   GuMTD.obj
 0001:00000330       ??__EminFError@_VecMathTests@aos@shdfnd@physx@@YAXXZ 0000000180001330 f   GuMTD.obj
 0001:00000340       ??__EminV3Error@_VecMathTests@aos@shdfnd@physx@@YAXXZ 0000000180001340 f   GuMTD.obj
 0001:00000350       ??__EminV4Error@_VecMathTests@aos@shdfnd@physx@@YAXXZ 0000000180001350 f   GuMTD.obj
 0001:00000360       ??__EmaxFError@_VecMathTests@aos@shdfnd@physx@@YAXXZ 0000000180001360 f   GuOverlapTests.obj
 0001:00000370       ??__EmaxV3Error@_VecMathTests@aos@shdfnd@physx@@YAXXZ 0000000180001370 f   GuOverlapTests.obj
 0001:00000380       ??__EmaxV4Error@_VecMathTests@aos@shdfnd@physx@@YAXXZ 0000000180001380 f   GuOverlapTests.obj
 0001:00000390       ??__EminFError@_VecMathTests@aos@shdfnd@physx@@YAXXZ 0000000180001390 f   GuOverlapTests.obj
 0001:000003a0       ??__EminV3Error@_VecMathTests@aos@shdfnd@physx@@YAXXZ 00000001800013a0 f   GuOverlapTests.obj
 0001:000003b0       ??__EminV4Error@_VecMathTests@aos@shdfnd@physx@@YAXXZ 00000001800013b0 f   GuOverlapTests.obj
 0001:000003c0       ??__EmaxFError@_VecMathTests@aos@shdfnd@physx@@YAXXZ 00000001800013c0 f   GuRaycastTests.obj
 0001:000003d0       ??__EmaxV3Error@_VecMathTests@aos@shdfnd@physx@@YAXXZ 00000001800013d0 f   GuRaycastTests.obj
 0001:000003e0       ??__EmaxV4Error@_VecMathTests@aos@shdfnd@physx@@YAXXZ 00000001800013e0 f   GuRaycastTests.obj
 0001:000003f0       ??__EminFError@_VecMathTests@aos@shdfnd@physx@@YAXXZ 00000001800013f0 f   GuRaycastTests.obj
 0001:00000400       ??__EminV3Error@_VecMathTests@aos@shdfnd@physx@@YAXXZ 0000000180001400 f   GuRaycastTests.obj
 0001:00000410       ??__EminV4Error@_VecMathTests@aos@shdfnd@physx@@YAXXZ 0000000180001410 f   GuRaycastTests.obj
 0001:00000420       ??__EmaxFError@_VecMathTests@aos@shdfnd@physx@@YAXXZ 0000000180001420 f   GuSweepMTD.obj
 0001:00000430       ??__EmaxV3Error@_VecMathTests@aos@shdfnd@physx@@YAXXZ 0000000180001430 f   GuSweepMTD.obj
 0001:00000440       ??__EmaxV4Error@_VecMathTests@aos@shdfnd@physx@@YAXXZ 0000000180001440 f   GuSweepMTD.obj
 0001:00000450       ??__EminFError@_VecMathTests@aos@shdfnd@physx@@YAXXZ 0000000180001450 f   GuSweepMTD.obj
 0001:00000460       ??__EminV3Error@_VecMathTests@aos@shdfnd@physx@@YAXXZ 0000000180001460 f   GuSweepMTD.obj
 0001:00000470       ??__EminV4Error@_VecMathTests@aos@shdfnd@physx@@YAXXZ 0000000180001470 f   GuSweepMTD.obj
 0001:00000480       ??__EmaxFError@_VecMathTests@aos@shdfnd@physx@@YAXXZ 0000000180001480 f   GuSweepSharedTests.obj
 0001:00000490       ??__EmaxV3Error@_VecMathTests@aos@shdfnd@physx@@YAXXZ 0000000180001490 f   GuSweepSharedTests.obj
 0001:000004a0       ??__EmaxV4Error@_VecMathTests@aos@shdfnd@physx@@YAXXZ 00000001800014a0 f   GuSweepSharedTests.obj
 0001:000004b0       ??__EminFError@_VecMathTests@aos@shdfnd@physx@@YAXXZ 00000001800014b0 f   GuSweepSharedTests.obj
 0001:000004c0       ??__EminV3Error@_VecMathTests@aos@shdfnd@physx@@YAXXZ 00000001800014c0 f   GuSweepSharedTests.obj
 0001:000004d0       ??__EminV4Error@_VecMathTests@aos@shdfnd@physx@@YAXXZ 00000001800014d0 f   GuSweepSharedTests.obj
 0001:000004e0       ??__EmaxFError@_VecMathTests@aos@shdfnd@physx@@YAXXZ 00000001800014e0 f   GuSweepTests.obj
 0001:000004f0       ??__EmaxV3Error@_VecMathTests@aos@shdfnd@physx@@YAXXZ 00000001800014f0 f   GuSweepTests.obj
 0001:00000500       ??__EmaxV4Error@_VecMathTests@aos@shdfnd@physx@@YAXXZ 0000000180001500 f   GuSweepTests.obj
 0001:00000510       ??__EminFError@_VecMathTests@aos@shdfnd@physx@@YAXXZ 0000000180001510 f   GuSweepTests.obj
 0001:00000520       ??__EminV3Error@_VecMathTests@aos@shdfnd@physx@@YAXXZ 0000000180001520 f   GuSweepTests.obj
 0001:00000530       ??__EminV4Error@_VecMathTests@aos@shdfnd@physx@@YAXXZ 0000000180001530 f   GuSweepTests.obj
 0001:00000540       ??__EmaxFError@_VecMathTests@aos@shdfnd@physx@@YAXXZ 0000000180001540 f   GuAABBTreeBuild.obj
 0001:00000550       ??__EmaxV3Error@_VecMathTests@aos@shdfnd@physx@@YAXXZ 0000000180001550 f   GuAABBTreeBuild.obj
 0001:00000560       ??__EmaxV4Error@_VecMathTests@aos@shdfnd@physx@@YAXXZ 0000000180001560 f   GuAABBTreeBuild.obj
 0001:00000570       ??__EminFError@_VecMathTests@aos@shdfnd@physx@@YAXXZ 0000000180001570 f   GuAABBTreeBuild.obj
 0001:00000580       ??__EminV3Error@_VecMathTests@aos@shdfnd@physx@@YAXXZ 0000000180001580 f   GuAABBTreeBuild.obj
 0001:00000590       ??__EminV4Error@_VecMathTests@aos@shdfnd@physx@@YAXXZ 0000000180001590 f   GuAABBTreeBuild.obj
 0001:000005a0       ??__EmaxFError@_VecMathTests@aos@shdfnd@physx@@YAXXZ 00000001800015a0 f   GuBVHStructure.obj
 0001:000005b0       ??__EmaxV3Error@_VecMathTests@aos@shdfnd@physx@@YAXXZ 00000001800015b0 f   GuBVHStructure.obj
 0001:000005c0       ??__EmaxV4Error@_VecMathTests@aos@shdfnd@physx@@YAXXZ 00000001800015c0 f   GuBVHStructure.obj
 0001:000005d0       ??__EminFError@_VecMathTests@aos@shdfnd@physx@@YAXXZ 00000001800015d0 f   GuBVHStructure.obj
 0001:000005e0       ??__EminV3Error@_VecMathTests@aos@shdfnd@physx@@YAXXZ 00000001800015e0 f   GuBVHStructure.obj
 0001:000005f0       ??__EminV4Error@_VecMathTests@aos@shdfnd@physx@@YAXXZ 00000001800015f0 f   GuBVHStructure.obj
 0001:00000600       ??__EmaxFError@_VecMathTests@aos@shdfnd@physx@@YAXXZ 0000000180001600 f   GuCCDSweepConvexMesh.obj
 0001:00000610       ??__EmaxV3Error@_VecMathTests@aos@shdfnd@physx@@YAXXZ 0000000180001610 f   GuCCDSweepConvexMesh.obj
 0001:00000620       ??__EmaxV4Error@_VecMathTests@aos@shdfnd@physx@@YAXXZ 0000000180001620 f   GuCCDSweepConvexMesh.obj
 0001:00000630       ??__EminFError@_VecMathTests@aos@shdfnd@physx@@YAXXZ 0000000180001630 f   GuCCDSweepConvexMesh.obj
 0001:00000640       ??__EminV3Error@_VecMathTests@aos@shdfnd@physx@@YAXXZ 0000000180001640 f   GuCCDSweepConvexMesh.obj
 0001:00000650       ??__EminV4Error@_VecMathTests@aos@shdfnd@physx@@YAXXZ 0000000180001650 f   GuCCDSweepConvexMesh.obj
 0001:00000660       ??__EmaxFError@_VecMathTests@aos@shdfnd@physx@@YAXXZ 0000000180001660 f   GuCCDSweepPrimitives.obj
 0001:00000670       ??__EmaxV3Error@_VecMathTests@aos@shdfnd@physx@@YAXXZ 0000000180001670 f   GuCCDSweepPrimitives.obj
 0001:00000680       ??__EmaxV4Error@_VecMathTests@aos@shdfnd@physx@@YAXXZ 0000000180001680 f   GuCCDSweepPrimitives.obj
 0001:00000690       ??__EminFError@_VecMathTests@aos@shdfnd@physx@@YAXXZ 0000000180001690 f   GuCCDSweepPrimitives.obj
 0001:000006a0       ??__EminV3Error@_VecMathTests@aos@shdfnd@physx@@YAXXZ 00000001800016a0 f   GuCCDSweepPrimitives.obj
 0001:000006b0       ??__EminV4Error@_VecMathTests@aos@shdfnd@physx@@YAXXZ 00000001800016b0 f   GuCCDSweepPrimitives.obj
 0001:000006c0       ??__EmaxFError@_VecMathTests@aos@shdfnd@physx@@YAXXZ 00000001800016c0 f   GuBarycentricCoordinates.obj
 0001:000006d0       ??__EmaxV3Error@_VecMathTests@aos@shdfnd@physx@@YAXXZ 00000001800016d0 f   GuBarycentricCoordinates.obj
 0001:000006e0       ??__EmaxV4Error@_VecMathTests@aos@shdfnd@physx@@YAXXZ 00000001800016e0 f   GuBarycentricCoordinates.obj
 0001:000006f0       ??__EminFError@_VecMathTests@aos@shdfnd@physx@@YAXXZ 00000001800016f0 f   GuBarycentricCoordinates.obj
 0001:00000700       ??__EminV3Error@_VecMathTests@aos@shdfnd@physx@@YAXXZ 0000000180001700 f   GuBarycentricCoordinates.obj
 0001:00000710       ??__EminV4Error@_VecMathTests@aos@shdfnd@physx@@YAXXZ 0000000180001710 f   GuBarycentricCoordinates.obj
 0001:00000720       ??__EmaxFError@_VecMathTests@aos@shdfnd@physx@@YAXXZ 0000000180001720 f   GuContactBoxBox.obj
 0001:00000730       ??__EmaxV3Error@_VecMathTests@aos@shdfnd@physx@@YAXXZ 0000000180001730 f   GuContactBoxBox.obj
 0001:00000740       ??__EmaxV4Error@_VecMathTests@aos@shdfnd@physx@@YAXXZ 0000000180001740 f   GuContactBoxBox.obj
 0001:00000750       ??__EminFError@_VecMathTests@aos@shdfnd@physx@@YAXXZ 0000000180001750 f   GuContactBoxBox.obj
 0001:00000760       ??__EminV3Error@_VecMathTests@aos@shdfnd@physx@@YAXXZ 0000000180001760 f   GuContactBoxBox.obj
 0001:00000770       ??__EminV4Error@_VecMathTests@aos@shdfnd@physx@@YAXXZ 0000000180001770 f   GuContactBoxBox.obj
 0001:00000780       ??__EmaxFError@_VecMathTests@aos@shdfnd@physx@@YAXXZ 0000000180001780 f   GuContactCapsuleBox.obj
 0001:00000790       ??__EmaxV3Error@_VecMathTests@aos@shdfnd@physx@@YAXXZ 0000000180001790 f   GuContactCapsuleBox.obj
 0001:000007a0       ??__EmaxV4Error@_VecMathTests@aos@shdfnd@physx@@YAXXZ 00000001800017a0 f   GuContactCapsuleBox.obj
 0001:000007b0       ??__EminFError@_VecMathTests@aos@shdfnd@physx@@YAXXZ 00000001800017b0 f   GuContactCapsuleBox.obj
 0001:000007c0       ??__EminV3Error@_VecMathTests@aos@shdfnd@physx@@YAXXZ 00000001800017c0 f   GuContactCapsuleBox.obj
 0001:000007d0       ??__EminV4Error@_VecMathTests@aos@shdfnd@physx@@YAXXZ 00000001800017d0 f   GuContactCapsuleBox.obj
 0001:000007e0       ??__EmaxFError@_VecMathTests@aos@shdfnd@physx@@YAXXZ 00000001800017e0 f   GuContactCapsuleCapsule.obj
 0001:000007f0       ??__EmaxV3Error@_VecMathTests@aos@shdfnd@physx@@YAXXZ 00000001800017f0 f   GuContactCapsuleCapsule.obj
 0001:00000800       ??__EmaxV4Error@_VecMathTests@aos@shdfnd@physx@@YAXXZ 0000000180001800 f   GuContactCapsuleCapsule.obj
 0001:00000810       ??__EminFError@_VecMathTests@aos@shdfnd@physx@@YAXXZ 0000000180001810 f   GuContactCapsuleCapsule.obj
 0001:00000820       ??__EminV3Error@_VecMathTests@aos@shdfnd@physx@@YAXXZ 0000000180001820 f   GuContactCapsuleCapsule.obj
 0001:00000830       ??__EminV4Error@_VecMathTests@aos@shdfnd@physx@@YAXXZ 0000000180001830 f   GuContactCapsuleCapsule.obj
 0001:00000840       ??__EmaxFError@_VecMathTests@aos@shdfnd@physx@@YAXXZ 0000000180001840 f   GuContactCapsuleConvex.obj
 0001:00000850       ??__EmaxV3Error@_VecMathTests@aos@shdfnd@physx@@YAXXZ 0000000180001850 f   GuContactCapsuleConvex.obj
 0001:00000860       ??__EmaxV4Error@_VecMathTests@aos@shdfnd@physx@@YAXXZ 0000000180001860 f   GuContactCapsuleConvex.obj
 0001:00000870       ??__EminFError@_VecMathTests@aos@shdfnd@physx@@YAXXZ 0000000180001870 f   GuContactCapsuleConvex.obj
 0001:00000880       ??__EminV3Error@_VecMathTests@aos@shdfnd@physx@@YAXXZ 0000000180001880 f   GuContactCapsuleConvex.obj
 0001:00000890       ??__EminV4Error@_VecMathTests@aos@shdfnd@physx@@YAXXZ 0000000180001890 f   GuContactCapsuleConvex.obj
 0001:000008a0       ??__EmaxFError@_VecMathTests@aos@shdfnd@physx@@YAXXZ 00000001800018a0 f   GuContactCapsuleMesh.obj
 0001:000008b0       ??__EmaxV3Error@_VecMathTests@aos@shdfnd@physx@@YAXXZ 00000001800018b0 f   GuContactCapsuleMesh.obj
 0001:000008c0       ??__EmaxV4Error@_VecMathTests@aos@shdfnd@physx@@YAXXZ 00000001800018c0 f   GuContactCapsuleMesh.obj
 0001:000008d0       ??__EminFError@_VecMathTests@aos@shdfnd@physx@@YAXXZ 00000001800018d0 f   GuContactCapsuleMesh.obj
 0001:000008e0       ??__EminV3Error@_VecMathTests@aos@shdfnd@physx@@YAXXZ 00000001800018e0 f   GuContactCapsuleMesh.obj
 0001:000008f0       ??__EminV4Error@_VecMathTests@aos@shdfnd@physx@@YAXXZ 00000001800018f0 f   GuContactCapsuleMesh.obj
 0001:00000900       ??__EmaxFError@_VecMathTests@aos@shdfnd@physx@@YAXXZ 0000000180001900 f   GuContactConvexConvex.obj
 0001:00000910       ??__EmaxV3Error@_VecMathTests@aos@shdfnd@physx@@YAXXZ 0000000180001910 f   GuContactConvexConvex.obj
 0001:00000920       ??__EmaxV4Error@_VecMathTests@aos@shdfnd@physx@@YAXXZ 0000000180001920 f   GuContactConvexConvex.obj
 0001:00000930       ??__EminFError@_VecMathTests@aos@shdfnd@physx@@YAXXZ 0000000180001930 f   GuContactConvexConvex.obj
 0001:00000940       ??__EminV3Error@_VecMathTests@aos@shdfnd@physx@@YAXXZ 0000000180001940 f   GuContactConvexConvex.obj
 0001:00000950       ??__EminV4Error@_VecMathTests@aos@shdfnd@physx@@YAXXZ 0000000180001950 f   GuContactConvexConvex.obj
 0001:00000960       ??__EmaxFError@_VecMathTests@aos@shdfnd@physx@@YAXXZ 0000000180001960 f   GuContactConvexMesh.obj
 0001:00000970       ??__EmaxV3Error@_VecMathTests@aos@shdfnd@physx@@YAXXZ 0000000180001970 f   GuContactConvexMesh.obj
 0001:00000980       ??__EmaxV4Error@_VecMathTests@aos@shdfnd@physx@@YAXXZ 0000000180001980 f   GuContactConvexMesh.obj
 0001:00000990       ??__EminFError@_VecMathTests@aos@shdfnd@physx@@YAXXZ 0000000180001990 f   GuContactConvexMesh.obj
 0001:000009a0       ??__EminV3Error@_VecMathTests@aos@shdfnd@physx@@YAXXZ 00000001800019a0 f   GuContactConvexMesh.obj
 0001:000009b0       ??__EminV4Error@_VecMathTests@aos@shdfnd@physx@@YAXXZ 00000001800019b0 f   GuContactConvexMesh.obj
 0001:000009c0       ??__EmaxFError@_VecMathTests@aos@shdfnd@physx@@YAXXZ 00000001800019c0 f   GuContactPlaneBox.obj
 0001:000009d0       ??__EmaxV3Error@_VecMathTests@aos@shdfnd@physx@@YAXXZ 00000001800019d0 f   GuContactPlaneBox.obj
 0001:000009e0       ??__EmaxV4Error@_VecMathTests@aos@shdfnd@physx@@YAXXZ 00000001800019e0 f   GuContactPlaneBox.obj
 0001:000009f0       ??__EminFError@_VecMathTests@aos@shdfnd@physx@@YAXXZ 00000001800019f0 f   GuContactPlaneBox.obj
 0001:00000a00       ??__EminV3Error@_VecMathTests@aos@shdfnd@physx@@YAXXZ 0000000180001a00 f   GuContactPlaneBox.obj
 0001:00000a10       ??__EminV4Error@_VecMathTests@aos@shdfnd@physx@@YAXXZ 0000000180001a10 f   GuContactPlaneBox.obj
 0001:00000a20       ??__EmaxFError@_VecMathTests@aos@shdfnd@physx@@YAXXZ 0000000180001a20 f   GuContactPlaneCapsule.obj
 0001:00000a30       ??__EmaxV3Error@_VecMathTests@aos@shdfnd@physx@@YAXXZ 0000000180001a30 f   GuContactPlaneCapsule.obj
 0001:00000a40       ??__EmaxV4Error@_VecMathTests@aos@shdfnd@physx@@YAXXZ 0000000180001a40 f   GuContactPlaneCapsule.obj
 0001:00000a50       ??__EminFError@_VecMathTests@aos@shdfnd@physx@@YAXXZ 0000000180001a50 f   GuContactPlaneCapsule.obj
 0001:00000a60       ??__EminV3Error@_VecMathTests@aos@shdfnd@physx@@YAXXZ 0000000180001a60 f   GuContactPlaneCapsule.obj
 0001:00000a70       ??__EminV4Error@_VecMathTests@aos@shdfnd@physx@@YAXXZ 0000000180001a70 f   GuContactPlaneCapsule.obj
 0001:00000a80       ??__EmaxFError@_VecMathTests@aos@shdfnd@physx@@YAXXZ 0000000180001a80 f   GuContactPlaneConvex.obj
 0001:00000a90       ??__EmaxV3Error@_VecMathTests@aos@shdfnd@physx@@YAXXZ 0000000180001a90 f   GuContactPlaneConvex.obj
 0001:00000aa0       ??__EmaxV4Error@_VecMathTests@aos@shdfnd@physx@@YAXXZ 0000000180001aa0 f   GuContactPlaneConvex.obj
 0001:00000ab0       ??__EminFError@_VecMathTests@aos@shdfnd@physx@@YAXXZ 0000000180001ab0 f   GuContactPlaneConvex.obj
 0001:00000ac0       ??__EminV3Error@_VecMathTests@aos@shdfnd@physx@@YAXXZ 0000000180001ac0 f   GuContactPlaneConvex.obj
 0001:00000ad0       ??__EminV4Error@_VecMathTests@aos@shdfnd@physx@@YAXXZ 0000000180001ad0 f   GuContactPlaneConvex.obj
 0001:00000ae0       ??__EmaxFError@_VecMathTests@aos@shdfnd@physx@@YAXXZ 0000000180001ae0 f   GuContactSphereBox.obj
 0001:00000af0       ??__EmaxV3Error@_VecMathTests@aos@shdfnd@physx@@YAXXZ 0000000180001af0 f   GuContactSphereBox.obj
 0001:00000b00       ??__EmaxV4Error@_VecMathTests@aos@shdfnd@physx@@YAXXZ 0000000180001b00 f   GuContactSphereBox.obj
 0001:00000b10       ??__EminFError@_VecMathTests@aos@shdfnd@physx@@YAXXZ 0000000180001b10 f   GuContactSphereBox.obj
 0001:00000b20       ??__EminV3Error@_VecMathTests@aos@shdfnd@physx@@YAXXZ 0000000180001b20 f   GuContactSphereBox.obj
 0001:00000b30       ??__EminV4Error@_VecMathTests@aos@shdfnd@physx@@YAXXZ 0000000180001b30 f   GuContactSphereBox.obj
 0001:00000b40       ??__EmaxFError@_VecMathTests@aos@shdfnd@physx@@YAXXZ 0000000180001b40 f   GuContactSphereCapsule.obj
 0001:00000b50       ??__EmaxV3Error@_VecMathTests@aos@shdfnd@physx@@YAXXZ 0000000180001b50 f   GuContactSphereCapsule.obj
 0001:00000b60       ??__EmaxV4Error@_VecMathTests@aos@shdfnd@physx@@YAXXZ 0000000180001b60 f   GuContactSphereCapsule.obj
 0001:00000b70       ??__EminFError@_VecMathTests@aos@shdfnd@physx@@YAXXZ 0000000180001b70 f   GuContactSphereCapsule.obj
 0001:00000b80       ??__EminV3Error@_VecMathTests@aos@shdfnd@physx@@YAXXZ 0000000180001b80 f   GuContactSphereCapsule.obj
 0001:00000b90       ??__EminV4Error@_VecMathTests@aos@shdfnd@physx@@YAXXZ 0000000180001b90 f   GuContactSphereCapsule.obj
 0001:00000ba0       ??__EmaxFError@_VecMathTests@aos@shdfnd@physx@@YAXXZ 0000000180001ba0 f   GuContactSphereMesh.obj
 0001:00000bb0       ??__EmaxV3Error@_VecMathTests@aos@shdfnd@physx@@YAXXZ 0000000180001bb0 f   GuContactSphereMesh.obj
 0001:00000bc0       ??__EmaxV4Error@_VecMathTests@aos@shdfnd@physx@@YAXXZ 0000000180001bc0 f   GuContactSphereMesh.obj
 0001:00000bd0       ??__EminFError@_VecMathTests@aos@shdfnd@physx@@YAXXZ 0000000180001bd0 f   GuContactSphereMesh.obj
 0001:00000be0       ??__EminV3Error@_VecMathTests@aos@shdfnd@physx@@YAXXZ 0000000180001be0 f   GuContactSphereMesh.obj
 0001:00000bf0       ??__EminV4Error@_VecMathTests@aos@shdfnd@physx@@YAXXZ 0000000180001bf0 f   GuContactSphereMesh.obj
 0001:00000c00       ??__EmaxFError@_VecMathTests@aos@shdfnd@physx@@YAXXZ 0000000180001c00 f   GuContactSpherePlane.obj
 0001:00000c10       ??__EmaxV3Error@_VecMathTests@aos@shdfnd@physx@@YAXXZ 0000000180001c10 f   GuContactSpherePlane.obj
 0001:00000c20       ??__EmaxV4Error@_VecMathTests@aos@shdfnd@physx@@YAXXZ 0000000180001c20 f   GuContactSpherePlane.obj
 0001:00000c30       ??__EminFError@_VecMathTests@aos@shdfnd@physx@@YAXXZ 0000000180001c30 f   GuContactSpherePlane.obj
 0001:00000c40       ??__EminV3Error@_VecMathTests@aos@shdfnd@physx@@YAXXZ 0000000180001c40 f   GuContactSpherePlane.obj
 0001:00000c50       ??__EminV4Error@_VecMathTests@aos@shdfnd@physx@@YAXXZ 0000000180001c50 f   GuContactSpherePlane.obj
 0001:00000c60       ??__EmaxFError@_VecMathTests@aos@shdfnd@physx@@YAXXZ 0000000180001c60 f   GuContactSphereSphere.obj
 0001:00000c70       ??__EmaxV3Error@_VecMathTests@aos@shdfnd@physx@@YAXXZ 0000000180001c70 f   GuContactSphereSphere.obj
 0001:00000c80       ??__EmaxV4Error@_VecMathTests@aos@shdfnd@physx@@YAXXZ 0000000180001c80 f   GuContactSphereSphere.obj
 0001:00000c90       ??__EminFError@_VecMathTests@aos@shdfnd@physx@@YAXXZ 0000000180001c90 f   GuContactSphereSphere.obj
 0001:00000ca0       ??__EminV3Error@_VecMathTests@aos@shdfnd@physx@@YAXXZ 0000000180001ca0 f   GuContactSphereSphere.obj
 0001:00000cb0       ??__EminV4Error@_VecMathTests@aos@shdfnd@physx@@YAXXZ 0000000180001cb0 f   GuContactSphereSphere.obj
 0001:00000cc0       ??__EmaxFError@_VecMathTests@aos@shdfnd@physx@@YAXXZ 0000000180001cc0 f   GuConvexHelper.obj
 0001:00000cd0       ??__EmaxV3Error@_VecMathTests@aos@shdfnd@physx@@YAXXZ 0000000180001cd0 f   GuConvexHelper.obj
 0001:00000ce0       ??__EmaxV4Error@_VecMathTests@aos@shdfnd@physx@@YAXXZ 0000000180001ce0 f   GuConvexHelper.obj
 0001:00000cf0       ??__EminFError@_VecMathTests@aos@shdfnd@physx@@YAXXZ 0000000180001cf0 f   GuConvexHelper.obj
 0001:00000d00       ??__EminV3Error@_VecMathTests@aos@shdfnd@physx@@YAXXZ 0000000180001d00 f   GuConvexHelper.obj
 0001:00000d10       ??__EminV4Error@_VecMathTests@aos@shdfnd@physx@@YAXXZ 0000000180001d10 f   GuConvexHelper.obj
 0001:00000d20       ??__EboxVertexTable@physx@@YAXXZ 0000000180001d20 f   GuConvexSupportTable.obj
 0001:00000da0       ??__EmaxFError@_VecMathTests@aos@shdfnd@physx@@YAXXZ 0000000180001da0 f   GuConvexSupportTable.obj
 0001:00000db0       ??__EmaxV3Error@_VecMathTests@aos@shdfnd@physx@@YAXXZ 0000000180001db0 f   GuConvexSupportTable.obj
 0001:00000dc0       ??__EmaxV4Error@_VecMathTests@aos@shdfnd@physx@@YAXXZ 0000000180001dc0 f   GuConvexSupportTable.obj
 0001:00000dd0       ??__EminFError@_VecMathTests@aos@shdfnd@physx@@YAXXZ 0000000180001dd0 f   GuConvexSupportTable.obj
 0001:00000de0       ??__EminV3Error@_VecMathTests@aos@shdfnd@physx@@YAXXZ 0000000180001de0 f   GuConvexSupportTable.obj
 0001:00000df0       ??__EminV4Error@_VecMathTests@aos@shdfnd@physx@@YAXXZ 0000000180001df0 f   GuConvexSupportTable.obj
 0001:00000e00       ??__EmaxFError@_VecMathTests@aos@shdfnd@physx@@YAXXZ 0000000180001e00 f   GuConvexUtilsInternal.obj
 0001:00000e10       ??__EmaxV3Error@_VecMathTests@aos@shdfnd@physx@@YAXXZ 0000000180001e10 f   GuConvexUtilsInternal.obj
 0001:00000e20       ??__EmaxV4Error@_VecMathTests@aos@shdfnd@physx@@YAXXZ 0000000180001e20 f   GuConvexUtilsInternal.obj
 0001:00000e30       ??__EminFError@_VecMathTests@aos@shdfnd@physx@@YAXXZ 0000000180001e30 f   GuConvexUtilsInternal.obj
 0001:00000e40       ??__EminV3Error@_VecMathTests@aos@shdfnd@physx@@YAXXZ 0000000180001e40 f   GuConvexUtilsInternal.obj
 0001:00000e50       ??__EminV4Error@_VecMathTests@aos@shdfnd@physx@@YAXXZ 0000000180001e50 f   GuConvexUtilsInternal.obj
 0001:00000e60       ??__EmaxFError@_VecMathTests@aos@shdfnd@physx@@YAXXZ 0000000180001e60 f   GuDistancePointTriangle.obj
 0001:00000e70       ??__EmaxV3Error@_VecMathTests@aos@shdfnd@physx@@YAXXZ 0000000180001e70 f   GuDistancePointTriangle.obj
 0001:00000e80       ??__EmaxV4Error@_VecMathTests@aos@shdfnd@physx@@YAXXZ 0000000180001e80 f   GuDistancePointTriangle.obj
 0001:00000e90       ??__EminFError@_VecMathTests@aos@shdfnd@physx@@YAXXZ 0000000180001e90 f   GuDistancePointTriangle.obj
 0001:00000ea0       ??__EminV3Error@_VecMathTests@aos@shdfnd@physx@@YAXXZ 0000000180001ea0 f   GuDistancePointTriangle.obj
 0001:00000eb0       ??__EminV4Error@_VecMathTests@aos@shdfnd@physx@@YAXXZ 0000000180001eb0 f   GuDistancePointTriangle.obj
 0001:00000ec0       ??__EmaxFError@_VecMathTests@aos@shdfnd@physx@@YAXXZ 0000000180001ec0 f   GuDistanceSegmentSegment.obj
 0001:00000ed0       ??__EmaxV3Error@_VecMathTests@aos@shdfnd@physx@@YAXXZ 0000000180001ed0 f   GuDistanceSegmentSegment.obj
 0001:00000ee0       ??__EmaxV4Error@_VecMathTests@aos@shdfnd@physx@@YAXXZ 0000000180001ee0 f   GuDistanceSegmentSegment.obj
 0001:00000ef0       ??__EminFError@_VecMathTests@aos@shdfnd@physx@@YAXXZ 0000000180001ef0 f   GuDistanceSegmentSegment.obj
 0001:00000f00       ??__EminV3Error@_VecMathTests@aos@shdfnd@physx@@YAXXZ 0000000180001f00 f   GuDistanceSegmentSegment.obj
 0001:00000f10       ??__EminV4Error@_VecMathTests@aos@shdfnd@physx@@YAXXZ 0000000180001f10 f   GuDistanceSegmentSegment.obj
 0001:00000f20       ??__EmaxFError@_VecMathTests@aos@shdfnd@physx@@YAXXZ 0000000180001f20 f   GuDistanceSegmentTriangle.obj
 0001:00000f30       ??__EmaxV3Error@_VecMathTests@aos@shdfnd@physx@@YAXXZ 0000000180001f30 f   GuDistanceSegmentTriangle.obj
 0001:00000f40       ??__EmaxV4Error@_VecMathTests@aos@shdfnd@physx@@YAXXZ 0000000180001f40 f   GuDistanceSegmentTriangle.obj
 0001:00000f50       ??__EminFError@_VecMathTests@aos@shdfnd@physx@@YAXXZ 0000000180001f50 f   GuDistanceSegmentTriangle.obj
 0001:00000f60       ??__EminV3Error@_VecMathTests@aos@shdfnd@physx@@YAXXZ 0000000180001f60 f   GuDistanceSegmentTriangle.obj
 0001:00000f70       ??__EminV4Error@_VecMathTests@aos@shdfnd@physx@@YAXXZ 0000000180001f70 f   GuDistanceSegmentTriangle.obj
 0001:00000f80       ??__EmaxFError@_VecMathTests@aos@shdfnd@physx@@YAXXZ 0000000180001f80 f   GuEPA.obj
 0001:00000f90       ??__EmaxV3Error@_VecMathTests@aos@shdfnd@physx@@YAXXZ 0000000180001f90 f   GuEPA.obj
 0001:00000fa0       ??__EmaxV4Error@_VecMathTests@aos@shdfnd@physx@@YAXXZ 0000000180001fa0 f   GuEPA.obj
 0001:00000fb0       ??__EminFError@_VecMathTests@aos@shdfnd@physx@@YAXXZ 0000000180001fb0 f   GuEPA.obj
 0001:00000fc0       ??__EminV3Error@_VecMathTests@aos@shdfnd@physx@@YAXXZ 0000000180001fc0 f   GuEPA.obj
 0001:00000fd0       ??__EminV4Error@_VecMathTests@aos@shdfnd@physx@@YAXXZ 0000000180001fd0 f   GuEPA.obj
 0001:00000fe0       ??__EmaxFError@_VecMathTests@aos@shdfnd@physx@@YAXXZ 0000000180001fe0 f   GuGJKSimplex.obj
 0001:00000ff0       ??__EmaxV3Error@_VecMathTests@aos@shdfnd@physx@@YAXXZ 0000000180001ff0 f   GuGJKSimplex.obj
 0001:00001000       ??__EmaxV4Error@_VecMathTests@aos@shdfnd@physx@@YAXXZ 0000000180002000 f   GuGJKSimplex.obj
 0001:00001010       ??__EminFError@_VecMathTests@aos@shdfnd@physx@@YAXXZ 0000000180002010 f   GuGJKSimplex.obj
 0001:00001020       ??__EminV3Error@_VecMathTests@aos@shdfnd@physx@@YAXXZ 0000000180002020 f   GuGJKSimplex.obj
 0001:00001030       ??__EminV4Error@_VecMathTests@aos@shdfnd@physx@@YAXXZ 0000000180002030 f   GuGJKSimplex.obj
 0001:00001040       ??__EmaxFError@_VecMathTests@aos@shdfnd@physx@@YAXXZ 0000000180002040 f   GuGJKTest.obj
 0001:00001050       ??__EmaxV3Error@_VecMathTests@aos@shdfnd@physx@@YAXXZ 0000000180002050 f   GuGJKTest.obj
 0001:00001060       ??__EmaxV4Error@_VecMathTests@aos@shdfnd@physx@@YAXXZ 0000000180002060 f   GuGJKTest.obj
 0001:00001070       ??__EminFError@_VecMathTests@aos@shdfnd@physx@@YAXXZ 0000000180002070 f   GuGJKTest.obj
 0001:00001080       ??__EminV3Error@_VecMathTests@aos@shdfnd@physx@@YAXXZ 0000000180002080 f   GuGJKTest.obj
 0001:00001090       ??__EminV4Error@_VecMathTests@aos@shdfnd@physx@@YAXXZ 0000000180002090 f   GuGJKTest.obj
 0001:000010a0       ??__EmaxFError@_VecMathTests@aos@shdfnd@physx@@YAXXZ 00000001800020a0 f   GuHeightFieldUtil.obj
 0001:000010b0       ??__EmaxV3Error@_VecMathTests@aos@shdfnd@physx@@YAXXZ 00000001800020b0 f   GuHeightFieldUtil.obj
 0001:000010c0       ??__EmaxV4Error@_VecMathTests@aos@shdfnd@physx@@YAXXZ 00000001800020c0 f   GuHeightFieldUtil.obj
 0001:000010d0       ??__EminFError@_VecMathTests@aos@shdfnd@physx@@YAXXZ 00000001800020d0 f   GuHeightFieldUtil.obj
 0001:000010e0       ??__EminV3Error@_VecMathTests@aos@shdfnd@physx@@YAXXZ 00000001800020e0 f   GuHeightFieldUtil.obj
 0001:000010f0       ??__EminV4Error@_VecMathTests@aos@shdfnd@physx@@YAXXZ 00000001800020f0 f   GuHeightFieldUtil.obj
 0001:00001100       ??__EmaxFError@_VecMathTests@aos@shdfnd@physx@@YAXXZ 0000000180002100 f   GuOverlapTestsHF.obj
 0001:00001110       ??__EmaxV3Error@_VecMathTests@aos@shdfnd@physx@@YAXXZ 0000000180002110 f   GuOverlapTestsHF.obj
 0001:00001120       ??__EmaxV4Error@_VecMathTests@aos@shdfnd@physx@@YAXXZ 0000000180002120 f   GuOverlapTestsHF.obj
 0001:00001130       ??__EminFError@_VecMathTests@aos@shdfnd@physx@@YAXXZ 0000000180002130 f   GuOverlapTestsHF.obj
 0001:00001140       ??__EminV3Error@_VecMathTests@aos@shdfnd@physx@@YAXXZ 0000000180002140 f   GuOverlapTestsHF.obj
 0001:00001150       ??__EminV4Error@_VecMathTests@aos@shdfnd@physx@@YAXXZ 0000000180002150 f   GuOverlapTestsHF.obj
 0001:00001160       ??__EmaxFError@_VecMathTests@aos@shdfnd@physx@@YAXXZ 0000000180002160 f   GuSweepsHF.obj
 0001:00001170       ??__EmaxV3Error@_VecMathTests@aos@shdfnd@physx@@YAXXZ 0000000180002170 f   GuSweepsHF.obj
 0001:00001180       ??__EmaxV4Error@_VecMathTests@aos@shdfnd@physx@@YAXXZ 0000000180002180 f   GuSweepsHF.obj
 0001:00001190       ??__EminFError@_VecMathTests@aos@shdfnd@physx@@YAXXZ 0000000180002190 f   GuSweepsHF.obj
 0001:000011a0       ??__EminV3Error@_VecMathTests@aos@shdfnd@physx@@YAXXZ 00000001800021a0 f   GuSweepsHF.obj
 0001:000011b0       ??__EminV4Error@_VecMathTests@aos@shdfnd@physx@@YAXXZ 00000001800021b0 f   GuSweepsHF.obj
 0001:000011c0       ??__EmaxFError@_VecMathTests@aos@shdfnd@physx@@YAXXZ 00000001800021c0 f   GuIntersectionRayBox.obj
 0001:000011d0       ??__EmaxV3Error@_VecMathTests@aos@shdfnd@physx@@YAXXZ 00000001800021d0 f   GuIntersectionRayBox.obj
 0001:000011e0       ??__EmaxV4Error@_VecMathTests@aos@shdfnd@physx@@YAXXZ 00000001800021e0 f   GuIntersectionRayBox.obj
 0001:000011f0       ??__EminFError@_VecMathTests@aos@shdfnd@physx@@YAXXZ 00000001800021f0 f   GuIntersectionRayBox.obj
 0001:00001200       ??__EminV3Error@_VecMathTests@aos@shdfnd@physx@@YAXXZ 0000000180002200 f   GuIntersectionRayBox.obj
 0001:00001210       ??__EminV4Error@_VecMathTests@aos@shdfnd@physx@@YAXXZ 0000000180002210 f   GuIntersectionRayBox.obj
 0001:00001220       ??__EmaxFError@_VecMathTests@aos@shdfnd@physx@@YAXXZ 0000000180002220 f   GuIntersectionTriangleBox.obj
 0001:00001230       ??__EmaxV3Error@_VecMathTests@aos@shdfnd@physx@@YAXXZ 0000000180002230 f   GuIntersectionTriangleBox.obj
 0001:00001240       ??__EmaxV4Error@_VecMathTests@aos@shdfnd@physx@@YAXXZ 0000000180002240 f   GuIntersectionTriangleBox.obj
 0001:00001250       ??__EminFError@_VecMathTests@aos@shdfnd@physx@@YAXXZ 0000000180002250 f   GuIntersectionTriangleBox.obj
 0001:00001260       ??__EminV3Error@_VecMathTests@aos@shdfnd@physx@@YAXXZ 0000000180002260 f   GuIntersectionTriangleBox.obj
 0001:00001270       ??__EminV4Error@_VecMathTests@aos@shdfnd@physx@@YAXXZ 0000000180002270 f   GuIntersectionTriangleBox.obj
 0001:00001280       ??__EsignV@@YAXXZ          0000000180002280 f   GuIntersectionTriangleBox.obj
 0001:000012c0       ??__EmaxFError@_VecMathTests@aos@shdfnd@physx@@YAXXZ 00000001800022c0 f   GuBV4.obj
 0001:000012d0       ??__EmaxV3Error@_VecMathTests@aos@shdfnd@physx@@YAXXZ 00000001800022d0 f   GuBV4.obj
 0001:000012e0       ??__EmaxV4Error@_VecMathTests@aos@shdfnd@physx@@YAXXZ 00000001800022e0 f   GuBV4.obj
 0001:000012f0       ??__EminFError@_VecMathTests@aos@shdfnd@physx@@YAXXZ 00000001800022f0 f   GuBV4.obj
 0001:00001300       ??__EminV3Error@_VecMathTests@aos@shdfnd@physx@@YAXXZ 0000000180002300 f   GuBV4.obj
 0001:00001310       ??__EminV4Error@_VecMathTests@aos@shdfnd@physx@@YAXXZ 0000000180002310 f   GuBV4.obj
 0001:00001320       ??__EmaxFError@_VecMathTests@aos@shdfnd@physx@@YAXXZ 0000000180002320 f   GuBV4Build.obj
 0001:00001330       ??__EmaxV3Error@_VecMathTests@aos@shdfnd@physx@@YAXXZ 0000000180002330 f   GuBV4Build.obj
 0001:00001340       ??__EmaxV4Error@_VecMathTests@aos@shdfnd@physx@@YAXXZ 0000000180002340 f   GuBV4Build.obj
 0001:00001350       ??__EminFError@_VecMathTests@aos@shdfnd@physx@@YAXXZ 0000000180002350 f   GuBV4Build.obj
 0001:00001360       ??__EminV3Error@_VecMathTests@aos@shdfnd@physx@@YAXXZ 0000000180002360 f   GuBV4Build.obj
 0001:00001370       ??__EminV4Error@_VecMathTests@aos@shdfnd@physx@@YAXXZ 0000000180002370 f   GuBV4Build.obj
 0001:00001380       ??__EepsFloat4@?A0x2c4ce868@@YAXXZ 0000000180002380 f   GuBV4_AABBSweep.obj
 0001:00001390       ??__EepsInflateFloat4@?A0x2c4ce868@@YAXXZ 0000000180002390 f   GuBV4_AABBSweep.obj
 0001:000013a0       ??__EmaxFError@_VecMathTests@aos@shdfnd@physx@@YAXXZ 00000001800023a0 f   GuBV4_AABBSweep.obj
 0001:000013b0       ??__EmaxV3Error@_VecMathTests@aos@shdfnd@physx@@YAXXZ 00000001800023b0 f   GuBV4_AABBSweep.obj
 0001:000013c0       ??__EmaxV4Error@_VecMathTests@aos@shdfnd@physx@@YAXXZ 00000001800023c0 f   GuBV4_AABBSweep.obj
 0001:000013d0       ??__EminFError@_VecMathTests@aos@shdfnd@physx@@YAXXZ 00000001800023d0 f   GuBV4_AABBSweep.obj
 0001:000013e0       ??__EminV3Error@_VecMathTests@aos@shdfnd@physx@@YAXXZ 00000001800023e0 f   GuBV4_AABBSweep.obj
 0001:000013f0       ??__EminV4Error@_VecMathTests@aos@shdfnd@physx@@YAXXZ 00000001800023f0 f   GuBV4_AABBSweep.obj
 0001:00001400       ??__EsignMask@?A0x2c4ce868@@YAXXZ 0000000180002400 f   GuBV4_AABBSweep.obj
 0001:00001440       ??__Etwos@?A0x2c4ce868@@YAXXZ 0000000180002440 f   GuBV4_AABBSweep.obj
 0001:00001450       ??__Ezeroes@?A0x2c4ce868@@YAXXZ 0000000180002450 f   GuBV4_AABBSweep.obj
 0001:00001460       ??__EmaxFError@_VecMathTests@aos@shdfnd@physx@@YAXXZ 0000000180002460 f   GuBV4_BoxOverlap.obj
 0001:00001470       ??__EmaxV3Error@_VecMathTests@aos@shdfnd@physx@@YAXXZ 0000000180002470 f   GuBV4_BoxOverlap.obj
 0001:00001480       ??__EmaxV4Error@_VecMathTests@aos@shdfnd@physx@@YAXXZ 0000000180002480 f   GuBV4_BoxOverlap.obj
 0001:00001490       ??__EminFError@_VecMathTests@aos@shdfnd@physx@@YAXXZ 0000000180002490 f   GuBV4_BoxOverlap.obj
 0001:000014a0       ??__EminV3Error@_VecMathTests@aos@shdfnd@physx@@YAXXZ 00000001800024a0 f   GuBV4_BoxOverlap.obj
 0001:000014b0       ??__EminV4Error@_VecMathTests@aos@shdfnd@physx@@YAXXZ 00000001800024b0 f   GuBV4_BoxOverlap.obj
 0001:000014c0       ??__EmaxFError@_VecMathTests@aos@shdfnd@physx@@YAXXZ 00000001800024c0 f   GuBV4_CapsuleSweep.obj
 0001:000014d0       ??__EmaxV3Error@_VecMathTests@aos@shdfnd@physx@@YAXXZ 00000001800024d0 f   GuBV4_CapsuleSweep.obj
 0001:000014e0       ??__EmaxV4Error@_VecMathTests@aos@shdfnd@physx@@YAXXZ 00000001800024e0 f   GuBV4_CapsuleSweep.obj
 0001:000014f0       ??__EminFError@_VecMathTests@aos@shdfnd@physx@@YAXXZ 00000001800024f0 f   GuBV4_CapsuleSweep.obj
 0001:00001500       ??__EminV3Error@_VecMathTests@aos@shdfnd@physx@@YAXXZ 0000000180002500 f   GuBV4_CapsuleSweep.obj
 0001:00001510       ??__EminV4Error@_VecMathTests@aos@shdfnd@physx@@YAXXZ 0000000180002510 f   GuBV4_CapsuleSweep.obj
 0001:00001520       ??__EepsFloat4@?A0xff2d728f@@YAXXZ 0000000180002520 f   GuBV4_CapsuleSweepAA.obj
 0001:00001530       ??__EepsInflateFloat4@?A0xff2d728f@@YAXXZ 0000000180002530 f   GuBV4_CapsuleSweepAA.obj
 0001:00001540       ??__EmaxFError@_VecMathTests@aos@shdfnd@physx@@YAXXZ 0000000180002540 f   GuBV4_CapsuleSweepAA.obj
 0001:00001550       ??__EmaxV3Error@_VecMathTests@aos@shdfnd@physx@@YAXXZ 0000000180002550 f   GuBV4_CapsuleSweepAA.obj
 0001:00001560       ??__EmaxV4Error@_VecMathTests@aos@shdfnd@physx@@YAXXZ 0000000180002560 f   GuBV4_CapsuleSweepAA.obj
 0001:00001570       ??__EminFError@_VecMathTests@aos@shdfnd@physx@@YAXXZ 0000000180002570 f   GuBV4_CapsuleSweepAA.obj
 0001:00001580       ??__EminV3Error@_VecMathTests@aos@shdfnd@physx@@YAXXZ 0000000180002580 f   GuBV4_CapsuleSweepAA.obj
 0001:00001590       ??__EminV4Error@_VecMathTests@aos@shdfnd@physx@@YAXXZ 0000000180002590 f   GuBV4_CapsuleSweepAA.obj
 0001:000015a0       ??__EsignMask@?A0xff2d728f@@YAXXZ 00000001800025a0 f   GuBV4_CapsuleSweepAA.obj
 0001:000015e0       ??__Etwos@?A0xff2d728f@@YAXXZ 00000001800025e0 f   GuBV4_CapsuleSweepAA.obj
 0001:000015f0       ??__Ezeroes@?A0xff2d728f@@YAXXZ 00000001800025f0 f   GuBV4_CapsuleSweepAA.obj
 0001:00001600       ??__EmaxFError@_VecMathTests@aos@shdfnd@physx@@YAXXZ 0000000180002600 f   GuBV4_OBBSweep.obj
 0001:00001610       ??__EmaxV3Error@_VecMathTests@aos@shdfnd@physx@@YAXXZ 0000000180002610 f   GuBV4_OBBSweep.obj
 0001:00001620       ??__EmaxV4Error@_VecMathTests@aos@shdfnd@physx@@YAXXZ 0000000180002620 f   GuBV4_OBBSweep.obj
 0001:00001630       ??__EminFError@_VecMathTests@aos@shdfnd@physx@@YAXXZ 0000000180002630 f   GuBV4_OBBSweep.obj
 0001:00001640       ??__EminV3Error@_VecMathTests@aos@shdfnd@physx@@YAXXZ 0000000180002640 f   GuBV4_OBBSweep.obj
 0001:00001650       ??__EminV4Error@_VecMathTests@aos@shdfnd@physx@@YAXXZ 0000000180002650 f   GuBV4_OBBSweep.obj
 0001:00001660       ??__EepsFloat4@?A0x42060cae@@YAXXZ 0000000180002660 f   GuBV4_Raycast.obj
 0001:00001670       ??__EepsInflateFloat4@?A0x42060cae@@YAXXZ 0000000180002670 f   GuBV4_Raycast.obj
 0001:00001680       ??__EmaxFError@_VecMathTests@aos@shdfnd@physx@@YAXXZ 0000000180002680 f   GuBV4_Raycast.obj
 0001:00001690       ??__EmaxV3Error@_VecMathTests@aos@shdfnd@physx@@YAXXZ 0000000180002690 f   GuBV4_Raycast.obj
 0001:000016a0       ??__EmaxV4Error@_VecMathTests@aos@shdfnd@physx@@YAXXZ 00000001800026a0 f   GuBV4_Raycast.obj
 0001:000016b0       ??__EminFError@_VecMathTests@aos@shdfnd@physx@@YAXXZ 00000001800026b0 f   GuBV4_Raycast.obj
 0001:000016c0       ??__EminV3Error@_VecMathTests@aos@shdfnd@physx@@YAXXZ 00000001800026c0 f   GuBV4_Raycast.obj
 0001:000016d0       ??__EminV4Error@_VecMathTests@aos@shdfnd@physx@@YAXXZ 00000001800026d0 f   GuBV4_Raycast.obj
 0001:000016e0       ??__EsignMask@?A0x42060cae@@YAXXZ 00000001800026e0 f   GuBV4_Raycast.obj
 0001:00001720       ??__Etwos@?A0x42060cae@@YAXXZ 0000000180002720 f   GuBV4_Raycast.obj
 0001:00001730       ??__Ezeroes@?A0x42060cae@@YAXXZ 0000000180002730 f   GuBV4_Raycast.obj
 0001:00001740       ??__EmaxFError@_VecMathTests@aos@shdfnd@physx@@YAXXZ 0000000180002740 f   GuBV4_SphereOverlap.obj
 0001:00001750       ??__EmaxV3Error@_VecMathTests@aos@shdfnd@physx@@YAXXZ 0000000180002750 f   GuBV4_SphereOverlap.obj
 0001:00001760       ??__EmaxV4Error@_VecMathTests@aos@shdfnd@physx@@YAXXZ 0000000180002760 f   GuBV4_SphereOverlap.obj
 0001:00001770       ??__EminFError@_VecMathTests@aos@shdfnd@physx@@YAXXZ 0000000180002770 f   GuBV4_SphereOverlap.obj
 0001:00001780       ??__EminV3Error@_VecMathTests@aos@shdfnd@physx@@YAXXZ 0000000180002780 f   GuBV4_SphereOverlap.obj
 0001:00001790       ??__EminV4Error@_VecMathTests@aos@shdfnd@physx@@YAXXZ 0000000180002790 f   GuBV4_SphereOverlap.obj
 0001:000017a0       ??__EepsFloat4@?A0xbc427889@@YAXXZ 00000001800027a0 f   GuBV4_SphereSweep.obj
 0001:000017b0       ??__EepsInflateFloat4@?A0xbc427889@@YAXXZ 00000001800027b0 f   GuBV4_SphereSweep.obj
 0001:000017c0       ??__EmaxFError@_VecMathTests@aos@shdfnd@physx@@YAXXZ 00000001800027c0 f   GuBV4_SphereSweep.obj
 0001:000017d0       ??__EmaxV3Error@_VecMathTests@aos@shdfnd@physx@@YAXXZ 00000001800027d0 f   GuBV4_SphereSweep.obj
 0001:000017e0       ??__EmaxV4Error@_VecMathTests@aos@shdfnd@physx@@YAXXZ 00000001800027e0 f   GuBV4_SphereSweep.obj
 0001:000017f0       ??__EminFError@_VecMathTests@aos@shdfnd@physx@@YAXXZ 00000001800027f0 f   GuBV4_SphereSweep.obj
 0001:00001800       ??__EminV3Error@_VecMathTests@aos@shdfnd@physx@@YAXXZ 0000000180002800 f   GuBV4_SphereSweep.obj
 0001:00001810       ??__EminV4Error@_VecMathTests@aos@shdfnd@physx@@YAXXZ 0000000180002810 f   GuBV4_SphereSweep.obj
 0001:00001820       ??__EsignMask@?A0xbc427889@@YAXXZ 0000000180002820 f   GuBV4_SphereSweep.obj
 0001:00001860       ??__Etwos@?A0xbc427889@@YAXXZ 0000000180002860 f   GuBV4_SphereSweep.obj
 0001:00001870       ??__Ezeroes@?A0xbc427889@@YAXXZ 0000000180002870 f   GuBV4_SphereSweep.obj
 0001:00001880       ??__EmaxFError@_VecMathTests@aos@shdfnd@physx@@YAXXZ 0000000180002880 f   GuMidphaseBV4.obj
 0001:00001890       ??__EmaxV3Error@_VecMathTests@aos@shdfnd@physx@@YAXXZ 0000000180002890 f   GuMidphaseBV4.obj
 0001:000018a0       ??__EmaxV4Error@_VecMathTests@aos@shdfnd@physx@@YAXXZ 00000001800028a0 f   GuMidphaseBV4.obj
 0001:000018b0       ??__EminFError@_VecMathTests@aos@shdfnd@physx@@YAXXZ 00000001800028b0 f   GuMidphaseBV4.obj
 0001:000018c0       ??__EminV3Error@_VecMathTests@aos@shdfnd@physx@@YAXXZ 00000001800028c0 f   GuMidphaseBV4.obj
 0001:000018d0       ??__EminV4Error@_VecMathTests@aos@shdfnd@physx@@YAXXZ 00000001800028d0 f   GuMidphaseBV4.obj
 0001:000018e0       ??__EmaxFError@_VecMathTests@aos@shdfnd@physx@@YAXXZ 00000001800028e0 f   GuMeshQuery.obj
 0001:000018f0       ??__EmaxV3Error@_VecMathTests@aos@shdfnd@physx@@YAXXZ 00000001800028f0 f   GuMeshQuery.obj
 0001:00001900       ??__EmaxV4Error@_VecMathTests@aos@shdfnd@physx@@YAXXZ 0000000180002900 f   GuMeshQuery.obj
 0001:00001910       ??__EminFError@_VecMathTests@aos@shdfnd@physx@@YAXXZ 0000000180002910 f   GuMeshQuery.obj
 0001:00001920       ??__EminV3Error@_VecMathTests@aos@shdfnd@physx@@YAXXZ 0000000180002920 f   GuMeshQuery.obj
 0001:00001930       ??__EminV4Error@_VecMathTests@aos@shdfnd@physx@@YAXXZ 0000000180002930 f   GuMeshQuery.obj
 0001:00001940       ??__EmaxFError@_VecMathTests@aos@shdfnd@physx@@YAXXZ 0000000180002940 f   GuMidphaseRTree.obj
 0001:00001950       ??__EmaxV3Error@_VecMathTests@aos@shdfnd@physx@@YAXXZ 0000000180002950 f   GuMidphaseRTree.obj
 0001:00001960       ??__EmaxV4Error@_VecMathTests@aos@shdfnd@physx@@YAXXZ 0000000180002960 f   GuMidphaseRTree.obj
 0001:00001970       ??__EminFError@_VecMathTests@aos@shdfnd@physx@@YAXXZ 0000000180002970 f   GuMidphaseRTree.obj
 0001:00001980       ??__EminV3Error@_VecMathTests@aos@shdfnd@physx@@YAXXZ 0000000180002980 f   GuMidphaseRTree.obj
 0001:00001990       ??__EminV4Error@_VecMathTests@aos@shdfnd@physx@@YAXXZ 0000000180002990 f   GuMidphaseRTree.obj
 0001:000019a0       ??__EmaxFError@_VecMathTests@aos@shdfnd@physx@@YAXXZ 00000001800029a0 f   GuOverlapTestsMesh.obj
 0001:000019b0       ??__EmaxV3Error@_VecMathTests@aos@shdfnd@physx@@YAXXZ 00000001800029b0 f   GuOverlapTestsMesh.obj
 0001:000019c0       ??__EmaxV4Error@_VecMathTests@aos@shdfnd@physx@@YAXXZ 00000001800029c0 f   GuOverlapTestsMesh.obj
 0001:000019d0       ??__EminFError@_VecMathTests@aos@shdfnd@physx@@YAXXZ 00000001800029d0 f   GuOverlapTestsMesh.obj
 0001:000019e0       ??__EminV3Error@_VecMathTests@aos@shdfnd@physx@@YAXXZ 00000001800029e0 f   GuOverlapTestsMesh.obj
 0001:000019f0       ??__EminV4Error@_VecMathTests@aos@shdfnd@physx@@YAXXZ 00000001800029f0 f   GuOverlapTestsMesh.obj
 0001:00001a00       ??__EmaxFError@_VecMathTests@aos@shdfnd@physx@@YAXXZ 0000000180002a00 f   GuRTree.obj
 0001:00001a10       ??__EmaxV3Error@_VecMathTests@aos@shdfnd@physx@@YAXXZ 0000000180002a10 f   GuRTree.obj
 0001:00001a20       ??__EmaxV4Error@_VecMathTests@aos@shdfnd@physx@@YAXXZ 0000000180002a20 f   GuRTree.obj
 0001:00001a30       ??__EminFError@_VecMathTests@aos@shdfnd@physx@@YAXXZ 0000000180002a30 f   GuRTree.obj
 0001:00001a40       ??__EminV3Error@_VecMathTests@aos@shdfnd@physx@@YAXXZ 0000000180002a40 f   GuRTree.obj
 0001:00001a50       ??__EminV4Error@_VecMathTests@aos@shdfnd@physx@@YAXXZ 0000000180002a50 f   GuRTree.obj
 0001:00001a60       ??__EepsFloat4@?A0x362a68d8@@YAXXZ 0000000180002a60 f   GuRTreeQueries.obj
 0001:00001a70       ??__EepsInflateFloat4@?A0x362a68d8@@YAXXZ 0000000180002a70 f   GuRTreeQueries.obj
 0001:00001a80       ??__EmaxFError@_VecMathTests@aos@shdfnd@physx@@YAXXZ 0000000180002a80 f   GuRTreeQueries.obj
 0001:00001a90       ??__EmaxV3Error@_VecMathTests@aos@shdfnd@physx@@YAXXZ 0000000180002a90 f   GuRTreeQueries.obj
 0001:00001aa0       ??__EmaxV4Error@_VecMathTests@aos@shdfnd@physx@@YAXXZ 0000000180002aa0 f   GuRTreeQueries.obj
 0001:00001ab0       ??__EminFError@_VecMathTests@aos@shdfnd@physx@@YAXXZ 0000000180002ab0 f   GuRTreeQueries.obj
 0001:00001ac0       ??__EminV3Error@_VecMathTests@aos@shdfnd@physx@@YAXXZ 0000000180002ac0 f   GuRTreeQueries.obj
 0001:00001ad0       ??__EminV4Error@_VecMathTests@aos@shdfnd@physx@@YAXXZ 0000000180002ad0 f   GuRTreeQueries.obj
 0001:00001ae0       ??__EsignMask@?A0x362a68d8@@YAXXZ 0000000180002ae0 f   GuRTreeQueries.obj
 0001:00001b20       ??__Etwos@?A0x362a68d8@@YAXXZ 0000000180002b20 f   GuRTreeQueries.obj
 0001:00001b30       ??__Ezeroes@?A0x362a68d8@@YAXXZ 0000000180002b30 f   GuRTreeQueries.obj
 0001:00001b40       ??__EmaxFError@_VecMathTests@aos@shdfnd@physx@@YAXXZ 0000000180002b40 f   GuSweepsMesh.obj
 0001:00001b50       ??__EmaxV3Error@_VecMathTests@aos@shdfnd@physx@@YAXXZ 0000000180002b50 f   GuSweepsMesh.obj
 0001:00001b60       ??__EmaxV4Error@_VecMathTests@aos@shdfnd@physx@@YAXXZ 0000000180002b60 f   GuSweepsMesh.obj
 0001:00001b70       ??__EminFError@_VecMathTests@aos@shdfnd@physx@@YAXXZ 0000000180002b70 f   GuSweepsMesh.obj
 0001:00001b80       ??__EminV3Error@_VecMathTests@aos@shdfnd@physx@@YAXXZ 0000000180002b80 f   GuSweepsMesh.obj
 0001:00001b90       ??__EminV4Error@_VecMathTests@aos@shdfnd@physx@@YAXXZ 0000000180002b90 f   GuSweepsMesh.obj
 0001:00001ba0       ??__EmaxFError@_VecMathTests@aos@shdfnd@physx@@YAXXZ 0000000180002ba0 f   GuTriangleMesh.obj
 0001:00001bb0       ??__EmaxV3Error@_VecMathTests@aos@shdfnd@physx@@YAXXZ 0000000180002bb0 f   GuTriangleMesh.obj
 0001:00001bc0       ??__EmaxV4Error@_VecMathTests@aos@shdfnd@physx@@YAXXZ 0000000180002bc0 f   GuTriangleMesh.obj
 0001:00001bd0       ??__EminFError@_VecMathTests@aos@shdfnd@physx@@YAXXZ 0000000180002bd0 f   GuTriangleMesh.obj
 0001:00001be0       ??__EminV3Error@_VecMathTests@aos@shdfnd@physx@@YAXXZ 0000000180002be0 f   GuTriangleMesh.obj
 0001:00001bf0       ??__EminV4Error@_VecMathTests@aos@shdfnd@physx@@YAXXZ 0000000180002bf0 f   GuTriangleMesh.obj
 0001:00001c00       ??__EmaxFError@_VecMathTests@aos@shdfnd@physx@@YAXXZ 0000000180002c00 f   GuTriangleMeshBV4.obj
 0001:00001c10       ??__EmaxV3Error@_VecMathTests@aos@shdfnd@physx@@YAXXZ 0000000180002c10 f   GuTriangleMeshBV4.obj
 0001:00001c20       ??__EmaxV4Error@_VecMathTests@aos@shdfnd@physx@@YAXXZ 0000000180002c20 f   GuTriangleMeshBV4.obj
 0001:00001c30       ??__EminFError@_VecMathTests@aos@shdfnd@physx@@YAXXZ 0000000180002c30 f   GuTriangleMeshBV4.obj
 0001:00001c40       ??__EminV3Error@_VecMathTests@aos@shdfnd@physx@@YAXXZ 0000000180002c40 f   GuTriangleMeshBV4.obj
 0001:00001c50       ??__EminV4Error@_VecMathTests@aos@shdfnd@physx@@YAXXZ 0000000180002c50 f   GuTriangleMeshBV4.obj
 0001:00001c60       ??__EmaxFError@_VecMathTests@aos@shdfnd@physx@@YAXXZ 0000000180002c60 f   GuTriangleMeshRTree.obj
 0001:00001c70       ??__EmaxV3Error@_VecMathTests@aos@shdfnd@physx@@YAXXZ 0000000180002c70 f   GuTriangleMeshRTree.obj
 0001:00001c80       ??__EmaxV4Error@_VecMathTests@aos@shdfnd@physx@@YAXXZ 0000000180002c80 f   GuTriangleMeshRTree.obj
 0001:00001c90       ??__EminFError@_VecMathTests@aos@shdfnd@physx@@YAXXZ 0000000180002c90 f   GuTriangleMeshRTree.obj
 0001:00001ca0       ??__EminV3Error@_VecMathTests@aos@shdfnd@physx@@YAXXZ 0000000180002ca0 f   GuTriangleMeshRTree.obj
 0001:00001cb0       ??__EminV4Error@_VecMathTests@aos@shdfnd@physx@@YAXXZ 0000000180002cb0 f   GuTriangleMeshRTree.obj
 0001:00001cc0       ??__EmaxFError@_VecMathTests@aos@shdfnd@physx@@YAXXZ 0000000180002cc0 f   GuBV32Build.obj
 0001:00001cd0       ??__EmaxV3Error@_VecMathTests@aos@shdfnd@physx@@YAXXZ 0000000180002cd0 f   GuBV32Build.obj
 0001:00001ce0       ??__EmaxV4Error@_VecMathTests@aos@shdfnd@physx@@YAXXZ 0000000180002ce0 f   GuBV32Build.obj
 0001:00001cf0       ??__EminFError@_VecMathTests@aos@shdfnd@physx@@YAXXZ 0000000180002cf0 f   GuBV32Build.obj
 0001:00001d00       ??__EminV3Error@_VecMathTests@aos@shdfnd@physx@@YAXXZ 0000000180002d00 f   GuBV32Build.obj
 0001:00001d10       ??__EminV4Error@_VecMathTests@aos@shdfnd@physx@@YAXXZ 0000000180002d10 f   GuBV32Build.obj
 0001:00001d20       ??__EmaxFError@_VecMathTests@aos@shdfnd@physx@@YAXXZ 0000000180002d20 f   GuPCMContactBoxBox.obj
 0001:00001d30       ??__EmaxV3Error@_VecMathTests@aos@shdfnd@physx@@YAXXZ 0000000180002d30 f   GuPCMContactBoxBox.obj
 0001:00001d40       ??__EmaxV4Error@_VecMathTests@aos@shdfnd@physx@@YAXXZ 0000000180002d40 f   GuPCMContactBoxBox.obj
 0001:00001d50       ??__EminFError@_VecMathTests@aos@shdfnd@physx@@YAXXZ 0000000180002d50 f   GuPCMContactBoxBox.obj
 0001:00001d60       ??__EminV3Error@_VecMathTests@aos@shdfnd@physx@@YAXXZ 0000000180002d60 f   GuPCMContactBoxBox.obj
 0001:00001d70       ??__EminV4Error@_VecMathTests@aos@shdfnd@physx@@YAXXZ 0000000180002d70 f   GuPCMContactBoxBox.obj
 0001:00001d80       ??__EmaxFError@_VecMathTests@aos@shdfnd@physx@@YAXXZ 0000000180002d80 f   GuPCMContactBoxConvex.obj
 0001:00001d90       ??__EmaxV3Error@_VecMathTests@aos@shdfnd@physx@@YAXXZ 0000000180002d90 f   GuPCMContactBoxConvex.obj
 0001:00001da0       ??__EmaxV4Error@_VecMathTests@aos@shdfnd@physx@@YAXXZ 0000000180002da0 f   GuPCMContactBoxConvex.obj
 0001:00001db0       ??__EminFError@_VecMathTests@aos@shdfnd@physx@@YAXXZ 0000000180002db0 f   GuPCMContactBoxConvex.obj
 0001:00001dc0       ??__EminV3Error@_VecMathTests@aos@shdfnd@physx@@YAXXZ 0000000180002dc0 f   GuPCMContactBoxConvex.obj
 0001:00001dd0       ??__EminV4Error@_VecMathTests@aos@shdfnd@physx@@YAXXZ 0000000180002dd0 f   GuPCMContactBoxConvex.obj
 0001:00001de0       ??__EmaxFError@_VecMathTests@aos@shdfnd@physx@@YAXXZ 0000000180002de0 f   GuPCMContactCapsuleBox.obj
 0001:00001df0       ??__EmaxV3Error@_VecMathTests@aos@shdfnd@physx@@YAXXZ 0000000180002df0 f   GuPCMContactCapsuleBox.obj
 0001:00001e00       ??__EmaxV4Error@_VecMathTests@aos@shdfnd@physx@@YAXXZ 0000000180002e00 f   GuPCMContactCapsuleBox.obj
 0001:00001e10       ??__EminFError@_VecMathTests@aos@shdfnd@physx@@YAXXZ 0000000180002e10 f   GuPCMContactCapsuleBox.obj
 0001:00001e20       ??__EminV3Error@_VecMathTests@aos@shdfnd@physx@@YAXXZ 0000000180002e20 f   GuPCMContactCapsuleBox.obj
 0001:00001e30       ??__EminV4Error@_VecMathTests@aos@shdfnd@physx@@YAXXZ 0000000180002e30 f   GuPCMContactCapsuleBox.obj
 0001:00001e40       ??__EmaxFError@_VecMathTests@aos@shdfnd@physx@@YAXXZ 0000000180002e40 f   GuPCMContactCapsuleCapsule.obj
 0001:00001e50       ??__EmaxV3Error@_VecMathTests@aos@shdfnd@physx@@YAXXZ 0000000180002e50 f   GuPCMContactCapsuleCapsule.obj
 0001:00001e60       ??__EmaxV4Error@_VecMathTests@aos@shdfnd@physx@@YAXXZ 0000000180002e60 f   GuPCMContactCapsuleCapsule.obj
 0001:00001e70       ??__EminFError@_VecMathTests@aos@shdfnd@physx@@YAXXZ 0000000180002e70 f   GuPCMContactCapsuleCapsule.obj
 0001:00001e80       ??__EminV3Error@_VecMathTests@aos@shdfnd@physx@@YAXXZ 0000000180002e80 f   GuPCMContactCapsuleCapsule.obj
 0001:00001e90       ??__EminV4Error@_VecMathTests@aos@shdfnd@physx@@YAXXZ 0000000180002e90 f   GuPCMContactCapsuleCapsule.obj
 0001:00001ea0       ??__EmaxFError@_VecMathTests@aos@shdfnd@physx@@YAXXZ 0000000180002ea0 f   GuPCMContactCapsuleConvex.obj
 0001:00001eb0       ??__EmaxV3Error@_VecMathTests@aos@shdfnd@physx@@YAXXZ 0000000180002eb0 f   GuPCMContactCapsuleConvex.obj
 0001:00001ec0       ??__EmaxV4Error@_VecMathTests@aos@shdfnd@physx@@YAXXZ 0000000180002ec0 f   GuPCMContactCapsuleConvex.obj
 0001:00001ed0       ??__EminFError@_VecMathTests@aos@shdfnd@physx@@YAXXZ 0000000180002ed0 f   GuPCMContactCapsuleConvex.obj
 0001:00001ee0       ??__EminV3Error@_VecMathTests@aos@shdfnd@physx@@YAXXZ 0000000180002ee0 f   GuPCMContactCapsuleConvex.obj
 0001:00001ef0       ??__EminV4Error@_VecMathTests@aos@shdfnd@physx@@YAXXZ 0000000180002ef0 f   GuPCMContactCapsuleConvex.obj
 0001:00001f00       ??__EmaxFError@_VecMathTests@aos@shdfnd@physx@@YAXXZ 0000000180002f00 f   GuPCMContactCapsuleHeightField.obj
 0001:00001f10       ??__EmaxV3Error@_VecMathTests@aos@shdfnd@physx@@YAXXZ 0000000180002f10 f   GuPCMContactCapsuleHeightField.obj
 0001:00001f20       ??__EmaxV4Error@_VecMathTests@aos@shdfnd@physx@@YAXXZ 0000000180002f20 f   GuPCMContactCapsuleHeightField.obj
 0001:00001f30       ??__EminFError@_VecMathTests@aos@shdfnd@physx@@YAXXZ 0000000180002f30 f   GuPCMContactCapsuleHeightField.obj
 0001:00001f40       ??__EminV3Error@_VecMathTests@aos@shdfnd@physx@@YAXXZ 0000000180002f40 f   GuPCMContactCapsuleHeightField.obj
 0001:00001f50       ??__EminV4Error@_VecMathTests@aos@shdfnd@physx@@YAXXZ 0000000180002f50 f   GuPCMContactCapsuleHeightField.obj
 0001:00001f60       ??__EmaxFError@_VecMathTests@aos@shdfnd@physx@@YAXXZ 0000000180002f60 f   GuPCMContactCapsuleMesh.obj
 0001:00001f70       ??__EmaxV3Error@_VecMathTests@aos@shdfnd@physx@@YAXXZ 0000000180002f70 f   GuPCMContactCapsuleMesh.obj
 0001:00001f80       ??__EmaxV4Error@_VecMathTests@aos@shdfnd@physx@@YAXXZ 0000000180002f80 f   GuPCMContactCapsuleMesh.obj
 0001:00001f90       ??__EminFError@_VecMathTests@aos@shdfnd@physx@@YAXXZ 0000000180002f90 f   GuPCMContactCapsuleMesh.obj
 0001:00001fa0       ??__EminV3Error@_VecMathTests@aos@shdfnd@physx@@YAXXZ 0000000180002fa0 f   GuPCMContactCapsuleMesh.obj
 0001:00001fb0       ??__EminV4Error@_VecMathTests@aos@shdfnd@physx@@YAXXZ 0000000180002fb0 f   GuPCMContactCapsuleMesh.obj
 0001:00001fc0       ??__EmaxFError@_VecMathTests@aos@shdfnd@physx@@YAXXZ 0000000180002fc0 f   GuPCMContactConvexCommon.obj
 0001:00001fd0       ??__EmaxV3Error@_VecMathTests@aos@shdfnd@physx@@YAXXZ 0000000180002fd0 f   GuPCMContactConvexCommon.obj
 0001:00001fe0       ??__EmaxV4Error@_VecMathTests@aos@shdfnd@physx@@YAXXZ 0000000180002fe0 f   GuPCMContactConvexCommon.obj
 0001:00001ff0       ??__EminFError@_VecMathTests@aos@shdfnd@physx@@YAXXZ 0000000180002ff0 f   GuPCMContactConvexCommon.obj
 0001:00002000       ??__EminV3Error@_VecMathTests@aos@shdfnd@physx@@YAXXZ 0000000180003000 f   GuPCMContactConvexCommon.obj
 0001:00002010       ??__EminV4Error@_VecMathTests@aos@shdfnd@physx@@YAXXZ 0000000180003010 f   GuPCMContactConvexCommon.obj
 0001:00002020       ??__EmaxFError@_VecMathTests@aos@shdfnd@physx@@YAXXZ 0000000180003020 f   GuPCMContactConvexConvex.obj
 0001:00002030       ??__EmaxV3Error@_VecMathTests@aos@shdfnd@physx@@YAXXZ 0000000180003030 f   GuPCMContactConvexConvex.obj
 0001:00002040       ??__EmaxV4Error@_VecMathTests@aos@shdfnd@physx@@YAXXZ 0000000180003040 f   GuPCMContactConvexConvex.obj
 0001:00002050       ??__EminFError@_VecMathTests@aos@shdfnd@physx@@YAXXZ 0000000180003050 f   GuPCMContactConvexConvex.obj
 0001:00002060       ??__EminV3Error@_VecMathTests@aos@shdfnd@physx@@YAXXZ 0000000180003060 f   GuPCMContactConvexConvex.obj
 0001:00002070       ??__EminV4Error@_VecMathTests@aos@shdfnd@physx@@YAXXZ 0000000180003070 f   GuPCMContactConvexConvex.obj
 0001:00002080       ??__EmaxFError@_VecMathTests@aos@shdfnd@physx@@YAXXZ 0000000180003080 f   GuPCMContactConvexHeightField.obj
 0001:00002090       ??__EmaxV3Error@_VecMathTests@aos@shdfnd@physx@@YAXXZ 0000000180003090 f   GuPCMContactConvexHeightField.obj
 0001:000020a0       ??__EmaxV4Error@_VecMathTests@aos@shdfnd@physx@@YAXXZ 00000001800030a0 f   GuPCMContactConvexHeightField.obj
 0001:000020b0       ??__EminFError@_VecMathTests@aos@shdfnd@physx@@YAXXZ 00000001800030b0 f   GuPCMContactConvexHeightField.obj
 0001:000020c0       ??__EminV3Error@_VecMathTests@aos@shdfnd@physx@@YAXXZ 00000001800030c0 f   GuPCMContactConvexHeightField.obj
 0001:000020d0       ??__EminV4Error@_VecMathTests@aos@shdfnd@physx@@YAXXZ 00000001800030d0 f   GuPCMContactConvexHeightField.obj
 0001:000020e0       ??__EmaxFError@_VecMathTests@aos@shdfnd@physx@@YAXXZ 00000001800030e0 f   GuPCMContactConvexMesh.obj
 0001:000020f0       ??__EmaxV3Error@_VecMathTests@aos@shdfnd@physx@@YAXXZ 00000001800030f0 f   GuPCMContactConvexMesh.obj
 0001:00002100       ??__EmaxV4Error@_VecMathTests@aos@shdfnd@physx@@YAXXZ 0000000180003100 f   GuPCMContactConvexMesh.obj
 0001:00002110       ??__EminFError@_VecMathTests@aos@shdfnd@physx@@YAXXZ 0000000180003110 f   GuPCMContactConvexMesh.obj
 0001:00002120       ??__EminV3Error@_VecMathTests@aos@shdfnd@physx@@YAXXZ 0000000180003120 f   GuPCMContactConvexMesh.obj
 0001:00002130       ??__EminV4Error@_VecMathTests@aos@shdfnd@physx@@YAXXZ 0000000180003130 f   GuPCMContactConvexMesh.obj
 0001:00002140       ??__EmaxFError@_VecMathTests@aos@shdfnd@physx@@YAXXZ 0000000180003140 f   GuPCMContactGenBoxConvex.obj
 0001:00002150       ??__EmaxV3Error@_VecMathTests@aos@shdfnd@physx@@YAXXZ 0000000180003150 f   GuPCMContactGenBoxConvex.obj
 0001:00002160       ??__EmaxV4Error@_VecMathTests@aos@shdfnd@physx@@YAXXZ 0000000180003160 f   GuPCMContactGenBoxConvex.obj
 0001:00002170       ??__EminFError@_VecMathTests@aos@shdfnd@physx@@YAXXZ 0000000180003170 f   GuPCMContactGenBoxConvex.obj
 0001:00002180       ??__EminV3Error@_VecMathTests@aos@shdfnd@physx@@YAXXZ 0000000180003180 f   GuPCMContactGenBoxConvex.obj
 0001:00002190       ??__EminV4Error@_VecMathTests@aos@shdfnd@physx@@YAXXZ 0000000180003190 f   GuPCMContactGenBoxConvex.obj
 0001:000021a0       ??__EmaxFError@_VecMathTests@aos@shdfnd@physx@@YAXXZ 00000001800031a0 f   GuPCMContactGenSphereCapsule.obj
 0001:000021b0       ??__EmaxV3Error@_VecMathTests@aos@shdfnd@physx@@YAXXZ 00000001800031b0 f   GuPCMContactGenSphereCapsule.obj
 0001:000021c0       ??__EmaxV4Error@_VecMathTests@aos@shdfnd@physx@@YAXXZ 00000001800031c0 f   GuPCMContactGenSphereCapsule.obj
 0001:000021d0       ??__EminFError@_VecMathTests@aos@shdfnd@physx@@YAXXZ 00000001800031d0 f   GuPCMContactGenSphereCapsule.obj
 0001:000021e0       ??__EminV3Error@_VecMathTests@aos@shdfnd@physx@@YAXXZ 00000001800031e0 f   GuPCMContactGenSphereCapsule.obj
 0001:000021f0       ??__EminV4Error@_VecMathTests@aos@shdfnd@physx@@YAXXZ 00000001800031f0 f   GuPCMContactGenSphereCapsule.obj
 0001:00002200       ??__EmaxFError@_VecMathTests@aos@shdfnd@physx@@YAXXZ 0000000180003200 f   GuPCMContactPlaneBox.obj
 0001:00002210       ??__EmaxV3Error@_VecMathTests@aos@shdfnd@physx@@YAXXZ 0000000180003210 f   GuPCMContactPlaneBox.obj
 0001:00002220       ??__EmaxV4Error@_VecMathTests@aos@shdfnd@physx@@YAXXZ 0000000180003220 f   GuPCMContactPlaneBox.obj
 0001:00002230       ??__EminFError@_VecMathTests@aos@shdfnd@physx@@YAXXZ 0000000180003230 f   GuPCMContactPlaneBox.obj
 0001:00002240       ??__EminV3Error@_VecMathTests@aos@shdfnd@physx@@YAXXZ 0000000180003240 f   GuPCMContactPlaneBox.obj
 0001:00002250       ??__EminV4Error@_VecMathTests@aos@shdfnd@physx@@YAXXZ 0000000180003250 f   GuPCMContactPlaneBox.obj
 0001:00002260       ??__EmaxFError@_VecMathTests@aos@shdfnd@physx@@YAXXZ 0000000180003260 f   GuPCMContactPlaneCapsule.obj
 0001:00002270       ??__EmaxV3Error@_VecMathTests@aos@shdfnd@physx@@YAXXZ 0000000180003270 f   GuPCMContactPlaneCapsule.obj
 0001:00002280       ??__EmaxV4Error@_VecMathTests@aos@shdfnd@physx@@YAXXZ 0000000180003280 f   GuPCMContactPlaneCapsule.obj
 0001:00002290       ??__EminFError@_VecMathTests@aos@shdfnd@physx@@YAXXZ 0000000180003290 f   GuPCMContactPlaneCapsule.obj
 0001:000022a0       ??__EminV3Error@_VecMathTests@aos@shdfnd@physx@@YAXXZ 00000001800032a0 f   GuPCMContactPlaneCapsule.obj
 0001:000022b0       ??__EminV4Error@_VecMathTests@aos@shdfnd@physx@@YAXXZ 00000001800032b0 f   GuPCMContactPlaneCapsule.obj
 0001:000022c0       ??__EmaxFError@_VecMathTests@aos@shdfnd@physx@@YAXXZ 00000001800032c0 f   GuPCMContactPlaneConvex.obj
 0001:000022d0       ??__EmaxV3Error@_VecMathTests@aos@shdfnd@physx@@YAXXZ 00000001800032d0 f   GuPCMContactPlaneConvex.obj
 0001:000022e0       ??__EmaxV4Error@_VecMathTests@aos@shdfnd@physx@@YAXXZ 00000001800032e0 f   GuPCMContactPlaneConvex.obj
 0001:000022f0       ??__EminFError@_VecMathTests@aos@shdfnd@physx@@YAXXZ 00000001800032f0 f   GuPCMContactPlaneConvex.obj
 0001:00002300       ??__EminV3Error@_VecMathTests@aos@shdfnd@physx@@YAXXZ 0000000180003300 f   GuPCMContactPlaneConvex.obj
 0001:00002310       ??__EminV4Error@_VecMathTests@aos@shdfnd@physx@@YAXXZ 0000000180003310 f   GuPCMContactPlaneConvex.obj
 0001:00002320       ??__EmaxFError@_VecMathTests@aos@shdfnd@physx@@YAXXZ 0000000180003320 f   GuPCMContactSphereBox.obj
 0001:00002330       ??__EmaxV3Error@_VecMathTests@aos@shdfnd@physx@@YAXXZ 0000000180003330 f   GuPCMContactSphereBox.obj
 0001:00002340       ??__EmaxV4Error@_VecMathTests@aos@shdfnd@physx@@YAXXZ 0000000180003340 f   GuPCMContactSphereBox.obj
 0001:00002350       ??__EminFError@_VecMathTests@aos@shdfnd@physx@@YAXXZ 0000000180003350 f   GuPCMContactSphereBox.obj
 0001:00002360       ??__EminV3Error@_VecMathTests@aos@shdfnd@physx@@YAXXZ 0000000180003360 f   GuPCMContactSphereBox.obj
 0001:00002370       ??__EminV4Error@_VecMathTests@aos@shdfnd@physx@@YAXXZ 0000000180003370 f   GuPCMContactSphereBox.obj
 0001:00002380       ??__EmaxFError@_VecMathTests@aos@shdfnd@physx@@YAXXZ 0000000180003380 f   GuPCMContactSphereCapsule.obj
 0001:00002390       ??__EmaxV3Error@_VecMathTests@aos@shdfnd@physx@@YAXXZ 0000000180003390 f   GuPCMContactSphereCapsule.obj
 0001:000023a0       ??__EmaxV4Error@_VecMathTests@aos@shdfnd@physx@@YAXXZ 00000001800033a0 f   GuPCMContactSphereCapsule.obj
 0001:000023b0       ??__EminFError@_VecMathTests@aos@shdfnd@physx@@YAXXZ 00000001800033b0 f   GuPCMContactSphereCapsule.obj
 0001:000023c0       ??__EminV3Error@_VecMathTests@aos@shdfnd@physx@@YAXXZ 00000001800033c0 f   GuPCMContactSphereCapsule.obj
 0001:000023d0       ??__EminV4Error@_VecMathTests@aos@shdfnd@physx@@YAXXZ 00000001800033d0 f   GuPCMContactSphereCapsule.obj
 0001:000023e0       ??__EmaxFError@_VecMathTests@aos@shdfnd@physx@@YAXXZ 00000001800033e0 f   GuPCMContactSphereConvex.obj
 0001:000023f0       ??__EmaxV3Error@_VecMathTests@aos@shdfnd@physx@@YAXXZ 00000001800033f0 f   GuPCMContactSphereConvex.obj
 0001:00002400       ??__EmaxV4Error@_VecMathTests@aos@shdfnd@physx@@YAXXZ 0000000180003400 f   GuPCMContactSphereConvex.obj
 0001:00002410       ??__EminFError@_VecMathTests@aos@shdfnd@physx@@YAXXZ 0000000180003410 f   GuPCMContactSphereConvex.obj
 0001:00002420       ??__EminV3Error@_VecMathTests@aos@shdfnd@physx@@YAXXZ 0000000180003420 f   GuPCMContactSphereConvex.obj
 0001:00002430       ??__EminV4Error@_VecMathTests@aos@shdfnd@physx@@YAXXZ 0000000180003430 f   GuPCMContactSphereConvex.obj
 0001:00002440       ??__EmaxFError@_VecMathTests@aos@shdfnd@physx@@YAXXZ 0000000180003440 f   GuPCMContactSphereHeightField.obj
 0001:00002450       ??__EmaxV3Error@_VecMathTests@aos@shdfnd@physx@@YAXXZ 0000000180003450 f   GuPCMContactSphereHeightField.obj
 0001:00002460       ??__EmaxV4Error@_VecMathTests@aos@shdfnd@physx@@YAXXZ 0000000180003460 f   GuPCMContactSphereHeightField.obj
 0001:00002470       ??__EminFError@_VecMathTests@aos@shdfnd@physx@@YAXXZ 0000000180003470 f   GuPCMContactSphereHeightField.obj
 0001:00002480       ??__EminV3Error@_VecMathTests@aos@shdfnd@physx@@YAXXZ 0000000180003480 f   GuPCMContactSphereHeightField.obj
 0001:00002490       ??__EminV4Error@_VecMathTests@aos@shdfnd@physx@@YAXXZ 0000000180003490 f   GuPCMContactSphereHeightField.obj
 0001:000024a0       ??__EmaxFError@_VecMathTests@aos@shdfnd@physx@@YAXXZ 00000001800034a0 f   GuPCMContactSphereMesh.obj
 0001:000024b0       ??__EmaxV3Error@_VecMathTests@aos@shdfnd@physx@@YAXXZ 00000001800034b0 f   GuPCMContactSphereMesh.obj
 0001:000024c0       ??__EmaxV4Error@_VecMathTests@aos@shdfnd@physx@@YAXXZ 00000001800034c0 f   GuPCMContactSphereMesh.obj
 0001:000024d0       ??__EminFError@_VecMathTests@aos@shdfnd@physx@@YAXXZ 00000001800034d0 f   GuPCMContactSphereMesh.obj
 0001:000024e0       ??__EminV3Error@_VecMathTests@aos@shdfnd@physx@@YAXXZ 00000001800034e0 f   GuPCMContactSphereMesh.obj
 0001:000024f0       ??__EminV4Error@_VecMathTests@aos@shdfnd@physx@@YAXXZ 00000001800034f0 f   GuPCMContactSphereMesh.obj
 0001:00002500       ??__EmaxFError@_VecMathTests@aos@shdfnd@physx@@YAXXZ 0000000180003500 f   GuPCMContactSpherePlane.obj
 0001:00002510       ??__EmaxV3Error@_VecMathTests@aos@shdfnd@physx@@YAXXZ 0000000180003510 f   GuPCMContactSpherePlane.obj
 0001:00002520       ??__EmaxV4Error@_VecMathTests@aos@shdfnd@physx@@YAXXZ 0000000180003520 f   GuPCMContactSpherePlane.obj
 0001:00002530       ??__EminFError@_VecMathTests@aos@shdfnd@physx@@YAXXZ 0000000180003530 f   GuPCMContactSpherePlane.obj
 0001:00002540       ??__EminV3Error@_VecMathTests@aos@shdfnd@physx@@YAXXZ 0000000180003540 f   GuPCMContactSpherePlane.obj
 0001:00002550       ??__EminV4Error@_VecMathTests@aos@shdfnd@physx@@YAXXZ 0000000180003550 f   GuPCMContactSpherePlane.obj
 0001:00002560       ??__EmaxFError@_VecMathTests@aos@shdfnd@physx@@YAXXZ 0000000180003560 f   GuPCMContactSphereSphere.obj
 0001:00002570       ??__EmaxV3Error@_VecMathTests@aos@shdfnd@physx@@YAXXZ 0000000180003570 f   GuPCMContactSphereSphere.obj
 0001:00002580       ??__EmaxV4Error@_VecMathTests@aos@shdfnd@physx@@YAXXZ 0000000180003580 f   GuPCMContactSphereSphere.obj
 0001:00002590       ??__EminFError@_VecMathTests@aos@shdfnd@physx@@YAXXZ 0000000180003590 f   GuPCMContactSphereSphere.obj
 0001:000025a0       ??__EminV3Error@_VecMathTests@aos@shdfnd@physx@@YAXXZ 00000001800035a0 f   GuPCMContactSphereSphere.obj
 0001:000025b0       ??__EminV4Error@_VecMathTests@aos@shdfnd@physx@@YAXXZ 00000001800035b0 f   GuPCMContactSphereSphere.obj
 0001:000025c0       ??__EmaxFError@_VecMathTests@aos@shdfnd@physx@@YAXXZ 00000001800035c0 f   GuPCMShapeConvex.obj
 0001:000025d0       ??__EmaxV3Error@_VecMathTests@aos@shdfnd@physx@@YAXXZ 00000001800035d0 f   GuPCMShapeConvex.obj
 0001:000025e0       ??__EmaxV4Error@_VecMathTests@aos@shdfnd@physx@@YAXXZ 00000001800035e0 f   GuPCMShapeConvex.obj
 0001:000025f0       ??__EminFError@_VecMathTests@aos@shdfnd@physx@@YAXXZ 00000001800035f0 f   GuPCMShapeConvex.obj
 0001:00002600       ??__EminV3Error@_VecMathTests@aos@shdfnd@physx@@YAXXZ 0000000180003600 f   GuPCMShapeConvex.obj
 0001:00002610       ??__EminV4Error@_VecMathTests@aos@shdfnd@physx@@YAXXZ 0000000180003610 f   GuPCMShapeConvex.obj
 0001:00002620       ??__EmaxFError@_VecMathTests@aos@shdfnd@physx@@YAXXZ 0000000180003620 f   GuPCMTriangleContactGen.obj
 0001:00002630       ??__EmaxV3Error@_VecMathTests@aos@shdfnd@physx@@YAXXZ 0000000180003630 f   GuPCMTriangleContactGen.obj
 0001:00002640       ??__EmaxV4Error@_VecMathTests@aos@shdfnd@physx@@YAXXZ 0000000180003640 f   GuPCMTriangleContactGen.obj
 0001:00002650       ??__EminFError@_VecMathTests@aos@shdfnd@physx@@YAXXZ 0000000180003650 f   GuPCMTriangleContactGen.obj
 0001:00002660       ??__EminV3Error@_VecMathTests@aos@shdfnd@physx@@YAXXZ 0000000180003660 f   GuPCMTriangleContactGen.obj
 0001:00002670       ??__EminV4Error@_VecMathTests@aos@shdfnd@physx@@YAXXZ 0000000180003670 f   GuPCMTriangleContactGen.obj
 0001:00002680       ??__EmaxFError@_VecMathTests@aos@shdfnd@physx@@YAXXZ 0000000180003680 f   GuPersistentContactManifold.obj
 0001:00002690       ??__EmaxV3Error@_VecMathTests@aos@shdfnd@physx@@YAXXZ 0000000180003690 f   GuPersistentContactManifold.obj
 0001:000026a0       ??__EmaxV4Error@_VecMathTests@aos@shdfnd@physx@@YAXXZ 00000001800036a0 f   GuPersistentContactManifold.obj
 0001:000026b0       ??__EminFError@_VecMathTests@aos@shdfnd@physx@@YAXXZ 00000001800036b0 f   GuPersistentContactManifold.obj
 0001:000026c0       ??__EminV3Error@_VecMathTests@aos@shdfnd@physx@@YAXXZ 00000001800036c0 f   GuPersistentContactManifold.obj
 0001:000026d0       ??__EminV4Error@_VecMathTests@aos@shdfnd@physx@@YAXXZ 00000001800036d0 f   GuPersistentContactManifold.obj
 0001:000026e0       ??__EmaxFError@_VecMathTests@aos@shdfnd@physx@@YAXXZ 00000001800036e0 f   GuSweepBoxBox.obj
 0001:000026f0       ??__EmaxV3Error@_VecMathTests@aos@shdfnd@physx@@YAXXZ 00000001800036f0 f   GuSweepBoxBox.obj
 0001:00002700       ??__EmaxV4Error@_VecMathTests@aos@shdfnd@physx@@YAXXZ 0000000180003700 f   GuSweepBoxBox.obj
 0001:00002710       ??__EminFError@_VecMathTests@aos@shdfnd@physx@@YAXXZ 0000000180003710 f   GuSweepBoxBox.obj
 0001:00002720       ??__EminV3Error@_VecMathTests@aos@shdfnd@physx@@YAXXZ 0000000180003720 f   GuSweepBoxBox.obj
 0001:00002730       ??__EminV4Error@_VecMathTests@aos@shdfnd@physx@@YAXXZ 0000000180003730 f   GuSweepBoxBox.obj
 0001:00002740       ??__EmaxFError@_VecMathTests@aos@shdfnd@physx@@YAXXZ 0000000180003740 f   GuSweepBoxSphere.obj
 0001:00002750       ??__EmaxV3Error@_VecMathTests@aos@shdfnd@physx@@YAXXZ 0000000180003750 f   GuSweepBoxSphere.obj
 0001:00002760       ??__EmaxV4Error@_VecMathTests@aos@shdfnd@physx@@YAXXZ 0000000180003760 f   GuSweepBoxSphere.obj
 0001:00002770       ??__EminFError@_VecMathTests@aos@shdfnd@physx@@YAXXZ 0000000180003770 f   GuSweepBoxSphere.obj
 0001:00002780       ??__EminV3Error@_VecMathTests@aos@shdfnd@physx@@YAXXZ 0000000180003780 f   GuSweepBoxSphere.obj
 0001:00002790       ??__EminV4Error@_VecMathTests@aos@shdfnd@physx@@YAXXZ 0000000180003790 f   GuSweepBoxSphere.obj
 0001:000027a0       ??__EmaxFError@_VecMathTests@aos@shdfnd@physx@@YAXXZ 00000001800037a0 f   GuSweepBoxTriangle_FeatureBased.obj
 0001:000027b0       ??__EmaxV3Error@_VecMathTests@aos@shdfnd@physx@@YAXXZ 00000001800037b0 f   GuSweepBoxTriangle_FeatureBased.obj
 0001:000027c0       ??__EmaxV4Error@_VecMathTests@aos@shdfnd@physx@@YAXXZ 00000001800037c0 f   GuSweepBoxTriangle_FeatureBased.obj
 0001:000027d0       ??__EminFError@_VecMathTests@aos@shdfnd@physx@@YAXXZ 00000001800037d0 f   GuSweepBoxTriangle_FeatureBased.obj
 0001:000027e0       ??__EminV3Error@_VecMathTests@aos@shdfnd@physx@@YAXXZ 00000001800037e0 f   GuSweepBoxTriangle_FeatureBased.obj
 0001:000027f0       ??__EminV4Error@_VecMathTests@aos@shdfnd@physx@@YAXXZ 00000001800037f0 f   GuSweepBoxTriangle_FeatureBased.obj
 0001:00002800       ??__EmaxFError@_VecMathTests@aos@shdfnd@physx@@YAXXZ 0000000180003800 f   GuSweepBoxTriangle_SAT.obj
 0001:00002810       ??__EmaxV3Error@_VecMathTests@aos@shdfnd@physx@@YAXXZ 0000000180003810 f   GuSweepBoxTriangle_SAT.obj
 0001:00002820       ??__EmaxV4Error@_VecMathTests@aos@shdfnd@physx@@YAXXZ 0000000180003820 f   GuSweepBoxTriangle_SAT.obj
 0001:00002830       ??__EminFError@_VecMathTests@aos@shdfnd@physx@@YAXXZ 0000000180003830 f   GuSweepBoxTriangle_SAT.obj
 0001:00002840       ??__EminV3Error@_VecMathTests@aos@shdfnd@physx@@YAXXZ 0000000180003840 f   GuSweepBoxTriangle_SAT.obj
 0001:00002850       ??__EminV4Error@_VecMathTests@aos@shdfnd@physx@@YAXXZ 0000000180003850 f   GuSweepBoxTriangle_SAT.obj
 0001:00002860       ??__EmaxFError@_VecMathTests@aos@shdfnd@physx@@YAXXZ 0000000180003860 f   GuSweepCapsuleBox.obj
 0001:00002870       ??__EmaxV3Error@_VecMathTests@aos@shdfnd@physx@@YAXXZ 0000000180003870 f   GuSweepCapsuleBox.obj
 0001:00002880       ??__EmaxV4Error@_VecMathTests@aos@shdfnd@physx@@YAXXZ 0000000180003880 f   GuSweepCapsuleBox.obj
 0001:00002890       ??__EminFError@_VecMathTests@aos@shdfnd@physx@@YAXXZ 0000000180003890 f   GuSweepCapsuleBox.obj
