 PhysXCooking_64

 Timestamp is 682ee1e0 (Thu May 22 17:35:44 2025)

 Preferred load address is 0000000180000000

 Start         Length     Name                   Class
 0001:00000000 000003c0H .text$di                CODE
 0001:000003c0 00047550H .text$mn                CODE
 0001:00047910 00000040H .text$mn$00             CODE
 0001:00047950 00000a70H .text$mn$21             CODE
 0001:000483c0 00000690H .text$x                 CODE
 0002:00000000 00000278H .idata$5                DATA
 0002:00000278 00000038H .00cfg                  DATA
 0002:000002b0 00000008H .CRT$XCA                DATA
 0002:000002b8 000001e0H .CRT$XCU                DATA
 0002:00000498 00000008H .CRT$XCZ                DATA
 0002:000004a0 00000008H .CRT$XIA                DATA
 0002:000004a8 00000018H .CRT$XIC                DATA
 0002:000004c0 00000008H .CRT$XIZ                DATA
 0002:000004c8 00000008H .CRT$XPA                DATA
 0002:000004d0 00000010H .CRT$XPX                DATA
 0002:000004e0 00000008H .CRT$XPXA               DATA
 0002:000004e8 00000008H .CRT$XPZ                DATA
 0002:000004f0 00000008H .CRT$XTA                DATA
 0002:000004f8 00000008H .CRT$XTZ                DATA
 0002:00000500 00000000H .gehcont$y              DATA
 0002:00000500 00000000H .gfids$y                DATA
 0002:00000500 0000b5f0H .rdata                  DATA
 0002:0000baf0 00000190H .rdata$00               DATA
 0002:0000bc80 00000000H .rdata$CastGuardVftablesA DATA
 0002:0000bc80 00000000H .rdata$CastGuardVftablesC DATA
 0002:0000bc80 0000043cH .rdata$r                DATA
 0002:0000c0bc 00000184H .rdata$voltmd           DATA
 0002:0000c240 00000470H .rdata$zzzdbg           DATA
 0002:0000c6b0 00000008H .rtc$IAA                DATA
 0002:0000c6b8 00000008H .rtc$IZZ                DATA
 0002:0000c6c0 00000008H .rtc$TAA                DATA
 0002:0000c6c8 00000008H .rtc$TZZ                DATA
 0002:0000c6d0 00004178H .xdata                  DATA
 0002:00010848 00000084H .xdata$x                DATA
 0002:000108cc 00000040H .didat$2                DATA
 0002:0001090c 00000024H .didat$3                DATA
 0002:00010930 00000188H .didat$4                DATA
 0002:00010ab8 00000950H .didat$6                DATA
 0002:00011408 000002b8H .didat$7                DATA
 0002:000116c0 00001d00H .edata                  DATA
 0002:000133c0 00000014H .idata$2                DATA
 0002:000133d4 00000014H .idata$3                DATA
 0002:000133e8 00000278H .idata$4                DATA
 0002:00013660 000005aeH .idata$6                DATA
 0003:00000000 00000aa0H .data                   DATA
 0003:00000aa0 000005e8H .data$r                 DATA
 0003:00001088 000000f0H .data$rs                DATA
 0003:00001178 00000188H .didat$5                DATA
 0003:00001300 000015d0H .bss                    DATA
 0004:00000000 00003594H .pdata                  DATA
 0005:00000000 00002208H _RDATA                  DATA
 0006:00000000 000000a0H .rsrc$01                DATA
 0006:000000a0 000004b0H .rsrc$02                DATA

  Address         Publics by Value              Rva+Base               Lib:Object

 0000:00000000       __AbsoluteZero             0000000000000000     <absolute>
 0000:00000000       ___safe_se_handler_count   0000000000000000     <absolute>
 0000:00000000       ___safe_se_handler_table   0000000000000000     <absolute>
 0000:00000000       __arm64x_extra_rfe_table   0000000000000000     <absolute>
 0000:00000000       __arm64x_extra_rfe_table_size 0000000000000000     <absolute>
 0000:00000000       __arm64x_native_entrypoint 0000000000000000     <absolute>
 0000:00000000       __arm64x_redirection_metadata 0000000000000000     <absolute>
 0000:00000000       __arm64x_redirection_metadata_count 0000000000000000     <absolute>
 0000:00000000       __dynamic_value_reloc_table 0000000000000000     <absolute>
 0000:00000000       __enclave_config           0000000000000000     <absolute>
 0000:00000000       __guard_check_icall_a64n_fptr 0000000000000000     <absolute>
 0000:00000000       __guard_eh_cont_count      0000000000000000     <absolute>
 0000:00000000       __guard_eh_cont_table      0000000000000000     <absolute>
 0000:00000000       __guard_fids_count         0000000000000000     <absolute>
 0000:00000000       __guard_fids_table         0000000000000000     <absolute>
 0000:00000000       __guard_iat_count          0000000000000000     <absolute>
 0000:00000000       __guard_iat_table          0000000000000000     <absolute>
 0000:00000000       __guard_longjmp_count      0000000000000000     <absolute>
 0000:00000000       __guard_longjmp_table      0000000000000000     <absolute>
 0000:00000000       __hybrid_auxiliary_delayload_iat 0000000000000000     <absolute>
 0000:00000000       __hybrid_auxiliary_delayload_iat_copy 0000000000000000     <absolute>
 0000:00000000       __hybrid_auxiliary_iat     0000000000000000     <absolute>
 0000:00000000       __hybrid_auxiliary_iat_copy 0000000000000000     <absolute>
 0000:00000000       __hybrid_code_map          0000000000000000     <absolute>
 0000:00000000       __hybrid_code_map_count    0000000000000000     <absolute>
 0000:00000000       __hybrid_image_info_bitfield 0000000000000000     <absolute>
 0000:00000000       __x64_code_ranges_to_entry_points 0000000000000000     <absolute>
 0000:00000000       __x64_code_ranges_to_entry_points_count 0000000000000000     <absolute>
 0000:00000100       __guard_flags              0000000000000100     <absolute>
 0000:00000000       __ImageBase                0000000180000000     <linker-defined>
 0001:000003c0       ??$?_UV?$ReflectionAllocator@VAdjTriangle@physx@@@shdfnd@physx@@@UserAllocated@shdfnd@physx@@SAPEAX_KV?$ReflectionAllocator@VAdjTriangle@physx@@@12@PEBDH@Z 00000001800013c0 f i Adjacencies.obj
 0001:00000460       ??0AdjacenciesBuilder@physx@@QEAA@XZ 0000000180001460 f   Adjacencies.obj
 0001:00000470       ??0AABBTreeBuildNode@Gu@physx@@QEAA@XZ 0000000180001470 f i BVHStructureBuilder.obj
 0001:00000470       ??0Allocator@shdfnd@physx@@QEAA@PEBD@Z 0000000180001470 f i Adjacencies.obj
 0001:00000470       ??0BigConvexData@physx@@QEAA@W4PxEMPTY@1@@Z 0000000180001470 f i BigConvexDataBuilder.obj
 0001:00000470       ??0Box@Gu@physx@@QEAA@XZ   0000000180001470 f i ConvexHullUtils.obj
 0001:00000470       ??0HeightFieldData@Gu@physx@@QEAA@W4PxEMPTY@2@@Z 0000000180001470 f i Cooking.obj
 0001:00000470       ??4Allocator@shdfnd@physx@@QEAAAEAV012@$$QEAV012@@Z 0000000180001470 f i Adjacencies.obj
 0001:00000470       ??4Allocator@shdfnd@physx@@QEAAAEAV012@AEBV012@@Z 0000000180001470 f i Adjacencies.obj
 0001:00000470       ??4MutexImpl@shdfnd@physx@@QEAAAEAV012@AEBV012@@Z 0000000180001470 f i Adjacencies.obj
 0001:00000470       ??4PxFoundation@physx@@QEAAAEAV01@AEBV01@@Z 0000000180001470 f i Adjacencies.obj
 0001:00000470       ?getAABB@AABBTreeBuildNode@Gu@physx@@QEBAAEBVPxBounds3@3@XZ 0000000180001470 f i BVHStructureBuilder.obj
 0001:00000470       ?getPaddedBounds@HeightFieldData@Gu@physx@@QEBAAEBVCenterExtentsPadded@23@XZ 0000000180001470 f i Cooking.obj
 0001:00000480       ??0PxFoundation@physx@@QEAA@AEBV01@@Z 0000000180001480 f i Adjacencies.obj
 0001:00000480       ??0PxFoundation@physx@@QEAA@XZ 0000000180001480 f i Adjacencies.obj
 0001:00000490       ??1Adjacencies@physx@@QEAA@XZ 0000000180001490 f   Adjacencies.obj
 0001:00000500       ??1AdjacenciesBuilder@physx@@QEAA@XZ 0000000180001500 f   Adjacencies.obj
 0001:00000510       ??1PxFoundation@physx@@MEAA@XZ 0000000180001510 f i Adjacencies.obj
 0001:00000520       ??_EPxFoundation@physx@@MEAAPEAXI@Z 0000000180001520 f i Adjacencies.obj
 0001:000005b0       ??1AABBTreeBuildNode@Gu@physx@@QEAA@XZ 00000001800015b0 f i BVHStructureBuilder.obj
 0001:000005b0       ??1BigConvexDataBuilder@physx@@QEAA@XZ 00000001800015b0 f i BigConvexDataBuilder.obj
 0001:000005b0       ??1Box@Gu@physx@@QEAA@XZ   00000001800015b0 f i ConvexHullUtils.obj
 0001:000005b0       ??1HeightFieldData@Gu@physx@@QEAA@XZ 00000001800015b0 f i Cooking.obj
 0001:000005b0       ??_FAllocator@shdfnd@physx@@QEAAXXZ 00000001800015b0 f i Adjacencies.obj
 0001:000005b0       ?onMeshIndexFormatChange@TriangleMeshBuilder@physx@@UEAAXXZ 00000001800015b0 f i TriangleMeshBuilder.obj
 0001:000005b0       _guard_check_icall_nop     00000001800015b0 f i LIBCMT:guard_support.obj
 0001:000006c0       ?ComputeNbBoundaryEdges@Adjacencies@physx@@QEBAIXZ 00000001800016c0 f   Adjacencies.obj
 0001:000009b0       ?GetNbHits@RadixSort@Cm@physx@@QEBAIXZ 00000001800019b0 f i Adjacencies.obj
 0001:000009c0       ?GetNbTotalCalls@RadixSort@Cm@physx@@QEBAIXZ 00000001800019c0 f i Adjacencies.obj
 0001:000009d0       ?GetRanks@RadixSort@Cm@physx@@QEBAPEBIXZ 00000001800019d0 f i Adjacencies.obj
 0001:000009d0       ?getErrorCallback@Foundation@shdfnd@physx@@UEAAAEAVPxErrorCallback@3@XZ 00000001800019d0 f i Adjacencies.obj
 0001:000009e0       ?GetRecyclable@RadixSort@Cm@physx@@QEBAPEAIXZ 00000001800019e0 f i Adjacencies.obj
 0001:000009e0       ?GetValencies@BigConvexData@physx@@QEBAPEBUValency@Gu@2@XZ 00000001800019e0 f i BigConvexDataBuilder.obj
 0001:000009e0       ?getPos@AABBTreeBuildNode@Gu@physx@@QEBAPEBV123@XZ 00000001800019e0 f i BVHStructureBuilder.obj
 0001:000009f0       ?Init@AdjacenciesBuilder@physx@@QEAA_NAEBUADJACENCIESCREATE@2@@Z 00000001800019f0 f   Adjacencies.obj
 0001:00000f40       ?getAllocator@Foundation@shdfnd@physx@@QEAAAEAVPxAllocatorCallback@3@XZ 0000000180001f40 f i Adjacencies.obj
 0001:00000f50       ?getAllocatorCallback@Foundation@shdfnd@physx@@UEAAAEAVPxAllocatorCallback@3@XZ 0000000180001f50 f i Adjacencies.obj
 0001:00000f60       ?getErrorLevel@Foundation@shdfnd@physx@@UEBA?AW4Enum@PxErrorCode@3@XZ 0000000180001f60 f i Adjacencies.obj
 0001:00000f70       ?getInternalErrorCallback@Foundation@shdfnd@physx@@QEAAAEAVPxErrorCallback@3@XZ 0000000180001f70 f i Adjacencies.obj
 0001:00000f80       ?getNamedAllocMap@Foundation@shdfnd@physx@@QEAAAEAV?$HashMap@PEBVNamedAllocator@shdfnd@physx@@PEBDU?$Hash@PEBVNamedAllocator@shdfnd@physx@@@23@VNonTrackingAllocator@23@@23@XZ 0000000180001f80 f i Adjacencies.obj
 0001:00000f90       ?getNamedAllocMutex@Foundation@shdfnd@physx@@QEAAAEAV?$MutexT@VAllocator@shdfnd@physx@@@23@XZ 0000000180001f90 f i Adjacencies.obj
 0001:00000fa0       ?getReportAllocationNames@Foundation@shdfnd@physx@@UEBA_NXZ 0000000180001fa0 f i Adjacencies.obj
 0001:00000fb0       ?getTempAllocFreeTable@Foundation@shdfnd@physx@@QEAAAEAV?$Array@PEATTempAllocatorChunk@shdfnd@physx@@VAllocator@23@@23@XZ 0000000180001fb0 f i Adjacencies.obj
 0001:00000fc0       ?getTempAllocMutex@Foundation@shdfnd@physx@@QEAAAEAV?$MutexT@VAllocator@shdfnd@physx@@@23@XZ 0000000180001fc0 f i Adjacencies.obj
 0001:00000fd0       ?invalidateRanks@RadixSort@Cm@physx@@QEAAXXZ 0000000180001fd0 f i Adjacencies.obj
 0001:00000fe0       ?setErrorLevel@Foundation@shdfnd@physx@@UEAAXW4Enum@PxErrorCode@3@@Z 0000000180001fe0 f i Adjacencies.obj
 0001:00000ff0       ?setReportAllocationNames@Foundation@shdfnd@physx@@UEAAX_N@Z 0000000180001ff0 f i Adjacencies.obj
 0001:00001000       ??0DebugText@Cm@physx@@QEAA@$$QEAU012@@Z 0000000180002000 f i Cooking.obj
 0001:00001000       ??0DebugText@Cm@physx@@QEAA@AEBU012@@Z 0000000180002000 f i Cooking.obj
 0001:000010e0       ??0HeightFieldData@Gu@physx@@QEAA@$$QEAU012@@Z 00000001800020e0 f i Cooking.obj
 0001:000010e0       ??0HeightFieldData@Gu@physx@@QEAA@AEBU012@@Z 00000001800020e0 f i Cooking.obj
 0001:000010e0       ??4HeightFieldData@Gu@physx@@QEAAAEAU012@$$QEAU012@@Z 00000001800020e0 f i Cooking.obj
 0001:000010e0       ??4HeightFieldData@Gu@physx@@QEAAAEAU012@AEBU012@@Z 00000001800020e0 f i Cooking.obj
 0001:00001140       ??0HeightFieldData@Gu@physx@@QEAA@XZ 0000000180002140 f i Cooking.obj
 0001:00001150       ??0RenderOutput@Cm@physx@@QEAA@AEAVRenderBuffer@12@@Z 0000000180002150 f i Cooking.obj
 0001:000011a0       ??0RenderOutput@Cm@physx@@QEAA@AEBV012@@Z 00000001800021a0 f i Cooking.obj
 0001:00001240       ??1PxConvexMesh@physx@@MEAA@XZ 0000000180002240 f i Cooking.obj
 0001:00001240       ??1PxHeightField@physx@@MEAA@XZ 0000000180002240 f i Cooking.obj
 0001:00001250       ??4DebugText@Cm@physx@@QEAAAEAU012@$$QEAU012@@Z 0000000180002250 f i Cooking.obj
 0001:00001250       ??4DebugText@Cm@physx@@QEAAAEAU012@AEBU012@@Z 0000000180002250 f i Cooking.obj
 0001:00001380       ??4FPUGuard@shdfnd@physx@@QEAAAEAV012@AEBV012@@Z 0000000180002380 f i Cooking.obj
 0001:000013a0       ??_ECooking@physx@@UEAAPEAXI@Z 00000001800023a0 f i Cooking.obj
 0001:000013a0       ??_GCooking@physx@@UEAAPEAXI@Z 00000001800023a0 f i Cooking.obj
 0001:000013f0       ??_EPxBase@physx@@MEAAPEAXI@Z 00000001800023f0 f i Cooking.obj
 0001:000013f0       ??_GPxBase@physx@@MEAAPEAXI@Z 00000001800023f0 f i Cooking.obj
 0001:00001420       ??_EPxCooking@physx@@MEAAPEAXI@Z 0000000180002420 f i Cooking.obj
 0001:00001420       ??_GPxCooking@physx@@MEAAPEAXI@Z 0000000180002420 f i Cooking.obj
 0001:00001450       ?allocate@?$Array@UPxDebugLine@physx@@V?$ReflectionAllocator@UPxDebugLine@physx@@@shdfnd@2@@shdfnd@physx@@IEAAPEAUPxDebugLine@3@I@Z 0000000180002450 f i Cooking.obj
 0001:000014f0       ?computeHullPolygons@Cooking@physx@@UEBA_NAEBVPxSimpleTriangleMesh@2@AEAVPxAllocatorCallback@2@AEAIAEAPEAVPxVec3@2@2AEAPEAI2AEAPEAUPxHullPolygon@2@@Z 00000001800024f0 f   Cooking.obj
 0001:000016e0       ?cookBVHStructure@Cooking@physx@@UEBA_NAEBVPxBVHStructureDesc@2@AEAVPxOutputStream@2@@Z 00000001800026e0 f   Cooking.obj
 0001:00001790       ?cookConvexMesh@Cooking@physx@@UEBA_NAEBVPxConvexMeshDesc@2@AEAVPxOutputStream@2@PEAW4Enum@PxConvexMeshCookingResult@2@@Z 0000000180002790 f   Cooking.obj
 0001:00001980       ?cookConvexMeshInternal@Cooking@physx@@AEBA_NAEBVPxConvexMeshDesc@2@AEAVConvexMeshBuilder@2@PEAVConvexHullLib@2@PEAW4Enum@PxConvexMeshCookingResult@2@@Z 0000000180002980 f   Cooking.obj
 0001:00001c40       ?cookHeightField@Cooking@physx@@UEBA_NAEBVPxHeightFieldDesc@2@AEAVPxOutputStream@2@@Z 0000000180002c40 f   Cooking.obj
 0001:00001d10       ?cookTriangleMesh@Cooking@physx@@UEBA_NAEBVPxTriangleMeshDesc@2@AEAVPxOutputStream@2@PEAW4Enum@PxTriangleMeshCookingResult@2@@Z 0000000180002d10 f   Cooking.obj
 0001:00001e50       ?copy@?$Array@UPxDebugLine@physx@@V?$ReflectionAllocator@UPxDebugLine@physx@@@shdfnd@2@@shdfnd@physx@@KAXPEAUPxDebugLine@3@0PEBU43@@Z 0000000180002e50 f i Cooking.obj
 0001:00002000       ?createBVHStructure@Cooking@physx@@UEBAPEAVPxBVHStructure@2@AEBVPxBVHStructureDesc@2@AEAVPxPhysicsInsertionCallback@2@@Z 0000000180003000 f   Cooking.obj
 0001:000020b0       ?createConvexMesh@Cooking@physx@@UEBAPEAVPxConvexMesh@2@AEBVPxConvexMeshDesc@2@AEAVPxPhysicsInsertionCallback@2@PEAW4Enum@PxConvexMeshCookingResult@2@@Z 00000001800030b0 f   Cooking.obj
 0001:000022b0       ?createHeightField@Cooking@physx@@UEBAPEAVPxHeightField@2@AEBVPxHeightFieldDesc@2@AEAVPxPhysicsInsertionCallback@2@@Z 00000001800032b0 f   Cooking.obj
 0001:00002410       ?createTriangleMesh@Cooking@physx@@UEBAPEAVPxTriangleMesh@2@AEBVPxTriangleMeshDesc@2@AEAVPxPhysicsInsertionCallback@2@PEAW4Enum@PxTriangleMeshCookingResult@2@@Z 0000000180003410 f   Cooking.obj
 0001:00002570       ?getConcreteTypeName@PxConvexMesh@physx@@UEBAPEBDXZ 0000000180003570 f i Cooking.obj
 0001:00002580       ?getConcreteTypeName@PxHeightField@physx@@UEBAPEBDXZ 0000000180003580 f i Cooking.obj
 0001:00002590       ?getConvexEdgeThreshold@HeightField@Gu@physx@@UEBAMXZ 0000000180003590 f i Cooking.obj
 0001:000025a0       ?getFlags@HeightField@Gu@physx@@UEBA?AV?$PxFlags@W4Enum@PxHeightFieldFlag@physx@@G@3@XZ 00000001800035a0 f i Cooking.obj
 0001:000025b0       ?getFormat@HeightField@Gu@physx@@UEBA?AW4Enum@PxHeightFieldFormat@3@XZ 00000001800035b0 f i Cooking.obj
 0001:000025c0       ?getHeight@HeightField@Gu@physx@@UEBAMMM@Z 00000001800035c0 f i Cooking.obj
 0001:00002600       ?getHeightInternal2@HeightField@Gu@physx@@QEBAMIMM@Z 0000000180003600 f i Cooking.obj
 0001:00002770       ?getIndexBuffer@ConvexMesh@Gu@physx@@UEBAPEBEXZ 0000000180003770 f i Cooking.obj
 0001:000027b0       ?getNbColumns@HeightField@Gu@physx@@UEBAIXZ 00000001800037b0 f i Cooking.obj
 0001:000027c0       ?getNbPolygons@ConvexMesh@Gu@physx@@UEBAIXZ 00000001800037c0 f i Cooking.obj
 0001:000027d0       ?getNbRows@HeightField@Gu@physx@@UEBAIXZ 00000001800037d0 f i Cooking.obj
 0001:000027e0       ?getNbVertices@ConvexMesh@Gu@physx@@UEBAIXZ 00000001800037e0 f i Cooking.obj
 0001:000027f0       ?getDenormalizeScale@QuantizerImpl@@UEBAAEBVPxVec3@physx@@XZ 00000001800037f0 f   Quantizer.obj
 0001:000027f0       ?getParams@Cooking@physx@@UEBAAEBUPxCookingParams@2@XZ 00000001800037f0 f   Cooking.obj
 0001:00002800       ?getSample@HeightField@Gu@physx@@UEBAAEBUPxHeightFieldSample@3@II@Z 0000000180003800 f i Cooking.obj
 0001:00002810       ?getSampleStride@HeightField@Gu@physx@@UEBAIXZ 0000000180003810 f i Cooking.obj
 0001:00002820       ?getTimestamp@HeightField@Gu@physx@@UEBAIXZ 0000000180003820 f i Cooking.obj
 0001:00002830       ?getTriangleMaterialIndex@HeightField@Gu@physx@@UEBAGI@Z 0000000180003830 f i Cooking.obj
 0001:00002860       ?getTriangleNormal@HeightField@Gu@physx@@UEBA?AVPxVec3@3@I@Z 0000000180003860 f i Cooking.obj
 0001:00002880       ?getTriangleNormalInternal@HeightField@Gu@physx@@QEBA?AVPxVec3@3@I@Z 0000000180003880 f i Cooking.obj
 0001:000029d0       ?getVertices@ConvexMesh@Gu@physx@@UEBAPEBVPxVec3@3@XZ 00000001800039d0 f i Cooking.obj
 0001:000029f0       ?isKindOf@PxBase@physx@@MEBA_NPEBD@Z 00000001800039f0 f i Cooking.obj
 0001:00002a20       ?isKindOf@PxConvexMesh@physx@@MEBA_NPEBD@Z 0000000180003a20 f i Cooking.obj
 0001:00002a70       ?isKindOf@PxHeightField@physx@@MEBA_NPEBD@Z 0000000180003a70 f i Cooking.obj
 0001:00002ac0       ?isReleasable@PxBase@physx@@UEBA_NXZ 0000000180003ac0 f i Cooking.obj
 0001:00002ad0       ?outputSegment@RenderOutput@Cm@physx@@QEAAXAEBVPxVec3@3@0@Z 0000000180003ad0 f i Cooking.obj
 0001:00002b90       ?platformMismatch@Cooking@physx@@UEBA_NXZ 0000000180003b90 f   Cooking.obj
 0001:00002ba0       ?preExportDataReset@ConvexMesh@Gu@physx@@QEAAXXZ 0000000180003ba0 f i Cooking.obj
 0001:00002ba0       ?preExportDataReset@HeightField@Gu@physx@@QEAAXXZ 0000000180003ba0 f i Cooking.obj
 0001:00002bb0       ?recreate@?$Array@UPxDebugLine@physx@@V?$ReflectionAllocator@UPxDebugLine@physx@@@shdfnd@2@@shdfnd@physx@@IEAAXI@Z 0000000180003bb0 f i Cooking.obj
 0001:00002c30       ?release@Cooking@physx@@UEAAXXZ 0000000180003c30 f   Cooking.obj
 0001:00002c50       ?reserveSegments@RenderOutput@Cm@physx@@QEAAPEAUPxDebugLine@3@I@Z 0000000180003c50 f i Cooking.obj
 0001:00002cb0       ?setParams@Cooking@physx@@UEAAXAEBUPxCookingParams@2@@Z 0000000180003cb0 f   Cooking.obj
 0001:00002d10       ?validateConvexMesh@Cooking@physx@@UEBA_NAEBVPxConvexMeshDesc@2@@Z 0000000180003d10 f   Cooking.obj
 0001:00002d70       ?validateTriangleMesh@Cooking@physx@@UEBA_NAEBVPxTriangleMeshDesc@2@@Z 0000000180003d70 f   Cooking.obj
 0001:00002e80       PxCreateCooking            0000000180003e80 f   Cooking.obj
 0001:00002f70       ??0ReducedVertexCloud@physx@@QEAA@PEBVPxVec3@1@I@Z 0000000180003f70 f   CookingUtils.obj
 0001:00002f90       ??1ReducedVertexCloud@physx@@QEAA@XZ 0000000180003f90 f   CookingUtils.obj
 0001:00002fa0       ?Clean@ReducedVertexCloud@physx@@QEAAAEAV12@XZ 0000000180003fa0 f   CookingUtils.obj
 0001:00003010       ?Reduce@ReducedVertexCloud@physx@@QEAA_NPEAUREDUCEDCLOUD@2@@Z 0000000180004010 f   CookingUtils.obj
 0001:00003350       ??$?_UI@@YAPEAX_KV?$ReflectionAllocator@I@shdfnd@physx@@PEBDH@Z 0000000180004350 f i EdgeList.obj
 0001:000033f0       ??0EdgeListBuilder@Gu@physx@@QEAA@XZ 00000001800043f0 f   EdgeList.obj
 0001:00003410       ??1EdgeList@Gu@physx@@QEAA@XZ 0000000180004410 f   EdgeList.obj
 0001:000034c0       ??1EdgeListBuilder@Gu@physx@@QEAA@XZ 00000001800044c0 f   EdgeList.obj
 0001:000034d0       ?computeActiveEdges@EdgeListBuilder@Gu@physx@@AEAA_NIPEBIPEBGPEBVPxVec3@3@M@Z 00000001800044d0 f   EdgeList.obj
 0001:00004b20       ?createEdgesToFaces@EdgeListBuilder@Gu@physx@@AEAA_NIPEBIPEBG@Z 0000000180005b20 f   EdgeList.obj
 0001:00004d80       ?createFacesToEdges@EdgeListBuilder@Gu@physx@@AEAA_NIPEBIPEBG@Z 0000000180005d80 f   EdgeList.obj
 0001:00005250       ?init@EdgeListBuilder@Gu@physx@@QEAA_NAEBUEDGELISTCREATE@23@@Z 0000000180006250 f   EdgeList.obj
 0001:00005380       ??0MeshCleaner@physx@@QEAA@IPEBVPxVec3@1@IPEBIM@Z 0000000180006380 f   MeshCleaner.obj
 0001:00005d50       ??1MeshCleaner@physx@@QEAA@XZ 0000000180006d50 f   MeshCleaner.obj
 0001:00005de0       ??$kmeans_cluster@VPxVec3@physx@@M@@YAIPEBVPxVec3@physx@@IIPEAV01@PEAIMM@Z 0000000180006de0 f i Quantizer.obj
 0001:000067a0       ??_EQuantizer@physx@@MEAAPEAXI@Z 00000001800077a0 f i Quantizer.obj
 0001:000067a0       ??_GQuantizer@physx@@MEAAPEAXI@Z 00000001800077a0 f i Quantizer.obj
 0001:000067d0       ??_EQuantizerImpl@@EEAAPEAXI@Z 00000001800077d0 f i Quantizer.obj
 0001:000067d0       ??_GQuantizerImpl@@EEAAPEAXI@Z 00000001800077d0 f i Quantizer.obj
 0001:000068a0       ?createQuantizer@physx@@YAPEAVQuantizer@1@XZ 00000001800078a0 f   Quantizer.obj
 0001:00006950       ?getDenormalizeCenter@QuantizerImpl@@UEBAAEBVPxVec3@physx@@XZ 0000000180007950 f i Quantizer.obj
 0001:00006960       ?growAndPushBack@?$Array@VPxVec3@physx@@V?$ReflectionAllocator@VPxVec3@physx@@@shdfnd@2@@shdfnd@physx@@IEAAAEAVPxVec3@3@AEBV43@@Z 0000000180007960 f i Quantizer.obj
 0001:00006b40       ?kmeansQuantize3D@QuantizerImpl@@UEAAPEBVPxVec3@physx@@IPEBV23@I_NIAEAI@Z 0000000180007b40 f i Quantizer.obj
 0001:00006da0       ?normalizeInput@QuantizerImpl@@AEAAXIPEBVPxVec3@physx@@I@Z 0000000180007da0 f i Quantizer.obj
 0001:00007200       ?release@QuantizerImpl@@UEAAXXZ 0000000180008200 f i Quantizer.obj
 0001:00007220       ??$copy@V?$ReflectionAllocator@USlab@NodeAllocator@Gu@physx@@@shdfnd@physx@@@?$Array@USlab@NodeAllocator@Gu@physx@@V?$ReflectionAllocator@USlab@NodeAllocator@Gu@physx@@@shdfnd@4@@shdfnd@physx@@IEAAXAEBV012@@Z 0000000180008220 f i BVHStructureBuilder.obj
 0001:000072a0       ??0AABBTreeBuildNode@Gu@physx@@QEAA@AEBV012@@Z 00000001800082a0 f i BVHStructureBuilder.obj
 0001:000072a0       ??4AABBTreeBuildNode@Gu@physx@@QEAAAEAV012@AEBV012@@Z 00000001800082a0 f i BVHStructureBuilder.obj
 0001:000072e0       ??0AABBTreeBuildParams@Gu@physx@@QEAA@IIPEBVPxBounds3@2@@Z 00000001800082e0 f i BVHStructureBuilder.obj
 0001:00007300       ??0BVHStructureBuilder@physx@@QEAA@XZ 0000000180008300 f   BVHStructureBuilder.obj
 0001:00007320       ??0BuildStats@Gu@physx@@QEAA@XZ 0000000180008320 f i BVHStructureBuilder.obj
 0001:00007330       ??0NodeAllocator@Gu@physx@@QEAA@AEBV012@@Z 0000000180008330 f i BVHStructureBuilder.obj
 0001:00007370       ??1AABBTreeBuildParams@Gu@physx@@QEAA@XZ 0000000180008370 f i BVHStructureBuilder.obj
 0001:00007370       ?reset@AABBTreeBuildParams@Gu@physx@@QEAAXXZ 0000000180008370 f i BVHStructureBuilder.obj
 0001:000073d0       ??1BVHStructureBuilder@physx@@QEAA@XZ 00000001800083d0 f   BVHStructureBuilder.obj
 0001:00007460       ??4AABBTreeBuildParams@Gu@physx@@QEAAAEAV012@AEBV012@@Z 0000000180008460 f i BVHStructureBuilder.obj
 0001:00007480       ??4BuildStats@Gu@physx@@QEAAAEAU012@$$QEAU012@@Z 0000000180008480 f i BVHStructureBuilder.obj
 0001:00007490       ??4BuildStats@Gu@physx@@QEAAAEAU012@AEBU012@@Z 0000000180008490 f i BVHStructureBuilder.obj
 0001:000074a0       ??4NodeAllocator@Gu@physx@@QEAAAEAV012@AEBV012@@Z 00000001800084a0 f i BVHStructureBuilder.obj
 0001:00007550       ??_FAABBTreeBuildParams@Gu@physx@@QEAAXXZ 0000000180008550 f i BVHStructureBuilder.obj
 0001:00007570       ??_V@YAXPEAX_K@Z           0000000180008570 f i LIBCMT:delete_array_size.obj
 0001:00007570       ?__global_delete@@YAXPEAX_K@Z 0000000180008570 f i BVHStructureBuilder.obj
 0001:00007580       ?allocate@?$Array@USlab@NodeAllocator@Gu@physx@@V?$ReflectionAllocator@USlab@NodeAllocator@Gu@physx@@@shdfnd@4@@shdfnd@physx@@IEAAPEAUSlab@NodeAllocator@Gu@3@I@Z 0000000180008580 f i BVHStructureBuilder.obj
 0001:00007620       ?flatten@@YAXAEBVNodeAllocator@Gu@physx@@PEAUBVHNode@23@@Z 0000000180008620 f   BVHStructureBuilder.obj
 0001:000077f0       ?getCount@BuildStats@Gu@physx@@QEBAIXZ 00000001800087f0 f i BVHStructureBuilder.obj
 0001:00007800       ?getNbPrimitives@AABBTreeBuildNode@Gu@physx@@QEBAIXZ 0000000180008800 f i BVHStructureBuilder.obj
 0001:00007800       ?getNbRuntimePrimitives@AABBTreeBuildNode@Gu@physx@@QEBAIXZ 0000000180008800 f i BVHStructureBuilder.obj
 0001:00007810       ?getNeg@AABBTreeBuildNode@Gu@physx@@QEBAPEBV123@XZ 0000000180008810 f i BVHStructureBuilder.obj
 0001:00007830       ?getPrimitives@AABBTreeBuildNode@Gu@physx@@QEAAPEAIPEAI@Z 0000000180008830 f i BVHStructureBuilder.obj
 0001:00007830       ?getPrimitives@AABBTreeBuildNode@Gu@physx@@QEBAPEBIPEBI@Z 0000000180008830 f i BVHStructureBuilder.obj
 0001:00007840       ?increaseCount@BuildStats@Gu@physx@@QEAAXI@Z 0000000180008840 f i BVHStructureBuilder.obj
 0001:00007850       ?isLeaf@AABBTreeBuildNode@Gu@physx@@QEBA_NXZ 0000000180008850 f i BVHStructureBuilder.obj
 0001:00007860       ?loadFromDesc@BVHStructureBuilder@physx@@QEAA_NAEBVPxBVHStructureDesc@2@@Z 0000000180008860 f   BVHStructureBuilder.obj
 0001:00007b70       ?moveData@BVHStructureBuilder@physx@@QEAAXAEAUBVHStructureData@Gu@2@@Z 0000000180008b70 f   BVHStructureBuilder.obj
 0001:00007bb0       ?recreate@?$Array@USlab@NodeAllocator@Gu@physx@@V?$ReflectionAllocator@USlab@NodeAllocator@Gu@physx@@@shdfnd@4@@shdfnd@physx@@IEAAXI@Z 0000000180008bb0 f i BVHStructureBuilder.obj
 0001:00007c60       ?reset@BuildStats@Gu@physx@@QEAAXXZ 0000000180008c60 f i BVHStructureBuilder.obj
 0001:00007c70       ?save@BVHStructureBuilder@physx@@QEBA_NAEAVPxOutputStream@2@_N@Z 0000000180008c70 f   BVHStructureBuilder.obj
 0001:00007df0       ?setCount@BuildStats@Gu@physx@@QEAAXI@Z 0000000180008df0 f i BVHStructureBuilder.obj
 0001:00007e00       ?setNbRunTimePrimitives@AABBTreeBuildNode@Gu@physx@@QEAAXI@Z 0000000180008e00 f i BVHStructureBuilder.obj
 0001:00007e10       ?saveHeightField@physx@@YA_NAEBVHeightField@Gu@1@AEAVPxOutputStream@1@_N@Z 0000000180008e10 f   HeightFieldCooking.obj
 0001:00008050       ??$quickSelectFirstK@UBoundsLTE@physx@@@quickSelect@physx@@YAXPEIAIIIIAEBUBoundsLTE@1@@Z 0000000180009050 f i RTreeCooking.obj
 0001:00008230       ??$smallSort@I$$CBUSortBoundsPredicate@physx@@@internal@shdfnd@physx@@YAXPEAIHHAEBUSortBoundsPredicate@2@@Z 0000000180009230 f i RTreeCooking.obj
 0001:000084a0       ??$sort@IU?$Less@I@shdfnd@physx@@V?$ReflectionAllocator@I@23@@shdfnd@physx@@YAXPEAIIAEBU?$Less@I@01@AEBV?$ReflectionAllocator@I@01@I@Z 00000001800094a0 f i RTreeCooking.obj
 0001:00008870       ??$sort@IUSortBoundsPredicate@physx@@V?$ReflectionAllocator@I@shdfnd@2@@shdfnd@physx@@YAXPEAIIAEBUSortBoundsPredicate@1@AEBV?$ReflectionAllocator@I@01@I@Z 0000000180009870 f i RTreeCooking.obj
 0001:00008ca0       ?allocate@?$Array@UInterval@physx@@V?$InlineAllocator@$0CAAA@V?$ReflectionAllocator@UInterval@physx@@@shdfnd@physx@@@shdfnd@2@@shdfnd@physx@@IEAAPEAUInterval@3@I@Z 0000000180009ca0 f i RTreeCooking.obj
 0001:00008d60       ?allocate@?$Array@UPxBounds3V@physx@@V?$ReflectionAllocator@UPxBounds3V@physx@@@shdfnd@2@@shdfnd@physx@@IEAAPEAUPxBounds3V@3@I@Z 0000000180009d60 f i RTreeCooking.obj
 0001:00008e00       ?allocate@?$Array@URTreeNodeNQ@physx@@V?$ReflectionAllocator@URTreeNodeNQ@physx@@@shdfnd@2@@shdfnd@physx@@IEAAPEAURTreeNodeNQ@3@I@Z 0000000180009e00 f i RTreeCooking.obj
 0001:00008ea0       ?allocate@?$Array@URTreeNodeQ@Gu@physx@@V?$ReflectionAllocator@URTreeNodeQ@Gu@physx@@@shdfnd@3@@shdfnd@physx@@IEAAPEAURTreeNodeQ@Gu@3@I@Z 0000000180009ea0 f i RTreeCooking.obj
 0001:00008f40       ?allocate@?$Array@VPxVec3@physx@@V?$ReflectionAllocator@VPxVec3@physx@@@shdfnd@2@@shdfnd@physx@@IEAAPEAVPxVec3@3@I@Z 0000000180009f40 f i RTreeCooking.obj
 0001:00008ff0       ?allocate@?$ReflectionAllocator@I@shdfnd@physx@@QEAAPEAX_KPEBDH@Z 0000000180009ff0 f i RTreeCooking.obj
 0001:00009d20       ?buildFromTriangles@RTreeCooker@physx@@SAXAEAURTree@Gu@2@PEBVPxVec3@2@IPEBGPEBIIAEAV?$Array@IV?$ReflectionAllocator@I@shdfnd@physx@@@shdfnd@2@PEAURemapCallback@12@MW4Enum@PxMeshCookingHint@2@@Z 000000018000ad20 f   RTreeCooking.obj
 0001:00009fe0       ?copy@?$Array@URTreeNodeNQ@physx@@V?$ReflectionAllocator@URTreeNodeNQ@physx@@@shdfnd@2@@shdfnd@physx@@KAXPEAURTreeNodeNQ@3@0PEBU43@@Z 000000018000afe0 f i RTreeCooking.obj
 0001:0000a1a0       ?copy@?$Array@VPxVec3@physx@@V?$ReflectionAllocator@VPxVec3@physx@@@shdfnd@2@@shdfnd@physx@@KAXPEAVPxVec3@3@0PEBV43@@Z 000000018000b1a0 f i RTreeCooking.obj
 0001:0000a270       ?growAndPushBack@?$Array@IV?$ReflectionAllocator@I@shdfnd@physx@@@shdfnd@physx@@IEAAAEAIAEBI@Z 000000018000b270 f i RTreeCooking.obj
 0001:0000a340       ?growAndPushBack@?$Array@UInterval@physx@@V?$InlineAllocator@$0CAAA@V?$ReflectionAllocator@UInterval@physx@@@shdfnd@physx@@@shdfnd@2@@shdfnd@physx@@IEAAAEAUInterval@3@AEBU43@@Z 000000018000b340 f i RTreeCooking.obj
 0001:0000a420       ?growAndPushBack@?$Array@UPxBounds3V@physx@@V?$ReflectionAllocator@UPxBounds3V@physx@@@shdfnd@2@@shdfnd@physx@@IEAAAEAUPxBounds3V@3@AEBU43@@Z 000000018000b420 f i RTreeCooking.obj
 0001:0000a500       ?growAndPushBack@?$Array@URTreeNodeNQ@physx@@V?$ReflectionAllocator@URTreeNodeNQ@physx@@@shdfnd@2@@shdfnd@physx@@IEAAAEAURTreeNodeNQ@3@AEBU43@@Z 000000018000b500 f i RTreeCooking.obj
 0001:0000a5e0       ?growAndPushBack@?$Array@URTreeNodeQ@Gu@physx@@V?$ReflectionAllocator@URTreeNodeQ@Gu@physx@@@shdfnd@3@@shdfnd@physx@@IEAAAEAURTreeNodeQ@Gu@3@AEBU453@@Z 000000018000b5e0 f i RTreeCooking.obj
 0001:0000a6d0       ?recreate@?$Array@IV?$ReflectionAllocator@I@shdfnd@physx@@@shdfnd@physx@@IEAAXI@Z 000000018000b6d0 f i RTreeCooking.obj
 0001:0000a790       ?recreate@?$Array@UPxBounds3V@physx@@V?$ReflectionAllocator@UPxBounds3V@physx@@@shdfnd@2@@shdfnd@physx@@IEAAXI@Z 000000018000b790 f i RTreeCooking.obj
 0001:0000a840       ?recreate@?$Array@URTreeNodeNQ@physx@@V?$ReflectionAllocator@URTreeNodeNQ@physx@@@shdfnd@2@@shdfnd@physx@@IEAAXI@Z 000000018000b840 f i RTreeCooking.obj
 0001:0000a8c0       ?recreate@?$Array@URTreeNodeQ@Gu@physx@@V?$ReflectionAllocator@URTreeNodeQ@Gu@physx@@@shdfnd@3@@shdfnd@physx@@IEAAXI@Z 000000018000b8c0 f i RTreeCooking.obj
 0001:0000a980       ?recreate@?$Array@VPxVec3@physx@@V?$ReflectionAllocator@VPxVec3@physx@@@shdfnd@2@@shdfnd@physx@@IEAAXI@Z 000000018000b980 f i RTreeCooking.obj
 0001:0000aa00       ?resize@?$Array@IV?$ReflectionAllocator@I@shdfnd@physx@@@shdfnd@physx@@QEAAXIAEBI@Z 000000018000ba00 f i RTreeCooking.obj
 0001:0000aac0       ?resizeUninitialized@?$Array@URTreeNodeNQ@physx@@V?$ReflectionAllocator@URTreeNodeNQ@physx@@@shdfnd@2@@shdfnd@physx@@QEAAXI@Z 000000018000bac0 f i RTreeCooking.obj
 0001:0000ab00       ?sort4@SubSortQuick@physx@@QEAAXPEIAIIAEAV?$Array@URTreeNodeNQ@physx@@V?$ReflectionAllocator@URTreeNodeNQ@physx@@@shdfnd@2@@shdfnd@2@AEAIAEAUPxBounds3V@2@I@Z 000000018000bb00 f i RTreeCooking.obj
 0001:0000ae90       ?sort4@SubSortSAH@physx@@QEAAXPEAIIAEAV?$Array@URTreeNodeNQ@physx@@V?$ReflectionAllocator@URTreeNodeNQ@physx@@@shdfnd@2@@shdfnd@2@AEAIIPEAURTreeNodeNQ@2@@Z 000000018000be90 f i RTreeCooking.obj
 0001:0000b780       ?split@SubSortSAH@physx@@QEAAIPEAII@Z 000000018000c780 f i RTreeCooking.obj
 0001:0000c230       ?computeLocalBounds@MeshBulider@physx@@IEAAXAEAVMeshDataBase@Gu@2@@Z 000000018000d230 f   MeshBuilder.obj
 0001:0000c2c0       ??$?_UG@@YAPEAX_KV?$ReflectionAllocator@G@shdfnd@physx@@PEBDH@Z 000000018000d2c0 f i TriangleMeshBuilder.obj
 0001:0000c360       ??$median3@UEdgeTriLookup@physx@@$$CBU?$Less@UEdgeTriLookup@physx@@@shdfnd@2@@internal@shdfnd@physx@@YAXPEAUEdgeTriLookup@2@HHAEBU?$Less@UEdgeTriLookup@physx@@@12@@Z 000000018000d360 f i TriangleMeshBuilder.obj
 0001:0000c4b0       ??$sort@UEdgeTriLookup@physx@@U?$Less@UEdgeTriLookup@physx@@@shdfnd@2@V?$ReflectionAllocator@UEdgeTriLookup@physx@@@42@@shdfnd@physx@@YAXPEAUEdgeTriLookup@1@IAEBU?$Less@UEdgeTriLookup@physx@@@01@AEBV?$ReflectionAllocator@UEdgeTriLookup@physx@@@01@I@Z 000000018000d4b0 f i TriangleMeshBuilder.obj
 0001:0000c960       ??0BV4TriangleMeshBuilder@physx@@QEAA@AEBUPxCookingParams@1@@Z 000000018000d960 f   TriangleMeshBuilder.obj
 0001:0000ca30       ??0RTreeTriangleMeshBuilder@physx@@QEAA@AEBUPxCookingParams@1@@Z 000000018000da30 f   TriangleMeshBuilder.obj
 0001:0000caf0       ??1BV4TriangleMeshBuilder@physx@@UEAA@XZ 000000018000daf0 f   TriangleMeshBuilder.obj
 0001:0000cb50       ??1MeshDataBase@Gu@physx@@UEAA@XZ 000000018000db50 f i TriangleMeshBuilder.obj
 0001:0000cc40       ??1RTreeTriangleData@Gu@physx@@UEAA@XZ 000000018000dc40 f i TriangleMeshBuilder.obj
 0001:0000ccb0       ??1RTreeTriangleMeshBuilder@physx@@UEAA@XZ 000000018000dcb0 f   TriangleMeshBuilder.obj
 0001:0000cce0       ??1TriangleMeshBuilder@physx@@UEAA@XZ 000000018000dce0 f   TriangleMeshBuilder.obj
 0001:0000cd40       ??1TriangleMeshData@Gu@physx@@UEAA@XZ 000000018000dd40 f i TriangleMeshBuilder.obj
 0001:0000ce10       ??_EBV4TriangleData@Gu@physx@@UEAAPEAXI@Z 000000018000de10 f i TriangleMeshBuilder.obj
 0001:0000ce10       ??_GBV4TriangleData@Gu@physx@@UEAAPEAXI@Z 000000018000de10 f i TriangleMeshBuilder.obj
 0001:0000cea0       ??_EBV4TriangleMeshBuilder@physx@@UEAAPEAXI@Z 000000018000dea0 f i TriangleMeshBuilder.obj
 0001:0000cea0       ??_GBV4TriangleMeshBuilder@physx@@UEAAPEAXI@Z 000000018000dea0 f i TriangleMeshBuilder.obj
 0001:0000cf20       ??_EMeshDataBase@Gu@physx@@UEAAPEAXI@Z 000000018000df20 f i TriangleMeshBuilder.obj
 0001:0000cf20       ??_GMeshDataBase@Gu@physx@@UEAAPEAXI@Z 000000018000df20 f i TriangleMeshBuilder.obj
 0001:0000cf90       ??_ERTreeCookerRemap@physx@@UEAAPEAXI@Z 000000018000df90 f i TriangleMeshBuilder.obj
 0001:0000cf90       ??_GRTreeCookerRemap@physx@@UEAAPEAXI@Z 000000018000df90 f i TriangleMeshBuilder.obj
 0001:0000cfc0       ??_ERTreeTriangleData@Gu@physx@@UEAAPEAXI@Z 000000018000dfc0 f i TriangleMeshBuilder.obj
 0001:0000cfc0       ??_GRTreeTriangleData@Gu@physx@@UEAAPEAXI@Z 000000018000dfc0 f i TriangleMeshBuilder.obj
 0001:0000d030       ??_ERTreeTriangleMeshBuilder@physx@@UEAAPEAXI@Z 000000018000e030 f i TriangleMeshBuilder.obj
 0001:0000d030       ??_GRTreeTriangleMeshBuilder@physx@@UEAAPEAXI@Z 000000018000e030 f i TriangleMeshBuilder.obj
 0001:0000d080       ??_ERemapCallback@RTreeCooker@physx@@UEAAPEAXI@Z 000000018000e080 f i TriangleMeshBuilder.obj
 0001:0000d080       ??_GRemapCallback@RTreeCooker@physx@@UEAAPEAXI@Z 000000018000e080 f i TriangleMeshBuilder.obj
 0001:0000d0b0       ??_ETriangleMeshBuilder@physx@@UEAAPEAXI@Z 000000018000e0b0 f i TriangleMeshBuilder.obj
 0001:0000d0b0       ??_GTriangleMeshBuilder@physx@@UEAAPEAXI@Z 000000018000e0b0 f i TriangleMeshBuilder.obj
 0001:0000d0f0       ??_ETriangleMeshData@Gu@physx@@UEAAPEAXI@Z 000000018000e0f0 f i TriangleMeshBuilder.obj
 0001:0000d0f0       ??_GTriangleMeshData@Gu@physx@@UEAAPEAXI@Z 000000018000e0f0 f i TriangleMeshBuilder.obj
 0001:0000d160       ?allocateTriangles@TriangleMeshData@Gu@physx@@QEAAPEAXI_NI@Z 000000018000e160 f i TriangleMeshBuilder.obj
 0001:0000d240       ?allocateVertices@MeshDataBase@Gu@physx@@QEAAPEAVPxVec3@3@I@Z 000000018000e240 f i TriangleMeshBuilder.obj
 0001:0000d7a0       ?checkMeshIndicesSize@TriangleMeshBuilder@physx@@QEAAXXZ 000000018000e7a0 f   TriangleMeshBuilder.obj
 0001:0000dab0       ?cleanMesh@TriangleMeshBuilder@physx@@QEAA_N_NPEAW4Enum@PxTriangleMeshCookingResult@2@@Z 000000018000eab0 f   TriangleMeshBuilder.obj
 0001:0000df80       ?createGRBMidPhaseAndData@TriangleMeshBuilder@physx@@QEAAXI@Z 000000018000ef80 f   TriangleMeshBuilder.obj
 0001:0000e320       ?createMidPhaseStructure@BV4TriangleMeshBuilder@physx@@UEAAXXZ 000000018000f320 f   TriangleMeshBuilder.obj
 0001:0000e590       ?createMidPhaseStructure@RTreeTriangleMeshBuilder@physx@@UEAAXXZ 000000018000f590 f   TriangleMeshBuilder.obj
 0001:0000e670       ?createSharedEdgeData@TriangleMeshBuilder@physx@@QEAAX_N0@Z 000000018000f670 f   TriangleMeshBuilder.obj
 0001:0000ece0       ?getMidphaseID@BV4TriangleMeshBuilder@physx@@UEBA?AW4Enum@PxMeshMidPhase@2@XZ 000000018000fce0 f i TriangleMeshBuilder.obj
 0001:0000ece0       ?length@charNode@@UEBAHXZ  000000018000fce0 f i libvcruntime:undname.obj
 0001:0000ece0       ?raw_length@charNode@@UEBAHXZ 000000018000fce0 f i libvcruntime:undname.obj
 0001:0000ece0       DllMain                    000000018000fce0 f i LIBCMT:dll_dllmain_stub.obj
 0001:0000ece0       _get_startup_argv_mode     000000018000fce0 f i LIBCMT:argv_mode.obj
 0001:0000ecf0       ?getMidphaseID@RTreeTriangleMeshBuilder@physx@@UEBA?AW4Enum@PxMeshMidPhase@2@XZ 000000018000fcf0 f i TriangleMeshBuilder.obj
 0001:0000ed00       ?importMesh@TriangleMeshBuilder@physx@@IEAA_NAEBVPxTriangleMeshDesc@2@AEBUPxCookingParams@2@PEAW4Enum@PxTriangleMeshCookingResult@2@_N@Z 000000018000fd00 f   TriangleMeshBuilder.obj
 0001:0000efd0       ?loadFromDesc@TriangleMeshBuilder@physx@@QEAA_NAEBVPxTriangleMeshDesc@2@PEAW4Enum@PxTriangleMeshCookingResult@2@_N@Z 000000018000ffd0 f   TriangleMeshBuilder.obj
 0001:0000f3d0       ?onMeshIndexFormatChange@BV4TriangleMeshBuilder@physx@@UEAAXXZ 00000001800103d0 f   TriangleMeshBuilder.obj
 0001:0000f410       ?remap@RTreeCookerRemap@physx@@UEAAXPEAIII@Z 0000000180010410 f i TriangleMeshBuilder.obj
 0001:0000f430       ?remapTopology@TriangleMeshBuilder@physx@@QEAAXPEBI@Z 0000000180010430 f   TriangleMeshBuilder.obj
 0001:0000f680       ?save@TriangleMeshBuilder@physx@@QEBA_NAEAVPxOutputStream@2@_NAEBUPxCookingParams@2@@Z 0000000180010680 f   TriangleMeshBuilder.obj
 0001:0000fc50       ?saveMidPhaseStructure@BV4TriangleMeshBuilder@physx@@UEBAXAEAVPxOutputStream@2@_N@Z 0000000180010c50 f   TriangleMeshBuilder.obj
 0001:0000fdf0       ?saveMidPhaseStructure@RTreeTriangleMeshBuilder@physx@@UEBAXAEAVPxOutputStream@2@_N@Z 0000000180010df0 f   TriangleMeshBuilder.obj
 0001:00010030       ??0BigConvexDataBuilder@physx@@QEAA@PEBUConvexHullData@Gu@1@PEAVBigConvexData@1@PEBVPxVec3@1@@Z 0000000180011030 f   BigConvexDataBuilder.obj
 0001:00010040       ??4BigConvexData@physx@@QEAAAEAV01@AEBV01@@Z 0000000180011040 f i BigConvexDataBuilder.obj
 0001:00010060       ?GetAdjacentVerts@BigConvexData@physx@@QEBAPEBEXZ 0000000180011060 f i BigConvexDataBuilder.obj
 0001:00010070       ?GetNbNeighbors@BigConvexData@physx@@QEBAGI@Z 0000000180011070 f i BigConvexDataBuilder.obj
 0001:00010070       ?GetValency@BigConvexData@physx@@QEBAGI@Z 0000000180011070 f i BigConvexDataBuilder.obj
 0001:00010080       ?GetNbSamples@BigConvexData@physx@@QEBAIXZ 0000000180011080 f i BigConvexDataBuilder.obj
 0001:00010090       ?GetNbVerts@BigConvexData@physx@@QEBAIXZ 0000000180011090 f i BigConvexDataBuilder.obj
 0001:00010090       ?length@pcharNode@@UEBAHXZ 0000000180011090 f i libvcruntime:undname.obj
 0001:00010090       ?raw_length@pcharNode@@UEBAHXZ 0000000180011090 f i libvcruntime:undname.obj
 0001:000100a0       ?GetNeighbors@BigConvexData@physx@@QEBAPEBEI@Z 00000001800110a0 f i BigConvexDataBuilder.obj
 0001:000100b0       ?GetOffset@BigConvexData@physx@@QEBAGI@Z 00000001800110b0 f i BigConvexDataBuilder.obj
 0001:000100c0       ?GetSubdiv@BigConvexData@physx@@QEBAIXZ 00000001800110c0 f i BigConvexDataBuilder.obj
 0001:000100d0       ?computeValencies@BigConvexDataBuilder@physx@@QEAA_NAEBVConvexHullBuilder@2@@Z 00000001800110d0 f   BigConvexDataBuilder.obj
 0001:00010490       ?precompute@BigConvexDataBuilder@physx@@QEAA_NI@Z 0000000180011490 f   BigConvexDataBuilder.obj
 0001:000110c0       ?save@BigConvexDataBuilder@physx@@QEBA_NAEAVPxOutputStream@2@_N@Z 00000001800120c0 f   BigConvexDataBuilder.obj
 0001:000111a0       ?saveValencies@BigConvexDataBuilder@physx@@QEBA_NAEAVPxOutputStream@2@_N@Z 00000001800121a0 f   BigConvexDataBuilder.obj
 0001:00011350       ??$?_UE@@YAPEAX_KV?$ReflectionAllocator@E@shdfnd@physx@@PEBDH@Z 0000000180012350 f i ConvexHullBuilder.obj
 0001:000113f0       ??0ConvexHullBuilder@physx@@QEAA@PEAUConvexHullData@Gu@1@_N@Z 00000001800123f0 f   ConvexHullBuilder.obj
 0001:00011420       ??1ConvexHullBuilder@physx@@QEAA@XZ 0000000180012420 f   ConvexHullBuilder.obj
 0001:00011530       ?calculateVertexMapTable@ConvexHullBuilder@physx@@QEAA_NI_N@Z 0000000180012530 f   ConvexHullBuilder.obj
 0001:000116f0       ?checkHullPolygons@ConvexHullBuilder@physx@@QEBA_NXZ 00000001800126f0 f   ConvexHullBuilder.obj
 0001:00011f00       ?computeGeomCenter@ConvexHullBuilder@physx@@IEBA_NAEAVPxVec3@2@IPEAUHullTriangleData@2@@Z 0000000180012f00 f   ConvexHullBuilder.obj
 0001:000121c0       ?copy@ConvexHullBuilder@physx@@QEAA_NAEAUConvexHullData@Gu@2@AEAI@Z 00000001800131c0 f   ConvexHullBuilder.obj
 0001:00012440       ?createEdgeList@ConvexHullBuilder@physx@@QEAA_N_NI@Z 0000000180013440 f   ConvexHullBuilder.obj
 0001:00012c30       ?init@ConvexHullBuilder@physx@@QEAA_NIPEBVPxVec3@2@PEBIIIPEBUPxHullPolygon@2@_NPEAVConvexHullLib@2@@Z 0000000180013c30 f   ConvexHullBuilder.obj
 0001:000135d0       ?save@ConvexHullBuilder@physx@@QEBA_NAEAVPxOutputStream@2@_N@Z 00000001800145d0 f   ConvexHullBuilder.obj
 0001:00013910       ??1ConvexHullLib@physx@@UEAA@XZ 0000000180014910 f   ConvexHullLib.obj
 0001:00013970       ??_EConvexHullLib@physx@@UEAAPEAXI@Z 0000000180014970 f i ConvexHullLib.obj
 0001:00013970       ??_GConvexHullLib@physx@@UEAAPEAXI@Z 0000000180014970 f i ConvexHullLib.obj
 0001:00013eb0       ?cleanupVertices@ConvexHullLib@physx@@IEAA_NIPEBVPxVec3@2@IAEAIPEAV32@AEAV32@3@Z 0000000180014eb0 f   ConvexHullLib.obj
 0001:00014330       ?shiftAndcleanupVertices@ConvexHullLib@physx@@IEAA_NIPEBVPxVec3@2@IAEAIPEAV32@AEAV32@3@Z 0000000180015330 f   ConvexHullLib.obj
 0001:00014810       ?shiftConvexMeshDesc@ConvexHullLib@physx@@IEAAXAEAVPxConvexMeshDesc@2@@Z 0000000180015810 f   ConvexHullLib.obj
 0001:000148d0       ?swapLargestFace@ConvexHullLib@physx@@IEAAXAEAVPxConvexMeshDesc@2@@Z 00000001800158d0 f   ConvexHullLib.obj
 0001:00014ac0       ??0Box@Gu@physx@@QEAA@AEBV012@@Z 0000000180015ac0 f i ConvexHullUtils.obj
 0001:00014ac0       ??4Box@Gu@physx@@QEAAAEBV012@AEBV012@@Z 0000000180015ac0 f i ConvexHullUtils.obj
 0001:00014b20       ??0Box@Gu@physx@@QEAA@AEBVPxVec3@2@0AEBVPxMat33@2@@Z 0000000180015b20 f i ConvexHullUtils.obj
 0001:00014b90       ??0ConvexHull@physx@@QEAA@AEBVPxVec3@1@AEBVPxTransform@1@AEBV?$Array@VPxPlane@physx@@V?$ReflectionAllocator@VPxPlane@physx@@@shdfnd@2@@shdfnd@1@@Z 0000000180015b90 f   ConvexHullUtils.obj
 0001:00015cf0       ??0PxQuat@physx@@QEAA@AEBVPxMat33@1@@Z 0000000180016cf0 f i ConvexHullUtils.obj
 0001:00015f00       ?allocate@?$Array@VHalfEdge@ConvexHull@physx@@V?$ReflectionAllocator@VHalfEdge@ConvexHull@physx@@@shdfnd@3@@shdfnd@physx@@IEAAPEAVHalfEdge@ConvexHull@3@I@Z 0000000180016f00 f i ConvexHullUtils.obj
 0001:00015fa0       ?allocate@?$Array@VPxPlane@physx@@V?$ReflectionAllocator@VPxPlane@physx@@@shdfnd@2@@shdfnd@physx@@IEAAPEAVPxPlane@3@I@Z 0000000180016fa0 f i ConvexHullUtils.obj
 0001:00016040       ?assertIntact@ConvexHull@physx@@QEBA_NM@Z 0000000180017040 f   ConvexHullUtils.obj
 0001:00016340       ?computeAABBExtent@Box@Gu@physx@@QEBA?AVPxVec3@3@XZ 0000000180017340 f i ConvexHullUtils.obj
 0001:00016400       ?computeBoxPoints@Box@Gu@physx@@QEBAXPEIAVPxVec3@3@@Z 0000000180017400 f i ConvexHullUtils.obj
 0001:00016440       ?computeOBBFromConvex@physx@@YA_NAEBVPxConvexMeshDesc@1@AEAVPxVec3@1@AEAVPxTransform@1@@Z 0000000180017440 f   ConvexHullUtils.obj
 0001:00016b80       ?computeOBBSIMD@local@@YAXIPEBT__m128@@AEAT2@AEBT2@1@Z 0000000180017b80 f   ConvexHullUtils.obj
 0001:00016fa0       ?convexHullCrop@physx@@YAPEAVConvexHull@1@AEBV21@AEBVPxPlane@1@M@Z 0000000180017fa0 f   ConvexHullUtils.obj
 0001:00017dc0       ?copy@?$Array@VPxPlane@physx@@V?$ReflectionAllocator@VPxPlane@physx@@@shdfnd@2@@shdfnd@physx@@KAXPEAVPxPlane@3@0PEBV43@@Z 0000000180018dc0 f i ConvexHullUtils.obj
 0001:00017ec0       ?findCandidatePlane@ConvexHull@physx@@QEBAHMM@Z 0000000180018ec0 f   ConvexHullUtils.obj
 0001:000182f0       ?getInverse@PxMat33@physx@@QEBA?BV12@XZ 00000001800192f0 f i ConvexHullUtils.obj
 0001:00018540       ?getTransform@Box@Gu@physx@@QEBA?AVPxTransform@3@XZ 0000000180019540 f i ConvexHullUtils.obj
 0001:000185a0       ?growAndPushBack@?$Array@VHalfEdge@ConvexHull@physx@@V?$ReflectionAllocator@VHalfEdge@ConvexHull@physx@@@shdfnd@3@@shdfnd@physx@@IEAAAEAVHalfEdge@ConvexHull@3@AEBV453@@Z 00000001800195a0 f i ConvexHullUtils.obj
 0001:00018660       ?growAndPushBack@?$Array@VPxPlane@physx@@V?$ReflectionAllocator@VPxPlane@physx@@@shdfnd@2@@shdfnd@physx@@IEAAAEAVPxPlane@3@AEBV43@@Z 0000000180019660 f i ConvexHullUtils.obj
 0001:00018720       ?isValid@Box@Gu@physx@@QEBA_NXZ 0000000180019720 f i ConvexHullUtils.obj
 0001:00018740       ?maxNumVertsPerFace@ConvexHull@physx@@QEBAIXZ 0000000180019740 f   ConvexHullUtils.obj
 0001:000187b0       ?recreate@?$Array@VHalfEdge@ConvexHull@physx@@V?$ReflectionAllocator@VHalfEdge@ConvexHull@physx@@@shdfnd@3@@shdfnd@physx@@IEAAXI@Z 00000001800197b0 f i ConvexHullUtils.obj
 0001:00018850       ?recreate@?$Array@VPxPlane@physx@@V?$ReflectionAllocator@VPxPlane@physx@@@shdfnd@2@@shdfnd@physx@@IEAAXI@Z 0000000180019850 f i ConvexHullUtils.obj
 0001:000188d0       ?resize@?$Array@VHalfEdge@ConvexHull@physx@@V?$ReflectionAllocator@VHalfEdge@ConvexHull@physx@@@shdfnd@3@@shdfnd@physx@@QEAAXIAEBVHalfEdge@ConvexHull@3@@Z 00000001800198d0 f i ConvexHullUtils.obj
 0001:00018990       ?resize@?$Array@VPxPlane@physx@@V?$ReflectionAllocator@VPxPlane@physx@@@shdfnd@2@@shdfnd@physx@@QEAAXIAEBVPxPlane@3@@Z 0000000180019990 f i ConvexHullUtils.obj
 0001:00018ab0       ?resize@?$Array@VPxVec3@physx@@V?$ReflectionAllocator@VPxVec3@physx@@@shdfnd@2@@shdfnd@physx@@QEAAXIAEBVPxVec3@3@@Z 0000000180019ab0 f i ConvexHullUtils.obj
 0001:00018ba0       ?rotate@Box@Gu@physx@@QEBA?AVPxVec3@3@AEBV43@@Z 0000000180019ba0 f i ConvexHullUtils.obj
 0001:00018c30       ?rotateInv@Box@Gu@physx@@QEBA?AVPxVec3@3@AEBV43@@Z 0000000180019c30 f i ConvexHullUtils.obj
 0001:00018cc0       ?setAxes@Box@Gu@physx@@QEAAXAEBVPxVec3@3@00@Z 0000000180019cc0 f i ConvexHullUtils.obj
 0001:00018d00       ?setEmpty@Box@Gu@physx@@QEAAXXZ 0000000180019d00 f i ConvexHullUtils.obj
 0001:00018d40       ?transform@Box@Gu@physx@@QEBA?AVPxVec3@3@AEBV43@@Z 0000000180019d40 f i ConvexHullUtils.obj
 0001:00018de0       ??0ConvexMeshBuilder@physx@@QEAA@_N@Z 0000000180019de0 f   ConvexMeshBuilder.obj
 0001:00018e40       ??1ConvexMeshBuilder@physx@@QEAA@XZ 0000000180019e40 f   ConvexMeshBuilder.obj
 0001:00019290       ?build@ConvexMeshBuilder@physx@@QEAA_NAEBVPxConvexMeshDesc@2@I_NPEAVConvexHullLib@2@@Z 000000018001a290 f   ConvexMeshBuilder.obj
 0001:000195c0       ?computeHullPolygons@ConvexMeshBuilder@physx@@QEAA_NAEBIPEBVPxVec3@2@0PEBIAEAVPxAllocatorCallback@2@AEAIAEAPEAV32@4AEAPEAI4AEAPEAUPxHullPolygon@2@@Z 000000018001a5c0 f   ConvexMeshBuilder.obj
 0001:00019800       ?computeMassInfo@ConvexMeshBuilder@physx@@QEAAX_N@Z 000000018001a800 f   ConvexMeshBuilder.obj
 0001:00019c20       ?copy@ConvexMeshBuilder@physx@@QEAA_NAEAUConvexHullInitData@Gu@2@@Z 000000018001ac20 f   ConvexMeshBuilder.obj
 0001:00019d40       ?isFinite@PxVec3@physx@@QEBA_NXZ 000000018001ad40 f i ConvexMeshBuilder.obj
 0001:00019da0       ?loadConvexHull@ConvexMeshBuilder@physx@@QEAA_NAEBVPxConvexMeshDesc@2@PEAVConvexHullLib@2@@Z 000000018001ada0 f   ConvexMeshBuilder.obj
 0001:0001a010       ?save@ConvexMeshBuilder@physx@@QEBA_NAEAVPxOutputStream@2@_N@Z 000000018001b010 f   ConvexMeshBuilder.obj
 0001:0001a220       ??$?_UUHullTriangleData@physx@@@@YAPEAX_KV?$ReflectionAllocator@UHullTriangleData@physx@@@shdfnd@physx@@PEBDH@Z 000000018001b220 f i ConvexPolygonsBuilder.obj
 0001:0001a2c0       ??$copy@V?$ReflectionAllocator@VPair@@@shdfnd@physx@@@?$Array@VPair@@V?$ReflectionAllocator@VPair@@@shdfnd@physx@@@shdfnd@physx@@IEAAXAEBV012@@Z 000000018001b2c0 f i ConvexPolygonsBuilder.obj
 0001:0001a340       ??0ConvexPolygonsBuilder@physx@@QEAA@PEAUConvexHullData@Gu@1@_N@Z 000000018001b340 f   ConvexPolygonsBuilder.obj
 0001:0001a360       ??1ConvexPolygonsBuilder@physx@@QEAA@XZ 000000018001b360 f   ConvexPolygonsBuilder.obj
 0001:0001aba0       ?allocate@?$Array@VPair@@V?$ReflectionAllocator@VPair@@@shdfnd@physx@@@shdfnd@physx@@IEAAPEAVPair@@I@Z 000000018001bba0 f i ConvexPolygonsBuilder.obj
 0001:0001b3d0       ?computeHullPolygons@ConvexPolygonsBuilder@physx@@QEAA_NAEBIPEBVPxVec3@2@0PEBI@Z 000000018001c3d0 f   ConvexPolygonsBuilder.obj
 0001:0001c680       ?createPolygonData@ConvexPolygonsBuilder@physx@@AEAA_NXZ 000000018001d680 f   ConvexPolygonsBuilder.obj
 0001:0001d010       ?createTrianglesFromPolygons@ConvexPolygonsBuilder@physx@@AEAA_NXZ 000000018001e010 f   ConvexPolygonsBuilder.obj
 0001:0001e5e0       ?growAndPushBack@?$Array@VPair@@V?$ReflectionAllocator@VPair@@@shdfnd@physx@@@shdfnd@physx@@IEAAAEAVPair@@AEBV4@@Z 000000018001f5e0 f i ConvexPolygonsBuilder.obj
 0001:0001e6a0       ??0QuickHull@local@@QEAA@AEBUPxCookingParams@physx@@AEBVPxConvexMeshDesc@3@@Z 000000018001f6a0 f   QuickHullConvexHullLib.obj
 0001:0001e750       ??0QuickHullConvexHullLib@physx@@QEAA@AEBVPxConvexMeshDesc@1@AEBUPxCookingParams@1@@Z 000000018001f750 f   QuickHullConvexHullLib.obj
 0001:0001e840       ??1?$MemBlock@UQuickHullFace@local@@$00@local@@QEAA@XZ 000000018001f840 f i QuickHullConvexHullLib.obj
 0001:0001e840       ??1?$MemBlock@UQuickHullHalfEdge@local@@$0A@@local@@QEAA@XZ 000000018001f840 f i QuickHullConvexHullLib.obj
 0001:0001e8e0       ??1QuickHull@local@@QEAA@XZ 000000018001f8e0 f   QuickHullConvexHullLib.obj
 0001:0001ea40       ??_GConvexHull@physx@@QEAAPEAXI@Z 000000018001fa40 f i QuickHullConvexHullLib.obj
 0001:0001eb30       ??_EQuickHullConvexHullLib@physx@@UEAAPEAXI@Z 000000018001fb30 f i QuickHullConvexHullLib.obj
 0001:0001eb30       ??_GQuickHullConvexHullLib@physx@@UEAAPEAXI@Z 000000018001fb30 f i QuickHullConvexHullLib.obj
 0001:0001ec40       ?addPointToHull@QuickHull@local@@IEAA_NPEBUQuickHullVertex@2@AEAUQuickHullFace@2@AEA_N@Z 000000018001fc40 f   QuickHullConvexHullLib.obj
 0001:0001ef10       ?addSimplex@QuickHull@local@@IEAAXPEAUQuickHullVertex@2@_N@Z 000000018001ff10 f   QuickHullConvexHullLib.obj
 0001:0001f400       ?allocate@?$Array@PEAUQuickHullFace@local@@V?$ReflectionAllocator@PEAUQuickHullFace@local@@@shdfnd@physx@@@shdfnd@physx@@IEAAPEAPEAUQuickHullFace@local@@I@Z 0000000180020400 f i QuickHullConvexHullLib.obj
 0001:0001f4a0       ?allocate@?$Array@PEAUQuickHullHalfEdge@local@@V?$ReflectionAllocator@PEAUQuickHullHalfEdge@local@@@shdfnd@physx@@@shdfnd@physx@@IEAAPEAPEAUQuickHullHalfEdge@local@@I@Z 00000001800204a0 f i QuickHullConvexHullLib.obj
 0001:0001f540       ?allocate@?$Array@PEAUQuickHullVertex@local@@V?$ReflectionAllocator@PEAUQuickHullVertex@local@@@shdfnd@physx@@@shdfnd@physx@@IEAAPEAPEAUQuickHullVertex@local@@I@Z 0000000180020540 f i QuickHullConvexHullLib.obj
 0001:0001f5e0       ?allocate@?$Array@UExpandPoint@local@@V?$ReflectionAllocator@UExpandPoint@local@@@shdfnd@physx@@@shdfnd@physx@@IEAAPEAUExpandPoint@local@@I@Z 00000001800205e0 f i QuickHullConvexHullLib.obj
 0001:0001f680       ?buildHull@QuickHull@local@@QEAA?AW4Enum@QuickHullResult@2@XZ 0000000180020680 f   QuickHullConvexHullLib.obj
 0001:0001f8a0       ?calculateHorizon@QuickHull@local@@IEAAXAEBVPxVec3@physx@@PEAUQuickHullHalfEdge@2@AEAUQuickHullFace@2@AEAV?$Array@PEAUQuickHullHalfEdge@local@@V?$ReflectionAllocator@PEAUQuickHullHalfEdge@local@@@shdfnd@physx@@@shdfnd@4@AEAV?$Array@PEAUQuickHullFace@local@@V?$ReflectionAllocator@PEAUQuickHullFace@local@@@shdfnd@physx@@@84@@Z 00000001800208a0 f   QuickHullConvexHullLib.obj
 0001:0001fa50       ?canMergeFaces@QuickHull@local@@IEAA_NAEBUQuickHullHalfEdge@2@@Z 0000000180020a50 f   QuickHullConvexHullLib.obj
 0001:00020260       ?cleanupForSimplex@QuickHullConvexHullLib@physx@@IEAA_NPEAVPxVec3@2@IPEAUQuickHullVertex@local@@1AEAM2@Z 0000000180021260 f   QuickHullConvexHullLib.obj
 0001:00020e50       ?computeMinMaxVerts@QuickHull@local@@IEAAXXZ 0000000180021e50 f   QuickHullConvexHullLib.obj
 0001:00021220       ?connectHalfEdges@QuickHullFace@local@@AEAAPEAU12@PEAUQuickHullHalfEdge@2@0@Z 0000000180022220 f   QuickHullConvexHullLib.obj
 0001:00021590       ?copy@?$Array@UExpandPoint@local@@V?$ReflectionAllocator@UExpandPoint@local@@@shdfnd@physx@@@shdfnd@physx@@KAXPEAUExpandPoint@local@@0PEBU45@@Z 0000000180022590 f i QuickHullConvexHullLib.obj
 0001:000217f0       ?createConvexHull@QuickHullConvexHullLib@physx@@UEAA?AW4Enum@PxConvexMeshCookingResult@2@XZ 00000001800227f0 f   QuickHullConvexHullLib.obj
 0001:00021c10       ?createEdgeList@QuickHullConvexHullLib@physx@@UEAA_NIPEBEPEAPEAEPEAPEAG2@Z 0000000180022c10 f   QuickHullConvexHullLib.obj
 0001:00021e70       ?createTriangle@QuickHull@local@@IEAAPEAUQuickHullFace@2@AEBUQuickHullVertex@2@00@Z 0000000180022e70 f   QuickHullConvexHullLib.obj
 0001:00022230       ?doAdjacentMerge@QuickHull@local@@IEAA_NAEAUQuickHullFace@2@_NAEA_N@Z 0000000180023230 f   QuickHullConvexHullLib.obj
 0001:00022580       ?expandHull@QuickHullConvexHullLib@physx@@IEAA?AW4Enum@PxConvexMeshCookingResult@2@XZ 0000000180023580 f   QuickHullConvexHullLib.obj
 0001:00022ed0       ?expandHullOBB@QuickHullConvexHullLib@physx@@IEAA?AW4Enum@PxConvexMeshCookingResult@2@XZ 0000000180023ed0 f   QuickHullConvexHullLib.obj
 0001:00023300       ?fillConvexMeshDesc@QuickHullConvexHullLib@physx@@UEAAXAEAVPxConvexMeshDesc@2@@Z 0000000180024300 f   QuickHullConvexHullLib.obj
 0001:00023350       ?fillConvexMeshDescFromCroppedHull@QuickHullConvexHullLib@physx@@IEAAXAEAVPxConvexMeshDesc@2@@Z 0000000180024350 f   QuickHullConvexHullLib.obj
 0001:00023540       ?fillConvexMeshDescFromQuickHull@QuickHullConvexHullLib@physx@@IEAAXAEAVPxConvexMeshDesc@2@@Z 0000000180024540 f   QuickHullConvexHullLib.obj
 0001:000238c0       ?findSimplex@QuickHull@local@@IEAA_NXZ 00000001800248c0 f   QuickHullConvexHullLib.obj
 0001:00024530       ?getFreeItem@?$MemBlock@UQuickHullFace@local@@$00@local@@QEAAPEAUQuickHullFace@2@XZ 0000000180025530 f i QuickHullConvexHullLib.obj
 0001:00024660       ?getFreeItem@?$MemBlock@UQuickHullHalfEdge@local@@$0A@@local@@QEAAPEAUQuickHullHalfEdge@2@XZ 0000000180025660 f i QuickHullConvexHullLib.obj
 0001:00024730       ?growAndPushBack@?$Array@PEAUQuickHullFace@local@@V?$ReflectionAllocator@PEAUQuickHullFace@local@@@shdfnd@physx@@@shdfnd@physx@@IEAAAEAPEAUQuickHullFace@local@@AEBQEAU45@@Z 0000000180025730 f i QuickHullConvexHullLib.obj
 0001:000247f0       ?growAndPushBack@?$Array@PEAUQuickHullHalfEdge@local@@V?$ReflectionAllocator@PEAUQuickHullHalfEdge@local@@@shdfnd@physx@@@shdfnd@physx@@IEAAAEAPEAUQuickHullHalfEdge@local@@AEBQEAU45@@Z 00000001800257f0 f i QuickHullConvexHullLib.obj
 0001:000248b0       ?growAndPushBack@?$Array@PEAUQuickHullVertex@local@@V?$ReflectionAllocator@PEAUQuickHullVertex@local@@@shdfnd@physx@@@shdfnd@physx@@IEAAAEAPEAUQuickHullVertex@local@@AEBQEAU45@@Z 00000001800258b0 f i QuickHullConvexHullLib.obj
 0001:00024970       ?growAndPushBack@?$Array@UExpandPoint@local@@V?$ReflectionAllocator@UExpandPoint@local@@@shdfnd@physx@@@shdfnd@physx@@IEAAAEAUExpandPoint@local@@AEBU45@@Z 0000000180025970 f i QuickHullConvexHullLib.obj
 0001:00024a70       ?init@?$MemBlock@UQuickHullFace@local@@$00@local@@QEAAXI@Z 0000000180025a70 f i QuickHullConvexHullLib.obj
 0001:00024b60       ?init@?$MemBlock@UQuickHullHalfEdge@local@@$0A@@local@@QEAAXI@Z 0000000180025b60 f i QuickHullConvexHullLib.obj
 0001:00024c00       ?mergeAdjacentFace@QuickHullFace@local@@QEAA_NPEAUQuickHullHalfEdge@2@AEAV?$Array@PEAUQuickHullFace@local@@V?$ReflectionAllocator@PEAUQuickHullFace@local@@@shdfnd@physx@@@shdfnd@physx@@@Z 0000000180025c00 f   QuickHullConvexHullLib.obj
 0001:00025050       ?nextPointToAdd@QuickHull@local@@IEAAPEAUQuickHullVertex@2@AEAPEAUQuickHullFace@2@@Z 0000000180026050 f   QuickHullConvexHullLib.obj
 0001:000251d0       ?parseInputVertices@QuickHull@local@@QEAAXPEBVPxVec3@physx@@I@Z 00000001800261d0 f   QuickHullConvexHullLib.obj
 0001:00025350       ?postMergeHull@QuickHull@local@@IEAAXXZ 0000000180026350 f   QuickHullConvexHullLib.obj
 0001:000255b0       ?preallocate@QuickHull@local@@QEAAXI@Z 00000001800265b0 f   QuickHullConvexHullLib.obj
 0001:000256f0       ?recreate@?$Array@PEAUQuickHullFace@local@@V?$ReflectionAllocator@PEAUQuickHullFace@local@@@shdfnd@physx@@@shdfnd@physx@@IEAAXI@Z 00000001800266f0 f i QuickHullConvexHullLib.obj
 0001:00025790       ?recreate@?$Array@PEAUQuickHullHalfEdge@local@@V?$ReflectionAllocator@PEAUQuickHullHalfEdge@local@@@shdfnd@physx@@@shdfnd@physx@@IEAAXI@Z 0000000180026790 f i QuickHullConvexHullLib.obj
 0001:00025830       ?recreate@?$Array@PEAUQuickHullVertex@local@@V?$ReflectionAllocator@PEAUQuickHullVertex@local@@@shdfnd@physx@@@shdfnd@physx@@IEAAXI@Z 0000000180026830 f i QuickHullConvexHullLib.obj
 0001:000258d0       ?recreate@?$Array@UExpandPoint@local@@V?$ReflectionAllocator@UExpandPoint@local@@@shdfnd@physx@@@shdfnd@physx@@IEAAXI@Z 00000001800268d0 f i QuickHullConvexHullLib.obj
 0001:00025950       ?resolveUnclaimedPoints@QuickHull@local@@IEAAXAEBV?$Array@PEAUQuickHullFace@local@@V?$ReflectionAllocator@PEAUQuickHullFace@local@@@shdfnd@physx@@@shdfnd@physx@@@Z 0000000180026950 f   QuickHullConvexHullLib.obj
 0001:000266c0       ?computeVolumeIntegralsEberly@physx@@YA_NAEBVPxConvexMeshDesc@1@MAEAUPxIntegrals@1@AEBVPxVec3@1@@Z 00000001800276c0 f   VolumeIntegration.obj
 0001:00026700       ?computeVolumeIntegralsEberlySIMD@physx@@YA_NAEBVPxConvexMeshDesc@1@MAEAUPxIntegrals@1@AEBVPxVec3@1@@Z 0000000180027700 f   VolumeIntegration.obj
 0001:00026d60       ?cookingDelayHook@@YAP6A_JXZIPEAUDelayLoadInfo@@@Z 0000000180027d60 f   WindowsCookingDelayLoadHook.obj
 0001:00026e40       PxSetPhysXCookingDelayLoadHook 0000000180027e40 f   WindowsCookingDelayLoadHook.obj
 0001:00026e48       ??0RadixSortBuffered@Cm@physx@@QEAA@XZ 0000000180027e48 f   PhysXCommon_64:PhysXCommon_64.dll
 0001:00026e4e       __tailMerge_physxcommon_64_dll 0000000180027e4e     PhysXCommon_64:PhysXCommon_64.dll
 0001:00026ec7       __imp_load_??0RadixSortBuffered@Cm@physx@@QEAA@XZ 0000000180027ec7 f   PhysXCommon_64:PhysXCommon_64.dll
 0001:00026ed3       ??1RadixSortBuffered@Cm@physx@@UEAA@XZ 0000000180027ed3 f   PhysXCommon_64:PhysXCommon_64.dll
 0001:00026ed9       __imp_load_??1RadixSortBuffered@Cm@physx@@UEAA@XZ 0000000180027ed9 f   PhysXCommon_64:PhysXCommon_64.dll
 0001:00026ee5       ?Sort@RadixSortBuffered@Cm@physx@@QEAAAEAV123@PEBIIW4RadixHint@23@@Z 0000000180027ee5 f   PhysXCommon_64:PhysXCommon_64.dll
 0001:00026eeb       __imp_load_?Sort@RadixSortBuffered@Cm@physx@@QEAAAEAV123@PEBIIW4RadixHint@23@@Z 0000000180027eeb f   PhysXCommon_64:PhysXCommon_64.dll
 0001:00026ef7       ??0HeightField@Gu@physx@@QEAA@PEAVGuMeshFactory@2@@Z 0000000180027ef7 f   PhysXCommon_64:PhysXCommon_64.dll
 0001:00026efd       __imp_load_??0HeightField@Gu@physx@@QEAA@PEAVGuMeshFactory@2@@Z 0000000180027efd f   PhysXCommon_64:PhysXCommon_64.dll
 0001:00026f09       ?loadFromDesc@HeightField@Gu@physx@@QEAA_NAEBVPxHeightFieldDesc@3@@Z 0000000180027f09 f   PhysXCommon_64:PhysXCommon_64.dll
 0001:00026f0f       __imp_load_?loadFromDesc@HeightField@Gu@physx@@QEAA_NAEBVPxHeightFieldDesc@3@@Z 0000000180027f0f f   PhysXCommon_64:PhysXCommon_64.dll
 0001:00026f1b       ?computeCellCoordinates@HeightField@Gu@physx@@QEBAIMMAEAM0@Z 0000000180027f1b f   PhysXCommon_64:PhysXCommon_64.dll
 0001:00026f21       __imp_load_?computeCellCoordinates@HeightField@Gu@physx@@QEBAIMMAEAM0@Z 0000000180027f21 f   PhysXCommon_64:PhysXCommon_64.dll
 0001:00026f2d       ?releaseMemory@HeightField@Gu@physx@@QEAAXXZ 0000000180027f2d f   PhysXCommon_64:PhysXCommon_64.dll
 0001:00026f33       __imp_load_?releaseMemory@HeightField@Gu@physx@@QEAAXXZ 0000000180027f33 f   PhysXCommon_64:PhysXCommon_64.dll
 0001:00026f3f       ??1HeightField@Gu@physx@@UEAA@XZ 0000000180027f3f f   PhysXCommon_64:PhysXCommon_64.dll
 0001:00026f45       __imp_load_??1HeightField@Gu@physx@@UEAA@XZ 0000000180027f45 f   PhysXCommon_64:PhysXCommon_64.dll
 0001:00026f51       ??0NodeAllocator@Gu@physx@@QEAA@XZ 0000000180027f51 f   PhysXCommon_64:PhysXCommon_64.dll
 0001:00026f57       __imp_load_??0NodeAllocator@Gu@physx@@QEAA@XZ 0000000180027f57 f   PhysXCommon_64:PhysXCommon_64.dll
 0001:00026f63       ??1NodeAllocator@Gu@physx@@QEAA@XZ 0000000180027f63 f   PhysXCommon_64:PhysXCommon_64.dll
 0001:00026f69       __imp_load_??1NodeAllocator@Gu@physx@@QEAA@XZ 0000000180027f69 f   PhysXCommon_64:PhysXCommon_64.dll
 0001:00026f75       ?release@NodeAllocator@Gu@physx@@QEAAXXZ 0000000180027f75 f   PhysXCommon_64:PhysXCommon_64.dll
 0001:00026f7b       __imp_load_?release@NodeAllocator@Gu@physx@@QEAAXXZ 0000000180027f7b f   PhysXCommon_64:PhysXCommon_64.dll
 0001:00026f87       ?buildAABBTree@Gu@physx@@YA_NAEAVAABBTreeBuildParams@12@AEAVNodeAllocator@12@AEAUBuildStats@12@AEAPEAI@Z 0000000180027f87 f   PhysXCommon_64:PhysXCommon_64.dll
 0001:00026f8d       __imp_load_?buildAABBTree@Gu@physx@@YA_NAEAVAABBTreeBuildParams@12@AEAVNodeAllocator@12@AEAUBuildStats@12@AEAPEAI@Z 0000000180027f8d f   PhysXCommon_64:PhysXCommon_64.dll
 0001:00026f99       ?writeDword@physx@@YAXI_NAEAVPxOutputStream@1@@Z 0000000180027f99 f   PhysXCommon_64:PhysXCommon_64.dll
 0001:00026f9f       __imp_load_?writeDword@physx@@YAXI_NAEAVPxOutputStream@1@@Z 0000000180027f9f f   PhysXCommon_64:PhysXCommon_64.dll
 0001:00026fab       ?writeFloatBuffer@physx@@YAXPEBMI_NAEAVPxOutputStream@1@@Z 0000000180027fab f   PhysXCommon_64:PhysXCommon_64.dll
 0001:00026fb1       __imp_load_?writeFloatBuffer@physx@@YAXPEBMI_NAEAVPxOutputStream@1@@Z 0000000180027fb1 f   PhysXCommon_64:PhysXCommon_64.dll
 0001:00026fbd       ?writeHeader@physx@@YA_NCCCCI_NAEAVPxOutputStream@1@@Z 0000000180027fbd f   PhysXCommon_64:PhysXCommon_64.dll
 0001:00026fc3       __imp_load_?writeHeader@physx@@YA_NCCCCI_NAEAVPxOutputStream@1@@Z 0000000180027fc3 f   PhysXCommon_64:PhysXCommon_64.dll
 0001:00026fcf       ?writeWord@physx@@YAXG_NAEAVPxOutputStream@1@@Z 0000000180027fcf f   PhysXCommon_64:PhysXCommon_64.dll
 0001:00026fd5       __imp_load_?writeWord@physx@@YAXG_NAEAVPxOutputStream@1@@Z 0000000180027fd5 f   PhysXCommon_64:PhysXCommon_64.dll
 0001:00026fe1       ?writeFloat@physx@@YAXM_NAEAVPxOutputStream@1@@Z 0000000180027fe1 f   PhysXCommon_64:PhysXCommon_64.dll
 0001:00026fe7       __imp_load_?writeFloat@physx@@YAXM_NAEAVPxOutputStream@1@@Z 0000000180027fe7 f   PhysXCommon_64:PhysXCommon_64.dll
 0001:00026ff3       ?computeBoundsAroundVertices@Gu@physx@@YAXAEAVPxBounds3@2@IPEIBVPxVec3@2@@Z 0000000180027ff3 f   PhysXCommon_64:PhysXCommon_64.dll
 0001:00026ff9       __imp_load_?computeBoundsAroundVertices@Gu@physx@@YAXAEAVPxBounds3@2@IPEIBVPxVec3@2@@Z 0000000180027ff9 f   PhysXCommon_64:PhysXCommon_64.dll
 0001:00027005       ??0SourceMesh@Gu@physx@@QEAA@XZ 0000000180028005 f   PhysXCommon_64:PhysXCommon_64.dll
 0001:0002700b       __imp_load_??0SourceMesh@Gu@physx@@QEAA@XZ 000000018002800b f   PhysXCommon_64:PhysXCommon_64.dll
 0001:00027017       ??1SourceMesh@Gu@physx@@QEAA@XZ 0000000180028017 f   PhysXCommon_64:PhysXCommon_64.dll
 0001:0002701d       __imp_load_??1SourceMesh@Gu@physx@@QEAA@XZ 000000018002801d f   PhysXCommon_64:PhysXCommon_64.dll
 0001:00027029       ??0BV4Tree@Gu@physx@@QEAA@XZ 0000000180028029 f   PhysXCommon_64:PhysXCommon_64.dll
 0001:0002702f       __imp_load_??0BV4Tree@Gu@physx@@QEAA@XZ 000000018002802f f   PhysXCommon_64:PhysXCommon_64.dll
 0001:0002703b       ??1BV4Tree@Gu@physx@@QEAA@XZ 000000018002803b f   PhysXCommon_64:PhysXCommon_64.dll
 0001:00027041       __imp_load_??1BV4Tree@Gu@physx@@QEAA@XZ 0000000180028041 f   PhysXCommon_64:PhysXCommon_64.dll
 0001:0002704d       ??0BV32Tree@Gu@physx@@QEAA@XZ 000000018002804d f   PhysXCommon_64:PhysXCommon_64.dll
 0001:00027053       __imp_load_??0BV32Tree@Gu@physx@@QEAA@XZ 0000000180028053 f   PhysXCommon_64:PhysXCommon_64.dll
 0001:0002705f       ??1BV32Tree@Gu@physx@@QEAA@XZ 000000018002805f f   PhysXCommon_64:PhysXCommon_64.dll
 0001:00027065       __imp_load_??1BV32Tree@Gu@physx@@QEAA@XZ 0000000180028065 f   PhysXCommon_64:PhysXCommon_64.dll
 0001:00027071       ?writeWordBuffer@physx@@YAXPEBGI_NAEAVPxOutputStream@1@@Z 0000000180028071 f   PhysXCommon_64:PhysXCommon_64.dll
 0001:00027077       __imp_load_?writeWordBuffer@physx@@YAXPEBGI_NAEAVPxOutputStream@1@@Z 0000000180028077 f   PhysXCommon_64:PhysXCommon_64.dll
 0001:00027083       ?computeMaxIndex@physx@@YAIPEBII@Z 0000000180028083 f   PhysXCommon_64:PhysXCommon_64.dll
 0001:00027089       __imp_load_?computeMaxIndex@physx@@YAIPEBII@Z 0000000180028089 f   PhysXCommon_64:PhysXCommon_64.dll
 0001:00027095       ?storeIndices@physx@@YAXIIPEBIAEAVPxOutputStream@1@_N@Z 0000000180028095 f   PhysXCommon_64:PhysXCommon_64.dll
 0001:0002709b       __imp_load_?storeIndices@physx@@YAXIIPEBIAEAVPxOutputStream@1@_N@Z 000000018002809b f   PhysXCommon_64:PhysXCommon_64.dll
 0001:000270a7       ?BuildBV4Ex@Gu@physx@@YA_NAEAVBV4Tree@12@AEAVSourceMesh@12@MI@Z 00000001800280a7 f   PhysXCommon_64:PhysXCommon_64.dll
 0001:000270ad       __imp_load_?BuildBV4Ex@Gu@physx@@YA_NAEAVBV4Tree@12@AEAVSourceMesh@12@MI@Z 00000001800280ad f   PhysXCommon_64:PhysXCommon_64.dll
 0001:000270b9       ?BuildBV32Ex@Gu@physx@@YA_NAEAVBV32Tree@12@AEAVSourceMesh@12@MI@Z 00000001800280b9 f   PhysXCommon_64:PhysXCommon_64.dll
 0001:000270bf       __imp_load_?BuildBV32Ex@Gu@physx@@YA_NAEAVBV32Tree@12@AEAVSourceMesh@12@MI@Z 00000001800280bf f   PhysXCommon_64:PhysXCommon_64.dll
 0001:000270cb       ?computeMaxIndex@physx@@YAGPEBGI@Z 00000001800280cb f   PhysXCommon_64:PhysXCommon_64.dll
 0001:000270d1       __imp_load_?computeMaxIndex@physx@@YAGPEBGI@Z 00000001800280d1 f   PhysXCommon_64:PhysXCommon_64.dll
 0001:000270dd       ?WriteHeader@Gu@physx@@YA_NEEEEI_NAEAVPxOutputStream@2@@Z 00000001800280dd f   PhysXCommon_64:PhysXCommon_64.dll
 0001:000270e3       __imp_load_?WriteHeader@Gu@physx@@YA_NEEEEI_NAEAVPxOutputStream@2@@Z 00000001800280e3 f   PhysXCommon_64:PhysXCommon_64.dll
 0001:000270ef       ?StoreIndices@Gu@physx@@YAXGIPEBGAEAVPxOutputStream@2@_N@Z 00000001800280ef f   PhysXCommon_64:PhysXCommon_64.dll
 0001:000270f5       __imp_load_?StoreIndices@Gu@physx@@YAXGIPEBGAEAVPxOutputStream@2@_N@Z 00000001800280f5 f   PhysXCommon_64:PhysXCommon_64.dll
 0001:00027101       ?CreateOffsets@BigConvexData@physx@@IEAAXXZ 0000000180028101 f   PhysXCommon_64:PhysXCommon_64.dll
 0001:00027107       __imp_load_?CreateOffsets@BigConvexData@physx@@IEAAXXZ 0000000180028107 f   PhysXCommon_64:PhysXCommon_64.dll
 0001:00027113       ?computeOBBPoints@Gu@physx@@YAXPEIAVPxVec3@2@AEBV32@1111@Z 0000000180028113 f   PhysXCommon_64:PhysXCommon_64.dll
 0001:00027119       __imp_load_?computeOBBPoints@Gu@physx@@YAXPEIAVPxVec3@2@AEBV32@1111@Z 0000000180028119 f   PhysXCommon_64:PhysXCommon_64.dll
 0001:00027125       ??0BigConvexData@physx@@QEAA@XZ 0000000180028125 f   PhysXCommon_64:PhysXCommon_64.dll
 0001:0002712b       __imp_load_??0BigConvexData@physx@@QEAA@XZ 000000018002812b f   PhysXCommon_64:PhysXCommon_64.dll
 0001:00027137       ??1BigConvexData@physx@@QEAA@XZ 0000000180028137 f   PhysXCommon_64:PhysXCommon_64.dll
 0001:0002713d       __imp_load_??1BigConvexData@physx@@QEAA@XZ 000000018002813d f   PhysXCommon_64:PhysXCommon_64.dll
 0001:00027149       PxGetFoundation            0000000180028149 f   PhysXFoundation_64:PhysXFoundation_64.dll
 0001:0002714f       __tailMerge_physxfoundation_64_dll 000000018002814f     PhysXFoundation_64:PhysXFoundation_64.dll
 0001:000271c8       __imp_load_PxGetFoundation 00000001800281c8 f   PhysXFoundation_64:PhysXFoundation_64.dll
 0001:000271d4       ?getAllocator@shdfnd@physx@@YAAEAVPxAllocatorCallback@2@XZ 00000001800281d4 f   PhysXFoundation_64:PhysXFoundation_64.dll
 0001:000271da       __imp_load_?getAllocator@shdfnd@physx@@YAAEAVPxAllocatorCallback@2@XZ 00000001800281da f   PhysXFoundation_64:PhysXFoundation_64.dll
 0001:000271e6       ?getInstance@Foundation@shdfnd@physx@@SAAEAV123@XZ 00000001800281e6 f   PhysXFoundation_64:PhysXFoundation_64.dll
 0001:000271ec       __imp_load_?getInstance@Foundation@shdfnd@physx@@SAAEAV123@XZ 00000001800281ec f   PhysXFoundation_64:PhysXFoundation_64.dll
 0001:000271f8       ?error@Foundation@shdfnd@physx@@QEAAXW4Enum@PxErrorCode@3@PEBDH1ZZ 00000001800281f8 f   PhysXFoundation_64:PhysXFoundation_64.dll
 0001:000271fe       __imp_load_?error@Foundation@shdfnd@physx@@QEAAXW4Enum@PxErrorCode@3@PEBDH1ZZ 00000001800281fe f   PhysXFoundation_64:PhysXFoundation_64.dll
 0001:0002720a       ?incRefCount@Foundation@shdfnd@physx@@SAXXZ 000000018002820a f   PhysXFoundation_64:PhysXFoundation_64.dll
 0001:00027210       __imp_load_?incRefCount@Foundation@shdfnd@physx@@SAXXZ 0000000180028210 f   PhysXFoundation_64:PhysXFoundation_64.dll
 0001:0002721c       ?decRefCount@Foundation@shdfnd@physx@@SAXXZ 000000018002821c f   PhysXFoundation_64:PhysXFoundation_64.dll
 0001:00027222       __imp_load_?decRefCount@Foundation@shdfnd@physx@@SAXXZ 0000000180028222 f   PhysXFoundation_64:PhysXFoundation_64.dll
 0001:0002722e       ??0FPUGuard@shdfnd@physx@@QEAA@XZ 000000018002822e f   PhysXFoundation_64:PhysXFoundation_64.dll
 0001:00027234       __imp_load_??0FPUGuard@shdfnd@physx@@QEAA@XZ 0000000180028234 f   PhysXFoundation_64:PhysXFoundation_64.dll
 0001:00027240       ??1FPUGuard@shdfnd@physx@@QEAA@XZ 0000000180028240 f   PhysXFoundation_64:PhysXFoundation_64.dll
 0001:00027246       __imp_load_??1FPUGuard@shdfnd@physx@@QEAA@XZ 0000000180028246 f   PhysXFoundation_64:PhysXFoundation_64.dll
 0001:00027252       ?allocate@TempAllocator@shdfnd@physx@@QEAAPEAX_KPEBDH@Z 0000000180028252 f   PhysXFoundation_64:PhysXFoundation_64.dll
 0001:00027258       __imp_load_?allocate@TempAllocator@shdfnd@physx@@QEAAPEAX_KPEBDH@Z 0000000180028258 f   PhysXFoundation_64:PhysXFoundation_64.dll
 0001:00027264       ?deallocate@TempAllocator@shdfnd@physx@@QEAAXPEAX@Z 0000000180028264 f   PhysXFoundation_64:PhysXFoundation_64.dll
 0001:0002726a       __imp_load_?deallocate@TempAllocator@shdfnd@physx@@QEAAXPEAX@Z 000000018002826a f   PhysXFoundation_64:PhysXFoundation_64.dll
 0001:00027276       ?PxDiagonalize@physx@@YA?AVPxVec3@1@AEBVPxMat33@1@AEAVPxQuat@1@@Z 0000000180028276 f   PhysXFoundation_64:PhysXFoundation_64.dll
 0001:0002727c       __imp_load_?PxDiagonalize@physx@@YA?AVPxVec3@1@AEBVPxMat33@1@AEAVPxQuat@1@@Z 000000018002827c f   PhysXFoundation_64:PhysXFoundation_64.dll
 0001:00027374       ?DloadAcquireSectionWriteAccess@@YAXXZ 0000000180028374 f i Delayimp:delayhlp.obj
 0001:00027430       ?DloadGetSRWLockFunctionPointers@@YAEXZ 0000000180028430 f i Delayimp:delayhlp.obj
 0001:000274d0       ?DloadMakePermanentImageCommit@@YAXPEAX_K@Z 00000001800284d0 f i Delayimp:delayhlp.obj
 0001:00027568       ?DloadObtainSection@@YAPEAXPEAK0@Z 0000000180028568 f i Delayimp:delayhlp.obj
 0001:00027604       ?DloadProtectSection@@YAXPEAX_KKPEAK@Z 0000000180028604 f i Delayimp:delayhlp.obj
 0001:000276fc       ?DloadReleaseSectionWriteAccess@@YAXXZ 00000001800286fc f i Delayimp:delayhlp.obj
 0001:000277a8       __delayLoadHelper2         00000001800287a8 f   Delayimp:delayhlp.obj
 0001:00027aa4       ??3@YAXPEAX_K@Z            0000000180028aa4 f   LIBCMT:delete_scalar_size.obj
 0001:00027aa4       ??_V@YAXPEAX@Z             0000000180028aa4 f   LIBCMT:delete_array.obj
 0001:00027aac       ??_Etype_info@@UEAAPEAXI@Z 0000000180028aac f i LIBCMT:std_type_info_static.obj
 0001:00027aac       ??_Gtype_info@@UEAAPEAXI@Z 0000000180028aac f i LIBCMT:std_type_info_static.obj
 0001:00027ad8       ?__scrt_initialize_type_info@@YAXXZ 0000000180028ad8 f   LIBCMT:tncleanup.obj
 0001:00027ae8       ?__scrt_uninitialize_type_info@@YAXXZ 0000000180028ae8 f   LIBCMT:tncleanup.obj
 0001:00027b10       __chkstk                   0000000180028b10 f   LIBCMT:chkstk.obj
 0001:00027b10       _alloca_probe              0000000180028b10 f   LIBCMT:chkstk.obj
 0001:00027b60       ??3@YAXPEAX@Z              0000000180028b60 f   LIBCMT:delete_scalar.obj
 0001:00027b70       __vdecl_sinf4              0000000180028b70 f   LIBCMT:svml_ssinf4_dispatch.obj
 0001:00027b90       __libm_sse2_sincosf_       0000000180028b90 f   LIBCMT:svml_ssinf4_dispatch.obj
 0001:00027bd3       __libm_sse2_sincosf4_      0000000180028bd3 f   LIBCMT:svml_ssinf4_dispatch.obj
 0001:00027ef0       _DllMainCRTStartup         0000000180028ef0 f   LIBCMT:dll_dllmain.obj
 0001:00027f30       __isa_available_init       0000000180028f30 f   LIBCMT:cpu_disp.obj
 0001:00028200       __sse2_sinf4@@16           0000000180029200 f   LIBCMT:svml_ssinf4_sse2.obj
 0001:00028b40       __sse4_sinf4@@16           0000000180029b40 f   LIBCMT:svml_ssinf4_sse4.obj
 0001:000292b4       __security_init_cookie     000000018002a2b4 f   LIBCMT:gs_support.obj
 0001:00029360       __local_stdio_printf_options 000000018002a360 f i LIBCMT:default_local_stdio_options.obj
 0001:00029368       __local_stdio_scanf_options 000000018002a368 f i LIBCMT:default_local_stdio_options.obj
 0001:00029370       __scrt_initialize_default_local_stdio_options 000000018002a370 f   LIBCMT:default_local_stdio_options.obj
 0001:0002938c       __scrt_acquire_startup_lock 000000018002a38c f   LIBCMT:utility.obj
 0001:000293c8       __scrt_dllmain_after_initialize_c 000000018002a3c8 f   LIBCMT:utility.obj
 0001:000293fc       __scrt_dllmain_before_initialize_c 000000018002a3fc f   LIBCMT:utility.obj
 0001:00029414       __scrt_dllmain_crt_thread_attach 000000018002a414 f   LIBCMT:utility.obj
 0001:0002943c       __scrt_dllmain_crt_thread_detach 000000018002a43c f   LIBCMT:utility.obj
 0001:00029454       __scrt_dllmain_exception_filter 000000018002a454 f   LIBCMT:utility.obj
 0001:000294b4       __scrt_dllmain_uninitialize_c 000000018002a4b4 f   LIBCMT:utility.obj
 0001:000294e4       __scrt_dllmain_uninitialize_critical 000000018002a4e4 f   LIBCMT:utility.obj
 0001:000294f8       __scrt_initialize_crt      000000018002a4f8 f   LIBCMT:utility.obj
 0001:00029534       __scrt_initialize_onexit_tables 000000018002a534 f   LIBCMT:utility.obj
 0001:000295c0       __scrt_is_nonwritable_in_current_image 000000018002a5c0 f   LIBCMT:utility.obj
 0001:00029658       __scrt_release_startup_lock 000000018002a658 f   LIBCMT:utility.obj
 0001:0002967c       __scrt_uninitialize_crt    000000018002a67c f   LIBCMT:utility.obj
 0001:000296a8       __scrt_get_dyn_tls_init_callback 000000018002a6a8 f   LIBCMT:dyn_tls_init.obj
 0001:000296b0       __crt_debugger_hook        000000018002a6b0 f   LIBCMT:utility_desktop.obj
 0001:000296b8       __scrt_fastfail            000000018002a6b8 f   LIBCMT:utility_desktop.obj
 0001:00029800       _RTC_Initialize            000000018002a800 f   LIBCMT:initsect.obj
 0001:0002983c       _RTC_Terminate             000000018002a83c f   LIBCMT:initsect.obj
 0001:00029880       __common_ssin_cout_rare    000000018002a880 f   LIBCMT:svml_s_sin_cout.obj
 0001:000298f0       __scrt_is_ucrt_dll_in_use  000000018002a8f0 f   LIBCMT:ucrt_detection.obj
 0001:000298fc       _get_purecall_handler      000000018002a8fc f   libvcruntime:purevirt.obj
 0001:00029908       _purecall                  000000018002a908 f   libvcruntime:purevirt.obj
 0001:0002992c       __std_type_info_compare    000000018002a92c f   libvcruntime:std_type_info.obj
 0001:00029954       __std_type_info_destroy_list 000000018002a954 f   libvcruntime:std_type_info.obj
 0001:00029980       __std_type_info_name       000000018002a980 f   libvcruntime:std_type_info.obj
 0001:00029aa0       strstr                     000000018002aaa0 f   libvcruntime:strstr.obj
 0001:00029c90       __C_specific_handler       000000018002ac90 f   libvcruntime:riscchandler.obj
 0001:00029ea8       __vcrt_initialize          000000018002aea8 f   libvcruntime:initialization.obj
 0001:00029ed0       __vcrt_thread_attach       000000018002aed0 f   libvcruntime:initialization.obj
 0001:00029ee4       __vcrt_thread_detach       000000018002aee4 f   libvcruntime:initialization.obj
 0001:00029ef4       __vcrt_uninitialize        000000018002aef4 f   libvcruntime:initialization.obj
 0001:00029f10       __vcrt_uninitialize_critical 000000018002af10 f   libvcruntime:initialization.obj
 0001:00029f20       __DestructExceptionObject  000000018002af20 f   libvcruntime:ehhelpers.obj
 0001:00029f90       ?_CallMemberFunction0@@YAXQEAX0@Z 000000018002af90 f i libvcruntime:ehhelpers.obj
 0001:00029f94       _IsExceptionObjectToBeDestroyed 000000018002af94 f   libvcruntime:ehhelpers.obj
 0001:00029fc4       __AdjustPointer            000000018002afc4 f   libvcruntime:ehhelpers.obj
 0001:00029fe8       __FrameUnwindFilter        000000018002afe8 f   libvcruntime:ehhelpers.obj
 0001:0002a050       __std_terminate            000000018002b050 f   libvcruntime:ehhelpers.obj
 0001:0002a05c       ??$?0$00@DName@@QEAA@PEBDU?$StringLifeSelector@$00@@@Z 000000018002b05c f i libvcruntime:undname.obj
 0001:0002a09c       ??$?0$01@DName@@QEAA@PEBDU?$StringLifeSelector@$01@@@Z 000000018002b09c f i libvcruntime:undname.obj
 0001:0002a09c       ??$?0$0A@@DName@@QEAA@PEBDU?$StringLifeSelector@$0A@@@@Z 000000018002b09c f i libvcruntime:undname.obj
 0001:0002a0dc       ??$?0$01@pcharNode@@QEAA@PEBDHU?$StringLifeSelector@$01@@@Z 000000018002b0dc f i libvcruntime:undname.obj
 0001:0002a0dc       ??$?0$0A@@pcharNode@@QEAA@PEBDHU?$StringLifeSelector@$0A@@@@Z 000000018002b0dc f i libvcruntime:undname.obj
 0001:0002a150       ??$append@VDNameNode@@@DName@@AEAAXPEBVDNameNode@@@Z 000000018002b150 f i libvcruntime:undname.obj
 0001:0002a150       ??$append@VDNameStatusNode@@@DName@@AEAAXPEBVDNameStatusNode@@@Z 000000018002b150 f i libvcruntime:undname.obj
 0001:0002a150       ??$append@VcharNode@@@DName@@AEAAXPEBVcharNode@@@Z 000000018002b150 f i libvcruntime:undname.obj
 0001:0002a150       ??$append@VpcharNode@@@DName@@AEAAXPEBVpcharNode@@@Z 000000018002b150 f i libvcruntime:undname.obj
 0001:0002a1b4       ??$doPchar@$00@DName@@AEAAXPEBDH@Z 000000018002b1b4 f i libvcruntime:undname.obj
 0001:0002a24c       ??$doPchar@$01@DName@@AEAAXPEBDH@Z 000000018002b24c f i libvcruntime:undname.obj
 0001:0002a24c       ??$doPchar@$0A@@DName@@AEAAXPEBDH@Z 000000018002b24c f i libvcruntime:undname.obj
 0001:0002a2e4       ??0DName@@QEAA@AEAPEBDD@Z  000000018002b2e4 f   libvcruntime:undname.obj
 0001:0002a398       ??0DName@@QEAA@AEBUStringLiteral@@@Z 000000018002b398 f   libvcruntime:undname.obj
 0001:0002a3c4       ??0DName@@QEAA@PEAV0@@Z    000000018002b3c4 f   libvcruntime:undname.obj
 0001:0002a448       ??0DName@@QEAA@_J@Z        000000018002b448 f   libvcruntime:undname.obj
 0001:0002a4ec       ??0DName@@QEAA@_K@Z        000000018002b4ec f   libvcruntime:undname.obj
 0001:0002a574       ??0UnDecorator@@QEAA@PEBDP6APEADJ@ZK@Z 000000018002b574 f i libvcruntime:undname.obj
 0001:0002a628       ??2@YAPEAX_KAEAV_HeapManager@@H@Z 000000018002b628 f   libvcruntime:undname.obj
 0001:0002a654       ??AReplicator@@QEBA?AVDName@@H@Z 000000018002b654 f   libvcruntime:undname.obj
 0001:0002a694       ??HDName@@QEBA?AV0@AEBUStringLiteral@@@Z 000000018002b694 f   libvcruntime:undname.obj
 0001:0002a6c0       ??HDName@@QEBA?AV0@AEBV0@@Z 000000018002b6c0 f   libvcruntime:undname.obj
 0001:0002a6ec       ??HDName@@QEBA?AV0@D@Z     000000018002b6ec f   libvcruntime:undname.obj
 0001:0002a718       ??HDName@@QEBA?AV0@W4DNameStatus@@@Z 000000018002b718 f   libvcruntime:undname.obj
 0001:0002a744       ??YDName@@QEAAAEAV0@AEBUStringLiteral@@@Z 000000018002b744 f   libvcruntime:undname.obj
 0001:0002a7c4       ??YDName@@QEAAAEAV0@AEBV0@@Z 000000018002b7c4 f   libvcruntime:undname.obj
 0001:0002a878       ??YDName@@QEAAAEAV0@D@Z    000000018002b878 f   libvcruntime:undname.obj
 0001:0002a8e4       ??YDName@@QEAAAEAV0@W4DNameStatus@@@Z 000000018002b8e4 f   libvcruntime:undname.obj
 0001:0002a950       ??YReplicator@@QEAAAEAV0@AEBVDName@@@Z 000000018002b950 f   libvcruntime:undname.obj
 0001:0002a9a8       ?UScore@UnDecorator@@SA?AUStringLiteral@@W4Tokens@@@Z 000000018002b9a8 f   libvcruntime:undname.obj
 0001:0002a9f4       ?composeDeclaration@UnDecorator@@CA?AVDName@@AEBV2@@Z 000000018002b9f4 f i libvcruntime:undname.obj
 0001:0002b9b0       ?doPchar@DName@@AEAAXD@Z   000000018002c9b0 f   libvcruntime:undname.obj
 0001:0002ba00       ?getAddressOf@UnDecorator@@CA?AVDName@@XZ 000000018002ca00 f   libvcruntime:undname.obj
 0001:0002ba90       ?getArgumentList@UnDecorator@@CA?AVDName@@XZ 000000018002ca90 f   libvcruntime:undname.obj
 0001:0002bc24       ?getArgumentTypes@UnDecorator@@CA?AVDName@@XZ 000000018002cc24 f   libvcruntime:undname.obj
 0001:0002bd70       ?getArrayAccess@UnDecorator@@CA?AVDName@@XZ 000000018002cd70 f   libvcruntime:undname.obj
 0001:0002be0c       ?getArrayObject@UnDecorator@@CA?AVDName@@XZ 000000018002ce0c f   libvcruntime:undname.obj
 0001:0002bedc       ?getArrayType@UnDecorator@@CA?AVDName@@AEBV2@@Z 000000018002cedc f i libvcruntime:undname.obj
 0001:0002c138       ?getBasedType@UnDecorator@@CA?AVDName@@XZ 000000018002d138 f   libvcruntime:undname.obj
 0001:0002c230       ?getBasicDataType@UnDecorator@@CA?AVDName@@AEBV2@@Z 000000018002d230 f   libvcruntime:undname.obj
 0001:0002c834       ?getCallingConvention@UnDecorator@@CA?AVDName@@XZ 000000018002d834 f   libvcruntime:undname.obj
 0001:0002c954       ?getDataIndirectType@UnDecorator@@CA?AVDName@@AEBV2@W4IndirectionKind@@0H@Z 000000018002d954 f   libvcruntime:undname.obj
 0001:0002d408       ?getDataType@UnDecorator@@CA?AVDName@@PEAV2@@Z 000000018002e408 f   libvcruntime:undname.obj
 0001:0002d51c       ?getDecoratedName@UnDecorator@@CA?AVDName@@XZ 000000018002e51c f   libvcruntime:undname.obj
 0001:0002d804       ?getDimension@UnDecorator@@CA?AVDName@@_N@Z 000000018002e804 f   libvcruntime:undname.obj
 0001:0002d94c       ?getDispatchTarget@UnDecorator@@CA?AVDName@@XZ 000000018002e94c f   libvcruntime:undname.obj
 0001:0002d9ac       ?getECSUDataType@UnDecorator@@CA?AVDName@@XZ 000000018002e9ac f   libvcruntime:undname.obj
 0001:0002dba8       ?getEnumType@UnDecorator@@CA?AVDName@@XZ 000000018002eba8 f i libvcruntime:undname.obj
 0001:0002dcd0       ?getExtendedDataIndirectType@UnDecorator@@CA?AVDName@@AEAW4IndirectionKind@@AEA_NH@Z 000000018002ecd0 f   libvcruntime:undname.obj
 0001:0002df40       ?getExternalDataType@UnDecorator@@CA?AVDName@@AEBV2@@Z 000000018002ef40 f i libvcruntime:undname.obj
 0001:0002e000       ?getFloatingPoint@UnDecorator@@CA?AVDName@@H@Z 000000018002f000 f   libvcruntime:undname.obj
 0001:0002e168       ?getFunctionIndirectType@UnDecorator@@CA?AVDName@@AEBV2@@Z 000000018002f168 f   libvcruntime:undname.obj
 0001:0002e69c       ?getLastChar@DNameStatusNode@@UEBADXZ 000000018002f69c f i libvcruntime:undname.obj
 0001:0002e6a8       ?getLastChar@charNode@@UEBADXZ 000000018002f6a8 f i libvcruntime:undname.obj
 0001:0002e6ac       ?getLastChar@pDNameNode@@UEBADXZ 000000018002f6ac f i libvcruntime:undname.obj
 0001:0002e6d8       ?getLastChar@pairNode@@UEBADXZ 000000018002f6d8 f i libvcruntime:undname.obj
 0001:0002e710       ?getLastChar@pcharNode@@UEBADXZ 000000018002f710 f i libvcruntime:undname.obj
 0001:0002e724       ?getLexicalFrame@UnDecorator@@CA?AVDName@@XZ 000000018002f724 f i libvcruntime:undname.obj
 0001:0002e788       ?getMemberAccess@UnDecorator@@CA?AVDName@@XZ 000000018002f788 f   libvcruntime:undname.obj
 0001:0002e81c       ?getMemoryWithBuffer@_HeapManager@@QEAAPEAX_K@Z 000000018002f81c f   libvcruntime:undname.obj
 0001:0002e8ac       ?getNoexcept@UnDecorator@@CA?AVDName@@XZ 000000018002f8ac f   libvcruntime:undname.obj
 0001:0002e910       ?getNumberOfDimensions@UnDecorator@@CAHXZ 000000018002f910 f   libvcruntime:undname.obj
 0001:0002e96c       ?getOperatorName@UnDecorator@@CA?AVDName@@_NPEA_N@Z 000000018002f96c f i libvcruntime:undname.obj
 0001:0002f308       ?getPointerToMember@UnDecorator@@CA?AVDName@@XZ 0000000180030308 f   libvcruntime:undname.obj
 0001:0002f400       ?getPrimaryDataType@UnDecorator@@CA?AVDName@@AEBV2@@Z 0000000180030400 f   libvcruntime:undname.obj
 0001:0002f6b8       ?getPtrRefDataType@UnDecorator@@CA?AVDName@@AEBV2@H@Z 00000001800306b8 f   libvcruntime:undname.obj
 0001:0002f884       ?getPtrRefType@UnDecorator@@CA?AVDName@@AEBV2@0W4IndirectionKind@@@Z 0000000180030884 f   libvcruntime:undname.obj
 0001:0002fa6c       ?getRestrictionSpec@UnDecorator@@CA?AVDName@@XZ 0000000180030a6c f   libvcruntime:undname.obj
 0001:0002fc48       ?getReturnType@UnDecorator@@CA?AVDName@@PEAV2@@Z 0000000180030c48 f   libvcruntime:undname.obj
 0001:0002fc7c       ?getScope@UnDecorator@@CA?AVDName@@XZ 0000000180030c7c f   libvcruntime:undname.obj
 0001:00030134       ?getScopedName@UnDecorator@@CA?AVDName@@XZ 0000000180031134 f   libvcruntime:undname.obj
 0001:00030274       ?getSignedDimension@UnDecorator@@CA?AVDName@@XZ 0000000180031274 f   libvcruntime:undname.obj
 0001:000302fc       ?getString@DNameStatusNode@@UEBAPEADPEAD0@Z 00000001800312fc f i libvcruntime:undname.obj
 0001:00030344       ?getString@charNode@@UEBAPEADPEAD0@Z 0000000180031344 f i libvcruntime:undname.obj
 0001:00030358       ?getString@pDNameNode@@UEBAPEADPEAD0@Z 0000000180031358 f i libvcruntime:undname.obj
 0001:00030388       ?getString@pairNode@@UEBAPEADPEAD0@Z 0000000180031388 f i libvcruntime:undname.obj
 0001:000303d4       ?getString@pcharNode@@UEBAPEADPEAD0@Z 00000001800313d4 f i libvcruntime:undname.obj
 0001:0003040c       ?getStringEncoding@UnDecorator@@CA?AVDName@@W4PrefixKind@@H@Z 000000018003140c f   libvcruntime:undname.obj
 0001:0003051c       ?getStringObject@UnDecorator@@CA?AVDName@@XZ 000000018003151c f   libvcruntime:undname.obj
 0001:000305ac       ?getSymbolName@UnDecorator@@CA?AVDName@@XZ 00000001800315ac f i libvcruntime:undname.obj
 0001:000305f8       ?getTemplateArgumentList@UnDecorator@@CA?AVDName@@XZ 00000001800315f8 f   libvcruntime:undname.obj
 0001:00030818       ?getTemplateName@UnDecorator@@CA?AVDName@@_N@Z 0000000180031818 f   libvcruntime:undname.obj
 0001:00030ac8       ?getTemplateNonTypeArgument@UnDecorator@@CA?AVDName@@XZ 0000000180031ac8 f   libvcruntime:undname.obj
 0001:00031018       ?getTemplateTypeArgument@UnDecorator@@CA?AVDName@@XZ 0000000180032018 f   libvcruntime:undname.obj
 0001:00031180       ?getThrowTypes@UnDecorator@@CA?AVDName@@XZ 0000000180032180 f   libvcruntime:undname.obj
 0001:000311a4       ?getTypeEncoding@UnDecorator@@CAHXZ 00000001800321a4 f i libvcruntime:undname.obj
 0001:0003155c       ?getUndecoratedName@UnDecorator@@QEAAPEADPEADH@Z 000000018003255c f i libvcruntime:undname.obj
 0001:000316bc       ?getUnionObject@UnDecorator@@CA?AVDName@@XZ 00000001800326bc f   libvcruntime:undname.obj
 0001:00031794       ?getVCallThunkType@UnDecorator@@CA?AVDName@@XZ 0000000180032794 f i libvcruntime:undname.obj
 0001:0003180c       ?getValue@UnDecorator@@CA?AV?$optional@_K@std@@XZ 000000018003280c f   libvcruntime:undname.obj
 0001:00031850       ?getValueObject@UnDecorator@@CA?AVDName@@XZ 0000000180032850 f   libvcruntime:undname.obj
 0001:000319d4       ?getVdispMapType@UnDecorator@@CA?AVDName@@AEBV2@@Z 00000001800329d4 f i libvcruntime:undname.obj
 0001:00031a50       ?getVfTableType@UnDecorator@@CA?AVDName@@AEBV2@@Z 0000000180032a50 f i libvcruntime:undname.obj
 0001:00031c5c       ?getZName@UnDecorator@@CA?AVDName@@_N0@Z 0000000180032c5c f   libvcruntime:undname.obj
 0001:00031f34       ?length@DNameStatusNode@@UEBAHXZ 0000000180032f34 f i libvcruntime:undname.obj
 0001:00031f34       ?raw_length@DNameStatusNode@@UEBAHXZ 0000000180032f34 f i libvcruntime:undname.obj
 0001:00031f38       ?length@pDNameNode@@UEBAHXZ 0000000180032f38 f i libvcruntime:undname.obj
 0001:00031f60       ?length@pairNode@@UEBAHXZ  0000000180032f60 f i libvcruntime:undname.obj
 0001:00031fa8       ?make@DNameStatusNode@@SAPEBV1@W4DNameStatus@@@Z 0000000180032fa8 f i libvcruntime:undname.obj
 0001:00031fc8       ?parseDecoratedName@UnDecorator@@CA?AVDName@@XZ 0000000180032fc8 f   libvcruntime:undname.obj
 0001:000320e0       ?raw_length@pDNameNode@@UEBAHXZ 00000001800330e0 f i libvcruntime:undname.obj
 0001:000320e4       ?raw_length@pairNode@@UEBAHXZ 00000001800330e4 f i libvcruntime:undname.obj
 0001:000320e8       __unDName                  00000001800330e8 f   libvcruntime:undname.obj
 0001:00032110       __unDNameEx                0000000180033110 f   libvcruntime:undname.obj
 0001:00032200       snprintf                   0000000180033200 f i libvcruntime:undname.obj
 0001:00032258       sprintf_s                  0000000180033258 f i libvcruntime:undname.obj
 0001:000322e0       _NLG_Notify                00000001800332e0 f   libvcruntime:notify.obj
 0001:00032300       __NLG_Dispatch2            0000000180033300 f   libvcruntime:notify.obj
 0001:00032310       __NLG_Return2              0000000180033310 f   libvcruntime:notify.obj
 0001:00032314       __except_validate_context_record 0000000180033314 f   libvcruntime:jbcxrval.obj
 0001:0003234c       __vcrt_freefls             000000018003334c f   libvcruntime:per_thread_data.obj
 0001:0003236c       __vcrt_freeptd_for_this_thread 000000018003336c f   libvcruntime:per_thread_data.obj
 0001:000323b4       __vcrt_getptd              00000001800333b4 f   libvcruntime:per_thread_data.obj
 0001:000323d0       __vcrt_getptd_noexit       00000001800333d0 f   libvcruntime:per_thread_data.obj
 0001:00032490       __vcrt_initialize_ptd      0000000180033490 f   libvcruntime:per_thread_data.obj
 0001:000324d8       __vcrt_uninitialize_ptd    00000001800334d8 f   libvcruntime:per_thread_data.obj
 0001:000324fc       __vcrt_initialize_locks    00000001800334fc f   libvcruntime:locks.obj
 0001:00032544       __vcrt_lock                0000000180033544 f   libvcruntime:locks.obj
 0001:00032560       __vcrt_uninitialize_locks  0000000180033560 f   libvcruntime:locks.obj
 0001:00032598       __vcrt_unlock              0000000180033598 f   libvcruntime:locks.obj
 0001:000325b4       ??$_CallSETranslator@V__FrameHandler3@@@@YAHPEAUEHExceptionRecord@@PEA_KPEAU_CONTEXT@@PEAU_xDISPATCHER_CONTEXT@@PEBU_s_FuncInfo@@K1H@Z 00000001800335b4 f i libvcruntime:risctrnsctrl.obj
 0001:00032608       ??$_CallSETranslator@V__FrameHandler4@@@@YAHPEAUEHExceptionRecord@@PEA_KPEAU_CONTEXT@@PEAU_xDISPATCHER_CONTEXT@@PEAUFuncInfo4@FH4@@K1H@Z 0000000180033608 f i libvcruntime:risctrnsctrl.obj
 0001:0003265c       ?CatchTryBlock@__FrameHandler3@@SAPEBU_s_TryBlockMapEntry@@PEBU_s_FuncInfo@@H@Z 000000018003365c f   libvcruntime:risctrnsctrl.obj
 0001:000326c0       ?DecompFuncInfo@FH4@@YA_JPEAEAEAUFuncInfo4@1@_KH_N@Z 00000001800336c0 f i libvcruntime:risctrnsctrl.obj
 0001:000327f8       ?ExecutionInCatch@__FrameHandler3@@SA_NPEAU_xDISPATCHER_CONTEXT@@PEBU_s_FuncInfo@@@Z 00000001800337f8 f   libvcruntime:risctrnsctrl.obj
 0001:00032824       ?ExecutionInCatch@__FrameHandler4@@SA_NPEAU_xDISPATCHER_CONTEXT@@PEAUFuncInfo4@FH4@@@Z 0000000180033824 f   libvcruntime:risctrnsctrl.obj
 0001:0003282c       ?FrameUnwindToEmptyState@__FrameHandler3@@SAXPEA_KPEAU_xDISPATCHER_CONTEXT@@PEBU_s_FuncInfo@@@Z 000000018003382c f   libvcruntime:risctrnsctrl.obj
 0001:00032890       ?FrameUnwindToEmptyState@__FrameHandler4@@SAXPEA_KPEAU_xDISPATCHER_CONTEXT@@PEAUFuncInfo4@FH4@@@Z 0000000180033890 f   libvcruntime:risctrnsctrl.obj
 0001:000328c4       ?GetEstablisherFrame@__FrameHandler3@@SAPEA_KPEA_KPEAU_xDISPATCHER_CONTEXT@@PEBU_s_FuncInfo@@0@Z 00000001800338c4 f   libvcruntime:risctrnsctrl.obj
 0001:00032994       ?GetEstablisherFrame@__FrameHandler4@@SAPEA_KPEA_KPEAU_xDISPATCHER_CONTEXT@@PEAUFuncInfo4@FH4@@0@Z 0000000180033994 f   libvcruntime:risctrnsctrl.obj
 0001:000329b8       ?GetRangeOfTrysToCheck@__FrameHandler3@@SA?AU?$pair@Viterator@TryBlockMap@__FrameHandler3@@V123@@std@@AEAVTryBlockMap@1@HPEAU_xDISPATCHER_CONTEXT@@PEBU_s_FuncInfo@@H@Z 00000001800339b8 f   libvcruntime:risctrnsctrl.obj
 0001:00032aec       ?GetRangeOfTrysToCheck@__FrameHandler4@@SA?AU?$pair@Viterator@TryBlockMap4@FH4@@V123@@std@@AEAVTryBlockMap4@FH4@@HPEAU_xDISPATCHER_CONTEXT@@PEAUFuncInfo4@5@H@Z 0000000180033aec f   libvcruntime:risctrnsctrl.obj
 0001:00032c58       ?UnwindNestedFrames@__FrameHandler3@@SAXPEA_KPEAUEHExceptionRecord@@PEAU_CONTEXT@@0PEAXPEBU_s_FuncInfo@@HHPEBU_s_HandlerType@@PEAU_xDISPATCHER_CONTEXT@@E@Z 0000000180033c58 f   libvcruntime:risctrnsctrl.obj
 0001:00032d5c       ?UnwindNestedFrames@__FrameHandler4@@SAXPEA_KPEAUEHExceptionRecord@@PEAU_CONTEXT@@0PEAXPEAUFuncInfo4@FH4@@HHPEAUHandlerType4@5@PEAU_xDISPATCHER_CONTEXT@@E@Z 0000000180033d5c f   libvcruntime:risctrnsctrl.obj
 0001:00032e7c       ?setBuffer@TryBlockMap4@FH4@@QEAAXViterator@12@@Z 0000000180033e7c f i libvcruntime:risctrnsctrl.obj
 0001:00033040       _CreateFrameInfo           0000000180034040 f   libvcruntime:risctrnsctrl.obj
 0001:0003307c       _FindAndUnlinkFrame        000000018003407c f   libvcruntime:risctrnsctrl.obj
 0001:000330d0       _GetImageBase              00000001800340d0 f   libvcruntime:risctrnsctrl.obj
 0001:000330e4       _GetThrowImageBase         00000001800340e4 f   libvcruntime:risctrnsctrl.obj
 0001:000330f8       _SetImageBase              00000001800340f8 f   libvcruntime:risctrnsctrl.obj
 0001:00033110       _SetThrowImageBase         0000000180034110 f   libvcruntime:risctrnsctrl.obj
 0001:00033128       __CxxFrameHandler3         0000000180034128 f   libvcruntime:risctrnsctrl.obj
 0001:000331b0       __CxxFrameHandler4         00000001800341b0 f   libvcruntime:risctrnsctrl.obj
 0001:000333c0       __vcrt_FlsAlloc            00000001800343c0 f   libvcruntime:winapi_downlevel.obj
 0001:00033408       __vcrt_FlsFree             0000000180034408 f   libvcruntime:winapi_downlevel.obj
 0001:00033450       __vcrt_FlsGetValue         0000000180034450 f   libvcruntime:winapi_downlevel.obj
 0001:00033498       __vcrt_FlsSetValue         0000000180034498 f   libvcruntime:winapi_downlevel.obj
 0001:000334ec       __vcrt_InitializeCriticalSectionEx 00000001800344ec f   libvcruntime:winapi_downlevel.obj
 0001:00033550       ?GetCurrentState@__FrameHandler3@@SAHPEA_KPEAU_xDISPATCHER_CONTEXT@@PEBU_s_FuncInfo@@@Z 0000000180034550 f   libvcruntime:ehstate.obj
 0001:00033578       ?GetUnwindTryBlock@__FrameHandler3@@SAHPEA_KPEAU_xDISPATCHER_CONTEXT@@PEBU_s_FuncInfo@@@Z 0000000180034578 f   libvcruntime:ehstate.obj
 0001:000335a4       ?SetState@__FrameHandler3@@SAXPEA_KPEBU_s_FuncInfo@@H@Z 00000001800345a4 f   libvcruntime:ehstate.obj
 0001:000335b0       ?SetUnwindTryBlock@__FrameHandler3@@SAXPEA_KPEAU_xDISPATCHER_CONTEXT@@PEBU_s_FuncInfo@@H@Z 00000001800345b0 f   libvcruntime:ehstate.obj
 0001:000335ec       ?StateFromControlPc@__FrameHandler3@@SAHPEBU_s_FuncInfo@@PEAU_xDISPATCHER_CONTEXT@@@Z 00000001800345ec f   libvcruntime:ehstate.obj
 0001:000335f4       ?StateFromControlPc@__FrameHandler4@@SAHPEAUFuncInfo4@FH4@@PEAU_xDISPATCHER_CONTEXT@@@Z 00000001800345f4 f   libvcruntime:ehstate.obj
 0001:000335fc       ?StateFromIp@__FrameHandler3@@SAHPEBU_s_FuncInfo@@PEAU_xDISPATCHER_CONTEXT@@_K@Z 00000001800345fc f   libvcruntime:ehstate.obj
 0001:00033664       ?StateFromIp@__FrameHandler4@@SAHPEAUFuncInfo4@FH4@@PEAU_xDISPATCHER_CONTEXT@@_K@Z 0000000180034664 f   libvcruntime:ehstate.obj
 0001:00034dbc       ??$TypeMatchHelper@V__FrameHandler3@@@@YAHPEBU_s_HandlerType@@PEBU_s_CatchableType@@PEBU_s_ThrowInfo@@@Z 0000000180035dbc f i libvcruntime:frame.obj
 0001:00034efc       ??$TypeMatchHelper@V__FrameHandler4@@@@YAHPEAUHandlerType4@FH4@@PEBU_s_CatchableType@@PEBU_s_ThrowInfo@@@Z 0000000180035efc f i libvcruntime:frame.obj
 0001:00035048       ??$__InternalCxxFrameHandler@V__FrameHandler3@@@@YA?AW4_EXCEPTION_DISPOSITION@@PEAUEHExceptionRecord@@PEA_KPEAU_CONTEXT@@PEAU_xDISPATCHER_CONTEXT@@PEBU_s_FuncInfo@@H1E@Z 0000000180036048 f i libvcruntime:frame.obj
 0001:00035280       ??$__InternalCxxFrameHandler@V__FrameHandler4@@@@YA?AW4_EXCEPTION_DISPOSITION@@PEAUEHExceptionRecord@@PEA_KPEAU_CONTEXT@@PEAU_xDISPATCHER_CONTEXT@@PEAUFuncInfo4@FH4@@H1E@Z 0000000180036280 f i libvcruntime:frame.obj
 0001:00035514       ??$__InternalCxxFrameHandlerWrapper@V__FrameHandler3@@@@YA?AW4_EXCEPTION_DISPOSITION@@PEAUEHExceptionRecord@@PEA_KPEAU_CONTEXT@@PEAU_xDISPATCHER_CONTEXT@@PEBU_s_FuncInfo@@H1E@Z 0000000180036514 f i libvcruntime:frame.obj
 0001:0003551c       ??$__InternalCxxFrameHandlerWrapper@V__FrameHandler4@@@@YA?AW4_EXCEPTION_DISPOSITION@@PEAUEHExceptionRecord@@PEA_KPEAU_CONTEXT@@PEAU_xDISPATCHER_CONTEXT@@PEAUFuncInfo4@FH4@@H1E@Z 000000018003651c f i libvcruntime:frame.obj
 0001:00035568       ??0HandlerMap4@FH4@@QEAA@PEBUTryBlockMapEntry4@1@_KH@Z 0000000180036568 f i libvcruntime:frame.obj
 0001:000355ec       ??0TryBlockMap4@FH4@@QEAA@PEBUFuncInfo4@1@_K@Z 00000001800365ec f i libvcruntime:frame.obj
 0001:000356d0       ??0bad_exception@std@@QEAA@AEBV01@@Z 00000001800366d0 f i libvcruntime:frame.obj
 0001:0003570c       ??0bad_exception@std@@QEAA@XZ 000000018003670c f i libvcruntime:frame.obj
 0001:0003572c       ??0exception@std@@QEAA@AEBV01@@Z 000000018003672c f i libvcruntime:frame.obj
 0001:00035760       ??1bad_exception@std@@UEAA@XZ 0000000180036760 f i libvcruntime:frame.obj
 0001:00035774       ??_Ebad_exception@std@@UEAAPEAXI@Z 0000000180036774 f i libvcruntime:frame.obj
 0001:00035774       ??_Eexception@std@@UEAAPEAXI@Z 0000000180036774 f i libvcruntime:frame.obj
 0001:00035774       ??_Gbad_exception@std@@UEAAPEAXI@Z 0000000180036774 f i libvcruntime:frame.obj
 0001:00035774       ??_Gexception@std@@UEAAPEAXI@Z 0000000180036774 f i libvcruntime:frame.obj
 0001:000357b8       ?CxxCallCatchBlock@__FrameHandler3@@SAPEAXPEAU_EXCEPTION_RECORD@@@Z 00000001800367b8 f   libvcruntime:frame.obj
 0001:000359a4       ?CxxCallCatchBlock@__FrameHandler4@@SAPEAXPEAU_EXCEPTION_RECORD@@@Z 00000001800369a4 f   libvcruntime:frame.obj
 0001:00035bf4       ?DecompHandler@HandlerMap4@FH4@@AEAAXXZ 0000000180036bf4 f i libvcruntime:frame.obj
 0001:00035e3c       ?FrameUnwindToState@__FrameHandler3@@SAXPEA_KPEAU_xDISPATCHER_CONTEXT@@PEBU_s_FuncInfo@@H@Z 0000000180036e3c f   libvcruntime:frame.obj
 0001:00035fc8       ?FrameUnwindToState@__FrameHandler4@@SAXPEA_KPEAU_xDISPATCHER_CONTEXT@@PEAUFuncInfo4@FH4@@H@Z 0000000180036fc8 f   libvcruntime:frame.obj
 0001:000362d0       ?GetHandlerSearchState@__FrameHandler3@@SAHPEA_KPEAU_xDISPATCHER_CONTEXT@@PEBU_s_FuncInfo@@@Z 00000001800372d0 f i libvcruntime:frame.obj
 0001:000364e0       ?ReadEntry@UWMap4@FH4@@AEAAXPEAPEAE@Z 00000001800374e0 f i libvcruntime:frame.obj
 0001:0003657c       ?_CallMemberFunction1@@YAXQEAX00@Z 000000018003757c f i libvcruntime:frame.obj
 0001:00036588       ?_CallMemberFunction2@@YAXQEAX00H@Z 0000000180037588 f i libvcruntime:frame.obj
 0001:00036598       ?getStartStop@UWMap4@FH4@@QEAAXHHAEAViterator@12@0@Z 0000000180037598 f i libvcruntime:frame.obj
 0001:00036668       ?getStateFromIterators@UWMap4@FH4@@SAHAEBViterator@12@H0H0@Z 0000000180037668 f i libvcruntime:frame.obj
 0001:00036718       ?what@exception@std@@UEBAPEBDXZ 0000000180037718 f i libvcruntime:frame.obj
 0001:00036770       _CallSettingFrame          0000000180037770 f   libvcruntime:handlers.obj
 0001:000367b0       _CallSettingFrame_LookupContinuationIndex 00000001800377b0 f   libvcruntime:handlers.obj
 0001:000367e0       _CallSettingFrame_NotifyContinuationAddr 00000001800377e0 f   libvcruntime:handlers.obj
 0001:00036810       _CallSettingFrameEncoded   0000000180037810 f   libvcruntime:handlers.obj
 0001:00036858       __std_exception_copy       0000000180037858 f   libvcruntime:std_exception.obj
 0001:000368e8       __std_exception_destroy    00000001800378e8 f   libvcruntime:std_exception.obj
 0001:00036910       _CxxThrowException         0000000180037910 f   libvcruntime:throw.obj
 0001:000369d0       strcmp                     00000001800379d0 f   libucrt:strcmp.obj
 0001:00036a38       atan2f                     0000000180037a38 f   libucrt:atan2f.obj
 0001:00036e30       cosf                       0000000180037e30 f   libucrt:cosf.obj
 0001:00037330       sinf                       0000000180038330 f   libucrt:sinf.obj
 0001:00037a28       _fpclass                   0000000180038a28 f   libucrt:ieeemisc.obj
 0001:00037ab0       free                       0000000180038ab0 f   libucrt:free.obj
 0001:00037ac4       _initterm                  0000000180038ac4 f   libucrt:initterm.obj
 0001:00037b08       _initterm_e                0000000180038b08 f   libucrt:initterm.obj
 0001:00037b50       _seh_filter_dll            0000000180038b50 f   libucrt:exception_filter.obj
 0001:00037b64       _seh_filter_exe            0000000180038b64 f   libucrt:exception_filter.obj
 0001:00037f7c       __acrt_initialize_thread_local_exit_callback 0000000180038f7c f   libucrt:exit.obj
 0001:00037f84       _cexit                     0000000180038f84 f   libucrt:exit.obj
 0001:00037f94       _exit                      0000000180038f94 f   libucrt:exit.obj
 0001:00037fa0       _is_c_termination_complete 0000000180038fa0 f   libucrt:exit.obj
 0001:00038170       __acrt_allocate_buffer_for_argv 0000000180039170 f   libucrt:argv_parsing.obj
 0001:000381d0       _configure_narrow_argv     00000001800391d0 f   libucrt:argv_parsing.obj
 0001:00038558       __dcrt_uninitialize_environments_nolock 0000000180039558 f   libucrt:environment_initialization.obj
 0001:0003859c       _initialize_narrow_environment 000000018003959c f   libucrt:environment_initialization.obj
 0001:00038700       _execute_onexit_table      0000000180039700 f   libucrt:onexit.obj
 0001:00038744       _initialize_onexit_table   0000000180039744 f   libucrt:onexit.obj
 0001:000387a4       __acrt_uninitialize_command_line 00000001800397a4 f   libucrt:argv_data.obj
 0001:0003889c       __acrt_initialize          000000018003989c f   libucrt:initialization.obj
 0001:000388b0       __acrt_thread_attach       00000001800398b0 f   libucrt:initialization.obj
 0001:000388c4       __acrt_thread_detach       00000001800398c4 f   libucrt:initialization.obj
 0001:000388d4       __acrt_uninitialize        00000001800398d4 f   libucrt:initialization.obj
 0001:0003890c       __acrt_uninitialize_critical 000000018003990c f   libucrt:initialization.obj
 0001:0003891c       terminate                  000000018003991c f   libucrt:terminate.obj
 0001:00038948       abort                      0000000180039948 f   libucrt:abort.obj
 0001:000389a0       malloc                     00000001800399a0 f   libucrt:malloc.obj
 0001:000389a8       strcpy_s                   00000001800399a8 f   libucrt:strcpy_s.obj
 0001:00038bb8       ??$ensure_buffer_is_big_enough@D@formatting_buffer@__crt_stdio_output@@QEAA_N_KAEAV__crt_cached_ptd_host@@@Z 0000000180039bb8 f i libucrt:output.obj
 0001:00038c60       ??$parse_integer@KV?$c_string_character_source@D@__crt_strtox@@$0A@@__crt_strtox@@YAKAEAV__crt_cached_ptd_host@@V?$c_string_character_source@D@0@H_N@Z 0000000180039c60 f i libucrt:output.obj
 0001:00038f14       ??$type_case_integer@$07@?$output_processor@DV?$string_output_adapter@D@__crt_stdio_output@@V?$format_validation_base@DV?$string_output_adapter@D@__crt_stdio_output@@@2@@__crt_stdio_output@@AEAA_N_N@Z 0000000180039f14 f i libucrt:output.obj
 0001:00038f14       ??$type_case_integer@$07@?$output_processor@DV?$string_output_adapter@D@__crt_stdio_output@@V?$standard_base@DV?$string_output_adapter@D@__crt_stdio_output@@@2@@__crt_stdio_output@@AEAA_N_N@Z 0000000180039f14 f i libucrt:output.obj
 0001:00039118       ??$type_case_integer@$09@?$output_processor@DV?$string_output_adapter@D@__crt_stdio_output@@V?$format_validation_base@DV?$string_output_adapter@D@__crt_stdio_output@@@2@@__crt_stdio_output@@AEAA_N_N@Z 000000018003a118 f i libucrt:output.obj
 0001:00039118       ??$type_case_integer@$09@?$output_processor@DV?$string_output_adapter@D@__crt_stdio_output@@V?$standard_base@DV?$string_output_adapter@D@__crt_stdio_output@@@2@@__crt_stdio_output@@AEAA_N_N@Z 000000018003a118 f i libucrt:output.obj
 0001:0003931c       ??$type_case_integer@$0BA@@?$output_processor@DV?$string_output_adapter@D@__crt_stdio_output@@V?$format_validation_base@DV?$string_output_adapter@D@__crt_stdio_output@@@2@@__crt_stdio_output@@AEAA_N_N@Z 000000018003a31c f i libucrt:output.obj
 0001:0003931c       ??$type_case_integer@$0BA@@?$output_processor@DV?$string_output_adapter@D@__crt_stdio_output@@V?$standard_base@DV?$string_output_adapter@D@__crt_stdio_output@@@2@@__crt_stdio_output@@AEAA_N_N@Z 000000018003a31c f i libucrt:output.obj
 0001:00039520       ??$type_case_integer_parse_into_buffer@I$07@?$output_processor@DV?$string_output_adapter@D@__crt_stdio_output@@V?$format_validation_base@DV?$string_output_adapter@D@__crt_stdio_output@@@2@@__crt_stdio_output@@AEAAXI_N@Z 000000018003a520 f i libucrt:output.obj
 0001:00039520       ??$type_case_integer_parse_into_buffer@I$07@?$output_processor@DV?$string_output_adapter@D@__crt_stdio_output@@V?$standard_base@DV?$string_output_adapter@D@__crt_stdio_output@@@2@@__crt_stdio_output@@AEAAXI_N@Z 000000018003a520 f i libucrt:output.obj
 0001:00039590       ??$type_case_integer_parse_into_buffer@I$09@?$output_processor@DV?$string_output_adapter@D@__crt_stdio_output@@V?$format_validation_base@DV?$string_output_adapter@D@__crt_stdio_output@@@2@@__crt_stdio_output@@AEAAXI_N@Z 000000018003a590 f i libucrt:output.obj
 0001:00039590       ??$type_case_integer_parse_into_buffer@I$09@?$output_processor@DV?$string_output_adapter@D@__crt_stdio_output@@V?$standard_base@DV?$string_output_adapter@D@__crt_stdio_output@@@2@@__crt_stdio_output@@AEAAXI_N@Z 000000018003a590 f i libucrt:output.obj
 0001:0003963c       ??$type_case_integer_parse_into_buffer@I$0BA@@?$output_processor@DV?$string_output_adapter@D@__crt_stdio_output@@V?$format_validation_base@DV?$string_output_adapter@D@__crt_stdio_output@@@2@@__crt_stdio_output@@AEAAXI_N@Z 000000018003a63c f i libucrt:output.obj
 0001:0003963c       ??$type_case_integer_parse_into_buffer@I$0BA@@?$output_processor@DV?$string_output_adapter@D@__crt_stdio_output@@V?$standard_base@DV?$string_output_adapter@D@__crt_stdio_output@@@2@@__crt_stdio_output@@AEAAXI_N@Z 000000018003a63c f i libucrt:output.obj
 0001:000396c0       ??$type_case_integer_parse_into_buffer@_K$07@?$output_processor@DV?$string_output_adapter@D@__crt_stdio_output@@V?$format_validation_base@DV?$string_output_adapter@D@__crt_stdio_output@@@2@@__crt_stdio_output@@AEAAX_K_N@Z 000000018003a6c0 f i libucrt:output.obj
 0001:000396c0       ??$type_case_integer_parse_into_buffer@_K$07@?$output_processor@DV?$string_output_adapter@D@__crt_stdio_output@@V?$standard_base@DV?$string_output_adapter@D@__crt_stdio_output@@@2@@__crt_stdio_output@@AEAAX_K_N@Z 000000018003a6c0 f i libucrt:output.obj
 0001:00039730       ??$type_case_integer_parse_into_buffer@_K$09@?$output_processor@DV?$string_output_adapter@D@__crt_stdio_output@@V?$format_validation_base@DV?$string_output_adapter@D@__crt_stdio_output@@@2@@__crt_stdio_output@@AEAAX_K_N@Z 000000018003a730 f i libucrt:output.obj
 0001:00039730       ??$type_case_integer_parse_into_buffer@_K$09@?$output_processor@DV?$string_output_adapter@D@__crt_stdio_output@@V?$standard_base@DV?$string_output_adapter@D@__crt_stdio_output@@@2@@__crt_stdio_output@@AEAAX_K_N@Z 000000018003a730 f i libucrt:output.obj
 0001:000397e0       ??$type_case_integer_parse_into_buffer@_K$0BA@@?$output_processor@DV?$string_output_adapter@D@__crt_stdio_output@@V?$format_validation_base@DV?$string_output_adapter@D@__crt_stdio_output@@@2@@__crt_stdio_output@@AEAAX_K_N@Z 000000018003a7e0 f i libucrt:output.obj
 0001:000397e0       ??$type_case_integer_parse_into_buffer@_K$0BA@@?$output_processor@DV?$string_output_adapter@D@__crt_stdio_output@@V?$standard_base@DV?$string_output_adapter@D@__crt_stdio_output@@@2@@__crt_stdio_output@@AEAAX_K_N@Z 000000018003a7e0 f i libucrt:output.obj
 0001:00039864       ?crop_zeroes@__crt_stdio_output@@YAXPEADQEAU__crt_locale_pointers@@@Z 000000018003a864 f i libucrt:output.obj
 0001:000398d0       ?get_raw_ptd@__crt_cached_ptd_host@@QEAAPEAU__acrt_ptd@@XZ 000000018003a8d0 f i libucrt:output.obj
 0001:00039938       ?parse_int_from_format_string@?$output_processor@DV?$string_output_adapter@D@__crt_stdio_output@@V?$format_validation_base@DV?$string_output_adapter@D@__crt_stdio_output@@@2@@__crt_stdio_output@@AEAA_NQEAH@Z 000000018003a938 f i libucrt:output.obj
 0001:00039938       ?parse_int_from_format_string@?$output_processor@DV?$string_output_adapter@D@__crt_stdio_output@@V?$standard_base@DV?$string_output_adapter@D@__crt_stdio_output@@@2@@__crt_stdio_output@@AEAA_NQEAH@Z 000000018003a938 f i libucrt:output.obj
 0001:000399c8       ?process@?$output_processor@DV?$string_output_adapter@D@__crt_stdio_output@@V?$format_validation_base@DV?$string_output_adapter@D@__crt_stdio_output@@@2@@__crt_stdio_output@@QEAAHXZ 000000018003a9c8 f i libucrt:output.obj
 0001:00039d4c       ?process@?$output_processor@DV?$string_output_adapter@D@__crt_stdio_output@@V?$standard_base@DV?$string_output_adapter@D@__crt_stdio_output@@@2@@__crt_stdio_output@@QEAAHXZ 000000018003ad4c f i libucrt:output.obj
 0001:0003a0cc       ?state_case_size@?$output_processor@DV?$string_output_adapter@D@__crt_stdio_output@@V?$format_validation_base@DV?$string_output_adapter@D@__crt_stdio_output@@@2@@__crt_stdio_output@@AEAA_NXZ 000000018003b0cc f i libucrt:output.obj
 0001:0003a0cc       ?state_case_size@?$output_processor@DV?$string_output_adapter@D@__crt_stdio_output@@V?$standard_base@DV?$string_output_adapter@D@__crt_stdio_output@@@2@@__crt_stdio_output@@AEAA_NXZ 000000018003b0cc f i libucrt:output.obj
 0001:0003a254       ?state_case_type@?$output_processor@DV?$string_output_adapter@D@__crt_stdio_output@@V?$format_validation_base@DV?$string_output_adapter@D@__crt_stdio_output@@@2@@__crt_stdio_output@@AEAA_NXZ 000000018003b254 f i libucrt:output.obj
 0001:0003a254       ?state_case_type@?$output_processor@DV?$string_output_adapter@D@__crt_stdio_output@@V?$standard_base@DV?$string_output_adapter@D@__crt_stdio_output@@@2@@__crt_stdio_output@@AEAA_NXZ 000000018003b254 f i libucrt:output.obj
 0001:0003a658       ?type_case_Z@?$output_processor@DV?$string_output_adapter@D@__crt_stdio_output@@V?$format_validation_base@DV?$string_output_adapter@D@__crt_stdio_output@@@2@@__crt_stdio_output@@AEAA_NXZ 000000018003b658 f i libucrt:output.obj
 0001:0003a658       ?type_case_Z@?$output_processor@DV?$string_output_adapter@D@__crt_stdio_output@@V?$standard_base@DV?$string_output_adapter@D@__crt_stdio_output@@@2@@__crt_stdio_output@@AEAA_NXZ 000000018003b658 f i libucrt:output.obj
 0001:0003a6d4       ?type_case_a@?$output_processor@DV?$string_output_adapter@D@__crt_stdio_output@@V?$format_validation_base@DV?$string_output_adapter@D@__crt_stdio_output@@@2@@__crt_stdio_output@@AEAA_NXZ 000000018003b6d4 f i libucrt:output.obj
 0001:0003a6d4       ?type_case_a@?$output_processor@DV?$string_output_adapter@D@__crt_stdio_output@@V?$standard_base@DV?$string_output_adapter@D@__crt_stdio_output@@@2@@__crt_stdio_output@@AEAA_NXZ 000000018003b6d4 f i libucrt:output.obj
 0001:0003a928       ?type_case_c_tchar@?$output_processor@DV?$string_output_adapter@D@__crt_stdio_output@@V?$format_validation_base@DV?$string_output_adapter@D@__crt_stdio_output@@@2@@__crt_stdio_output@@AEAA_ND@Z 000000018003b928 f i libucrt:output.obj
 0001:0003a928       ?type_case_c_tchar@?$output_processor@DV?$string_output_adapter@D@__crt_stdio_output@@V?$standard_base@DV?$string_output_adapter@D@__crt_stdio_output@@@2@@__crt_stdio_output@@AEAA_ND@Z 000000018003b928 f i libucrt:output.obj
 0001:0003a9fc       ?type_case_n@?$output_processor@DV?$string_output_adapter@D@__crt_stdio_output@@V?$format_validation_base@DV?$string_output_adapter@D@__crt_stdio_output@@@2@@__crt_stdio_output@@AEAA_NXZ 000000018003b9fc f i libucrt:output.obj
 0001:0003a9fc       ?type_case_n@?$output_processor@DV?$string_output_adapter@D@__crt_stdio_output@@V?$standard_base@DV?$string_output_adapter@D@__crt_stdio_output@@@2@@__crt_stdio_output@@AEAA_NXZ 000000018003b9fc f i libucrt:output.obj
 0001:0003aab4       ?type_case_s@?$output_processor@DV?$string_output_adapter@D@__crt_stdio_output@@V?$format_validation_base@DV?$string_output_adapter@D@__crt_stdio_output@@@2@@__crt_stdio_output@@AEAA_NXZ 000000018003bab4 f i libucrt:output.obj
 0001:0003aab4       ?type_case_s@?$output_processor@DV?$string_output_adapter@D@__crt_stdio_output@@V?$standard_base@DV?$string_output_adapter@D@__crt_stdio_output@@@2@@__crt_stdio_output@@AEAA_NXZ 000000018003bab4 f i libucrt:output.obj
 0001:0003ab50       ?update_locale_slow@__crt_cached_ptd_host@@AEAAXXZ 000000018003bb50 f i libucrt:output.obj
 0001:0003abc8       ?write_string@?$string_output_adapter@D@__crt_stdio_output@@QEBAXQEBDHQEAHAEAV__crt_cached_ptd_host@@@Z 000000018003bbc8 f i libucrt:output.obj
 0001:0003ac6c       __stdio_common_vsprintf    000000018003bc6c f   libucrt:output.obj
 0001:0003aec0       __stdio_common_vsprintf_s  000000018003bec0 f   libucrt:output.obj
 0001:0003afd4       ??$parse_integer@KV?$c_string_character_source@D@__crt_strtox@@$00@__crt_strtox@@YAKAEAV__crt_cached_ptd_host@@V?$c_string_character_source@D@0@H_N@Z 000000018003bfd4 f i libucrt:atox.obj
 0001:0003b2c4       _ischartype_l              000000018003c2c4 f i libucrt:atox.obj
 0001:0003b33c       atol                       000000018003c33c f   libucrt:atox.obj
 0001:0003b400       strncmp                    000000018003c400 f   libucrt:strncmp.obj
 0001:0003b480       calloc                     000000018003c480 f   libucrt:calloc.obj
 0001:0003b488       wcsncmp                    000000018003c488 f   libucrt:wcsncmp.obj
 0001:0003b4b4       _clrfp                     000000018003c4b4 f   libucrt:fpctrl.obj
 0001:0003b4d4       _ctrlfp                    000000018003c4d4 f   libucrt:fpctrl.obj
 0001:0003b550       _set_statfp                000000018003c550 f   libucrt:fpctrl.obj
 0001:0003b570       _statfp                    000000018003c570 f   libucrt:fpctrl.obj
 0001:0003b6a8       _handle_error              000000018003c6a8 f   libucrt:libm_error.obj
 0001:0003b7d0       _handle_errorf             000000018003c7d0 f   libucrt:libm_error.obj
 0001:0003b904       _handle_nan                000000018003c904 f   libucrt:libm_error.obj
 0001:0003b920       _handle_nanf               000000018003c920 f   libucrt:libm_error.obj
 0001:0003b930       __remainder_piby2d2f_forAsm 000000018003c930 f   libucrt:remainder_piby2f_forasm.obj
 0001:0003ba80       __remainder_piby2_fma3     000000018003ca80 f   libucrt:remainder_piby2_forfma3.obj
 0001:0003bc70       __remainder_piby2_fma3_bdl 000000018003cc70 f   libucrt:remainder_piby2_forfma3.obj
 0001:0003bce8       _cosf_special              000000018003cce8 f   libucrt:sincos_special.obj
 0001:0003bd88       _sinf_special              000000018003cd88 f   libucrt:sincos_special.obj
 0001:0003bda0       __acrt_initialize_fma3     000000018003cda0 f   libucrt:fma3_available.obj
 0001:0003be10       __remainder_piby2d2f_forC  000000018003ce10 f   libucrt:remainder_piby2f_forc.obj
 0001:0003bf9c       _free_base                 000000018003cf9c f   libucrt:free_base.obj
 0001:0003c350       __acrt_freeptd             000000018003d350 f   libucrt:per_thread_data.obj
 0001:0003c394       __acrt_getptd              000000018003d394 f   libucrt:per_thread_data.obj
 0001:0003c468       __acrt_getptd_head         000000018003d468 f   libucrt:per_thread_data.obj
 0001:0003c50c       __acrt_getptd_noexit       000000018003d50c f   libucrt:per_thread_data.obj
 0001:0003c5d4       __acrt_getptd_noexit_explicit 000000018003d5d4 f   libucrt:per_thread_data.obj
 0001:0003c694       __acrt_initialize_ptd      000000018003d694 f   libucrt:per_thread_data.obj
 0001:0003c6d0       __acrt_uninitialize_ptd    000000018003d6d0 f   libucrt:per_thread_data.obj
 0001:0003c6f4       __acrt_initialize_locks    000000018003d6f4 f   libucrt:locks.obj
 0001:0003c73c       __acrt_lock                000000018003d73c f   libucrt:locks.obj
 0001:0003c758       __acrt_uninitialize_locks  000000018003d758 f   libucrt:locks.obj
 0001:0003c790       __acrt_unlock              000000018003d790 f   libucrt:locks.obj
 0001:0003c7ac       __acrt_app_verifier_enabled 000000018003d7ac f   libucrt:peb_access.obj
 0001:0003c7c8       __acrt_is_secure_process   000000018003d7c8 f   libucrt:peb_access.obj
 0001:0003c7e0       __acrt_get_process_end_policy 000000018003d7e0 f   libucrt:win_policies.obj
 0001:0003c810       ?get_raw_ptd_noexit@__crt_cached_ptd_host@@QEAAPEAU__acrt_ptd@@XZ 000000018003d810 f i libucrt:invalid_parameter.obj
 0001:0003c87c       ?value@?$dual_state_global@P6AXPEB_W00I_K@Z@__crt_state_management@@QEAAAEAP6AXPEB_W00I_K@ZAEAV__crt_cached_ptd_host@@@Z 000000018003d87c f i libucrt:invalid_parameter.obj
 0001:0003c8c8       __acrt_call_reportfault    000000018003d8c8 f   libucrt:invalid_parameter.obj
 0001:0003ca24       __acrt_initialize_invalid_parameter_handler 000000018003da24 f   libucrt:invalid_parameter.obj
 0001:0003ca2c       _invalid_parameter         000000018003da2c f   libucrt:invalid_parameter.obj
 0001:0003cac8       _invalid_parameter_internal 000000018003dac8 f   libucrt:invalid_parameter.obj
 0001:0003cb94       _invalid_parameter_noinfo  000000018003db94 f   libucrt:invalid_parameter.obj
 0001:0003cbb4       _invoke_watson             000000018003dbb4 f   libucrt:invalid_parameter.obj
 0001:0003cbfc       __acrt_errno_from_os_error 000000018003dbfc f   libucrt:errno.obj
 0001:0003cc44       __acrt_errno_map_os_error  000000018003dc44 f   libucrt:errno.obj
 0001:0003cc8c       __acrt_errno_map_os_error_ptd 000000018003dc8c f   libucrt:errno.obj
 0001:0003ccb0       __doserrno                 000000018003dcb0 f   libucrt:errno.obj
 0001:0003ccd0       _errno                     000000018003dcd0 f   libucrt:errno.obj
 0001:0003ccf0       _calloc_base               000000018003dcf0 f   libucrt:calloc_base.obj
 0001:0003cd7c       ??$__acrt_convert_wcs_mbs_cp@D_WV<lambda_7c9dea7b4ca7285d2cdb541a38da6275>@@U__crt_win32_buffer_internal_dynamic_resizing@@@@YAHQEBDAEAV?$__crt_win32_buffer@_WU__crt_win32_buffer_internal_dynamic_resizing@@@@AEBV<lambda_7c9dea7b4ca7285d2cdb541a38da6275>@@I@Z 000000018003dd7c f i libucrt:argv_wildcards.obj
 0001:0003cef8       ??$__acrt_convert_wcs_mbs_cp@_WDV<lambda_d8593a27d1aa8c02be35c86a17d324c4>@@U__crt_win32_buffer_internal_dynamic_resizing@@@@YAHQEB_WAEAV?$__crt_win32_buffer@DU__crt_win32_buffer_internal_dynamic_resizing@@@@AEBV<lambda_d8593a27d1aa8c02be35c86a17d324c4>@@I@Z 000000018003def8 f i libucrt:argv_wildcards.obj
 0001:0003d79c       ??0_LocaleUpdate@@QEAA@QEAU__crt_locale_pointers@@@Z 000000018003e79c f i libucrt:argv_wildcards.obj
 0001:0003d838       __acrt_expand_narrow_argv_wildcards 000000018003e838 f   libucrt:argv_wildcards.obj
 0001:0003d840       ??$__acrt_convert_wcs_mbs_cp@_WDV<lambda_f788ae46380686e8b737efdd8c720d07>@@U__crt_win32_buffer_no_resizing@@@@YAHQEB_WAEAV?$__crt_win32_buffer@DU__crt_win32_buffer_no_resizing@@@@AEBV<lambda_f788ae46380686e8b737efdd8c720d07>@@I@Z 000000018003e840 f i libucrt:getmodulefilenamea.obj
 0001:0003d95c       __acrt_GetModuleFileNameA  000000018003e95c f   libucrt:getmodulefilenamea.obj
 0001:0003e278       __acrt_initialize_multibyte 000000018003f278 f   libucrt:mbctype.obj
 0001:0003e2d8       __acrt_update_thread_multibyte_data 000000018003f2d8 f   libucrt:mbctype.obj
 0001:0003e2f4       _setmbcp_nolock            000000018003f2f4 f   libucrt:mbctype.obj
 0001:0003e628       _ismbblead                 000000018003f628 f   libucrt:ismbbyte.obj
 0001:0003e63c       __acrt_initialize_command_line 000000018003f63c f   libucrt:argv_data.obj
 0001:0003e664       __acrt_MultiByteToWideChar 000000018003f664 f   libucrt:multibytetowidechar.obj
 0001:0003e6f4       __acrt_WideCharToMultiByte 000000018003f6f4 f   libucrt:widechartomultibyte.obj
 0001:0003e7d4       __dcrt_get_narrow_environment_from_os 000000018003f7d4 f   libucrt:get_environment_from_os.obj
 0001:0003e8e4       _recalloc_base             000000018003f8e4 f   libucrt:recalloc.obj
 0001:0003eb38       __acrt_AppPolicyGetProcessTerminationMethodInternal 000000018003fb38 f   libucrt:winapi_thunks.obj
 0001:0003eb90       __acrt_AreFileApisANSI     000000018003fb90 f   libucrt:winapi_thunks.obj
 0001:0003ebd4       __acrt_FlsAlloc            000000018003fbd4 f   libucrt:winapi_thunks.obj
 0001:0003ebdc       __acrt_FlsFree             000000018003fbdc f   libucrt:winapi_thunks.obj
 0001:0003ebe4       __acrt_FlsGetValue         000000018003fbe4 f   libucrt:winapi_thunks.obj
 0001:0003ebec       __acrt_FlsSetValue         000000018003fbec f   libucrt:winapi_thunks.obj
 0001:0003ebf4       __acrt_InitializeCriticalSectionEx 000000018003fbf4 f   libucrt:winapi_thunks.obj
 0001:0003ec64       __acrt_LCMapStringEx       000000018003fc64 f   libucrt:winapi_thunks.obj
 0001:0003ed50       __acrt_LocaleNameToLCID    000000018003fd50 f   libucrt:winapi_thunks.obj
 0001:0003edb0       __acrt_initialize_winapi_thunks 000000018003fdb0 f   libucrt:winapi_thunks.obj
 0001:0003edd4       __acrt_uninitialize_winapi_thunks 000000018003fdd4 f   libucrt:winapi_thunks.obj
 0001:0003ee18       __acrt_initialize_heap     000000018003fe18 f   libucrt:heap_handle.obj
 0001:0003ee34       __acrt_uninitialize_heap   000000018003fe34 f   libucrt:heap_handle.obj
 0001:0003f038       __acrt_initialize_lowio    0000000180040038 f   libucrt:ioinit.obj
 0001:0003f074       __acrt_uninitialize_lowio  0000000180040074 f   libucrt:ioinit.obj
 0001:0003f0b4       __acrt_execute_initializers 00000001800400b4 f   libucrt:shared_initialization.obj
 0001:0003f148       __acrt_execute_uninitializers 0000000180040148 f   libucrt:shared_initialization.obj
 0001:0003f190       __acrt_initialize_new_handler 0000000180040190 f   libucrt:new_handler.obj
 0001:0003f198       _callnewh                  0000000180040198 f   libucrt:new_handler.obj
 0001:0003f1d8       _query_new_handler         00000001800401d8 f   libucrt:new_handler.obj
 0001:0003f258       __acrt_get_sigabrt_handler 0000000180040258 f   libucrt:signal.obj
 0001:0003f288       __acrt_initialize_signal_handlers 0000000180040288 f   libucrt:signal.obj
 0001:0003f2a8       raise                      00000001800402a8 f   libucrt:signal.obj
 0001:0003f524       __acrt_has_user_matherr    0000000180040524 f   libucrt:matherr.obj
 0001:0003f544       __acrt_initialize_user_matherr 0000000180040544 f   libucrt:matherr.obj
 0001:0003f54c       __acrt_invoke_user_matherr 000000018004054c f   libucrt:matherr.obj
 0001:0003f768       __acrt_stdio_flush_nolock  0000000180040768 f   libucrt:fflush.obj
 0001:0003f7f4       _fflush_nolock             00000001800407f4 f   libucrt:fflush.obj
 0001:0003f8c8       _flushall                  00000001800408c8 f   libucrt:fflush.obj
 0001:0003f8d0       __acrt_initialize_stdio    00000001800408d0 f   libucrt:_file.obj
 0001:0003f9f0       __acrt_uninitialize_stdio  00000001800409f0 f   libucrt:_file.obj
 0001:0003fa4c       _lock_file                 0000000180040a4c f   libucrt:_file.obj
 0001:0003fa58       _unlock_file               0000000180040a58 f   libucrt:_file.obj
 0001:0003fa64       _malloc_base               0000000180040a64 f   libucrt:malloc_base.obj
 0001:0003fac4       strnlen                    0000000180040ac4 f   libucrt:strnlen.obj
 0001:0003fc14       wcsnlen                    0000000180040c14 f   libucrt:strnlen.obj
 0001:0003fdec       __acrt_update_locale_info  0000000180040dec f   libucrt:locale_update.obj
 0001:0003fe20       __acrt_update_locale_info_explicit 0000000180040e20 f   libucrt:locale_update.obj
 0001:0003fe58       __acrt_update_multibyte_info 0000000180040e58 f   libucrt:locale_update.obj
 0001:0003fe8c       __acrt_update_multibyte_info_explicit 0000000180040e8c f   libucrt:locale_update.obj
 0001:000409d8       __acrt_fp_format           00000001800419d8 f   libucrt:cvt.obj
 0001:00040cc0       _wctomb_internal           0000000180041cc0 f   libucrt:wctomb.obj
 0001:00040e70       _mbtowc_internal           0000000180041e70 f   libucrt:mbtowc.obj
 0001:00040fe8       _fileno                    0000000180041fe8 f   libucrt:fileno.obj
 0001:00041010       _get_printf_count_output   0000000180042010 f   libucrt:printf_count_output.obj
 0001:00041098       __acrt_set_locale_changed  0000000180042098 f   libucrt:wsetlocale.obj
 0001:000410a4       __acrt_uninitialize_locale 00000001800420a4 f   libucrt:wsetlocale.obj
 0001:000410d4       __pctype_func              00000001800420d4 f   libucrt:ctype.obj
 0001:00041104       _isctype_l                 0000000180042104 f   libucrt:isctype.obj
 0001:00041220       _get_fpsr                  0000000180042220 f   libucrt:fpsr.obj
 0001:00041230       _set_fpsr                  0000000180042230 f   libucrt:fpsr.obj
 0001:0004123a       _fclrf                     000000018004223a f   libucrt:fpsr.obj
 0001:0004124e       _frnd                      000000018004224e f   libucrt:fpsr.obj
 0001:00041270       _raise_exc                 0000000180042270 f   libucrt:fpexcept.obj
 0001:00041298       _raise_exc_ex              0000000180042298 f   libucrt:fpexcept.obj
 0001:000415a0       _raise_excf                00000001800425a0 f   libucrt:fpexcept.obj
 0001:000415cc       _set_errno_from_matherr    00000001800425cc f   libucrt:fpexcept.obj
 0001:000415fc       __acrt_add_locale_ref      00000001800425fc f   libucrt:locale_refcounting.obj
 0001:00041688       __acrt_free_locale         0000000180042688 f   libucrt:locale_refcounting.obj
 0001:00041800       __acrt_locale_add_lc_time_reference 0000000180042800 f   libucrt:locale_refcounting.obj
 0001:00041828       __acrt_locale_free_lc_time_if_unreferenced 0000000180042828 f   libucrt:locale_refcounting.obj
 0001:00041860       __acrt_locale_release_lc_time_reference 0000000180042860 f   libucrt:locale_refcounting.obj
 0001:00041888       __acrt_release_locale_ref  0000000180042888 f   libucrt:locale_refcounting.obj
 0001:00041930       __acrt_update_thread_locale_data 0000000180042930 f   libucrt:locale_refcounting.obj
 0001:000419a0       _updatetlocinfoEx_nolock   00000001800429a0 f   libucrt:locale_refcounting.obj
 0001:00041a08       _query_new_mode            0000000180042a08 f   libucrt:new_mode.obj
 0001:00041a10       qsort                      0000000180042a10 f   libucrt:qsort.obj
 0001:00041e20       strncpy_s                  0000000180042e20 f   libucrt:strncpy_s.obj
 0001:00041fb0       strpbrk                    0000000180042fb0 f   libucrt:strpbrk.obj
 0001:00042378       _mbsdec                    0000000180043378 f   libucrt:mbsdec.obj
 0001:00042380       _mbsdec_l                  0000000180043380 f   libucrt:mbsdec.obj
 0001:00042414       __acrt_GetStringTypeA      0000000180043414 f   libucrt:getstringtypea.obj
 0001:000428d8       __acrt_LCMapStringA        00000001800438d8 f   libucrt:lcmapstringa.obj
 0001:00042988       _msize_base                0000000180043988 f   libucrt:msize.obj
 0001:000429c4       _realloc_base              00000001800439c4 f   libucrt:realloc_base.obj
 0001:00042a40       __acrt_DownlevelLocaleNameToLCID 0000000180043a40 f   libucrt:lcidtoname_downlevel.obj
 0001:00042ae4       __acrt_lowio_create_handle_array 0000000180043ae4 f   libucrt:osfinfo.obj
 0001:00042b8c       __acrt_lowio_destroy_handle_array 0000000180043b8c f   libucrt:osfinfo.obj
 0001:00042bdc       __acrt_lowio_ensure_fh_exists 0000000180043bdc f   libucrt:osfinfo.obj
 0001:00042c84       __acrt_lowio_lock_fh       0000000180043c84 f   libucrt:osfinfo.obj
 0001:00042cac       __acrt_lowio_unlock_fh     0000000180043cac f   libucrt:osfinfo.obj
 0001:00042cd4       _free_osfhnd               0000000180043cd4 f   libucrt:osfinfo.obj
 0001:00042d90       _get_osfhandle             0000000180043d90 f   libucrt:osfinfo.obj
 0001:00042e94       _commit                    0000000180043e94 f   libucrt:commit.obj
 0001:00043730       _write_internal            0000000180044730 f   libucrt:write.obj
 0001:00043850       _write_nolock              0000000180044850 f   libucrt:write.obj
 0001:00043b58       _fcloseall                 0000000180044b58 f   libucrt:closeall.obj
 0001:00043c0c       __acrt_stdio_free_buffer_nolock 0000000180044c0c f   libucrt:_freebuf.obj
 0001:00043c50       _isatty                    0000000180044c50 f   libucrt:isatty.obj
 0001:00043d80       __acrt_fp_strflt_to_string 0000000180044d80 f   libucrt:_fptostr.obj
 0001:00043e90       ?divide@__crt_strtox@@YA_KAEAUbig_integer@1@AEBU21@@Z 0000000180044e90 f i libucrt:cfout.obj
 0001:0004432c       __acrt_fltout              000000018004532c f   libucrt:cfout.obj
 0001:00045644       fegetround                 0000000180046644 f   libucrt:fegetround.obj
 0001:00045658       ?__c32rtomb_utf8@__crt_mbstring@@YA_KPEAD_UPEAU_Mbstatet@@AEAV__crt_cached_ptd_host@@@Z 0000000180046658 f   libucrt:c32rtomb.obj
 0001:000456fc       ?__mbrtowc_utf8@__crt_mbstring@@YA_KPEA_WPEBD_KPEAU_Mbstatet@@AEAV__crt_cached_ptd_host@@@Z 00000001800466fc f   libucrt:mbrtowc.obj
 0001:00045740       ?__mbsrtowcs_utf8@__crt_mbstring@@YA_KPEA_WPEAPEBD_KPEAU_Mbstatet@@AEAV__crt_cached_ptd_host@@@Z 0000000180046740 f   libucrt:mbrtowc.obj
 0001:000458e4       __acrt_locale_free_monetary 00000001800468e4 f   libucrt:initmon.obj
 0001:000459f0       __acrt_locale_free_numeric 00000001800469f0 f   libucrt:initnum.obj
 0001:00045a90       __acrt_locale_free_time    0000000180046a90 f   libucrt:inittime.obj
 0001:00045b98       __strncnt                  0000000180046b98 f   libucrt:strncnt.obj
 0001:00045bb0       __ascii_wcsnicmp           0000000180046bb0 f   libucrt:wcsnicmp.obj
 0001:00045bfc       _query_app_type            0000000180046bfc f   libucrt:report_runtime_error.obj
 0001:00045cb0       _lseeki64_nolock_internal  0000000180046cb0 f   libucrt:lseek.obj
 0001:00045cb8       _putwch_nolock             0000000180046cb8 f   libucrt:putwch.obj
 0001:00045e18       fclose                     0000000180046e18 f   libucrt:fclose.obj
 0001:00045eb0       _controlfp_s               0000000180046eb0 f   libucrt:contrlfp.obj
 0001:00045f14       fegetenv                   0000000180046f14 f   libucrt:fegetenv.obj
 0001:00045f34       fesetenv                   0000000180046f34 f   libucrt:fesetenv.obj
 0001:00045f8c       feholdexcept               0000000180046f8c f   libucrt:feholdexcept.obj
 0001:00045fdc       ceil                       0000000180046fdc f   libucrt:ceil.obj
 0001:000460a0       log10                      00000001800470a0 f   libucrt:log10.obj
 0001:0004664c       __acrt_fenv_get_common_round_control 000000018004764c f   libucrt:_fenvutils.obj
 0001:00046658       __acrt_fenv_get_control    0000000180047658 f   libucrt:_fenvutils.obj
 0001:0004673c       __acrt_fenv_get_status     000000018004773c f   libucrt:_fenvutils.obj
 0001:00046794       __acrt_fenv_set_control    0000000180047794 f   libucrt:_fenvutils.obj
 0001:000468cc       __acrt_fenv_set_status     00000001800478cc f   libucrt:_fenvutils.obj
 0001:00046940       ?reset_and_return@__crt_mbstring@@YA_K_KPEAU_Mbstatet@@@Z 0000000180047940 f   libucrt:common_utf8.obj
 0001:00046948       ?return_illegal_sequence@__crt_mbstring@@YA_KPEAU_Mbstatet@@AEAV__crt_cached_ptd_host@@@Z 0000000180047948 f   libucrt:common_utf8.obj
 0001:0004695c       ?__mbrtoc32_utf8@__crt_mbstring@@YA_KPEA_UPEBD_KPEAU_Mbstatet@@AEAV__crt_cached_ptd_host@@@Z 000000018004795c f   libucrt:mbrtoc32.obj
 0001:00046b38       __dcrt_lowio_ensure_console_output_initialized 0000000180047b38 f   libucrt:initcon.obj
 0001:00046b8c       __dcrt_terminate_console_output 0000000180047b8c f   libucrt:initcon.obj
 0001:00046ba8       __dcrt_write_console       0000000180047ba8 f   libucrt:initcon.obj
 0001:00046ce0       _close_internal            0000000180047ce0 f   libucrt:close.obj
 0001:00046da4       _close_nolock_internal     0000000180047da4 f   libucrt:close.obj
 0001:00046e74       ?__acrt_stdio_free_stream@@YAXV__crt_stdio_stream@@@Z 0000000180047e74 f   libucrt:stream.obj
 0001:00046e90       _clearfp                   0000000180047e90 f   libucrt:ieee.obj
 0001:00046efc       _control87                 0000000180047efc f   libucrt:ieee.obj
 0001:000471a0       _log10_special             00000001800481a0 f   libucrt:log_special.obj
 0001:00047260       _FindPESection             0000000180048260 f   LIBCMT:pesect.obj
 0001:000472b0       _IsNonwritableInCurrentImage 00000001800482b0 f   LIBCMT:pesect.obj
 0001:00047300       _ValidateImageBase         0000000180048300 f   LIBCMT:pesect.obj
 0001:0004732c       __GSHandlerCheck           000000018004832c f   LIBCMT:gshandler.obj
 0001:0004734c       __GSHandlerCheckCommon     000000018004834c f   LIBCMT:gshandler.obj
 0001:000473c0       __security_check_cookie    00000001800483c0 f   LIBCMT:amdsecgs.obj
 0001:000473e0       __GSHandlerCheck_SEH       00000001800483e0 f   LIBCMT:gshandlerseh.obj
 0001:00047468       __raise_securityfailure    0000000180048468 f   LIBCMT:gs_report.obj
 0001:0004749c       __report_gsfailure         000000018004849c f   LIBCMT:gs_report.obj
 0001:00047570       __report_rangecheckfailure 0000000180048570 f   LIBCMT:gs_report.obj
 0001:00047584       __report_securityfailure   0000000180048584 f   LIBCMT:gs_report.obj
 0001:00047708       __GSHandlerCheck_EH        0000000180048708 f   LIBCMT:gshandlereh.obj
 0001:00047788       __C_specific_handler_noexcept 0000000180048788 f   libvcruntime:chandler_noexcept.obj
 0001:000477d4       strrchr                    00000001800487d4 f   libvcruntime:strrchr.obj
 0001:00047920       _guard_dispatch_icall_nop  0000000180048920 f   LIBCMT:guard_dispatch.obj
 0001:00047940       _guard_xfg_dispatch_icall_nop 0000000180048940 f   LIBCMT:guard_xfg_dispatch.obj
 0001:00047970       memset_repstos             0000000180048970 f   libvcruntime:memset.obj
 0001:00047980       memset                     0000000180048980 f   libvcruntime:memset.obj
 0001:00047d30       memcpy_repmovs             0000000180048d30 f   libvcruntime:memcpy.obj
 0001:00047d40       memcpy                     0000000180048d40 f   libvcruntime:memcpy.obj
 0001:00047d40       memcpy_$fo_default$        0000000180048d40     libvcruntime:memcpy.obj
 0001:00047d40       memmove                    0000000180048d40 f   libvcruntime:memcpy.obj
 0002:00000000       __imp_LoadLibraryA         000000018004a000     kernel32:KERNEL32.dll
 0002:00000008       __imp_WriteConsoleW        000000018004a008     kernel32:KERNEL32.dll
 0002:00000010       __imp_RaiseException       000000018004a010     kernel32:KERNEL32.dll
 0002:00000018       __imp_GetLastError         000000018004a018     kernel32:KERNEL32.dll
 0002:00000020       __imp_GetSystemInfo        000000018004a020     kernel32:KERNEL32.dll
 0002:00000028       __imp_VirtualProtect       000000018004a028     kernel32:KERNEL32.dll
 0002:00000030       __imp_VirtualQuery         000000018004a030     kernel32:KERNEL32.dll
 0002:00000038       __imp_FreeLibrary          000000018004a038     kernel32:KERNEL32.dll
 0002:00000040       __imp_GetModuleHandleW     000000018004a040     kernel32:KERNEL32.dll
 0002:00000048       __imp_GetProcAddress       000000018004a048     kernel32:KERNEL32.dll
 0002:00000050       __imp_LoadLibraryExA       000000018004a050     kernel32:KERNEL32.dll
 0002:00000058       __imp_InitializeSListHead  000000018004a058     kernel32:KERNEL32.dll
 0002:00000060       __imp_QueryPerformanceCounter 000000018004a060     kernel32:KERNEL32.dll
 0002:00000068       __imp_GetCurrentProcessId  000000018004a068     kernel32:KERNEL32.dll
 0002:00000070       __imp_GetCurrentThreadId   000000018004a070     kernel32:KERNEL32.dll
 0002:00000078       __imp_GetSystemTimeAsFileTime 000000018004a078     kernel32:KERNEL32.dll
 0002:00000080       __imp_RtlCaptureContext    000000018004a080     kernel32:KERNEL32.dll
 0002:00000088       __imp_RtlLookupFunctionEntry 000000018004a088     kernel32:KERNEL32.dll
 0002:00000090       __imp_RtlVirtualUnwind     000000018004a090     kernel32:KERNEL32.dll
 0002:00000098       __imp_IsDebuggerPresent    000000018004a098     kernel32:KERNEL32.dll
 0002:000000a0       __imp_UnhandledExceptionFilter 000000018004a0a0     kernel32:KERNEL32.dll
 0002:000000a8       __imp_SetUnhandledExceptionFilter 000000018004a0a8     kernel32:KERNEL32.dll
 0002:000000b0       __imp_GetStartupInfoW      000000018004a0b0     kernel32:KERNEL32.dll
 0002:000000b8       __imp_IsProcessorFeaturePresent 000000018004a0b8     kernel32:KERNEL32.dll
 0002:000000c0       __imp_InterlockedPushEntrySList 000000018004a0c0     kernel32:KERNEL32.dll
 0002:000000c8       __imp_InterlockedFlushSList 000000018004a0c8     kernel32:KERNEL32.dll
 0002:000000d0       __imp_RtlUnwindEx          000000018004a0d0     kernel32:KERNEL32.dll
 0002:000000d8       __imp_SetLastError         000000018004a0d8     kernel32:KERNEL32.dll
 0002:000000e0       __imp_EnterCriticalSection 000000018004a0e0     kernel32:KERNEL32.dll
 0002:000000e8       __imp_LeaveCriticalSection 000000018004a0e8     kernel32:KERNEL32.dll
 0002:000000f0       __imp_DeleteCriticalSection 000000018004a0f0     kernel32:KERNEL32.dll
 0002:000000f8       __imp_InitializeCriticalSectionAndSpinCount 000000018004a0f8     kernel32:KERNEL32.dll
 0002:00000100       __imp_TlsAlloc             000000018004a100     kernel32:KERNEL32.dll
 0002:00000108       __imp_TlsGetValue          000000018004a108     kernel32:KERNEL32.dll
 0002:00000110       __imp_TlsSetValue          000000018004a110     kernel32:KERNEL32.dll
 0002:00000118       __imp_TlsFree              000000018004a118     kernel32:KERNEL32.dll
 0002:00000120       __imp_LoadLibraryExW       000000018004a120     kernel32:KERNEL32.dll
 0002:00000128       __imp_EncodePointer        000000018004a128     kernel32:KERNEL32.dll
 0002:00000130       __imp_RtlPcToFileHeader    000000018004a130     kernel32:KERNEL32.dll
 0002:00000138       __imp_GetCurrentProcess    000000018004a138     kernel32:KERNEL32.dll
 0002:00000140       __imp_ExitProcess          000000018004a140     kernel32:KERNEL32.dll
 0002:00000148       __imp_TerminateProcess     000000018004a148     kernel32:KERNEL32.dll
 0002:00000150       __imp_GetModuleHandleExW   000000018004a150     kernel32:KERNEL32.dll
 0002:00000158       __imp_GetModuleFileNameW   000000018004a158     kernel32:KERNEL32.dll
 0002:00000160       __imp_HeapFree             000000018004a160     kernel32:KERNEL32.dll
 0002:00000168       __imp_HeapAlloc            000000018004a168     kernel32:KERNEL32.dll
 0002:00000170       __imp_FindClose            000000018004a170     kernel32:KERNEL32.dll
 0002:00000178       __imp_FindFirstFileExW     000000018004a178     kernel32:KERNEL32.dll
 0002:00000180       __imp_FindNextFileW        000000018004a180     kernel32:KERNEL32.dll
 0002:00000188       __imp_IsValidCodePage      000000018004a188     kernel32:KERNEL32.dll
 0002:00000190       __imp_GetACP               000000018004a190     kernel32:KERNEL32.dll
 0002:00000198       __imp_GetOEMCP             000000018004a198     kernel32:KERNEL32.dll
 0002:000001a0       __imp_GetCPInfo            000000018004a1a0     kernel32:KERNEL32.dll
 0002:000001a8       __imp_GetCommandLineA      000000018004a1a8     kernel32:KERNEL32.dll
 0002:000001b0       __imp_GetCommandLineW      000000018004a1b0     kernel32:KERNEL32.dll
 0002:000001b8       __imp_MultiByteToWideChar  000000018004a1b8     kernel32:KERNEL32.dll
 0002:000001c0       __imp_WideCharToMultiByte  000000018004a1c0     kernel32:KERNEL32.dll
 0002:000001c8       __imp_GetEnvironmentStringsW 000000018004a1c8     kernel32:KERNEL32.dll
 0002:000001d0       __imp_FreeEnvironmentStringsW 000000018004a1d0     kernel32:KERNEL32.dll
 0002:000001d8       __imp_FlsAlloc             000000018004a1d8     kernel32:KERNEL32.dll
 0002:000001e0       __imp_FlsGetValue          000000018004a1e0     kernel32:KERNEL32.dll
 0002:000001e8       __imp_FlsSetValue          000000018004a1e8     kernel32:KERNEL32.dll
 0002:000001f0       __imp_FlsFree              000000018004a1f0     kernel32:KERNEL32.dll
 0002:000001f8       __imp_LCMapStringW         000000018004a1f8     kernel32:KERNEL32.dll
 0002:00000200       __imp_GetProcessHeap       000000018004a200     kernel32:KERNEL32.dll
 0002:00000208       __imp_GetStdHandle         000000018004a208     kernel32:KERNEL32.dll
 0002:00000210       __imp_GetFileType          000000018004a210     kernel32:KERNEL32.dll
 0002:00000218       __imp_GetStringTypeW       000000018004a218     kernel32:KERNEL32.dll
 0002:00000220       __imp_HeapSize             000000018004a220     kernel32:KERNEL32.dll
 0002:00000228       __imp_HeapReAlloc          000000018004a228     kernel32:KERNEL32.dll
 0002:00000230       __imp_SetStdHandle         000000018004a230     kernel32:KERNEL32.dll
 0002:00000238       __imp_FlushFileBuffers     000000018004a238     kernel32:KERNEL32.dll
 0002:00000240       __imp_WriteFile            000000018004a240     kernel32:KERNEL32.dll
 0002:00000248       __imp_GetConsoleOutputCP   000000018004a248     kernel32:KERNEL32.dll
 0002:00000250       __imp_GetConsoleMode       000000018004a250     kernel32:KERNEL32.dll
 0002:00000258       __imp_SetFilePointerEx     000000018004a258     kernel32:KERNEL32.dll
 0002:00000260       __imp_CreateFileW          000000018004a260     kernel32:KERNEL32.dll
 0002:00000268       __imp_CloseHandle          000000018004a268     kernel32:KERNEL32.dll
 0002:00000270       \177KERNEL32_NULL_THUNK_DATA 000000018004a270     kernel32:KERNEL32.dll
 0002:00000278       __guard_check_icall_fptr   000000018004a278     LIBCMT:guard_support.obj
 0002:00000280       __guard_xfg_check_icall_fptr 000000018004a280     LIBCMT:guard_support.obj
 0002:00000288       __guard_dispatch_icall_fptr 000000018004a288     LIBCMT:guard_support.obj
 0002:00000290       __guard_xfg_dispatch_icall_fptr 000000018004a290     LIBCMT:guard_support.obj
 0002:00000298       __guard_xfg_table_dispatch_icall_fptr 000000018004a298     LIBCMT:guard_support.obj
 0002:000002a0       __castguard_check_failure_os_handled_fptr 000000018004a2a0     LIBCMT:guard_support.obj
 0002:000002a8       __guard_memcpy_fptr        000000018004a2a8     libvcruntime:softmemtag.obj
 0002:000002b0       __xc_a                     000000018004a2b0     LIBCMT:initializers.obj
 0002:00000498       __xc_z                     000000018004a498     LIBCMT:initializers.obj
 0002:000004a0       __xi_a                     000000018004a4a0     LIBCMT:initializers.obj
 0002:000004a8       __acrt_tran_fma3_initializer 000000018004a4a8     libucrt:fma3_initializer.obj
 0002:000004b0       __acrt_multibyte_initializer 000000018004a4b0     libucrt:multibyte_initializer.obj
 0002:000004b8       __acrt_stdio_initializer   000000018004a4b8     libucrt:stdio_initializer.obj
 0002:000004c0       __xi_z                     000000018004a4c0     LIBCMT:initializers.obj
 0002:000004c8       __xp_a                     000000018004a4c8     LIBCMT:initializers.obj
 0002:000004d0       __acrt_locale_terminator   000000018004a4d0     libucrt:locale_initializer.obj
 0002:000004d8       __dcrt_console_output_terminator 000000018004a4d8     libucrt:console_output_initializer.obj
 0002:000004e0       __acrt_stdio_terminator    000000018004a4e0     libucrt:stdio_initializer.obj
 0002:000004e8       __xp_z                     000000018004a4e8     LIBCMT:initializers.obj
 0002:000004f0       __xt_a                     000000018004a4f0     LIBCMT:initializers.obj
 0002:000004f8       __xt_z                     000000018004a4f8     LIBCMT:initializers.obj
 0002:00000500       ??_7PxFoundation@physx@@6B@ 000000018004a500     Adjacencies.obj
 0002:00000540       ??_C@_0FF@GFEDMFFO@C?3?2Users?2Jungle?2Documents?2GitHu@ 000000018004a540     Adjacencies.obj
 0002:00000598       ??_C@_0DA@FMEHLBKI@Adjacencies?3?3UpdateLink?3?5invali@ 000000018004a598     Adjacencies.obj
 0002:000005d0       ??_C@_0EA@CPHOACLK@Adjacencies?3?3CreateDatabase?3?5ca@ 000000018004a5d0     Adjacencies.obj
 0002:00000610       ??_C@_0BM@OIFKLHDN@?$DMallocation?5names?5disabled?$DO@ 000000018004a610     Adjacencies.obj
 0002:00000650       ?sBufferSize@DebugText@Cm@physx@@2HB 000000018004a650     Cooking.obj
 0002:00000654       ??_C@_06EJKDJEDO@PxBase@   000000018004a654     Cooking.obj
 0002:00000660       ??_C@_0N@CDGINLLF@PxConvexMesh@ 000000018004a660     Cooking.obj
 0002:00000670       ??_C@_0O@PBAKPCEC@PxHeightField@ 000000018004a670     Cooking.obj
 0002:00000680       ??_7PxBase@physx@@6B@      000000018004a680     Cooking.obj
 0002:000006a8       ??_7PxCooking@physx@@6B@   000000018004a6a8     Cooking.obj
 0002:00000728       ??_7Cooking@physx@@6B@     000000018004a728     Cooking.obj
 0002:000007b0       ??_C@_0FC@PJIHAFK@Cooking?3?3validateTriangleMesh?3?5@ 000000018004a7b0     Cooking.obj
 0002:00000810       ??_C@_0FB@OMBPEHBL@C?3?2Users?2Jungle?2Documents?2GitHu@ 000000018004a810     Cooking.obj
 0002:00000870       ??_C@_0EK@EKAIJEBL@Cooking?3?3cookConvexMesh?3?5user?9p@ 000000018004a870     Cooking.obj
 0002:000008c0       ??_C@_0FA@GFFGAPML@Cooking?3?3cookConvexMesh?3?5provid@ 000000018004a8c0     Cooking.obj
 0002:00000910       ??_C@_0EP@PKDCPNNO@Cooking?3?3cookConvexMesh?3?5provid@ 000000018004a910     Cooking.obj
 0002:00000960       ??_C@_0EO@LKFMMDE@Cooking?3?3cookConvexMesh?3?5user?9p@ 000000018004a960     Cooking.obj
 0002:000009b0       ??_C@_0FB@OHHHCDHG@C?3?2Users?2Jungle?2Documents?2GitHu@ 000000018004a9b0     Cooking.obj
 0002:00000a04       __real@3f800000            000000018004aa04     Cooking.obj
 0002:00000a10       __xmm@000000003a83126f3a83126f3a83126f 000000018004aa10     Cooking.obj
 0002:00000a20       __xmm@00000000ba83126fba83126fba83126f 000000018004aa20     Cooking.obj
 0002:00000a30       __xmm@3a83126f3a83126f3a83126f3a83126f 000000018004aa30     Cooking.obj
 0002:00000a40       __xmm@80000000800000008000000080000000 000000018004aa40     Cooking.obj
 0002:00000a50       __xmm@ba83126fba83126fba83126fba83126f 000000018004aa50     Cooking.obj
 0002:00000a60       ??_C@_0BA@DLCJDKDM@NonTrackedAlloc@ 000000018004aa60     CookingUtils.obj
 0002:00000a70       ??_C@_0FG@FANKLEJG@C?3?2Users?2Jungle?2Documents?2GitHu@ 000000018004aa70     CookingUtils.obj
 0002:00000ad0       ??_C@_0FC@MOCDDMEI@C?3?2Users?2Jungle?2Documents?2GitHu@ 000000018004aad0     EdgeList.obj
 0002:00000b28       ??_C@_0CO@GBNJFPN@EdgeList?3?3CreateFacesToEdges?3?5N@ 000000018004ab28     EdgeList.obj
 0002:00000b58       ??_C@_0CO@EHJBBMNK@EdgeList?3?3ComputeActiveEdges?3?5N@ 000000018004ab58     EdgeList.obj
 0002:00000b88       ??_C@_0DI@GBHLFOFP@ActiveEdges?3?3ComputeConvexEdges@ 000000018004ab88     EdgeList.obj
 0002:00000bc0       ??_C@_0DM@JOGBLHDI@ActiveEdges?3?3ComputeConvexEdges@ 000000018004abc0     EdgeList.obj
 0002:00000c00       ??_C@_0ED@FEMJKPEL@ActiveEdges?3?3ComputeConvexEdges@ 000000018004ac00     EdgeList.obj
 0002:00000c50       ??_C@_0EB@BFDPMFCD@ActiveEdges?3?3ComputeConvexEdges@ 000000018004ac50     EdgeList.obj
 0002:00000c94       __real@bf7fbe77            000000018004ac94     EdgeList.obj
 0002:00000ca0       __xmm@7fffffff7fffffff7fffffff7fffffff 000000018004aca0     EdgeList.obj
 0002:00000cb0       ??_C@_0FF@EABIOIAK@C?3?2Users?2Jungle?2Documents?2GitHu@ 000000018004acb0     MeshCleaner.obj
 0002:00000d08       __real@3f000000            000000018004ad08     MeshCleaner.obj
 0002:00000d10       ??_7Quantizer@physx@@6B@   000000018004ad10     Quantizer.obj
 0002:00000d38       ??_7QuantizerImpl@@6B@     000000018004ad38     Quantizer.obj
 0002:00000d60       ??_C@_0FD@LBCEJPHM@C?3?2Users?2Jungle?2Documents?2GitHu@ 000000018004ad60     Quantizer.obj
 0002:00000db4       __real@38d1b717            000000018004adb4     Quantizer.obj
 0002:00000db8       __real@3c23d70a            000000018004adb8     Quantizer.obj
 0002:00000dbc       __real@3f8020c5            000000018004adbc     Quantizer.obj
 0002:00000dc0       __real@7f7fffff            000000018004adc0     Quantizer.obj
 0002:00000dc4       __real@fe7fffff            000000018004adc4     Quantizer.obj
 0002:00000dd0       __xmm@fe7fffff7e7fffff7e7fffff7e7fffff 000000018004add0     Quantizer.obj
 0002:00000e00       ??_C@_0FN@LNCHKIOP@C?3?2Users?2Jungle?2Documents?2GitHu@ 000000018004ae00     BVHStructureBuilder.obj
 0002:00000e60       __xmm@3ba3d70a3ba3d70a3ba3d70a3ba3d70a 000000018004ae60     BVHStructureBuilder.obj
 0002:00000e90       ?reductionFactors@SubSortQuick@physx@@2QBMB 000000018004ae90     RTreeCooking.obj
 0002:00000ea0       ?stopAtTrisPerLeaf1@SubSortQuick@physx@@2QBIB 000000018004aea0     RTreeCooking.obj
 0002:00000f50       ??_C@_0FL@BMAJAENB@C?3?2Users?2Jungle?2Documents?2GitHu@ 000000018004af50     RTreeCooking.obj
 0002:00000fb0       ??_C@_0FA@GLHJHDNN@C?3?2Users?2Jungle?2Documents?2GitHu@ 000000018004afb0     RTreeCooking.obj
 0002:00001000       ??_C@_0FJ@MNJGJGGA@C?3?2Users?2Jungle?2Documents?2GitHu@ 000000018004b000     RTreeCooking.obj
 0002:0000105c       __real@41100000            000000018004b05c     RTreeCooking.obj
 0002:00001060       __real@41700000            000000018004b060     RTreeCooking.obj
 0002:00001064       __real@42200000            000000018004b064     RTreeCooking.obj
 0002:00001068       __real@ff7fffff            000000018004b068     RTreeCooking.obj
 0002:00001070       __xmm@00000004000000030000000200000001 000000018004b070     RTreeCooking.obj
 0002:00001080       __xmm@37800080378000803780008037800080 000000018004b080     RTreeCooking.obj
 0002:00001090       __xmm@3a03126f3a03126f3a03126f3a03126f 000000018004b090     RTreeCooking.obj
 0002:000010a0       __xmm@3f8000003f8000003f8000003f800000 000000018004b0a0     RTreeCooking.obj
 0002:000010b0       __xmm@7f7fffff7f7fffff7f7fffff7f7fffff 000000018004b0b0     RTreeCooking.obj
 0002:000010c0       __xmm@ff7fffffff7fffffff7fffffff7fffff 000000018004b0c0     RTreeCooking.obj
 0002:000010f0       __real@34800000            000000018004b0f0     MeshBuilder.obj
 0002:00001120       ??_7MeshDataBase@Gu@physx@@6B@ 000000018004b120     TriangleMeshBuilder.obj
 0002:00001130       ??_C@_0FE@NCDPDOCK@C?3?2Users?2Jungle?2Documents?2GitHu@ 000000018004b130     TriangleMeshBuilder.obj
 0002:00001188       ??_7TriangleMeshData@Gu@physx@@6B@ 000000018004b188     TriangleMeshBuilder.obj
 0002:00001190       ??_7RTreeTriangleData@Gu@physx@@6B@ 000000018004b190     TriangleMeshBuilder.obj
 0002:00001198       ??_7BV4TriangleData@Gu@physx@@6B@ 000000018004b198     TriangleMeshBuilder.obj
 0002:000011a0       ??_7RemapCallback@RTreeCooker@physx@@6B@ 000000018004b1a0     TriangleMeshBuilder.obj
 0002:000011b0       ??_7TriangleMeshBuilder@physx@@6B@ 000000018004b1b0     TriangleMeshBuilder.obj
 0002:000011d8       ??_7RTreeTriangleMeshBuilder@physx@@6B@ 000000018004b1d8     TriangleMeshBuilder.obj
 0002:00001200       ??_7BV4TriangleMeshBuilder@physx@@6B@ 000000018004b200     TriangleMeshBuilder.obj
 0002:00001230       ??_C@_0GD@LMOIOBE@C?3?2Users?2Jungle?2Documents?2GitHu@ 000000018004b230     TriangleMeshBuilder.obj
 0002:000012a0       ??_C@_0GC@CKLHGENC@C?3?2Users?2Jungle?2Documents?2GitHu@ 000000018004b2a0     TriangleMeshBuilder.obj
 0002:00001308       ??_C@_0DJ@IGODLHLP@TriangleMesh?3?5Enable?5mesh?5weldi@ 000000018004b308     TriangleMeshBuilder.obj
 0002:00001350       ??_C@_0FJ@HHJLKGDF@TriangleMesh?3?5triangles?5are?5too@ 000000018004b350     TriangleMeshBuilder.obj
 0002:000013b0       ??_C@_0CN@KGPHHHLK@TriangleMesh?3?5mesh?5is?5too?5big?5f@ 000000018004b3b0     TriangleMeshBuilder.obj
 0002:000013e0       ??_C@_0DD@CMJGDCNN@TriangleMesh?3?3loadFromDesc?3?5des@ 000000018004b3e0     TriangleMeshBuilder.obj
 0002:00001420       ??_C@_0ED@ILJJNHIP@TriangleMesh?3?3loadFromDesc?3?5mPa@ 000000018004b420     TriangleMeshBuilder.obj
 0002:00001468       ??_C@_0BJ@BKHDBBHO@cleaning?5the?5mesh?5failed@ 000000018004b468     TriangleMeshBuilder.obj
 0002:00001488       ??_C@_0BK@JIDHMMCE@BV4?5tree?5failed?5to?5build?4@ 000000018004b488     TriangleMeshBuilder.obj
 0002:000014a8       ??_C@_0BL@DHNECNBE@BV32?5tree?5failed?5to?5build?4@ 000000018004b4a8     TriangleMeshBuilder.obj
 0002:000014c8       ??_7RTreeCookerRemap@physx@@6B@ 000000018004b4c8     TriangleMeshBuilder.obj
 0002:000014d8       __real@3951b717            000000018004b4d8     TriangleMeshBuilder.obj
 0002:000014dc       __real@48742400            000000018004b4dc     TriangleMeshBuilder.obj
 0002:000014e0       __xmm@00000003000000020000000100000000 000000018004b4e0     TriangleMeshBuilder.obj
 0002:00001510       ??_C@_0GF@OHPODGMI@C?3?2Users?2Jungle?2Documents?2GitHu@ 000000018004b510     BigConvexDataBuilder.obj
 0002:00001578       __real@40000000            000000018004b578     BigConvexDataBuilder.obj
 0002:000015a0       ??_C@_0GC@LIAJIGLH@C?3?2Users?2Jungle?2Documents?2GitHu@ 000000018004b5a0     ConvexHullBuilder.obj
 0002:00001610       ??_C@_0EB@DCEIFDGC@ConvexHullBuilder?3?3init?3?5convex@ 000000018004b610     ConvexHullBuilder.obj
 0002:00001660       ??_C@_0FM@KICBLCBH@Gu?3?3ConvexMesh?3?3checkHullPolygo@ 000000018004b660     ConvexHullBuilder.obj
 0002:000016c0       ??_C@_0GO@HBFIOGLL@Gu?3?3ConvexMesh?3?3checkHullPolygo@ 000000018004b6c0     ConvexHullBuilder.obj
 0002:00001730       ??_C@_0HF@OLJFBIEL@ConvexHullBuilder?3?5convex?5hull?5@ 000000018004b730     ConvexHullBuilder.obj
 0002:000017b0       ??_C@_0OG@JNHFOIL@ConvexHullBuilder?3?5convex?5hull?5@ 000000018004b7b0     ConvexHullBuilder.obj
 0002:000018a0       ??_C@_0EJ@NIOIBAKH@Cooking?3?3cookConvexMesh?3?5non?9ma@ 000000018004b8a0     ConvexHullBuilder.obj
 0002:000018ec       __real@3ca3d70a            000000018004b8ec     ConvexHullBuilder.obj
 0002:000018f0       __real@3eaaaaab            000000018004b8f0     ConvexHullBuilder.obj
 0002:000018f8       ??_7ConvexHullLib@physx@@6B@ 000000018004b8f8     ConvexHullLib.obj
 0002:00001920       ??_C@_0FO@PHOOHEOI@C?3?2Users?2Jungle?2Documents?2GitHu@ 000000018004b920     ConvexHullLib.obj
 0002:00001980       ??_C@_0JE@PABBNGEL@ConvexHullLib?3?3cleanupVertices?3@ 000000018004b980     ConvexHullLib.obj
 0002:00001a14       __real@358637bd            000000018004ba14     ConvexHullLib.obj
 0002:00001a18       __real@3d4ccccd            000000018004ba18     ConvexHullLib.obj
 0002:00001a40       ??_C@_0GA@HEJCNGML@C?3?2Users?2Jungle?2Documents?2GitHu@ 000000018004ba40     ConvexHullUtils.obj
 0002:00001aa0       __real@3e20d97c            000000018004baa0     ConvexHullUtils.obj
 0002:00001ab0       __xmm@00800000008000000080000000800000 000000018004bab0     ConvexHullUtils.obj
 0002:00001ac0       __xmm@3f0000003f0000003f0000003f000000 000000018004bac0     ConvexHullUtils.obj
 0002:00001ad0       __xmm@bf000000bf000000bf000000bf000000 000000018004bad0     ConvexHullUtils.obj
 0002:00001b00       ??_C@_0DF@LLFJIJGM@Gu?3?3ConvexMesh?3?3loadFromDesc?3?5d@ 000000018004bb00     ConvexMeshBuilder.obj
 0002:00001b40       ??_C@_0GC@HGKNCGOC@C?3?2Users?2Jungle?2Documents?2GitHu@ 000000018004bb40     ConvexMeshBuilder.obj
 0002:00001bb0       ??_C@_0HK@JOGKIEAA@Gu?3?3ConvexMesh?3?5Mesh?5has?5a?5nega@ 000000018004bbb0     ConvexMeshBuilder.obj
 0002:00001c30       ??_C@_0DH@NJPPHFFD@Gu?3?3ConvexMesh?3?5Error?5computing@ 000000018004bc30     ConvexMeshBuilder.obj
 0002:00001c68       ??_C@_0DJ@LJDLGLDJ@Gu?3?3ConvexMesh?3?3loadConvexHull?3@ 000000018004bc68     ConvexMeshBuilder.obj
 0002:00001cb0       ??_C@_0HJ@KJANPPOE@ConvexMeshBuilder?3?3computeHullP@ 000000018004bcb0     ConvexMeshBuilder.obj
 0002:00001d2c       ??_C@_06KDGGGLIJ@PxVec3@   000000018004bd2c     ConvexMeshBuilder.obj
 0002:00001d34       ??_C@_05LMJPANIN@PxU32@    000000018004bd34     ConvexMeshBuilder.obj
 0002:00001d40       ??_C@_0O@JMAGMMGG@PxHullPolygon@ 000000018004bd40     ConvexMeshBuilder.obj
 0002:00001d50       __real@33d6bf95            000000018004bd50     ConvexMeshBuilder.obj
 0002:00001d54       __real@3f13cd3a            000000018004bd54     ConvexMeshBuilder.obj
 0002:00001d58       __real@b3d6bf95            000000018004bd58     ConvexMeshBuilder.obj
 0002:00001d5c       __real@bf800000            000000018004bd5c     ConvexMeshBuilder.obj
 0002:00001d60       __xmm@80000000000000008000000000000000 000000018004bd60     ConvexMeshBuilder.obj
 0002:00001d70       ??_C@_0DP@PJBJBEGF@Meshmerizer?3?3extractHullPolygon@ 000000018004bd70     ConvexPolygonsBuilder.obj
 0002:00001db0       ??_C@_0GG@BBPGAMPL@C?3?2Users?2Jungle?2Documents?2GitHu@ 000000018004bdb0     ConvexPolygonsBuilder.obj
 0002:00001e18       ??_C@_0DL@IAFKOCCK@ConvexHullBuilder?3?5convex?5hull?5@ 000000018004be18     ConvexPolygonsBuilder.obj
 0002:00001e60       ??_C@_0GF@OJLJHAMH@ConvexHullBuilder?3?3CreateTriang@ 000000018004be60     ConvexPolygonsBuilder.obj
 0002:00001ec8       ??_7QuickHullConvexHullLib@physx@@6B@ 000000018004bec8     QuickHullConvexHullLib.obj
 0002:00001ef0       ??_C@_0GH@MBPPPGIM@C?3?2Users?2Jungle?2Documents?2GitHu@ 000000018004bef0     QuickHullConvexHullLib.obj
 0002:00001f60       ??_C@_0GA@EPPAEJPM@QuickHullConvexHullLib?3?3findSim@ 000000018004bf60     QuickHullConvexHullLib.obj
 0002:00001fc0       ??_C@_0FB@NEBIJMML@QuickHullConvexHullLib?3?3findSim@ 000000018004bfc0     QuickHullConvexHullLib.obj
 0002:00002020       ??_C@_0FB@CLLCBEMM@QuickHullConvexHullLib?3?3findSim@ 000000018004c020     QuickHullConvexHullLib.obj
 0002:00002074       __real@34c00000            000000018004c074     QuickHullConvexHullLib.obj
 0002:00002078       __real@3e800000            000000018004c078     QuickHullConvexHullLib.obj
 0002:000020a0       __real@00000000            000000018004c0a0     VolumeIntegration.obj
 0002:000020a8       __real@3fe0000000000000    000000018004c0a8     VolumeIntegration.obj
 0002:000020b0       __real@3ff0000000000000    000000018004c0b0     VolumeIntegration.obj
 0002:000020c0       __xmm@3c0888893c0888893c0888893c088889 000000018004c0c0     VolumeIntegration.obj
 0002:000020d0       __xmm@3c8888893c8888893c8888893c888889 000000018004c0d0     VolumeIntegration.obj
 0002:000020e0       __xmm@3d2aaaab3d2aaaab3d2aaaab3d2aaaab 000000018004c0e0     VolumeIntegration.obj
 0002:000020f0       __xmm@3e2aaaab3e2aaaab3e2aaaab3e2aaaab 000000018004c0f0     VolumeIntegration.obj
 0002:00002100       __xmm@3f811111111111113f81111111111111 000000018004c100     VolumeIntegration.obj
 0002:00002110       __xmm@3f811111111111113f91111111111111 000000018004c110     VolumeIntegration.obj
 0002:00002120       __xmm@3f911111111111113f91111111111111 000000018004c120     VolumeIntegration.obj
 0002:00002130       __xmm@3fa55555555555553fa5555555555555 000000018004c130     VolumeIntegration.obj
 0002:00002140       __xmm@3fa55555555555553fc5555555555555 000000018004c140     VolumeIntegration.obj
 0002:00002150       ??_C@_0BA@EGLNOO@PhysXFoundation@ 000000018004c150     WindowsCookingDelayLoadHook.obj
 0002:00002160       ??_C@_0M@ILKNCJKN@PhysXCommon@ 000000018004c160     WindowsCookingDelayLoadHook.obj
 0002:00002170       __sz_PhysXCommon_64_dll    000000018004c170     PhysXCommon_64:PhysXCommon_64.dll
 0002:00002190       __sz_PhysXFoundation_64_dll 000000018004c190     PhysXFoundation_64:PhysXFoundation_64.dll
 0002:000021a8       ??_C@_1BK@DBDEIDLH@?$AAK?$AAE?$AAR?$AAN?$AAE?$AAL?$AA3?$AA2?$AA?4?$AAD?$AAL?$AAL@ 000000018004c1a8     Delayimp:delayhlp.obj
 0002:000021c8       ??_C@_0BI@OMNLIJDB@AcquireSRWLockExclusive@ 000000018004c1c8     Delayimp:delayhlp.obj
 0002:000021e0       ??_C@_0BI@HMIEPCNJ@ReleaseSRWLockExclusive@ 000000018004c1e0     Delayimp:delayhlp.obj
 0002:000021f8       __pfnDliFailureHook2       000000018004c1f8     Delayimp:delayhk1.obj
 0002:00002200       __bChangeProtectionOfWholeDloadSection 000000018004c200     Delayimp:delaygv1.obj
 0002:00002210       ??_7type_info@@6B@         000000018004c210     LIBCMT:std_type_info_static.obj
 0002:00002280       _pDefaultRawDllMain        000000018004c280     LIBCMT:dll_dllmain.obj
 0002:00002280       _pRawDllMain               000000018004c280     LIBCMT:dll_dllmain.obj
 0002:00002290       _load_config_used          000000018004c290     LIBCMT:loadcfg.obj
 0002:000023d0       __xmm@ffffffffffffffffffffffffffffffff 000000018004c3d0     LIBCMT:utility.obj
 0002:000023e0       _pDestructExceptionObject  000000018004c3e0     libvcruntime:ehhelpers.obj
 0002:00002b00       ??_C@_08EHJDFFNH@__based?$CI@ 000000018004cb00     libvcruntime:undname.obj
 0002:00002b10       ??_C@_07KOLFKCDI@__cdecl@  000000018004cb10     libvcruntime:undname.obj
 0002:00002b18       ??_C@_08GHMPAG@__pascal@   000000018004cb18     libvcruntime:undname.obj
 0002:00002b28       ??_C@_09IFJBGAPI@__stdcall@ 000000018004cb28     libvcruntime:undname.obj
 0002:00002b38       ??_C@_0L@NPHFGOKO@__thiscall@ 000000018004cb38     libvcruntime:undname.obj
 0002:00002b48       ??_C@_0L@JMKHOMEK@__fastcall@ 000000018004cb48     libvcruntime:undname.obj
 0002:00002b58       ??_C@_0N@BCKKPABJ@__vectorcall@ 000000018004cb58     libvcruntime:undname.obj
 0002:00002b68       ??_C@_09HIJEGCPM@__clrcall@ 000000018004cb68     libvcruntime:undname.obj
 0002:00002b74       ??_C@_06GHPCKEAG@__eabi@   000000018004cb74     libvcruntime:undname.obj
 0002:00002b80       ??_C@_09IOPIDJLG@__swift_1@ 000000018004cb80     libvcruntime:undname.obj
 0002:00002b90       ??_C@_09KFNFGKHF@__swift_2@ 000000018004cb90     libvcruntime:undname.obj
 0002:00002ba0       ??_C@_09LMMOFLDE@__swift_3@ 000000018004cba0     libvcruntime:undname.obj
 0002:00002bb0       ??_C@_07JOMMBBKO@__ptr64@  000000018004cbb0     libvcruntime:undname.obj
 0002:00002bb8       ??_C@_0L@PILCLIHE@__restrict@ 000000018004cbb8     libvcruntime:undname.obj
 0002:00002bc8       ??_C@_0M@GFIIJFMG@__unaligned@ 000000018004cbc8     libvcruntime:undname.obj
 0002:00002bd8       ??_C@_09DHDLOLLB@restrict?$CI@ 000000018004cbd8     libvcruntime:undname.obj
 0002:00002be2       ??_C@_00CNPNBAHC@@         000000018004cbe2     libvcruntime:undname.obj
 0002:00002be4       ??_C@_04NIHEBCM@?5new@     000000018004cbe4     libvcruntime:undname.obj
 0002:00002bf0       ??_C@_07FPCDHGMM@?5delete@ 000000018004cbf0     libvcruntime:undname.obj
 0002:00002bf8       ??_C@_01NEMOKFLO@?$DN@     000000018004cbf8     libvcruntime:undname.obj
 0002:00002bfc       ??_C@_02GPIOPFAK@?$DO?$DO@ 000000018004cbfc     libvcruntime:undname.obj
 0002:00002c00       ??_C@_02FODMEDOG@?$DM?$DM@ 000000018004cc00     libvcruntime:undname.obj
 0002:00002c04       ??_C@_01DCLJPIOD@?$CB@     000000018004cc04     libvcruntime:undname.obj
 0002:00002c08       ??_C@_02EGOFBIJA@?$DN?$DN@ 000000018004cc08     libvcruntime:undname.obj
 0002:00002c0c       ??_C@_02FDNJECIE@?$CB?$DN@ 000000018004cc0c     libvcruntime:undname.obj
 0002:00002c10       ??_C@_02GPECMEKF@?$FL?$FN@ 000000018004cc10     libvcruntime:undname.obj
 0002:00002c18       ??_C@_08LHJFAFGD@operator@ 000000018004cc18     libvcruntime:undname.obj
 0002:00002c24       ??_C@_02HBOOOICD@?9?$DO@   000000018004cc24     libvcruntime:undname.obj
 0002:00002c28       ??_C@_01NBENCBCI@?$CK@     000000018004cc28     libvcruntime:undname.obj
 0002:00002c2c       ??_C@_02ECNGHCIF@?$CL?$CL@ 000000018004cc2c     libvcruntime:undname.obj
 0002:00002c30       ??_C@_02BAABKJLB@?9?9@     000000018004cc30     libvcruntime:undname.obj
 0002:00002c34       ??_C@_01JOAMLHOP@?9@       000000018004cc34     libvcruntime:undname.obj
 0002:00002c38       ??_C@_01MIFGBAGJ@?$CL@     000000018004cc38     libvcruntime:undname.obj
 0002:00002c3c       ??_C@_01HNPIGOCE@?$CG@     000000018004cc3c     libvcruntime:undname.obj
 0002:00002c40       ??_C@_03MNHNFDLC@?9?$DO?$CK@ 000000018004cc40     libvcruntime:undname.obj
 0002:00002c44       ??_C@_01KMDKNFGN@?1@       000000018004cc44     libvcruntime:undname.obj
 0002:00002c48       ??_C@_01FGNFDNOH@?$CF@     000000018004cc48     libvcruntime:undname.obj
 0002:00002c4c       ??_C@_01MNNFJEPP@?$DM@     000000018004cc4c     libvcruntime:undname.obj
 0002:00002c50       ??_C@_02EHCHHCKH@?$DM?$DN@ 000000018004cc50     libvcruntime:undname.obj
 0002:00002c54       ??_C@_01PPODPGHN@?$DO@     000000018004cc54     libvcruntime:undname.obj
 0002:00002c58       ??_C@_02EEKDKGMJ@?$DO?$DN@ 000000018004cc58     libvcruntime:undname.obj
 0002:00002c5c       ??_C@_01IHBHIGKO@?0@       000000018004cc5c     libvcruntime:undname.obj
 0002:00002c60       ??_C@_02HCKGKOFO@?$CI?$CJ@ 000000018004cc60     libvcruntime:undname.obj
 0002:00002c64       ??_C@_01PJKLJHI@?$HO@      000000018004cc64     libvcruntime:undname.obj
 0002:00002c68       ??_C@_01JKBOJNNK@?$FO@     000000018004cc68     libvcruntime:undname.obj
 0002:00002c6c       ??_C@_01DNKMNLPK@?$HM@     000000018004cc6c     libvcruntime:undname.obj
 0002:00002c70       ??_C@_02PPKAJPJL@?$CG?$CG@ 000000018004cc70     libvcruntime:undname.obj
 0002:00002c74       ??_C@_02NONPIBCD@?$HM?$HM@ 000000018004cc74     libvcruntime:undname.obj
 0002:00002c78       ??_C@_02FPIMKNGF@?$CK?$DN@ 000000018004cc78     libvcruntime:undname.obj
 0002:00002c7c       ??_C@_02FOEOMHFC@?$CL?$DN@ 000000018004cc7c     libvcruntime:undname.obj
 0002:00002c80       ??_C@_02FKMDLLOA@?9?$DN@   000000018004cc80     libvcruntime:undname.obj
 0002:00002c84       ??_C@_02FJEHGPIO@?1?$DN@   000000018004cc84     libvcruntime:undname.obj
 0002:00002c88       ??_C@_02FENAOKFI@?$CF?$DN@ 000000018004cc88     libvcruntime:undname.obj
 0002:00002c8c       ??_C@_03IKFCCPFF@?$DO?$DO?$DN@ 000000018004cc8c     libvcruntime:undname.obj
 0002:00002c90       ??_C@_03CDNPDDLA@?$DM?$DM?$DN@ 000000018004cc90     libvcruntime:undname.obj
 0002:00002c94       ??_C@_02FGJGFEAB@?$CG?$DN@ 000000018004cc94     libvcruntime:undname.obj
 0002:00002c98       ??_C@_02DHLNPPGH@?$HM?$DN@ 000000018004cc98     libvcruntime:undname.obj
 0002:00002c9c       ??_C@_02MHEGNOJ@?$FO?$DN@  000000018004cc9c     libvcruntime:undname.obj
 0002:00002ca0       ??_C@_09IFPLHPGF@?$GAvftable?8@ 000000018004cca0     libvcruntime:undname.obj
 0002:00002cb0       ??_C@_09BLBHBJP@?$GAvbtable?8@ 000000018004ccb0     libvcruntime:undname.obj
 0002:00002cc0       ??_C@_07FEEIOKP@?$GAvcall?8@ 000000018004ccc0     libvcruntime:undname.obj
 0002:00002cc8       ??_C@_08LLFFHHDJ@?$GAtypeof?8@ 000000018004ccc8     libvcruntime:undname.obj
 0002:00002cd8       ??_C@_0BF@KDPPACIK@?$GAlocal?5static?5guard?8@ 000000018004ccd8     libvcruntime:undname.obj
 0002:00002cf0       ??_C@_08OBABFOLI@?$GAstring?8@ 000000018004ccf0     libvcruntime:undname.obj
 0002:00002d00       ??_C@_0BD@JDLKDPAB@?$GAvbase?5destructor?8@ 000000018004cd00     libvcruntime:undname.obj
 0002:00002d18       ??_C@_0BN@DEGPLNFK@?$GAvector?5deleting?5destructor?8@ 000000018004cd18     libvcruntime:undname.obj
 0002:00002d38       ??_C@_0BO@OBMKPJIG@?$GAdefault?5constructor?5closure?8@ 000000018004cd38     libvcruntime:undname.obj
 0002:00002d58       ??_C@_0BN@IMDCHIKM@?$GAscalar?5deleting?5destructor?8@ 000000018004cd58     libvcruntime:undname.obj
 0002:00002d78       ??_C@_0BO@PFGOCPJJ@?$GAvector?5constructor?5iterator?8@ 000000018004cd78     libvcruntime:undname.obj
 0002:00002d98       ??_C@_0BN@LFPFMEDL@?$GAvector?5destructor?5iterator?8@ 000000018004cd98     libvcruntime:undname.obj
 0002:00002db8       ??_C@_0CE@IKBNEHA@?$GAvector?5vbase?5constructor?5itera@ 000000018004cdb8     libvcruntime:undname.obj
 0002:00002de0       ??_C@_0BL@NILFHHPC@?$GAvirtual?5displacement?5map?8@ 000000018004cde0     libvcruntime:undname.obj
 0002:00002e00       ??_C@_0CB@JONCMFFK@?$GAeh?5vector?5constructor?5iterator@ 000000018004ce00     libvcruntime:undname.obj
 0002:00002e28       ??_C@_0CA@GCEOPDGL@?$GAeh?5vector?5destructor?5iterator?8@ 000000018004ce28     libvcruntime:undname.obj
 0002:00002e48       ??_C@_0CH@OOJPLCPH@?$GAeh?5vector?5vbase?5constructor?5it@ 000000018004ce48     libvcruntime:undname.obj
 0002:00002e70       ??_C@_0BL@LLKPOHJI@?$GAcopy?5constructor?5closure?8@ 000000018004ce70     libvcruntime:undname.obj
 0002:00002e90       ??_C@_0BA@KBCDOMBN@?$GAudt?5returning?8@ 000000018004ce90     libvcruntime:undname.obj
 0002:00002ea0       ??_C@_03KLGMFNMG@?$GAEH@   000000018004cea0     libvcruntime:undname.obj
 0002:00002ea4       ??_C@_05KHLCHHI@?$GARTTI@  000000018004cea4     libvcruntime:undname.obj
 0002:00002eb0       ??_C@_0BA@KKLDJDLB@?$GAlocal?5vftable?8@ 000000018004ceb0     libvcruntime:undname.obj
 0002:00002ec0       ??_C@_0CE@IIHCMGGL@?$GAlocal?5vftable?5constructor?5clos@ 000000018004cec0     libvcruntime:undname.obj
 0002:00002ee4       ??_C@_06FHBGPFGH@?5new?$FL?$FN@ 000000018004cee4     libvcruntime:undname.obj
 0002:00002ef0       ??_C@_09LBNFPBCA@?5delete?$FL?$FN@ 000000018004cef0     libvcruntime:undname.obj
 0002:00002f00       ??_C@_0P@HJKNJFNN@?$GAomni?5callsig?8@ 000000018004cf00     libvcruntime:undname.obj
 0002:00002f10       ??_C@_0BL@CNOONJFP@?$GAplacement?5delete?5closure?8@ 000000018004cf10     libvcruntime:undname.obj
 0002:00002f30       ??_C@_0BN@CKNJLHMB@?$GAplacement?5delete?$FL?$FN?5closure?8@ 000000018004cf30     libvcruntime:undname.obj
 0002:00002f50       ??_C@_0CG@CFDHKGGD@?$GAmanaged?5vector?5constructor?5ite@ 000000018004cf50     libvcruntime:undname.obj
 0002:00002f78       ??_C@_0CF@IMGKMJNO@?$GAmanaged?5vector?5destructor?5iter@ 000000018004cf78     libvcruntime:undname.obj
 0002:00002fa0       ??_C@_0CG@HLDDJMAG@?$GAeh?5vector?5copy?5constructor?5ite@ 000000018004cfa0     libvcruntime:undname.obj
 0002:00002fc8       ??_C@_0CM@FCBBDIGB@?$GAeh?5vector?5vbase?5copy?5construct@ 000000018004cfc8     libvcruntime:undname.obj
 0002:00002ff8       ??_C@_0BL@CLIPGLGB@?$GAdynamic?5initializer?5for?5?8@ 000000018004cff8     libvcruntime:undname.obj
 0002:00003018       ??_C@_0CB@PDBIFEP@?$GAdynamic?5atexit?5destructor?5for?5@ 000000018004d018     libvcruntime:undname.obj
 0002:00003040       ??_C@_0CD@CGAJBKEJ@?$GAvector?5copy?5constructor?5iterat@ 000000018004d040     libvcruntime:undname.obj
 0002:00003068       ??_C@_0CJ@GJELGAMM@?$GAvector?5vbase?5copy?5constructor?5@ 000000018004d068     libvcruntime:undname.obj
 0002:00003098       ??_C@_0CL@FGIJHLCE@?$GAmanaged?5vector?5copy?5constructo@ 000000018004d098     libvcruntime:undname.obj
 0002:000030c8       ??_C@_0BM@PMGGMLDN@?$GAlocal?5static?5thread?5guard?8@ 000000018004d0c8     libvcruntime:undname.obj
 0002:000030e8       ??_C@_0N@BDNMDMOL@operator?5?$CC?$CC?5@ 000000018004d0e8     libvcruntime:undname.obj
 0002:000030f8       ??_C@_0BC@GGEBGALA@operator?5co_await@ 000000018004d0f8     libvcruntime:undname.obj
 0002:00003110       ??_C@_0M@GAAIMMOH@operator?$DM?$DN?$DO@ 000000018004d110     libvcruntime:undname.obj
 0002:00003120       ??_C@_0BC@DAFEJGAK@?5Type?5Descriptor?8@ 000000018004d120     libvcruntime:undname.obj
 0002:00003138       ??_C@_0BM@LDKODKLH@?5Base?5Class?5Descriptor?5at?5?$CI@ 000000018004d138     libvcruntime:undname.obj
 0002:00003158       ??_C@_0BD@LGICGFMM@?5Base?5Class?5Array?8@ 000000018004d158     libvcruntime:undname.obj
 0002:00003170       ??_C@_0BN@MECKDCOJ@?5Class?5Hierarchy?5Descriptor?8@ 000000018004d170     libvcruntime:undname.obj
 0002:00003190       ??_C@_0BK@CFCOFLF@?5Complete?5Object?5Locator?8@ 000000018004d190     libvcruntime:undname.obj
 0002:000031b0       ??_C@_0BG@JNJLAMPM@?$GAanonymous?5namespace?8@ 000000018004d1b0     libvcruntime:undname.obj
 0002:000031c8       ??_C@_04HEJADOOB@CV?3?5@   000000018004d1c8     libvcruntime:undname.obj
 0002:000031d0       ??_C@_02MOLJINC@?3?3@      000000018004d1d0     libvcruntime:undname.obj
 0002:000031d8       ??_C@_0BE@JAEOCHPE@template?9parameter?9@ 000000018004d1d8     libvcruntime:undname.obj
 0002:000031f0       ??_C@_0BF@LNLGBBNL@?$GAtemplate?9parameter?9@ 000000018004d1f0     libvcruntime:undname.obj
 0002:00003208       ??_C@_0O@KHGCOMHP@generic?9type?9@ 000000018004d208     libvcruntime:undname.obj
 0002:00003218       ??_C@_0P@ODDENDLM@?$GAgeneric?9type?9@ 000000018004d218     libvcruntime:undname.obj
 0002:00003228       ??_C@_02OHHJMEON@?8?8@     000000018004d228     libvcruntime:undname.obj
 0002:00003230       ??_C@_0BN@IBLMMFAP@?$GAnon?9type?9template?9parameter@ 000000018004d230     libvcruntime:undname.obj
 0002:00003250       ??_C@_03DLDNIBIK@?$CFlf@   000000018004d250     libvcruntime:undname.obj
 0002:00003254       ??_C@_04OFALKAJ@?$DP?$DP_C@ 000000018004d254     libvcruntime:undname.obj
 0002:0000325c       ??_C@_03KHICJKCI@?4?4?4@   000000018004d25c     libvcruntime:undname.obj
 0002:00003260       ??_C@_04HIBGFPH@NULL@      000000018004d260     libvcruntime:undname.obj
 0002:00003268       ??_C@_02DPKJAMEF@?$CFd@    000000018004d268     libvcruntime:undname.obj
 0002:00003270       ??_C@_0BK@IHCCFNEL@?$GAtemplate?9type?9parameter?9@ 000000018004d270     libvcruntime:undname.obj
 0002:00003290       ??_C@_0BK@OFCNNNKO@?$GAgeneric?9class?9parameter?9@ 000000018004d290     libvcruntime:undname.obj
 0002:000032b0       ??_C@_0BL@NGJBLFIL@?$GAgeneric?9method?9parameter?9@ 000000018004d2b0     libvcruntime:undname.obj
 0002:000032d0       ??_C@_07OHNGEDJK@nullptr@  000000018004d2d0     libvcruntime:undname.obj
 0002:000032d8       ??_C@_06COJIGPIB@lambda@   000000018004d2d8     libvcruntime:undname.obj
 0002:000032e0       ??_C@_04GKJNKENE@void@     000000018004d2e0     libvcruntime:undname.obj
 0002:000032e8       ??_C@_0BE@EODMJLIF@?$GAtemplate?9parameter@ 000000018004d2e8     libvcruntime:undname.obj
 0002:000032fc       ??_C@_03OPGICMGF@?$HN?8?5@ 000000018004d2fc     libvcruntime:undname.obj
 0002:00003300       ??_C@_02IGFCGPIL@?$HN?8@   000000018004d300     libvcruntime:undname.obj
 0002:00003308       ??_C@_0N@CBHHHENL@?$GAvtordispex?$HL@ 000000018004d308     libvcruntime:undname.obj
 0002:00003318       ??_C@_0L@GHPFDFH@?$GAvtordisp?$HL@ 000000018004d318     libvcruntime:undname.obj
 0002:00003328       ??_C@_0L@HNGCOGAE@?$GAadjustor?$HL@ 000000018004d328     libvcruntime:undname.obj
 0002:00003338       ??_C@_0CB@KJDOOODE@?$GAlocal?5static?5destructor?5helper@ 000000018004d338     libvcruntime:undname.obj
 0002:00003360       ??_C@_0DB@ILEFOCIJ@?$GAtemplate?5static?5data?5member?5co@ 000000018004d360     libvcruntime:undname.obj
 0002:00003398       ??_C@_0DA@HGFJFBBE@?$GAtemplate?5static?5data?5member?5de@ 000000018004d398     libvcruntime:undname.obj
 0002:000033c8       ??_C@_07PGOEDBHP@static?5@ 000000018004d3c8     libvcruntime:undname.obj
 0002:000033d0       ??_C@_08NIEOINHE@virtual?5@ 000000018004d3d0     libvcruntime:undname.obj
 0002:000033e0       ??_C@_09LAPHOOG@private?3?5@ 000000018004d3e0     libvcruntime:undname.obj
 0002:000033f0       ??_C@_0M@GAIFPFIP@protected?3?5@ 000000018004d3f0     libvcruntime:undname.obj
 0002:00003400       ??_C@_08GPDDCMKI@public?3?5@ 000000018004d400     libvcruntime:undname.obj
 0002:00003410       ??_C@_08KJLFOPNE@?$FLthunk?$FN?3@ 000000018004d410     libvcruntime:undname.obj
 0002:00003420       ??_C@_0M@DHNBOJMP@extern?5?$CCC?$CC?5@ 000000018004d420     libvcruntime:undname.obj
 0002:0000342c       ??_C@_02KCKGHPCA@?$CJ?5@   000000018004d42c     libvcruntime:undname.obj
 0002:00003430       ??_C@_05CIHEBHNO@char?5@   000000018004d430     libvcruntime:undname.obj
 0002:00003438       ??_C@_06EHJMALKF@short?5@  000000018004d438     libvcruntime:undname.obj
 0002:00003440       ??_C@_04LAHKHJMA@int?5@    000000018004d440     libvcruntime:undname.obj
 0002:00003448       ??_C@_05CJIMAING@long?5@   000000018004d448     libvcruntime:undname.obj
 0002:00003450       ??_C@_09EBBEKKIH@unsigned?5@ 000000018004d450     libvcruntime:undname.obj
 0002:0000345c       ??_C@_05BEFAKPML@void?5@   000000018004d45c     libvcruntime:undname.obj
 0002:00003468       ??_C@_09GAIEOBLP@volatile?5@ 000000018004d468     libvcruntime:undname.obj
 0002:00003478       ??_C@_08PABEKFH@volatile@  000000018004d478     libvcruntime:undname.obj
 0002:00003488       ??_C@_0BA@LKIJLKPP@std?3?3nullptr_t?5@ 000000018004d488     libvcruntime:undname.obj
 0002:00003498       ??_C@_0P@GCOCNKDM@std?3?3nullptr_t@ 000000018004d498     libvcruntime:undname.obj
 0002:000034a8       ??_C@_0L@EGPHHEKN@?$DMellipsis?$DO@ 000000018004d4a8     libvcruntime:undname.obj
 0002:000034b4       ??_C@_04EENFHACM@?0?4?4?4@ 000000018004d4b4     libvcruntime:undname.obj
 0002:000034c0       ??_C@_0M@ELJOJFFH@?0?$DMellipsis?$DO@ 000000018004d4c0     libvcruntime:undname.obj
 0002:000034d0       ??_C@_09DNHFEOJI@?5noexcept@ 000000018004d4d0     libvcruntime:undname.obj
 0002:000034dc       ??_C@_03PBJBJNON@cpu@      000000018004d4dc     libvcruntime:undname.obj
 0002:000034e0       ??_C@_03DCBBJBAA@amp@      000000018004d4e0     libvcruntime:undname.obj
 0002:000034e4       ??_C@_02KEGNLNML@?0?5@     000000018004d4e4     libvcruntime:undname.obj
 0002:000034e8       ??_C@_04ENMBGAPA@char@     000000018004d4e8     libvcruntime:undname.obj
 0002:000034f0       ??_C@_05BFKKPKCG@short@    000000018004d4f0     libvcruntime:undname.obj
 0002:000034f8       ??_C@_03JBIPMCLC@int@      000000018004d4f8     libvcruntime:undname.obj
 0002:000034fc       ??_C@_04GOKPGOLB@long@     000000018004d4fc     libvcruntime:undname.obj
 0002:00003504       ??_C@_05KNFBNCOH@float@    000000018004d504     libvcruntime:undname.obj
 0002:0000350c       ??_C@_06BNJCAIGJ@double@   000000018004d50c     libvcruntime:undname.obj
 0002:00003514       ??_C@_04DDKJGDCM@bool@     000000018004d514     libvcruntime:undname.obj
 0002:0000351c       ??_C@_06EBGKOKIG@__int8@   000000018004d51c     libvcruntime:undname.obj
 0002:00003528       ??_C@_07ICFHOGAF@__int16@  000000018004d528     libvcruntime:undname.obj
 0002:00003530       ??_C@_07OFLPPHGP@__int32@  000000018004d530     libvcruntime:undname.obj
 0002:00003538       ??_C@_07LFCOJCAC@__int64@  000000018004d538     libvcruntime:undname.obj
 0002:00003540       ??_C@_08GAHOLHEO@__int128@ 000000018004d540     libvcruntime:undname.obj
 0002:00003550       ??_C@_09EEKGDCPH@?$DMunknown?$DO@ 000000018004d550     libvcruntime:undname.obj
 0002:00003560       ??_C@_07CFHGOPCN@char8_t@  000000018004d560     libvcruntime:undname.obj
 0002:00003568       ??_C@_08HBIPOFJB@char16_t@ 000000018004d568     libvcruntime:undname.obj
 0002:00003578       ??_C@_08IECNCBKG@char32_t@ 000000018004d578     libvcruntime:undname.obj
 0002:00003588       ??_C@_07CLGGIAMF@wchar_t@  000000018004d588     libvcruntime:undname.obj
 0002:00003590       ??_C@_04HAPDLBFF@auto@     000000018004d590     libvcruntime:undname.obj
 0002:00003598       ??_C@_0P@LHCGKIGK@decltype?$CIauto?$CJ@ 000000018004d598     libvcruntime:undname.obj
 0002:000035a8       ??_C@_05PCNBGHCF@this?5@   000000018004d5a8     libvcruntime:undname.obj
 0002:000035b0       ??_C@_06GCICPBLB@__w64?5@  000000018004d5b0     libvcruntime:undname.obj
 0002:000035b8       ??_C@_07NFANNNEC@UNKNOWN@  000000018004d5b8     libvcruntime:undname.obj
 0002:000035c0       ??_C@_07EDHNAJHC@signed?5@ 000000018004d5c0     libvcruntime:undname.obj
 0002:000035c8       ??_C@_05BNCCCJPP@const@    000000018004d5c8     libvcruntime:undname.obj
 0002:000035d0       ??_C@_09EFNPDFFP@?5volatile@ 000000018004d5d0     libvcruntime:undname.obj
 0002:000035e0       ??_C@_0P@GCIFDJCJ@?$GAunknown?5ecsu?8@ 000000018004d5e0     libvcruntime:undname.obj
 0002:000035f0       ??_C@_06MOJHIBMG@union?5@  000000018004d5f0     libvcruntime:undname.obj
 0002:000035f8       ??_C@_07DIBCDNGL@struct?5@ 000000018004d5f8     libvcruntime:undname.obj
 0002:00003600       ??_C@_06LJBABKPM@class?5@  000000018004d600     libvcruntime:undname.obj
 0002:00003608       ??_C@_08KOFANOFK@coclass?5@ 000000018004d608     libvcruntime:undname.obj
 0002:00003618       ??_C@_0N@DLIEFKNA@cointerface?5@ 000000018004d618     libvcruntime:undname.obj
 0002:00003628       ??_C@_05LJGMCFOG@enum?5@   000000018004d628     libvcruntime:undname.obj
 0002:00003630       ??_C@_06LIJLOJAG@const?5@  000000018004d630     libvcruntime:undname.obj
 0002:00003638       ??_C@_02KJPKDIBN@?$CG?5@   000000018004d638     libvcruntime:undname.obj
 0002:0000363c       ??_C@_03PCKGMOPB@?$CG?$CG?5@ 000000018004d63c     libvcruntime:undname.obj
 0002:00003640       ??_C@_0M@EALIELKG@cli?3?3array?$DM@ 000000018004d640     libvcruntime:undname.obj
 0002:00003650       ??_C@_0O@GKABPPIF@cli?3?3pin_ptr?$DM@ 000000018004d650     libvcruntime:undname.obj
 0002:00003660       ??_C@_02GOGNNPBN@?$CJ?$FL@ 000000018004d660     libvcruntime:undname.obj
 0002:00003664       ??_C@_06EEGAIFAK@?$HLflat?$HN@ 000000018004d664     libvcruntime:undname.obj
 0002:0000366c       ??_C@_05JIBOFOHK@?$HLfor?5@ 000000018004d66c     libvcruntime:undname.obj
 0002:00003674       ??_C@_02MDINNEEG@s?5@      000000018004d674     libvcruntime:undname.obj
 0002:00003680       ??_7charNode@@6B@          000000018004d680     libvcruntime:undname.obj
 0002:000036a8       ??_7pcharNode@@6B@         000000018004d6a8     libvcruntime:undname.obj
 0002:000036d0       ??_7pDNameNode@@6B@        000000018004d6d0     libvcruntime:undname.obj
 0002:000036f8       ??_7DNameStatusNode@@6B@   000000018004d6f8     libvcruntime:undname.obj
 0002:00003720       ??_7pairNode@@6B@          000000018004d720     libvcruntime:undname.obj
 0002:00003840       ??_C@_04OKOHEJBO@?5?$DP?$DP?5@ 000000018004d840     libvcruntime:undname.obj
 0002:00003850       ?nodes@?1??make@DNameStatusNode@@SAPEBV2@W4DNameStatus@@@Z@4QBV2@B 000000018004d850     libvcruntime:undname.obj
 0002:00003890       ?s_negLengthTab@FH4@@3QBCB 000000018004d890     libvcruntime:risctrnsctrl.obj
 0002:000038a0       ?s_shiftTab@FH4@@3QBEB     000000018004d8a0     libvcruntime:risctrnsctrl.obj
 0002:00003a00       ??_C@_1DM@KHCHBNEB@?$AAa?$AAp?$AAi?$AA?9?$AAm?$AAs?$AA?9?$AAw?$AAi?$AAn?$AA?9?$AAc?$AAo?$AAr?$AAe@ 000000018004da00     libvcruntime:winapi_downlevel.obj
 0002:00003a40       ??_C@_1DK@LPPGFMPP@?$AAa?$AAp?$AAi?$AA?9?$AAm?$AAs?$AA?9?$AAw?$AAi?$AAn?$AA?9?$AAc?$AAo?$AAr?$AAe@ 000000018004da40     libvcruntime:winapi_downlevel.obj
 0002:00003a80       ??_C@_1BC@GDMECMAK@?$AAk?$AAe?$AAr?$AAn?$AAe?$AAl?$AA3?$AA2@ 000000018004da80     libvcruntime:winapi_downlevel.obj
 0002:00003a98       ??_C@_1BA@PFFKHIOG@?$AAa?$AAp?$AAi?$AA?9?$AAm?$AAs?$AA?9@ 000000018004da98     libvcruntime:winapi_downlevel.obj
 0002:00003ab0       ??_C@_08KNHFBNJ@FlsAlloc@  000000018004dab0     libvcruntime:winapi_downlevel.obj
 0002:00003ac8       ??_C@_07PEJMOBNF@FlsFree@  000000018004dac8     libvcruntime:winapi_downlevel.obj
 0002:00003ad8       ??_C@_0M@GDNOONDI@FlsGetValue@ 000000018004dad8     libvcruntime:winapi_downlevel.obj
 0002:00003af0       ??_C@_0M@JCPCPOEF@FlsSetValue@ 000000018004daf0     libvcruntime:winapi_downlevel.obj
 0002:00003b08       ??_C@_0BM@HCFOFFN@InitializeCriticalSectionEx@ 000000018004db08     libvcruntime:winapi_downlevel.obj
 0002:00003b30       ??_7exception@std@@6B@     000000018004db30     libvcruntime:frame.obj
 0002:00003b40       ??_C@_0BC@EOODALEL@Unknown?5exception@ 000000018004db40     libvcruntime:frame.obj
 0002:00003b60       ??_7bad_exception@std@@6B@ 000000018004db60     libvcruntime:frame.obj
 0002:00003b70       ??_C@_0O@DPKOEFFH@bad?5exception@ 000000018004db70     libvcruntime:frame.obj
 0002:00004308       __real@3f1a36e2eb1c432d    000000018004e308     libucrt:atan2f.obj
 0002:00004310       __real@3f490fdb            000000018004e310     libucrt:atan2f.obj
 0002:00004318       __real@3fb0000000000000    000000018004e318     libucrt:atan2f.obj
 0002:00004320       __real@3fc2492482bd6be1    000000018004e320     libucrt:atan2f.obj
 0002:00004328       __real@3fc90fdb            000000018004e328     libucrt:atan2f.obj
 0002:00004330       __real@3fc99999999643a3    000000018004e330     libucrt:atan2f.obj
 0002:00004338       __real@3fd5555555550877    000000018004e338     libucrt:atan2f.obj
 0002:00004340       __real@3fd5555555555538    000000018004e340     libucrt:atan2f.obj
 0002:00004348       __real@3ff921fb54442d18    000000018004e348     libucrt:atan2f.obj
 0002:00004350       __real@400921fb54442d18    000000018004e350     libucrt:atan2f.obj
 0002:00004358       __real@4016cbe4            000000018004e358     libucrt:atan2f.obj
 0002:0000435c       __real@40490fdb            000000018004e35c     libucrt:atan2f.obj
 0002:00004360       __real@4070000000000000    000000018004e360     libucrt:atan2f.obj
 0002:00004368       __real@80000000            000000018004e368     libucrt:atan2f.obj
 0002:0000436c       __real@bf490fdb            000000018004e36c     libucrt:atan2f.obj
 0002:00004370       __real@bfc90fdb            000000018004e370     libucrt:atan2f.obj
 0002:00004374       __real@c016cbe4            000000018004e374     libucrt:atan2f.obj
 0002:00004378       __real@c0490fdb            000000018004e378     libucrt:atan2f.obj
 0002:000045d0       __acrt_exception_action_table 000000018004e5d0     libucrt:exception_filter.obj
 0002:00004690       __acrt_signal_action_table_count 000000018004e690     libucrt:exception_filter.obj
 0002:00004698       __acrt_signal_action_first_fpe_index 000000018004e698     libucrt:exception_filter.obj
 0002:000046a0       __acrt_signal_action_fpe_count 000000018004e6a0     libucrt:exception_filter.obj
 0002:000046f8       ??_C@_1BI@BGOHAHKC@?$AAm?$AAs?$AAc?$AAo?$AAr?$AAe?$AAe?$AA?4?$AAd?$AAl?$AAl@ 000000018004e6f8     libucrt:exit.obj
 0002:00004710       ??_C@_0P@MIGLKIOC@CorExitProcess@ 000000018004e710     libucrt:exit.obj
 0002:00004870       ?standard_lookup_table_spectre@__crt_stdio_output@@3V?$spectre_mitigated_lookup_table@Ustate_transition_pair@__crt_stdio_output@@$0IA@@1@B 000000018004e870     libucrt:output.obj
 0002:00004970       ?format_validation_lookup_table_spectre@__crt_stdio_output@@3V?$spectre_mitigated_lookup_table@Ustate_transition_pair@__crt_stdio_output@@$0IA@@1@B 000000018004e970     libucrt:output.obj
 0002:00004a70       ??_C@_1O@CEDCILHN@?$AA?$CI?$AAn?$AAu?$AAl?$AAl?$AA?$CJ@ 000000018004ea70     libucrt:output.obj
 0002:00004a80       ??_C@_06OJHGLDPL@?$CInull?$CJ@ 000000018004ea80     libucrt:output.obj
 0002:00004c00       ??_C@_04LAGPAAHP@sinf@     000000018004ec00     libucrt:sincos_special.obj
 0002:00004c08       ??_C@_04OBBKPIAC@cosf@     000000018004ec08     libucrt:sincos_special.obj
 0002:00004c10       __Lcosfarray               000000018004ec10     libucrt:lsincosf_array.obj
 0002:00004c40       __Lsinfarray               000000018004ec40     libucrt:lsincosf_array.obj
 0002:00004c60       __L_2_by_pi_bits           000000018004ec60     libucrt:l2_by_pi_bits.obj
 0002:00004f38       ??_C@_1M@HPNHIDJI@?$AAj?$AAa?$AA?9?$AAJ?$AAP@ 000000018004ef38     libucrt:mbctype.obj
 0002:00004f48       ??_C@_1M@BIBDDEMK@?$AAz?$AAh?$AA?9?$AAC?$AAN@ 000000018004ef48     libucrt:mbctype.obj
 0002:00004f58       ??_C@_1M@JLOOOEGK@?$AAk?$AAo?$AA?9?$AAK?$AAR@ 000000018004ef58     libucrt:mbctype.obj
 0002:00004f68       ??_C@_1M@CLNBBOPM@?$AAz?$AAh?$AA?9?$AAT?$AAW@ 000000018004ef68     libucrt:mbctype.obj
 0002:00005030       ??_C@_1EA@JGEFHKEI@?$AAa?$AAp?$AAi?$AA?9?$AAm?$AAs?$AA?9?$AAw?$AAi?$AAn?$AA?9?$AAc?$AAo?$AAr?$AAe@ 000000018004f030     libucrt:winapi_thunks.obj
 0002:00005070       ??_C@_1DI@KMEPCBPN@?$AAa?$AAp?$AAi?$AA?9?$AAm?$AAs?$AA?9?$AAw?$AAi?$AAn?$AA?9?$AAc?$AAo?$AAr?$AAe@ 000000018004f070     libucrt:winapi_thunks.obj
 0002:000050a8       ??_C@_1DI@IJCEHOCB@?$AAa?$AAp?$AAi?$AA?9?$AAm?$AAs?$AA?9?$AAw?$AAi?$AAn?$AA?9?$AAc?$AAo?$AAr?$AAe@ 000000018004f0a8     libucrt:winapi_thunks.obj
 0002:000050e0       ??_C@_1EI@MPIAOHOC@?$AAa?$AAp?$AAi?$AA?9?$AAm?$AAs?$AA?9?$AAw?$AAi?$AAn?$AA?9?$AAc?$AAo?$AAr?$AAe@ 000000018004f0e0     libucrt:winapi_thunks.obj
 0002:00005130       ??_C@_1FK@FPHCKFIE@?$AAa?$AAp?$AAi?$AA?9?$AAm?$AAs?$AA?9?$AAw?$AAi?$AAn?$AA?9?$AAc?$AAo?$AAr?$AAe@ 000000018004f130     libucrt:winapi_thunks.obj
 0002:00005190       ??_C@_1EM@DILCGIIO@?$AAa?$AAp?$AAi?$AA?9?$AAm?$AAs?$AA?9?$AAw?$AAi?$AAn?$AA?9?$AAc?$AAo?$AAr?$AAe@ 000000018004f190     libucrt:winapi_thunks.obj
 0002:000051e0       ??_C@_1DM@LNCGDDPN@?$AAa?$AAp?$AAi?$AA?9?$AAm?$AAs?$AA?9?$AAw?$AAi?$AAn?$AA?9?$AAc?$AAo?$AAr?$AAe@ 000000018004f1e0     libucrt:winapi_thunks.obj
 0002:00005220       ??_C@_1DO@FPAPJEMD@?$AAa?$AAp?$AAi?$AA?9?$AAm?$AAs?$AA?9?$AAw?$AAi?$AAn?$AA?9?$AAc?$AAo?$AAr?$AAe@ 000000018004f220     libucrt:winapi_thunks.obj
 0002:00005260       ??_C@_1DK@NDHNAHIO@?$AAa?$AAp?$AAi?$AA?9?$AAm?$AAs?$AA?9?$AAw?$AAi?$AAn?$AA?9?$AAc?$AAo?$AAr?$AAe@ 000000018004f260     libucrt:winapi_thunks.obj
 0002:000052a0       ??_C@_1DM@KGHDGBCM@?$AAa?$AAp?$AAi?$AA?9?$AAm?$AAs?$AA?9?$AAw?$AAi?$AAn?$AA?9?$AAc?$AAo?$AAr?$AAe@ 000000018004f2a0     libucrt:winapi_thunks.obj
 0002:000052e0       ??_C@_1EO@IJIOEFOH@?$AAa?$AAp?$AAi?$AA?9?$AAm?$AAs?$AA?9?$AAw?$AAi?$AAn?$AA?9?$AAr?$AAt?$AAc?$AAo@ 000000018004f2e0     libucrt:winapi_thunks.obj
 0002:00005330       ??_C@_1FG@HHGEKANL@?$AAa?$AAp?$AAi?$AA?9?$AAm?$AAs?$AA?9?$AAw?$AAi?$AAn?$AA?9?$AAs?$AAe?$AAc?$AAu@ 000000018004f330     libucrt:winapi_thunks.obj
 0002:00005390       ??_C@_1EG@DBIOJECG@?$AAe?$AAx?$AAt?$AA?9?$AAm?$AAs?$AA?9?$AAw?$AAi?$AAn?$AA?9?$AAn?$AAt?$AAu?$AAs@ 000000018004f390     libucrt:winapi_thunks.obj
 0002:000053e0       ??_C@_1EO@FIHMJCLF@?$AAe?$AAx?$AAt?$AA?9?$AAm?$AAs?$AA?9?$AAw?$AAi?$AAn?$AA?9?$AAn?$AAt?$AAu?$AAs@ 000000018004f3e0     libucrt:winapi_thunks.obj
 0002:00005430       ??_C@_1BC@DNHGCMLG@?$AAa?$AAd?$AAv?$AAa?$AAp?$AAi?$AA3?$AA2@ 000000018004f430     libucrt:winapi_thunks.obj
 0002:00005448       ??_C@_1BG@CJPGBMEF@?$AAk?$AAe?$AAr?$AAn?$AAe?$AAl?$AAb?$AAa?$AAs?$AAe@ 000000018004f448     libucrt:winapi_thunks.obj
 0002:00005460       ??_C@_1M@OAIMIKLP@?$AAn?$AAt?$AAd?$AAl?$AAl@ 000000018004f460     libucrt:winapi_thunks.obj
 0002:00005470       ??_C@_1EG@DPGNFKGC@?$AAa?$AAp?$AAi?$AA?9?$AAm?$AAs?$AA?9?$AAw?$AAi?$AAn?$AA?9?$AAa?$AAp?$AAp?$AAm@ 000000018004f470     libucrt:winapi_thunks.obj
 0002:000054b8       ??_C@_1O@BCCLBEOE@?$AAu?$AAs?$AAe?$AAr?$AA3?$AA2@ 000000018004f4b8     libucrt:winapi_thunks.obj
 0002:000054c8       ??_C@_1BA@IAIFMGEF@?$AAe?$AAx?$AAt?$AA?9?$AAm?$AAs?$AA?9@ 000000018004f4c8     libucrt:winapi_thunks.obj
 0002:000054e0       ??_C@_0BA@FHFNEAED@AreFileApisANSI@ 000000018004f4e0     libucrt:winapi_thunks.obj
 0002:00005500       ??_C@_0O@KKBNKAPF@LCMapStringEx@ 000000018004f500     libucrt:winapi_thunks.obj
 0002:00005518       ??_C@_0BB@HBDEELFH@LocaleNameToLCID@ 000000018004f518     libucrt:winapi_thunks.obj
 0002:00005530       ??_C@_0CF@OJOFEIGO@AppPolicyGetProcessTerminationM@ 000000018004f530     libucrt:winapi_thunks.obj
 0002:00005560       __lc_time_c                000000018004f560     libucrt:nlsdata.obj
 0002:00005820       ??_C@_03KOEHGMDN@Sun@      000000018004f820     libucrt:nlsdata.obj
 0002:00005824       ??_C@_03PDAGKDH@Mon@       000000018004f824     libucrt:nlsdata.obj
 0002:00005828       ??_C@_03NAGEINEP@Tue@      000000018004f828     libucrt:nlsdata.obj
 0002:0000582c       ??_C@_03MHOMLAJA@Wed@      000000018004f82c     libucrt:nlsdata.obj
 0002:00005830       ??_C@_03IOFIKPDN@Thu@      000000018004f830     libucrt:nlsdata.obj
 0002:00005834       ??_C@_03IDIOELNC@Fri@      000000018004f834     libucrt:nlsdata.obj
 0002:00005838       ??_C@_03FEFJNEK@Sat@       000000018004f838     libucrt:nlsdata.obj
 0002:0000583c       ??_C@_06OOPIFAJ@Sunday@    000000018004f83c     libucrt:nlsdata.obj
 0002:00005844       ??_C@_06JLEDEDGH@Monday@   000000018004f844     libucrt:nlsdata.obj
 0002:00005850       ??_C@_07BAAGCFCM@Tuesday@  000000018004f850     libucrt:nlsdata.obj
 0002:00005858       ??_C@_09DLIGFAKA@Wednesday@ 000000018004f858     libucrt:nlsdata.obj
 0002:00005868       ??_C@_08HACCIKIA@Thursday@ 000000018004f868     libucrt:nlsdata.obj
 0002:00005874       ??_C@_06JECMNKMI@Friday@   000000018004f874     libucrt:nlsdata.obj
 0002:00005880       ??_C@_08INBOOONO@Saturday@ 000000018004f880     libucrt:nlsdata.obj
 0002:0000588c       ??_C@_03JIHJHPIE@Jan@      000000018004f88c     libucrt:nlsdata.obj
 0002:00005890       ??_C@_03HJBDCHOM@Feb@      000000018004f890     libucrt:nlsdata.obj
 0002:00005894       ??_C@_03ODNJBKGA@Mar@      000000018004f894     libucrt:nlsdata.obj
 0002:00005898       ??_C@_03LEOLGMJP@Apr@      000000018004f898     libucrt:nlsdata.obj
 0002:0000589c       ??_C@_03CNMDKL@May@        000000018004f89c     libucrt:nlsdata.obj
 0002:000058a0       ??_C@_03IDFGHECI@Jun@      000000018004f8a0     libucrt:nlsdata.obj
 0002:000058a4       ??_C@_03LBGABGKK@Jul@      000000018004f8a4     libucrt:nlsdata.obj
 0002:000058a8       ??_C@_03IFJFEIGA@Aug@      000000018004f8a8     libucrt:nlsdata.obj
 0002:000058ac       ??_C@_03GGCAPAJC@Sep@      000000018004f8ac     libucrt:nlsdata.obj
 0002:000058b0       ??_C@_03BMAOKBAD@Oct@      000000018004f8b0     libucrt:nlsdata.obj
 0002:000058b4       ??_C@_03JPJOFNIA@Nov@      000000018004f8b4     libucrt:nlsdata.obj
 0002:000058b8       ??_C@_03MKABNOCG@Dec@      000000018004f8b8     libucrt:nlsdata.obj
 0002:000058c0       ??_C@_07CGJPFGJA@January@  000000018004f8c0     libucrt:nlsdata.obj
 0002:000058c8       ??_C@_08GNJGEPFN@February@ 000000018004f8c8     libucrt:nlsdata.obj
 0002:000058d4       ??_C@_05HPCKOFNC@March@    000000018004f8d4     libucrt:nlsdata.obj
 0002:000058dc       ??_C@_05DMJDNLEJ@April@    000000018004f8dc     libucrt:nlsdata.obj
 0002:000058e4       ??_C@_04CNLMGBGM@June@     000000018004f8e4     libucrt:nlsdata.obj
 0002:000058ec       ??_C@_04MIEPOIFP@July@     000000018004f8ec     libucrt:nlsdata.obj
 0002:000058f4       ??_C@_06LBBHFDDG@August@   000000018004f8f4     libucrt:nlsdata.obj
 0002:00005900       ??_C@_09BHHEALKD@September@ 000000018004f900     libucrt:nlsdata.obj
 0002:00005910       ??_C@_07JJNFCEND@October@  000000018004f910     libucrt:nlsdata.obj
 0002:00005918       ??_C@_08HCHEGEOA@November@ 000000018004f918     libucrt:nlsdata.obj
 0002:00005928       ??_C@_08EDHMEBNP@December@ 000000018004f928     libucrt:nlsdata.obj
 0002:00005934       ??_C@_02DEDBPAFC@AM@       000000018004f934     libucrt:nlsdata.obj
 0002:00005938       ??_C@_02CJNFDJBF@PM@       000000018004f938     libucrt:nlsdata.obj
 0002:00005940       ??_C@_08BPBNCDIB@MM?1dd?1yy@ 000000018004f940     libucrt:nlsdata.obj
 0002:00005950       ??_C@_0BE@CKGJFCPC@dddd?0?5MMMM?5dd?0?5yyyy@ 000000018004f950     libucrt:nlsdata.obj
 0002:00005968       ??_C@_08JCCMCCIL@HH?3mm?3ss@ 000000018004f968     libucrt:nlsdata.obj
 0002:00005978       ??_C@_17MBGCMIPB@?$AAS?$AAu?$AAn@ 000000018004f978     libucrt:nlsdata.obj
 0002:00005980       ??_C@_17KBOMKBF@?$AAM?$AAo?$AAn@ 000000018004f980     libucrt:nlsdata.obj
 0002:00005988       ??_C@_17BMKGEGOJ@?$AAT?$AAu?$AAe@ 000000018004f988     libucrt:nlsdata.obj
 0002:00005990       ??_C@_17CJEDCEPE@?$AAW?$AAe?$AAd@ 000000018004f990     libucrt:nlsdata.obj
 0002:00005998       ??_C@_17PDPHAADD@?$AAT?$AAh?$AAu@ 000000018004f998     libucrt:nlsdata.obj
 0002:000059a0       ??_C@_17HFOLPPLP@?$AAF?$AAr?$AAi@ 000000018004f9a0     libucrt:nlsdata.obj
 0002:000059a8       ??_C@_17GGIBDPIH@?$AAS?$AAa?$AAt@ 000000018004f9a8     libucrt:nlsdata.obj
 0002:000059b0       ??_C@_1O@IHNHDHPB@?$AAS?$AAu?$AAn?$AAd?$AAa?$AAy@ 000000018004f9b0     libucrt:nlsdata.obj
 0002:000059c0       ??_C@_1O@MMNBFLIA@?$AAM?$AAo?$AAn?$AAd?$AAa?$AAy@ 000000018004f9c0     libucrt:nlsdata.obj
 0002:000059d0       ??_C@_1BA@ENFBFFEK@?$AAT?$AAu?$AAe?$AAs?$AAd?$AAa?$AAy@ 000000018004f9d0     libucrt:nlsdata.obj
 0002:000059e0       ??_C@_1BE@EBOGMDOH@?$AAW?$AAe?$AAd?$AAn?$AAe?$AAs?$AAd?$AAa?$AAy@ 000000018004f9e0     libucrt:nlsdata.obj
 0002:000059f8       ??_C@_1BC@HHMNLIHE@?$AAT?$AAh?$AAu?$AAr?$AAs?$AAd?$AAa?$AAy@ 000000018004f9f8     libucrt:nlsdata.obj
 0002:00005a10       ??_C@_1O@PDICJHAG@?$AAF?$AAr?$AAi?$AAd?$AAa?$AAy@ 000000018004fa10     libucrt:nlsdata.obj
 0002:00005a20       ??_C@_1BC@ENMNNPAJ@?$AAS?$AAa?$AAt?$AAu?$AAr?$AAd?$AAa?$AAy@ 000000018004fa20     libucrt:nlsdata.obj
 0002:00005a38       ??_C@_17DKNBKCHM@?$AAJ?$AAa?$AAn@ 000000018004fa38     libucrt:nlsdata.obj
 0002:00005a40       ??_C@_17LMDJEKJN@?$AAF?$AAe?$AAb@ 000000018004fa40     libucrt:nlsdata.obj
 0002:00005a48       ??_C@_17CKNLEDEC@?$AAM?$AAa?$AAr@ 000000018004fa48     libucrt:nlsdata.obj
 0002:00005a50       ??_C@_17LFPOIHDD@?$AAA?$AAp?$AAr@ 000000018004fa50     libucrt:nlsdata.obj
 0002:00005a58       ??_C@_17PNNKMEED@?$AAM?$AAa?$AAy@ 000000018004fa58     libucrt:nlsdata.obj
 0002:00005a60       ??_C@_17KCJGOCPB@?$AAJ?$AAu?$AAn@ 000000018004fa60     libucrt:nlsdata.obj
 0002:00005a68       ??_C@_17IJPCKHK@?$AAJ?$AAu?$AAl@ 000000018004fa68     libucrt:nlsdata.obj
 0002:00005a70       ??_C@_17ICPELBCN@?$AAA?$AAu?$AAg@ 000000018004fa70     libucrt:nlsdata.obj
 0002:00005a78       ??_C@_17HCHCOKMG@?$AAS?$AAe?$AAp@ 000000018004fa78     libucrt:nlsdata.obj
 0002:00005a80       ??_C@_17FNLKOI@?$AAO?$AAc?$AAt@ 000000018004fa80     libucrt:nlsdata.obj
 0002:00005a88       ??_C@_17BBDMLCIG@?$AAN?$AAo?$AAv@ 000000018004fa88     libucrt:nlsdata.obj
 0002:00005a90       ??_C@_17EGKACKIF@?$AAD?$AAe?$AAc@ 000000018004fa90     libucrt:nlsdata.obj
 0002:00005a98       ??_C@_1BA@EFMEIEBA@?$AAJ?$AAa?$AAn?$AAu?$AAa?$AAr?$AAy@ 000000018004fa98     libucrt:nlsdata.obj
 0002:00005aa8       ??_C@_1BC@JGDDFFAM@?$AAF?$AAe?$AAb?$AAr?$AAu?$AAa?$AAr?$AAy@ 000000018004faa8     libucrt:nlsdata.obj
 0002:00005ac0       ??_C@_1M@IKEENEDF@?$AAM?$AAa?$AAr?$AAc?$AAh@ 000000018004fac0     libucrt:nlsdata.obj
 0002:00005ad0       ??_C@_1M@GJNLMHFD@?$AAA?$AAp?$AAr?$AAi?$AAl@ 000000018004fad0     libucrt:nlsdata.obj
 0002:00005ae0       ??_C@_19EPFLPGAP@?$AAJ?$AAu?$AAn?$AAe@ 000000018004fae0     libucrt:nlsdata.obj
 0002:00005af0       ??_C@_19BIFMLPCD@?$AAJ?$AAu?$AAl?$AAy@ 000000018004faf0     libucrt:nlsdata.obj
 0002:00005b00       ??_C@_1O@PAHLKOAC@?$AAA?$AAu?$AAg?$AAu?$AAs?$AAt@ 000000018004fb00     libucrt:nlsdata.obj
 0002:00005b10       ??_C@_1BE@DKAAMBJL@?$AAS?$AAe?$AAp?$AAt?$AAe?$AAm?$AAb?$AAe?$AAr@ 000000018004fb10     libucrt:nlsdata.obj
 0002:00005b28       ??_C@_1BA@EPANDLNG@?$AAO?$AAc?$AAt?$AAo?$AAb?$AAe?$AAr@ 000000018004fb28     libucrt:nlsdata.obj
 0002:00005b38       ??_C@_1BC@BGLIFPF@?$AAN?$AAo?$AAv?$AAe?$AAm?$AAb?$AAe?$AAr@ 000000018004fb38     libucrt:nlsdata.obj
 0002:00005b50       ??_C@_1BC@FEMKIFH@?$AAD?$AAe?$AAc?$AAe?$AAm?$AAb?$AAe?$AAr@ 000000018004fb50     libucrt:nlsdata.obj
 0002:00005b64       ??_C@_15ODEHAHHF@?$AAA?$AAM@ 000000018004fb64     libucrt:nlsdata.obj
 0002:00005b6c       ??_C@_15CLMNNGEL@?$AAP?$AAM@ 000000018004fb6c     libucrt:nlsdata.obj
 0002:00005b78       ??_C@_1BC@IEBCMHCM@?$AAM?$AAM?$AA?1?$AAd?$AAd?$AA?1?$AAy?$AAy@ 000000018004fb78     libucrt:nlsdata.obj
 0002:00005b90       ??_C@_1CI@KNAKOEBC@?$AAd?$AAd?$AAd?$AAd?$AA?0?$AA?5?$AAM?$AAM?$AAM?$AAM?$AA?5?$AAd?$AAd?$AA?0?$AA?5@ 000000018004fb90     libucrt:nlsdata.obj
 0002:00005bb8       ??_C@_1BC@GDGBMEMK@?$AAH?$AAH?$AA?3?$AAm?$AAm?$AA?3?$AAs?$AAs@ 000000018004fbb8     libucrt:nlsdata.obj
 0002:00005bd0       ??_C@_1M@BMHNFIME@?$AAe?$AAn?$AA?9?$AAU?$AAS@ 000000018004fbd0     libucrt:nlsdata.obj
 0002:00005c60       ??_C@_03OEIAHPBN@INF@      000000018004fc60     libucrt:cvt.obj
 0002:00005c64       ??_C@_03OJHLLCGB@inf@      000000018004fc64     libucrt:cvt.obj
 0002:00005c68       ??_C@_03LKNCIKJB@NAN@      000000018004fc68     libucrt:cvt.obj
 0002:00005c6c       ??_C@_03LHCJEHON@nan@      000000018004fc6c     libucrt:cvt.obj
 0002:00005c70       ??_C@_09OFJJIMPC@NAN?$CISNAN?$CJ@ 000000018004fc70     libucrt:cvt.obj
 0002:00005c80       ??_C@_09IPFBKMDL@nan?$CIsnan?$CJ@ 000000018004fc80     libucrt:cvt.obj
 0002:00005c90       ??_C@_08IKHNHAJ@NAN?$CIIND?$CJ@ 000000018004fc90     libucrt:cvt.obj
 0002:00005ca0       ??_C@_08OFCDMILK@nan?$CIind?$CJ@ 000000018004fca0     libucrt:cvt.obj
 0002:00005cac       ??_C@_05KLBDPFGC@e?$CL000@ 000000018004fcac     libucrt:cvt.obj
 0002:00005cc0       __newctype                 000000018004fcc0     libucrt:ctype.obj
 0002:00005fc0       __newclmap                 000000018004ffc0     libucrt:ctype.obj
 0002:00006140       __newcumap                 0000000180050140     libucrt:ctype.obj
 0002:000062d0       ??_C@_05HGHHAHAP@log10@    00000001800502d0     libucrt:fpexcept.obj
 0002:00007120       ??_C@_15EMKDOKLE@?$AAa?$AAr@ 0000000180051120     libucrt:lcidtoname_downlevel.obj
 0002:00007128       ??_C@_15KNPADPLH@?$AAb?$AAg@ 0000000180051128     libucrt:lcidtoname_downlevel.obj
 0002:00007130       ??_C@_15EDMHLDMO@?$AAc?$AAa@ 0000000180051130     libucrt:lcidtoname_downlevel.obj
 0002:00007138       ??_C@_1O@BPEAJADD@?$AAz?$AAh?$AA?9?$AAC?$AAH?$AAS@ 0000000180051138     libucrt:lcidtoname_downlevel.obj
 0002:00007148       ??_C@_15LJNHCMNK@?$AAc?$AAs@ 0000000180051148     libucrt:lcidtoname_downlevel.obj
 0002:00007150       ??_C@_15FOMCIDHG@?$AAd?$AAa@ 0000000180051150     libucrt:lcidtoname_downlevel.obj
 0002:00007158       ??_C@_15NBKABECB@?$AAd?$AAe@ 0000000180051158     libucrt:lcidtoname_downlevel.obj
 0002:00007160       ??_C@_15GHPEIIAO@?$AAe?$AAl@ 0000000180051160     libucrt:lcidtoname_downlevel.obj
 0002:00007168       ??_C@_15MNPNEAIF@?$AAe?$AAn@ 0000000180051168     libucrt:lcidtoname_downlevel.obj
 0002:00007170       ??_C@_15GPIOMPMH@?$AAe?$AAs@ 0000000180051170     libucrt:lcidtoname_downlevel.obj
 0002:00007178       ??_C@_15NGLOAKJC@?$AAf?$AAi@ 0000000180051178     libucrt:lcidtoname_downlevel.obj
 0002:00007180       ??_C@_15FBKGNKAM@?$AAf?$AAr@ 0000000180051180     libucrt:lcidtoname_downlevel.obj
 0002:00007188       ??_C@_15KGGCNEFK@?$AAh?$AAe@ 0000000180051188     libucrt:lcidtoname_downlevel.obj
 0002:00007190       ??_C@_15PGHLIDMF@?$AAh?$AAu@ 0000000180051190     libucrt:lcidtoname_downlevel.obj
 0002:00007198       ??_C@_15BIEMAPLM@?$AAi?$AAs@ 0000000180051198     libucrt:lcidtoname_downlevel.obj
 0002:000071a0       ??_C@_15IFJLDHAF@?$AAi?$AAt@ 00000001800511a0     libucrt:lcidtoname_downlevel.obj
 0002:000071a8       ??_C@_15GEMIOCAG@?$AAj?$AAa@ 00000001800511a8     libucrt:lcidtoname_downlevel.obj
 0002:000071b0       ??_C@_15EPELEGJA@?$AAk?$AAo@ 00000001800511b0     libucrt:lcidtoname_downlevel.obj
 0002:000071b8       ??_C@_15NDDHIMN@?$AAn?$AAl@ 00000001800511b8     libucrt:lcidtoname_downlevel.obj
 0002:000071c0       ??_C@_15BPIGNHCD@?$AAn?$AAo@ 00000001800511c0     libucrt:lcidtoname_downlevel.obj
 0002:000071c8       ??_C@_15DEOPBLCG@?$AAp?$AAl@ 00000001800511c8     libucrt:lcidtoname_downlevel.obj
 0002:000071d0       ??_C@_15KBECGEFG@?$AAp?$AAt@ 00000001800511d0     libucrt:lcidtoname_downlevel.obj
 0002:000071d8       ??_C@_15GLJCBFMD@?$AAr?$AAo@ 00000001800511d8     libucrt:lcidtoname_downlevel.obj
 0002:000071e0       ??_C@_15FEDGKCDI@?$AAr?$AAu@ 00000001800511e0     libucrt:lcidtoname_downlevel.obj
 0002:000071e8       ??_C@_15GLKMLLHM@?$AAh?$AAr@ 00000001800511e8     libucrt:lcidtoname_downlevel.obj
 0002:000071f0       ??_C@_15CPKMFBDB@?$AAs?$AAk@ 00000001800511f0     libucrt:lcidtoname_downlevel.obj
 0002:000071f8       ??_C@_15BAAIOGMK@?$AAs?$AAq@ 00000001800511f8     libucrt:lcidtoname_downlevel.obj
 0002:00007200       ??_C@_15INNPNOHD@?$AAs?$AAv@ 0000000180051200     libucrt:lcidtoname_downlevel.obj
 0002:00007208       ??_C@_15CABMMOGH@?$AAt?$AAh@ 0000000180051208     libucrt:lcidtoname_downlevel.obj
 0002:00007210       ??_C@_15BPLIHJJM@?$AAt?$AAr@ 0000000180051210     libucrt:lcidtoname_downlevel.obj
 0002:00007218       ??_C@_15NEOEKKDJ@?$AAu?$AAr@ 0000000180051218     libucrt:lcidtoname_downlevel.obj
 0002:00007220       ??_C@_15NFICGAJK@?$AAi?$AAd@ 0000000180051220     libucrt:lcidtoname_downlevel.obj
 0002:00007228       ??_C@_15PJPFLCCM@?$AAu?$AAk@ 0000000180051228     libucrt:lcidtoname_downlevel.obj
 0002:00007230       ??_C@_15HPJPHDM@?$AAb?$AAe@ 0000000180051230     libucrt:lcidtoname_downlevel.obj
 0002:00007238       ??_C@_15LCHLGJII@?$AAs?$AAl@ 0000000180051238     libucrt:lcidtoname_downlevel.obj
 0002:00007240       ??_C@_15PCFJPHHO@?$AAe?$AAt@ 0000000180051240     libucrt:lcidtoname_downlevel.obj
 0002:00007248       ??_C@_15HPFPGODN@?$AAl?$AAv@ 0000000180051248     libucrt:lcidtoname_downlevel.obj
 0002:00007250       ??_C@_15NFFGKGLG@?$AAl?$AAt@ 0000000180051250     libucrt:lcidtoname_downlevel.obj
 0002:00007258       ??_C@_15BDAKCCHN@?$AAf?$AAa@ 0000000180051258     libucrt:lcidtoname_downlevel.obj
 0002:00007260       ??_C@_15NFGIAIAJ@?$AAv?$AAi@ 0000000180051260     libucrt:lcidtoname_downlevel.obj
 0002:00007268       ??_C@_15LMKNDMHN@?$AAh?$AAy@ 0000000180051268     libucrt:lcidtoname_downlevel.obj
 0002:00007270       ??_C@_15IJBHMCFL@?$AAa?$AAz@ 0000000180051270     libucrt:lcidtoname_downlevel.obj
 0002:00007278       ??_C@_15EKOFJABL@?$AAe?$AAu@ 0000000180051278     libucrt:lcidtoname_downlevel.obj
 0002:00007280       ??_C@_15BGHADCNK@?$AAm?$AAk@ 0000000180051280     libucrt:lcidtoname_downlevel.obj
 0002:00007288       ??_C@_15JDNICKHM@?$AAa?$AAf@ 0000000180051288     libucrt:lcidtoname_downlevel.obj
 0002:00007290       ??_C@_15KPJEDBKD@?$AAk?$AAa@ 0000000180051290     libucrt:lcidtoname_downlevel.obj
 0002:00007298       ??_C@_15PDNFFFEO@?$AAf?$AAo@ 0000000180051298     libucrt:lcidtoname_downlevel.obj
 0002:000072a0       ??_C@_15OMLEGLOC@?$AAh?$AAi@ 00000001800512a0     libucrt:lcidtoname_downlevel.obj
 0002:000072a8       ??_C@_15IDNNENKK@?$AAm?$AAs@ 00000001800512a8     libucrt:lcidtoname_downlevel.obj
 0002:000072b0       ??_C@_15MACJNBMH@?$AAk?$AAk@ 00000001800512b0     libucrt:lcidtoname_downlevel.obj
 0002:000072b8       ??_C@_15DKDJEOND@?$AAk?$AAy@ 00000001800512b8     libucrt:lcidtoname_downlevel.obj
 0002:000072c0       ??_C@_15DFGDLJBG@?$AAs?$AAw@ 00000001800512c0     libucrt:lcidtoname_downlevel.obj
 0002:000072c8       ??_C@_15BBFAICNG@?$AAu?$AAz@ 00000001800512c8     libucrt:lcidtoname_downlevel.obj
 0002:000072d0       ??_C@_15DKNDCGEA@?$AAt?$AAt@ 00000001800512d0     libucrt:lcidtoname_downlevel.obj
 0002:000072d8       ??_C@_15MGIFMDPL@?$AAp?$AAa@ 00000001800512d8     libucrt:lcidtoname_downlevel.obj
 0002:000072e0       ??_C@_15HCNDBBA@?$AAg?$AAu@ 00000001800512e0     libucrt:lcidtoname_downlevel.obj
 0002:000072e8       ??_C@_15FNBEIBON@?$AAt?$AAa@ 00000001800512e8     libucrt:lcidtoname_downlevel.obj
 0002:000072f0       ??_C@_15NCHGBGLK@?$AAt?$AAe@ 00000001800512f0     libucrt:lcidtoname_downlevel.obj
 0002:000072f8       ??_C@_15PHPHCBPF@?$AAk?$AAn@ 00000001800512f8     libucrt:lcidtoname_downlevel.obj
 0002:00007300       ??_C@_15DLGBCKMP@?$AAm?$AAr@ 0000000180051300     libucrt:lcidtoname_downlevel.obj
 0002:00007308       ??_C@_15EABBLBFF@?$AAs?$AAa@ 0000000180051308     libucrt:lcidtoname_downlevel.obj
 0002:00007310       ??_C@_15CBKOMCOI@?$AAm?$AAn@ 0000000180051310     libucrt:lcidtoname_downlevel.obj
 0002:00007318       ??_C@_15CKDMCJAF@?$AAg?$AAl@ 0000000180051318     libucrt:lcidtoname_downlevel.obj
 0002:00007320       ??_C@_17CNJFBPG@?$AAk?$AAo?$AAk@ 0000000180051320     libucrt:lcidtoname_downlevel.obj
 0002:00007328       ??_C@_17FFBJICPL@?$AAs?$AAy?$AAr@ 0000000180051328     libucrt:lcidtoname_downlevel.obj
 0002:00007330       ??_C@_17KPNDCPAF@?$AAd?$AAi?$AAv@ 0000000180051330     libucrt:lcidtoname_downlevel.obj
 0002:00007338       ??_C@_11LOCGONAA@@         0000000180051338     libucrt:lcidtoname_downlevel.obj
 0002:00007340       ??_C@_1M@OKAHONE@?$AAa?$AAr?$AA?9?$AAS?$AAA@ 0000000180051340     libucrt:lcidtoname_downlevel.obj
 0002:00007350       ??_C@_1M@FFFIGIGK@?$AAb?$AAg?$AA?9?$AAB?$AAG@ 0000000180051350     libucrt:lcidtoname_downlevel.obj
 0002:00007360       ??_C@_1M@BJNKEDC@?$AAc?$AAa?$AA?9?$AAE?$AAS@ 0000000180051360     libucrt:lcidtoname_downlevel.obj
 0002:00007370       ??_C@_1M@IJJHFJHA@?$AAc?$AAs?$AA?9?$AAC?$AAZ@ 0000000180051370     libucrt:lcidtoname_downlevel.obj
 0002:00007380       ??_C@_1M@CLPEOBGI@?$AAd?$AAa?$AA?9?$AAD?$AAK@ 0000000180051380     libucrt:lcidtoname_downlevel.obj
 0002:00007390       ??_C@_1M@MCMADGCB@?$AAd?$AAe?$AA?9?$AAD?$AAE@ 0000000180051390     libucrt:lcidtoname_downlevel.obj
 0002:000073a0       ??_C@_1M@OOCKEMAM@?$AAe?$AAl?$AA?9?$AAG?$AAR@ 00000001800513a0     libucrt:lcidtoname_downlevel.obj
 0002:000073b0       ??_C@_1M@DDNJFGID@?$AAf?$AAi?$AA?9?$AAF?$AAI@ 00000001800513b0     libucrt:lcidtoname_downlevel.obj
 0002:000073c0       ??_C@_1M@GLIPPMAC@?$AAf?$AAr?$AA?9?$AAF?$AAR@ 00000001800513c0     libucrt:lcidtoname_downlevel.obj
 0002:000073d0       ??_C@_1M@GFMCHPE@?$AAh?$AAe?$AA?9?$AAI?$AAL@ 00000001800513d0     libucrt:lcidtoname_downlevel.obj
 0002:000073e0       ??_C@_1M@MHLPGNKM@?$AAh?$AAu?$AA?9?$AAH?$AAU@ 00000001800513e0     libucrt:lcidtoname_downlevel.obj
 0002:000073f0       ??_C@_1M@LPDDNNPN@?$AAi?$AAs?$AA?9?$AAI?$AAS@ 00000001800513f0     libucrt:lcidtoname_downlevel.obj
 0002:00007400       ??_C@_1M@MADIPODN@?$AAi?$AAt?$AA?9?$AAI?$AAT@ 0000000180051400     libucrt:lcidtoname_downlevel.obj
 0002:00007410       ??_C@_1M@IHBJJGG@?$AAn?$AAl?$AA?9?$AAN?$AAL@ 0000000180051410     libucrt:lcidtoname_downlevel.obj
 0002:00007420       ??_C@_1M@EANAGDL@?$AAn?$AAb?$AA?9?$AAN?$AAO@ 0000000180051420     libucrt:lcidtoname_downlevel.obj
 0002:00007430       ??_C@_1M@NEIEMEGP@?$AAp?$AAl?$AA?9?$AAP?$AAL@ 0000000180051430     libucrt:lcidtoname_downlevel.obj
 0002:00007440       ??_C@_1M@BOCFIGEP@?$AAp?$AAt?$AA?9?$AAB?$AAR@ 0000000180051440     libucrt:lcidtoname_downlevel.obj
 0002:00007450       ??_C@_1M@IMPFOPBG@?$AAr?$AAo?$AA?9?$AAR?$AAO@ 0000000180051450     libucrt:lcidtoname_downlevel.obj
 0002:00007460       ??_C@_1M@IDNNEJMM@?$AAr?$AAu?$AA?9?$AAR?$AAU@ 0000000180051460     libucrt:lcidtoname_downlevel.obj
 0002:00007470       ??_C@_1M@LILEEOGM@?$AAh?$AAr?$AA?9?$AAH?$AAR@ 0000000180051470     libucrt:lcidtoname_downlevel.obj
 0002:00007480       ??_C@_1M@FKIFEHPB@?$AAs?$AAk?$AA?9?$AAS?$AAK@ 0000000180051480     libucrt:lcidtoname_downlevel.obj
 0002:00007490       ??_C@_1M@LJMAMNPJ@?$AAs?$AAq?$AA?9?$AAA?$AAL@ 0000000180051490     libucrt:lcidtoname_downlevel.obj
 0002:000074a0       ??_C@_1M@GIAKDKJK@?$AAs?$AAv?$AA?9?$AAS?$AAE@ 00000001800514a0     libucrt:lcidtoname_downlevel.obj
 0002:000074b0       ??_C@_1M@MKJKIKCL@?$AAt?$AAh?$AA?9?$AAT?$AAH@ 00000001800514b0     libucrt:lcidtoname_downlevel.obj
 0002:000074c0       ??_C@_1M@MFLCCMPB@?$AAt?$AAr?$AA?9?$AAT?$AAR@ 00000001800514c0     libucrt:lcidtoname_downlevel.obj
 0002:000074d0       ??_C@_1M@OIJHDKJN@?$AAu?$AAr?$AA?9?$AAP?$AAK@ 00000001800514d0     libucrt:lcidtoname_downlevel.obj
 0002:000074e0       ??_C@_1M@LHIPCIEK@?$AAi?$AAd?$AA?9?$AAI?$AAD@ 00000001800514e0     libucrt:lcidtoname_downlevel.obj
 0002:000074f0       ??_C@_1M@MFMOBGI@?$AAu?$AAk?$AA?9?$AAU?$AAA@ 00000001800514f0     libucrt:lcidtoname_downlevel.obj
 0002:00007500       ??_C@_1M@OBGLJIPL@?$AAb?$AAe?$AA?9?$AAB?$AAY@ 0000000180051500     libucrt:lcidtoname_downlevel.obj
 0002:00007510       ??_C@_1M@BCFAJEAD@?$AAs?$AAl?$AA?9?$AAS?$AAI@ 0000000180051510     libucrt:lcidtoname_downlevel.obj
 0002:00007520       ??_C@_1M@FKFFEDDN@?$AAe?$AAt?$AA?9?$AAE?$AAE@ 0000000180051520     libucrt:lcidtoname_downlevel.obj
 0002:00007530       ??_C@_1M@KGKKAACI@?$AAl?$AAv?$AA?9?$AAL?$AAV@ 0000000180051530     libucrt:lcidtoname_downlevel.obj
 0002:00007540       ??_C@_1M@IFGBIJO@?$AAl?$AAt?$AA?9?$AAL?$AAT@ 0000000180051540     libucrt:lcidtoname_downlevel.obj
 0002:00007550       ??_C@_1M@FGEAHEDM@?$AAf?$AAa?$AA?9?$AAI?$AAR@ 0000000180051550     libucrt:lcidtoname_downlevel.obj
 0002:00007560       ??_C@_1M@KBMAIBFN@?$AAv?$AAi?$AA?9?$AAV?$AAN@ 0000000180051560     libucrt:lcidtoname_downlevel.obj
 0002:00007570       ??_C@_1M@GPCBKDJK@?$AAh?$AAy?$AA?9?$AAA?$AAM@ 0000000180051570     libucrt:lcidtoname_downlevel.obj
 0002:00007580       ??_C@_1BG@BECMDDJB@?$AAa?$AAz?$AA?9?$AAA?$AAZ?$AA?9?$AAL?$AAa?$AAt?$AAn@ 0000000180051580     libucrt:lcidtoname_downlevel.obj
 0002:00007598       ??_C@_1M@MAOFCAEA@?$AAe?$AAu?$AA?9?$AAE?$AAS@ 0000000180051598     libucrt:lcidtoname_downlevel.obj
 0002:000075a8       ??_C@_1M@IGHABKPI@?$AAm?$AAk?$AA?9?$AAM?$AAK@ 00000001800515a8     libucrt:lcidtoname_downlevel.obj
 0002:000075b8       ??_C@_1M@IAIGNEJG@?$AAt?$AAn?$AA?9?$AAZ?$AAA@ 00000001800515b8     libucrt:lcidtoname_downlevel.obj
 0002:000075c8       ??_C@_1M@IIJCOJFA@?$AAx?$AAh?$AA?9?$AAZ?$AAA@ 00000001800515c8     libucrt:lcidtoname_downlevel.obj
 0002:000075d8       ??_C@_1M@LGPJHNJH@?$AAz?$AAu?$AA?9?$AAZ?$AAA@ 00000001800515d8     libucrt:lcidtoname_downlevel.obj
 0002:000075e8       ??_C@_1M@HOKAOIO@?$AAa?$AAf?$AA?9?$AAZ?$AAA@ 00000001800515e8     libucrt:lcidtoname_downlevel.obj
 0002:000075f8       ??_C@_1M@DPCLHLIE@?$AAk?$AAa?$AA?9?$AAG?$AAE@ 00000001800515f8     libucrt:lcidtoname_downlevel.obj
 0002:00007608       ??_C@_1M@BLKMHJBI@?$AAf?$AAo?$AA?9?$AAF?$AAO@ 0000000180051608     libucrt:lcidtoname_downlevel.obj
 0002:00007618       ??_C@_1M@LGGJAPPB@?$AAh?$AAi?$AA?9?$AAI?$AAN@ 0000000180051618     libucrt:lcidtoname_downlevel.obj
 0002:00007628       ??_C@_1M@FIKPIHFE@?$AAm?$AAt?$AA?9?$AAM?$AAT@ 0000000180051628     libucrt:lcidtoname_downlevel.obj
 0002:00007638       ??_C@_1M@HEGGPBFA@?$AAs?$AAe?$AA?9?$AAN?$AAO@ 0000000180051638     libucrt:lcidtoname_downlevel.obj
 0002:00007648       ??_C@_1M@EIBJEEPA@?$AAm?$AAs?$AA?9?$AAM?$AAY@ 0000000180051648     libucrt:lcidtoname_downlevel.obj
 0002:00007658       ??_C@_1M@FHLBGMPP@?$AAk?$AAk?$AA?9?$AAK?$AAZ@ 0000000180051658     libucrt:lcidtoname_downlevel.obj
 0002:00007668       ??_C@_1M@NGJJLCGI@?$AAk?$AAy?$AA?9?$AAK?$AAG@ 0000000180051668     libucrt:lcidtoname_downlevel.obj
 0002:00007678       ??_C@_1M@GIENNBFC@?$AAs?$AAw?$AA?9?$AAK?$AAE@ 0000000180051678     libucrt:lcidtoname_downlevel.obj
 0002:00007688       ??_C@_1BG@NDGMJIMJ@?$AAu?$AAz?$AA?9?$AAU?$AAZ?$AA?9?$AAL?$AAa?$AAt?$AAn@ 0000000180051688     libucrt:lcidtoname_downlevel.obj
 0002:000076a0       ??_C@_1M@IDCCIHBC@?$AAt?$AAt?$AA?9?$AAR?$AAU@ 00000001800516a0     libucrt:lcidtoname_downlevel.obj
 0002:000076b0       ??_C@_1M@LOICPMOJ@?$AAb?$AAn?$AA?9?$AAI?$AAN@ 00000001800516b0     libucrt:lcidtoname_downlevel.obj
 0002:000076c0       ??_C@_1M@KPKKNEAH@?$AAp?$AAa?$AA?9?$AAI?$AAN@ 00000001800516c0     libucrt:lcidtoname_downlevel.obj
 0002:000076d0       ??_C@_1M@PJGPPBOG@?$AAg?$AAu?$AA?9?$AAI?$AAN@ 00000001800516d0     libucrt:lcidtoname_downlevel.obj
 0002:000076e0       ??_C@_1M@KMKMOPHI@?$AAt?$AAa?$AA?9?$AAI?$AAN@ 00000001800516e0     libucrt:lcidtoname_downlevel.obj
 0002:000076f0       ??_C@_1M@KFEHEPAC@?$AAt?$AAe?$AA?9?$AAI?$AAN@ 00000001800516f0     libucrt:lcidtoname_downlevel.obj
 0002:00007700       ??_C@_1M@CDCLMGHI@?$AAk?$AAn?$AA?9?$AAI?$AAN@ 0000000180051700     libucrt:lcidtoname_downlevel.obj
 0002:00007710       ??_C@_1M@MIODLDKF@?$AAm?$AAl?$AA?9?$AAI?$AAN@ 0000000180051710     libucrt:lcidtoname_downlevel.obj
 0002:00007720       ??_C@_1M@PBIEACPO@?$AAm?$AAr?$AA?9?$AAI?$AAN@ 0000000180051720     libucrt:lcidtoname_downlevel.obj
 0002:00007730       ??_C@_1M@NIDEAGPH@?$AAs?$AAa?$AA?9?$AAI?$AAN@ 0000000180051730     libucrt:lcidtoname_downlevel.obj
 0002:00007740       ??_C@_1M@FHIHCBIO@?$AAm?$AAn?$AA?9?$AAM?$AAN@ 0000000180051740     libucrt:lcidtoname_downlevel.obj
 0002:00007750       ??_C@_1M@JAIJPENP@?$AAc?$AAy?$AA?9?$AAG?$AAB@ 0000000180051750     libucrt:lcidtoname_downlevel.obj
 0002:00007760       ??_C@_1M@PHGFBEPN@?$AAg?$AAl?$AA?9?$AAE?$AAS@ 0000000180051760     libucrt:lcidtoname_downlevel.obj
 0002:00007770       ??_C@_1O@KPIPDNCP@?$AAk?$AAo?$AAk?$AA?9?$AAI?$AAN@ 0000000180051770     libucrt:lcidtoname_downlevel.obj
 0002:00007780       ??_C@_1O@KNHJLDJA@?$AAs?$AAy?$AAr?$AA?9?$AAS?$AAY@ 0000000180051780     libucrt:lcidtoname_downlevel.obj
 0002:00007790       ??_C@_1O@MKEKBLAH@?$AAd?$AAi?$AAv?$AA?9?$AAM?$AAV@ 0000000180051790     libucrt:lcidtoname_downlevel.obj
 0002:000077a0       ??_C@_1O@OHDCKDDF@?$AAq?$AAu?$AAz?$AA?9?$AAB?$AAO@ 00000001800517a0     libucrt:lcidtoname_downlevel.obj
 0002:000077b0       ??_C@_1M@LEPJNLFD@?$AAn?$AAs?$AA?9?$AAZ?$AAA@ 00000001800517b0     libucrt:lcidtoname_downlevel.obj
 0002:000077c0       ??_C@_1M@OMLEIIJB@?$AAm?$AAi?$AA?9?$AAN?$AAZ@ 00000001800517c0     libucrt:lcidtoname_downlevel.obj
 0002:000077d0       ??_C@_1M@PMPEAILG@?$AAa?$AAr?$AA?9?$AAI?$AAQ@ 00000001800517d0     libucrt:lcidtoname_downlevel.obj
 0002:000077e0       ??_C@_1M@CNKPNOEE@?$AAd?$AAe?$AA?9?$AAC?$AAH@ 00000001800517e0     libucrt:lcidtoname_downlevel.obj
 0002:000077f0       ??_C@_1M@LKMGMLKO@?$AAe?$AAn?$AA?9?$AAG?$AAB@ 00000001800517f0     libucrt:lcidtoname_downlevel.obj
 0002:00007800       ??_C@_1M@PGKJFFGL@?$AAe?$AAs?$AA?9?$AAM?$AAX@ 0000000180051800     libucrt:lcidtoname_downlevel.obj
 0002:00007810       ??_C@_1M@DNNANBDC@?$AAf?$AAr?$AA?9?$AAB?$AAE@ 0000000180051810     libucrt:lcidtoname_downlevel.obj
 0002:00007820       ??_C@_1M@HLGMDFHM@?$AAi?$AAt?$AA?9?$AAC?$AAH@ 0000000180051820     libucrt:lcidtoname_downlevel.obj
 0002:00007830       ??_C@_1M@CLLBGJH@?$AAn?$AAl?$AA?9?$AAB?$AAE@ 0000000180051830     libucrt:lcidtoname_downlevel.obj
 0002:00007840       ??_C@_1M@BODBOGLF@?$AAn?$AAn?$AA?9?$AAN?$AAO@ 0000000180051840     libucrt:lcidtoname_downlevel.obj
 0002:00007850       ??_C@_1M@HFFAHKAD@?$AAp?$AAt?$AA?9?$AAP?$AAT@ 0000000180051850     libucrt:lcidtoname_downlevel.obj
 0002:00007860       ??_C@_1BG@LNOAKHIE@?$AAs?$AAr?$AA?9?$AAS?$AAP?$AA?9?$AAL?$AAa?$AAt?$AAn@ 0000000180051860     libucrt:lcidtoname_downlevel.obj
 0002:00007878       ??_C@_1M@HBMHBGAK@?$AAs?$AAv?$AA?9?$AAF?$AAI@ 0000000180051878     libucrt:lcidtoname_downlevel.obj
 0002:00007888       ??_C@_1BG@DGCJGJBE@?$AAa?$AAz?$AA?9?$AAA?$AAZ?$AA?9?$AAC?$AAy?$AAr?$AAl@ 0000000180051888     libucrt:lcidtoname_downlevel.obj
 0002:000078a0       ??_C@_1M@KEJDAAHB@?$AAs?$AAe?$AA?9?$AAS?$AAE@ 00000001800518a0     libucrt:lcidtoname_downlevel.obj
 0002:000078b0       ??_C@_1M@HEIBJJAD@?$AAm?$AAs?$AA?9?$AAB?$AAN@ 00000001800518b0     libucrt:lcidtoname_downlevel.obj
 0002:000078c0       ??_C@_1BG@PBGJMCEM@?$AAu?$AAz?$AA?9?$AAU?$AAZ?$AA?9?$AAC?$AAy?$AAr?$AAl@ 00000001800518c0     libucrt:lcidtoname_downlevel.obj
 0002:000078d8       ??_C@_1O@LAOBCMDF@?$AAq?$AAu?$AAz?$AA?9?$AAE?$AAC@ 00000001800518d8     libucrt:lcidtoname_downlevel.obj
 0002:000078e8       ??_C@_1M@POEEMAIO@?$AAa?$AAr?$AA?9?$AAE?$AAG@ 00000001800518e8     libucrt:lcidtoname_downlevel.obj
 0002:000078f8       ??_C@_1M@EFAKDEDL@?$AAz?$AAh?$AA?9?$AAH?$AAK@ 00000001800518f8     libucrt:lcidtoname_downlevel.obj
 0002:00007908       ??_C@_1M@HKKIJHGI@?$AAd?$AAe?$AA?9?$AAA?$AAT@ 0000000180051908     libucrt:lcidtoname_downlevel.obj
 0002:00007918       ??_C@_1M@KBFBEHJF@?$AAe?$AAn?$AA?9?$AAA?$AAU@ 0000000180051918     libucrt:lcidtoname_downlevel.obj
 0002:00007928       ??_C@_1M@MNPLFAAH@?$AAe?$AAs?$AA?9?$AAE?$AAS@ 0000000180051928     libucrt:lcidtoname_downlevel.obj
 0002:00007938       ??_C@_1M@HJOOJFMA@?$AAf?$AAr?$AA?9?$AAC?$AAA@ 0000000180051938     libucrt:lcidtoname_downlevel.obj
 0002:00007948       ??_C@_1BG@JPOFPNAB@?$AAs?$AAr?$AA?9?$AAS?$AAP?$AA?9?$AAC?$AAy?$AAr?$AAl@ 0000000180051948     libucrt:lcidtoname_downlevel.obj
 0002:00007960       ??_C@_1M@LNFOCMOB@?$AAs?$AAe?$AA?9?$AAF?$AAI@ 0000000180051960     libucrt:lcidtoname_downlevel.obj
 0002:00007970       ??_C@_1O@MGJBOAMB@?$AAq?$AAu?$AAz?$AA?9?$AAP?$AAE@ 0000000180051970     libucrt:lcidtoname_downlevel.obj
 0002:00007980       ??_C@_1M@GJINLBOK@?$AAa?$AAr?$AA?9?$AAL?$AAY@ 0000000180051980     libucrt:lcidtoname_downlevel.obj
 0002:00007990       ??_C@_1M@GGMNHJNL@?$AAz?$AAh?$AA?9?$AAS?$AAG@ 0000000180051990     libucrt:lcidtoname_downlevel.obj
 0002:000079a0       ??_C@_1M@HOIKODND@?$AAd?$AAe?$AA?9?$AAL?$AAU@ 00000001800519a0     libucrt:lcidtoname_downlevel.obj
 0002:000079b0       ??_C@_1M@DDOCCGFG@?$AAe?$AAn?$AA?9?$AAC?$AAA@ 00000001800519b0     libucrt:lcidtoname_downlevel.obj
 0002:000079c0       ??_C@_1M@BNOEMJLF@?$AAe?$AAs?$AA?9?$AAG?$AAT@ 00000001800519c0     libucrt:lcidtoname_downlevel.obj
 0002:000079d0       ??_C@_1M@EOGNKEK@?$AAf?$AAr?$AA?9?$AAC?$AAH@ 00000001800519d0     libucrt:lcidtoname_downlevel.obj
 0002:000079e0       ??_C@_1M@FLIDJFHL@?$AAh?$AAr?$AA?9?$AAB?$AAA@ 00000001800519e0     libucrt:lcidtoname_downlevel.obj
 0002:000079f0       ??_C@_1O@FMCELNAJ@?$AAs?$AAm?$AAj?$AA?9?$AAN?$AAO@ 00000001800519f0     libucrt:lcidtoname_downlevel.obj
 0002:00007a00       ??_C@_1M@JHGLJMGJ@?$AAa?$AAr?$AA?9?$AAD?$AAZ@ 0000000180051a00     libucrt:lcidtoname_downlevel.obj
 0002:00007a10       ??_C@_1M@JKKFDCNP@?$AAz?$AAh?$AA?9?$AAM?$AAO@ 0000000180051a10     libucrt:lcidtoname_downlevel.obj
 0002:00007a20       ??_C@_1M@GEEFALPE@?$AAd?$AAe?$AA?9?$AAL?$AAI@ 0000000180051a20     libucrt:lcidtoname_downlevel.obj
 0002:00007a30       ??_C@_1M@IGEOFBG@?$AAe?$AAn?$AA?9?$AAN?$AAZ@ 0000000180051a30     libucrt:lcidtoname_downlevel.obj
 0002:00007a40       ??_C@_1M@KDBONEHP@?$AAe?$AAs?$AA?9?$AAC?$AAR@ 0000000180051a40     libucrt:lcidtoname_downlevel.obj
 0002:00007a50       ??_C@_1M@FHMDOHNN@?$AAf?$AAr?$AA?9?$AAL?$AAU@ 0000000180051a50     libucrt:lcidtoname_downlevel.obj
 0002:00007a60       ??_C@_1BG@NFKKMAFG@?$AAb?$AAs?$AA?9?$AAB?$AAA?$AA?9?$AAL?$AAa?$AAt?$AAn@ 0000000180051a60     libucrt:lcidtoname_downlevel.obj
 0002:00007a78       ??_C@_1O@IMNBEMCI@?$AAs?$AAm?$AAj?$AA?9?$AAS?$AAE@ 0000000180051a78     libucrt:lcidtoname_downlevel.obj
 0002:00007a88       ??_C@_1M@DHHMBNDP@?$AAa?$AAr?$AA?9?$AAM?$AAA@ 0000000180051a88     libucrt:lcidtoname_downlevel.obj
 0002:00007a98       ??_C@_1M@BNBLJCGH@?$AAe?$AAn?$AA?9?$AAI?$AAE@ 0000000180051a98     libucrt:lcidtoname_downlevel.obj
 0002:00007aa8       ??_C@_1M@GEPAFMDL@?$AAe?$AAs?$AA?9?$AAP?$AAA@ 0000000180051aa8     libucrt:lcidtoname_downlevel.obj
 0002:00007ab8       ??_C@_1M@OJONDMDL@?$AAf?$AAr?$AA?9?$AAM?$AAC@ 0000000180051ab8     libucrt:lcidtoname_downlevel.obj
 0002:00007ac8       ??_C@_1BG@OBCNFJB@?$AAs?$AAr?$AA?9?$AAB?$AAA?$AA?9?$AAL?$AAa?$AAt?$AAn@ 0000000180051ac8     libucrt:lcidtoname_downlevel.obj
 0002:00007ae0       ??_C@_1O@KEMEEGPO@?$AAs?$AAm?$AAa?$AA?9?$AAN?$AAO@ 0000000180051ae0     libucrt:lcidtoname_downlevel.obj
 0002:00007af0       ??_C@_1M@ELMGFODK@?$AAa?$AAr?$AA?9?$AAT?$AAN@ 0000000180051af0     libucrt:lcidtoname_downlevel.obj
 0002:00007b00       ??_C@_1M@BHDLHFAF@?$AAe?$AAn?$AA?9?$AAZ?$AAA@ 0000000180051b00     libucrt:lcidtoname_downlevel.obj
 0002:00007b10       ??_C@_1M@BMGIGLIF@?$AAe?$AAs?$AA?9?$AAD?$AAO@ 0000000180051b10     libucrt:lcidtoname_downlevel.obj
 0002:00007b20       ??_C@_1BG@CMBHIPBE@?$AAs?$AAr?$AA?9?$AAB?$AAA?$AA?9?$AAC?$AAy?$AAr?$AAl@ 0000000180051b20     libucrt:lcidtoname_downlevel.obj
 0002:00007b38       ??_C@_1O@HEDBLHNP@?$AAs?$AAm?$AAa?$AA?9?$AAS?$AAE@ 0000000180051b38     libucrt:lcidtoname_downlevel.obj
 0002:00007b48       ??_C@_1M@DAGCADIM@?$AAa?$AAr?$AA?9?$AAO?$AAM@ 0000000180051b48     libucrt:lcidtoname_downlevel.obj
 0002:00007b58       ??_C@_1M@FODLMICG@?$AAe?$AAn?$AA?9?$AAJ?$AAM@ 0000000180051b58     libucrt:lcidtoname_downlevel.obj
 0002:00007b68       ??_C@_1M@DNMLCIHB@?$AAe?$AAs?$AA?9?$AAV?$AAE@ 0000000180051b68     libucrt:lcidtoname_downlevel.obj
 0002:00007b78       ??_C@_1O@EOKHMKJK@?$AAs?$AAm?$AAs?$AA?9?$AAF?$AAI@ 0000000180051b78     libucrt:lcidtoname_downlevel.obj
 0002:00007b88       ??_C@_1M@CAFJMKOF@?$AAa?$AAr?$AA?9?$AAY?$AAE@ 0000000180051b88     libucrt:lcidtoname_downlevel.obj
 0002:00007b98       ??_C@_1M@CBFHIJLI@?$AAe?$AAn?$AA?9?$AAC?$AAB@ 0000000180051b98     libucrt:lcidtoname_downlevel.obj
 0002:00007ba8       ??_C@_1M@BGNFLDN@?$AAe?$AAs?$AA?9?$AAC?$AAO@ 0000000180051ba8     libucrt:lcidtoname_downlevel.obj
 0002:00007bb8       ??_C@_1O@JMPHMAMC@?$AAs?$AAm?$AAn?$AA?9?$AAF?$AAI@ 0000000180051bb8     libucrt:lcidtoname_downlevel.obj
 0002:00007bc8       ??_C@_1M@JLANABKE@?$AAa?$AAr?$AA?9?$AAS?$AAY@ 0000000180051bc8     libucrt:lcidtoname_downlevel.obj
 0002:00007bd8       ??_C@_1M@HPKGCFGN@?$AAe?$AAn?$AA?9?$AAB?$AAZ@ 0000000180051bd8     libucrt:lcidtoname_downlevel.obj
 0002:00007be8       ??_C@_1M@OLJCMLGM@?$AAe?$AAs?$AA?9?$AAP?$AAE@ 0000000180051be8     libucrt:lcidtoname_downlevel.obj
 0002:00007bf8       ??_C@_1M@MKKGFKLE@?$AAa?$AAr?$AA?9?$AAJ?$AAO@ 0000000180051bf8     libucrt:lcidtoname_downlevel.obj
 0002:00007c08       ??_C@_1M@EKPGLDNI@?$AAe?$AAn?$AA?9?$AAT?$AAT@ 0000000180051c08     libucrt:lcidtoname_downlevel.obj
 0002:00007c18       ??_C@_1M@OONGHFHE@?$AAe?$AAs?$AA?9?$AAA?$AAR@ 0000000180051c18     libucrt:lcidtoname_downlevel.obj
 0002:00007c28       ??_C@_1M@OOJFGBHE@?$AAa?$AAr?$AA?9?$AAL?$AAB@ 0000000180051c28     libucrt:lcidtoname_downlevel.obj
 0002:00007c38       ??_C@_1M@GCEJHNEG@?$AAe?$AAn?$AA?9?$AAZ?$AAW@ 0000000180051c38     libucrt:lcidtoname_downlevel.obj
 0002:00007c48       ??_C@_1M@JNOCAHJI@?$AAe?$AAs?$AA?9?$AAE?$AAC@ 0000000180051c48     libucrt:lcidtoname_downlevel.obj
 0002:00007c58       ??_C@_1M@JEFHPGGB@?$AAa?$AAr?$AA?9?$AAK?$AAW@ 0000000180051c58     libucrt:lcidtoname_downlevel.obj
 0002:00007c68       ??_C@_1M@MLKIBJOJ@?$AAe?$AAn?$AA?9?$AAP?$AAH@ 0000000180051c68     libucrt:lcidtoname_downlevel.obj
 0002:00007c78       ??_C@_1M@BDNIPEND@?$AAe?$AAs?$AA?9?$AAC?$AAL@ 0000000180051c78     libucrt:lcidtoname_downlevel.obj
 0002:00007c88       ??_C@_1M@MPNMEKBD@?$AAa?$AAr?$AA?9?$AAA?$AAE@ 0000000180051c88     libucrt:lcidtoname_downlevel.obj
 0002:00007c98       ??_C@_1M@KBJALCPI@?$AAe?$AAs?$AA?9?$AAU?$AAY@ 0000000180051c98     libucrt:lcidtoname_downlevel.obj
 0002:00007ca8       ??_C@_1M@LLCCOAGA@?$AAa?$AAr?$AA?9?$AAB?$AAH@ 0000000180051ca8     libucrt:lcidtoname_downlevel.obj
 0002:00007cb8       ??_C@_1M@PBFNCDEL@?$AAe?$AAs?$AA?9?$AAP?$AAY@ 0000000180051cb8     libucrt:lcidtoname_downlevel.obj
 0002:00007cc8       ??_C@_1M@EDGINPNP@?$AAa?$AAr?$AA?9?$AAQ?$AAA@ 0000000180051cc8     libucrt:lcidtoname_downlevel.obj
 0002:00007cd8       ??_C@_1M@MKDBIIJI@?$AAe?$AAs?$AA?9?$AAB?$AAO@ 0000000180051cd8     libucrt:lcidtoname_downlevel.obj
 0002:00007ce8       ??_C@_1M@CPKKEBLD@?$AAe?$AAs?$AA?9?$AAS?$AAV@ 0000000180051ce8     libucrt:lcidtoname_downlevel.obj
 0002:00007cf8       ??_C@_1M@NDBGMMJL@?$AAe?$AAs?$AA?9?$AAH?$AAN@ 0000000180051cf8     libucrt:lcidtoname_downlevel.obj
 0002:00007d08       ??_C@_1M@JIJIBHDP@?$AAe?$AAs?$AA?9?$AAN?$AAI@ 0000000180051d08     libucrt:lcidtoname_downlevel.obj
 0002:00007d18       ??_C@_1M@CGFMKEEK@?$AAe?$AAs?$AA?9?$AAP?$AAR@ 0000000180051d18     libucrt:lcidtoname_downlevel.obj
 0002:00007d28       ??_C@_1O@ICJHKIIK@?$AAz?$AAh?$AA?9?$AAC?$AAH?$AAT@ 0000000180051d28     libucrt:lcidtoname_downlevel.obj
 0002:00007d38       ??_C@_15CLNEJCE@?$AAs?$AAr@ 0000000180051d38     libucrt:lcidtoname_downlevel.obj
 0002:00008b80       ??_C@_1M@KAHEKEIG@?$AAa?$AAf?$AA?9?$AAz?$AAa@ 0000000180052b80     libucrt:lcidtoname_downlevel.obj
 0002:00008b90       ??_C@_1M@GIECOABL@?$AAa?$AAr?$AA?9?$AAa?$AAe@ 0000000180052b90     libucrt:lcidtoname_downlevel.obj
 0002:00008ba0       ??_C@_1M@BMLMEKGI@?$AAa?$AAr?$AA?9?$AAb?$AAh@ 0000000180052ba0     libucrt:lcidtoname_downlevel.obj
 0002:00008bb0       ??_C@_1M@DAPFDGGB@?$AAa?$AAr?$AA?9?$AAd?$AAz@ 0000000180052bb0     libucrt:lcidtoname_downlevel.obj
 0002:00008bc0       ??_C@_1M@FJNKGKIG@?$AAa?$AAr?$AA?9?$AAe?$AAg@ 0000000180052bc0     libucrt:lcidtoname_downlevel.obj
 0002:00008bd0       ??_C@_1M@FLGKKCLO@?$AAa?$AAr?$AA?9?$AAi?$AAq@ 0000000180052bd0     libucrt:lcidtoname_downlevel.obj
 0002:00008be0       ??_C@_1M@GNDIPALM@?$AAa?$AAr?$AA?9?$AAj?$AAo@ 0000000180052be0     libucrt:lcidtoname_downlevel.obj
 0002:00008bf0       ??_C@_1M@DDMJFMGJ@?$AAa?$AAr?$AA?9?$AAk?$AAw@ 0000000180052bf0     libucrt:lcidtoname_downlevel.obj
 0002:00008c00       ??_C@_1M@EJALMLHM@?$AAa?$AAr?$AA?9?$AAl?$AAb@ 0000000180052c00     libucrt:lcidtoname_downlevel.obj
 0002:00008c10       ??_C@_1M@MOBDBLOC@?$AAa?$AAr?$AA?9?$AAl?$AAy@ 0000000180052c10     libucrt:lcidtoname_downlevel.obj
 0002:00008c20       ??_C@_1M@JAOCLHDH@?$AAa?$AAr?$AA?9?$AAm?$AAa@ 0000000180052c20     libucrt:lcidtoname_downlevel.obj
 0002:00008c30       ??_C@_1M@JHPMKJIE@?$AAa?$AAr?$AA?9?$AAo?$AAm@ 0000000180052c30     libucrt:lcidtoname_downlevel.obj
 0002:00008c40       ??_C@_1M@OEPGHFNH@?$AAa?$AAr?$AA?9?$AAq?$AAa@ 0000000180052c40     libucrt:lcidtoname_downlevel.obj
 0002:00008c50       ??_C@_1M@KJDONENM@?$AAa?$AAr?$AA?9?$AAs?$AAa@ 0000000180052c50     libucrt:lcidtoname_downlevel.obj
 0002:00008c60       ??_C@_1M@DMJDKLKM@?$AAa?$AAr?$AA?9?$AAs?$AAy@ 0000000180052c60     libucrt:lcidtoname_downlevel.obj
 0002:00008c70       ??_C@_1M@OMFIPEDC@?$AAa?$AAr?$AA?9?$AAt?$AAn@ 0000000180052c70     libucrt:lcidtoname_downlevel.obj
 0002:00008c80       ??_C@_1M@IHMHGAON@?$AAa?$AAr?$AA?9?$AAy?$AAe@ 0000000180052c80     libucrt:lcidtoname_downlevel.obj
 0002:00008c90       ??_C@_1BG@KDCPGJGB@?$AAa?$AAz?$AA?9?$AAa?$AAz?$AA?9?$AAc?$AAy?$AAr?$AAl@ 0000000180052c90     libucrt:lcidtoname_downlevel.obj
 0002:00008ca8       ??_C@_1BG@IBCKDDOE@?$AAa?$AAz?$AA?9?$AAa?$AAz?$AA?9?$AAl?$AAa?$AAt?$AAn@ 0000000180052ca8     libucrt:lcidtoname_downlevel.obj
 0002:00008cc0       ??_C@_1M@EGPFDCPD@?$AAb?$AAe?$AA?9?$AAb?$AAy@ 0000000180052cc0     libucrt:lcidtoname_downlevel.obj
 0002:00008cd0       ??_C@_1M@PCMGMCGC@?$AAb?$AAg?$AA?9?$AAb?$AAg@ 0000000180052cd0     libucrt:lcidtoname_downlevel.obj
 0002:00008ce0       ??_C@_1M@BJBMFGOB@?$AAb?$AAn?$AA?9?$AAi?$AAn@ 0000000180052ce0     libucrt:lcidtoname_downlevel.obj
 0002:00008cf0       ??_C@_1BG@EAKMMACD@?$AAb?$AAs?$AA?9?$AAb?$AAa?$AA?9?$AAl?$AAa?$AAt?$AAn@ 0000000180052cf0     libucrt:lcidtoname_downlevel.obj
 0002:00008d08       ??_C@_1M@KGADAODK@?$AAc?$AAa?$AA?9?$AAe?$AAs@ 0000000180052d08     libucrt:lcidtoname_downlevel.obj
 0002:00008d18       ??_C@_1M@COAJPDHI@?$AAc?$AAs?$AA?9?$AAc?$AAz@ 0000000180052d18     libucrt:lcidtoname_downlevel.obj
 0002:00008d28       ??_C@_1M@DHBHFONH@?$AAc?$AAy?$AA?9?$AAg?$AAb@ 0000000180052d28     libucrt:lcidtoname_downlevel.obj
 0002:00008d38       ??_C@_1M@IMGKELGA@?$AAd?$AAa?$AA?9?$AAd?$AAk@ 0000000180052d38     libucrt:lcidtoname_downlevel.obj
 0002:00008d48       ??_C@_1M@NNDGDNGA@?$AAd?$AAe?$AA?9?$AAa?$AAt@ 0000000180052d48     libucrt:lcidtoname_downlevel.obj
 0002:00008d58       ??_C@_1M@IKDBHEEM@?$AAd?$AAe?$AA?9?$AAc?$AAh@ 0000000180052d58     libucrt:lcidtoname_downlevel.obj
 0002:00008d68       ??_C@_1M@GFFOJMCJ@?$AAd?$AAe?$AA?9?$AAd?$AAe@ 0000000180052d68     libucrt:lcidtoname_downlevel.obj
 0002:00008d78       ??_C@_1M@MDNLKBPM@?$AAd?$AAe?$AA?9?$AAl?$AAi@ 0000000180052d78     libucrt:lcidtoname_downlevel.obj
 0002:00008d88       ??_C@_1M@NJBEEJNL@?$AAd?$AAe?$AA?9?$AAl?$AAu@ 0000000180052d88     libucrt:lcidtoname_downlevel.obj
 0002:00008d98       ??_C@_1O@GNNELBAP@?$AAd?$AAi?$AAv?$AA?9?$AAm?$AAv@ 0000000180052d98     libucrt:lcidtoname_downlevel.obj
 0002:00008da8       ??_C@_1M@EJLEOGAE@?$AAe?$AAl?$AA?9?$AAg?$AAr@ 0000000180052da8     libucrt:lcidtoname_downlevel.obj
 0002:00008db8       ??_C@_1M@GMPONJN@?$AAe?$AAn?$AA?9?$AAa?$AAu@ 0000000180052db8     libucrt:lcidtoname_downlevel.obj
 0002:00008dc8       ??_C@_1M@NIDIIPGF@?$AAe?$AAn?$AA?9?$AAb?$AAz@ 0000000180052dc8     libucrt:lcidtoname_downlevel.obj
 0002:00008dd8       ??_C@_1M@JEHMIMFO@?$AAe?$AAn?$AA?9?$AAc?$AAa@ 0000000180052dd8     libucrt:lcidtoname_downlevel.obj
 0002:00008de8       ??_C@_1M@IGMJCDLA@?$AAe?$AAn?$AA?9?$AAc?$AAb@ 0000000180052de8     libucrt:lcidtoname_downlevel.obj
 0002:00008df8       ??_C@_1M@BNFIGBKG@?$AAe?$AAn?$AA?9?$AAg?$AAb@ 0000000180052df8     libucrt:lcidtoname_downlevel.obj
 0002:00008e08       ??_C@_1M@LKIFDIGP@?$AAe?$AAn?$AA?9?$AAi?$AAe@ 0000000180052e08     libucrt:lcidtoname_downlevel.obj
 0002:00008e18       ??_C@_1M@PJKFGCCO@?$AAe?$AAn?$AA?9?$AAj?$AAm@ 0000000180052e18     libucrt:lcidtoname_downlevel.obj
 0002:00008e28       ??_C@_1M@KPPKEPBO@?$AAe?$AAn?$AA?9?$AAn?$AAz@ 0000000180052e28     libucrt:lcidtoname_downlevel.obj
 0002:00008e38       ??_C@_1M@GMDGLDOB@?$AAe?$AAn?$AA?9?$AAp?$AAh@ 0000000180052e38     libucrt:lcidtoname_downlevel.obj
 0002:00008e48       ??_C@_1M@ONGIBJNA@?$AAe?$AAn?$AA?9?$AAt?$AAt@ 0000000180052e48     libucrt:lcidtoname_downlevel.obj
 0002:00008e58       ??_C@_1M@LLODPCMM@?$AAe?$AAn?$AA?9?$AAu?$AAs@ 0000000180052e58     libucrt:lcidtoname_downlevel.obj
 0002:00008e68       ??_C@_1M@LAKFNPAN@?$AAe?$AAn?$AA?9?$AAz?$AAa@ 0000000180052e68     libucrt:lcidtoname_downlevel.obj
 0002:00008e78       ??_C@_1M@MFNHNHEO@?$AAe?$AAn?$AA?9?$AAz?$AAw@ 0000000180052e78     libucrt:lcidtoname_downlevel.obj
 0002:00008e88       ??_C@_1M@EJEINPHM@?$AAe?$AAs?$AA?9?$AAa?$AAr@ 0000000180052e88     libucrt:lcidtoname_downlevel.obj
 0002:00008e98       ??_C@_1M@GNKPCCJA@?$AAe?$AAs?$AA?9?$AAb?$AAo@ 0000000180052e98     libucrt:lcidtoname_downlevel.obj
 0002:00008ea8       ??_C@_1M@LEEGFONL@?$AAe?$AAs?$AA?9?$AAc?$AAl@ 0000000180052ea8     libucrt:lcidtoname_downlevel.obj
 0002:00008eb8       ??_C@_1M@KGPDPBDF@?$AAe?$AAs?$AA?9?$AAc?$AAo@ 0000000180052eb8     libucrt:lcidtoname_downlevel.obj
 0002:00008ec8       ??_C@_1M@EIAHOHH@?$AAe?$AAs?$AA?9?$AAc?$AAr@ 0000000180052ec8     libucrt:lcidtoname_downlevel.obj
 0002:00008ed8       ??_C@_1M@LLPGMBIN@?$AAe?$AAs?$AA?9?$AAd?$AAo@ 0000000180052ed8     libucrt:lcidtoname_downlevel.obj
 0002:00008ee8       ??_C@_1M@DKHMKNJA@?$AAe?$AAs?$AA?9?$AAe?$AAc@ 0000000180052ee8     libucrt:lcidtoname_downlevel.obj
 0002:00008ef8       ??_C@_1M@GKGFPKAP@?$AAe?$AAs?$AA?9?$AAe?$AAs@ 0000000180052ef8     libucrt:lcidtoname_downlevel.obj
 0002:00008f08       ??_C@_1M@LKHKGDLN@?$AAe?$AAs?$AA?9?$AAg?$AAt@ 0000000180052f08     libucrt:lcidtoname_downlevel.obj
 0002:00008f18       ??_C@_1M@HEIIGGJD@?$AAe?$AAs?$AA?9?$AAh?$AAn@ 0000000180052f18     libucrt:lcidtoname_downlevel.obj
 0002:00008f28       ??_C@_1M@FBDHPPGD@?$AAe?$AAs?$AA?9?$AAm?$AAx@ 0000000180052f28     libucrt:lcidtoname_downlevel.obj
 0002:00008f38       ??_C@_1M@DPAGLNDH@?$AAe?$AAs?$AA?9?$AAn?$AAi@ 0000000180052f38     libucrt:lcidtoname_downlevel.obj
 0002:00008f48       ??_C@_1M@MDGOPGDD@?$AAe?$AAs?$AA?9?$AAp?$AAa@ 0000000180052f48     libucrt:lcidtoname_downlevel.obj
 0002:00008f58       ??_C@_1M@EMAMGBGE@?$AAe?$AAs?$AA?9?$AAp?$AAe@ 0000000180052f58     libucrt:lcidtoname_downlevel.obj
 0002:00008f68       ??_C@_1M@IBMCAOEC@?$AAe?$AAs?$AA?9?$AAp?$AAr@ 0000000180052f68     libucrt:lcidtoname_downlevel.obj
 0002:00008f78       ??_C@_1M@FGMDIJED@?$AAe?$AAs?$AA?9?$AAp?$AAy@ 0000000180052f78     libucrt:lcidtoname_downlevel.obj
 0002:00008f88       ??_C@_1M@IIDEOLLL@?$AAe?$AAs?$AA?9?$AAs?$AAv@ 0000000180052f88     libucrt:lcidtoname_downlevel.obj
 0002:00008f98       ??_C@_1M@GAOBIPA@?$AAe?$AAs?$AA?9?$AAu?$AAy@ 0000000180052f98     libucrt:lcidtoname_downlevel.obj
 0002:00008fa8       ??_C@_1M@JKFFICHJ@?$AAe?$AAs?$AA?9?$AAv?$AAe@ 0000000180052fa8     libucrt:lcidtoname_downlevel.obj
 0002:00008fb8       ??_C@_1M@PNMLOJDF@?$AAe?$AAt?$AA?9?$AAe?$AAe@ 0000000180052fb8     libucrt:lcidtoname_downlevel.obj
 0002:00008fc8       ??_C@_1M@GHHLIKEI@?$AAe?$AAu?$AA?9?$AAe?$AAs@ 0000000180052fc8     libucrt:lcidtoname_downlevel.obj
 0002:00008fd8       ??_C@_1M@PBNONODE@?$AAf?$AAa?$AA?9?$AAi?$AAr@ 0000000180052fd8     libucrt:lcidtoname_downlevel.obj
 0002:00008fe8       ??_C@_1M@JEEHPMIL@?$AAf?$AAi?$AA?9?$AAf?$AAi@ 0000000180052fe8     libucrt:lcidtoname_downlevel.obj
 0002:00008ff8       ??_C@_1M@LMDCNDBA@?$AAf?$AAo?$AA?9?$AAf?$AAo@ 0000000180052ff8     libucrt:lcidtoname_downlevel.obj
 0002:00009008       ??_C@_1M@JKEOHLDK@?$AAf?$AAr?$AA?9?$AAb?$AAe@ 0000000180053008     libucrt:lcidtoname_downlevel.obj
 0002:00009018       ??_C@_1M@NOHADPMI@?$AAf?$AAr?$AA?9?$AAc?$AAa@ 0000000180053018     libucrt:lcidtoname_downlevel.obj
 0002:00009028       ??_C@_1M@KDHIHAEC@?$AAf?$AAr?$AA?9?$AAc?$AAh@ 0000000180053028     libucrt:lcidtoname_downlevel.obj
 0002:00009038       ??_C@_1M@MMBBFGAK@?$AAf?$AAr?$AA?9?$AAf?$AAr@ 0000000180053038     libucrt:lcidtoname_downlevel.obj
 0002:00009048       ??_C@_1M@PAFNENNF@?$AAf?$AAr?$AA?9?$AAl?$AAu@ 0000000180053048     libucrt:lcidtoname_downlevel.obj
 0002:00009058       ??_C@_1M@EOHDJGDD@?$AAf?$AAr?$AA?9?$AAm?$AAc@ 0000000180053058     libucrt:lcidtoname_downlevel.obj
 0002:00009068       ??_C@_1M@FAPLLOPF@?$AAg?$AAl?$AA?9?$AAe?$AAs@ 0000000180053068     libucrt:lcidtoname_downlevel.obj
 0002:00009078       ??_C@_1M@FOPBFLOO@?$AAg?$AAu?$AA?9?$AAi?$AAn@ 0000000180053078     libucrt:lcidtoname_downlevel.obj
 0002:00009088       ??_C@_1M@KBMCINPM@?$AAh?$AAe?$AA?9?$AAi?$AAl@ 0000000180053088     libucrt:lcidtoname_downlevel.obj
 0002:00009098       ??_C@_1M@BBPHKFPJ@?$AAh?$AAi?$AA?9?$AAi?$AAn@ 0000000180053098     libucrt:lcidtoname_downlevel.obj
 0002:000090a8       ??_C@_1M@PMBNDPHD@?$AAh?$AAr?$AA?9?$AAb?$AAa@ 00000001800530a8     libucrt:lcidtoname_downlevel.obj
 0002:000090b8       ??_C@_1M@BPCKOEGE@?$AAh?$AAr?$AA?9?$AAh?$AAr@ 00000001800530b8     libucrt:lcidtoname_downlevel.obj
 0002:000090c8       ??_C@_1M@GACBMHKE@?$AAh?$AAu?$AA?9?$AAh?$AAu@ 00000001800530c8     libucrt:lcidtoname_downlevel.obj
 0002:000090d8       ??_C@_1M@MILPAJJC@?$AAh?$AAy?$AA?9?$AAa?$AAm@ 00000001800530d8     libucrt:lcidtoname_downlevel.obj
 0002:000090e8       ??_C@_1M@BABBICEC@?$AAi?$AAd?$AA?9?$AAi?$AAd@ 00000001800530e8     libucrt:lcidtoname_downlevel.obj
 0002:000090f8       ??_C@_1M@BIKNHHPF@?$AAi?$AAs?$AA?9?$AAi?$AAs@ 00000001800530f8     libucrt:lcidtoname_downlevel.obj
 0002:00009108       ??_C@_1M@NMPCJPHE@?$AAi?$AAt?$AA?9?$AAc?$AAh@ 0000000180053108     libucrt:lcidtoname_downlevel.obj
 0002:00009118       ??_C@_1M@GHKGFEDF@?$AAi?$AAt?$AA?9?$AAi?$AAt@ 0000000180053118     libucrt:lcidtoname_downlevel.obj
 0002:00009128       ??_C@_1M@NIEJCJJA@?$AAj?$AAa?$AA?9?$AAj?$AAp@ 0000000180053128     libucrt:lcidtoname_downlevel.obj
 0002:00009138       ??_C@_1M@JILFNBIM@?$AAk?$AAa?$AA?9?$AAg?$AAe@ 0000000180053138     libucrt:lcidtoname_downlevel.obj
 0002:00009148       ??_C@_1M@PACPMGPH@?$AAk?$AAk?$AA?9?$AAk?$AAz@ 0000000180053148     libucrt:lcidtoname_downlevel.obj
 0002:00009158       ??_C@_1M@IELFGMHA@?$AAk?$AAn?$AA?9?$AAi?$AAn@ 0000000180053158     libucrt:lcidtoname_downlevel.obj
 0002:00009168       ??_C@_1O@IBBJHCH@?$AAk?$AAo?$AAk?$AA?9?$AAi?$AAn@ 0000000180053168     libucrt:lcidtoname_downlevel.obj
 0002:00009178       ??_C@_1M@DMHAEOGC@?$AAk?$AAo?$AA?9?$AAk?$AAr@ 0000000180053178     libucrt:lcidtoname_downlevel.obj
 0002:00009188       ??_C@_1M@HBAHBIGA@?$AAk?$AAy?$AA?9?$AAk?$AAg@ 0000000180053188     libucrt:lcidtoname_downlevel.obj
 0002:00009198       ??_C@_1M@KPMILCJG@?$AAl?$AAt?$AA?9?$AAl?$AAt@ 0000000180053198     libucrt:lcidtoname_downlevel.obj
 0002:000091a8       ??_C@_1M@BDEKKCA@?$AAl?$AAv?$AA?9?$AAl?$AAv@ 00000001800531a8     libucrt:lcidtoname_downlevel.obj
 0002:000091b8       ??_C@_1M@ELCKCCJJ@?$AAm?$AAi?$AA?9?$AAn?$AAz@ 00000001800531b8     libucrt:lcidtoname_downlevel.obj
 0002:000091c8       ??_C@_1M@CBOOLAPA@?$AAm?$AAk?$AA?9?$AAm?$AAk@ 00000001800531c8     libucrt:lcidtoname_downlevel.obj
 0002:000091d8       ??_C@_1M@GPHNBJKN@?$AAm?$AAl?$AA?9?$AAi?$AAn@ 00000001800531d8     libucrt:lcidtoname_downlevel.obj
 0002:000091e8       ??_C@_1M@PABJILIG@?$AAm?$AAn?$AA?9?$AAm?$AAn@ 00000001800531e8     libucrt:lcidtoname_downlevel.obj
 0002:000091f8       ??_C@_1M@FGBKKIPG@?$AAm?$AAr?$AA?9?$AAi?$AAn@ 00000001800531f8     libucrt:lcidtoname_downlevel.obj
 0002:00009208       ??_C@_1M@NDBPDDAL@?$AAm?$AAs?$AA?9?$AAb?$AAn@ 0000000180053208     libucrt:lcidtoname_downlevel.obj
 0002:00009218       ??_C@_1M@OPIHOOPI@?$AAm?$AAs?$AA?9?$AAm?$AAy@ 0000000180053218     libucrt:lcidtoname_downlevel.obj
 0002:00009228       ??_C@_1M@PPDBCNFM@?$AAm?$AAt?$AA?9?$AAm?$AAt@ 0000000180053228     libucrt:lcidtoname_downlevel.obj
 0002:00009238       ??_C@_1M@KDJDKMDD@?$AAn?$AAb?$AA?9?$AAn?$AAo@ 0000000180053238     libucrt:lcidtoname_downlevel.obj
 0002:00009248       ??_C@_1M@KFCFLMJP@?$AAn?$AAl?$AA?9?$AAb?$AAe@ 0000000180053248     libucrt:lcidtoname_downlevel.obj
 0002:00009258       ??_C@_1M@KPOPDDGO@?$AAn?$AAl?$AA?9?$AAn?$AAl@ 0000000180053258     libucrt:lcidtoname_downlevel.obj
 0002:00009268       ??_C@_1M@LJKPEMLN@?$AAn?$AAn?$AA?9?$AAn?$AAo@ 0000000180053268     libucrt:lcidtoname_downlevel.obj
 0002:00009278       ??_C@_1M@BDGHHBFL@?$AAn?$AAs?$AA?9?$AAz?$AAa@ 0000000180053278     libucrt:lcidtoname_downlevel.obj
 0002:00009288       ??_C@_1M@IDEHOAP@?$AAp?$AAa?$AA?9?$AAi?$AAn@ 0000000180053288     libucrt:lcidtoname_downlevel.obj
 0002:00009298       ??_C@_1M@HDBKGOGH@?$AAp?$AAl?$AA?9?$AAp?$AAl@ 0000000180053298     libucrt:lcidtoname_downlevel.obj
 0002:000092a8       ??_C@_1M@LJLLCMEH@?$AAp?$AAt?$AA?9?$AAb?$AAr@ 00000001800532a8     libucrt:lcidtoname_downlevel.obj
 0002:000092b8       ??_C@_1M@NCMONAAL@?$AAp?$AAt?$AA?9?$AAp?$AAt@ 00000001800532b8     libucrt:lcidtoname_downlevel.obj
 0002:000092c8       ??_C@_1O@EAKMAJDN@?$AAq?$AAu?$AAz?$AA?9?$AAb?$AAo@ 00000001800532c8     libucrt:lcidtoname_downlevel.obj
 0002:000092d8       ??_C@_1O@BHHPIGDN@?$AAq?$AAu?$AAz?$AA?9?$AAe?$AAc@ 00000001800532d8     libucrt:lcidtoname_downlevel.obj
 0002:000092e8       ??_C@_1O@GBAPEKMJ@?$AAq?$AAu?$AAz?$AA?9?$AAp?$AAe@ 00000001800532e8     libucrt:lcidtoname_downlevel.obj
 0002:000092f8       ??_C@_1M@CLGLEFBO@?$AAr?$AAo?$AA?9?$AAr?$AAo@ 00000001800532f8     libucrt:lcidtoname_downlevel.obj
 0002:00009308       ??_C@_1M@CEEDODME@?$AAr?$AAu?$AA?9?$AAr?$AAu@ 0000000180053308     libucrt:lcidtoname_downlevel.obj
 0002:00009318       ??_C@_1M@HPKKKMPP@?$AAs?$AAa?$AA?9?$AAi?$AAn@ 0000000180053318     libucrt:lcidtoname_downlevel.obj
 0002:00009328       ??_C@_1M@BKMAIGOJ@?$AAs?$AAe?$AA?9?$AAf?$AAi@ 0000000180053328     libucrt:lcidtoname_downlevel.obj
 0002:00009338       ??_C@_1M@NDPIFLFI@?$AAs?$AAe?$AA?9?$AAn?$AAo@ 0000000180053338     libucrt:lcidtoname_downlevel.obj
 0002:00009348       ??_C@_1M@DANKKHJ@?$AAs?$AAe?$AA?9?$AAs?$AAe@ 0000000180053348     libucrt:lcidtoname_downlevel.obj
 0002:00009358       ??_C@_1M@PNBLONPJ@?$AAs?$AAk?$AA?9?$AAs?$AAk@ 0000000180053358     libucrt:lcidtoname_downlevel.obj
 0002:00009368       ??_C@_1M@LFMODOAL@?$AAs?$AAl?$AA?9?$AAs?$AAi@ 0000000180053368     libucrt:lcidtoname_downlevel.obj
 0002:00009378       ??_C@_1O@DFKOMPG@?$AAs?$AAm?$AAa?$AA?9?$AAn?$AAo@ 0000000180053378     libucrt:lcidtoname_downlevel.obj
 0002:00009388       ??_C@_1O@NDKPBNNH@?$AAs?$AAm?$AAa?$AA?9?$AAs?$AAe@ 0000000180053388     libucrt:lcidtoname_downlevel.obj
 0002:00009398       ??_C@_1O@PLLKBHAB@?$AAs?$AAm?$AAj?$AA?9?$AAn?$AAo@ 0000000180053398     libucrt:lcidtoname_downlevel.obj
 0002:000093a8       ??_C@_1O@CLEPOGCA@?$AAs?$AAm?$AAj?$AA?9?$AAs?$AAe@ 00000001800533a8     libucrt:lcidtoname_downlevel.obj
 0002:000093b8       ??_C@_1O@DLGJGKMK@?$AAs?$AAm?$AAn?$AA?9?$AAf?$AAi@ 00000001800533b8     libucrt:lcidtoname_downlevel.obj
 0002:000093c8       ??_C@_1O@OJDJGAJC@?$AAs?$AAm?$AAs?$AA?9?$AAf?$AAi@ 00000001800533c8     libucrt:lcidtoname_downlevel.obj
 0002:000093d8       ??_C@_1M@BOFOGHPB@?$AAs?$AAq?$AA?9?$AAa?$AAl@ 00000001800533d8     libucrt:lcidtoname_downlevel.obj
 0002:000093e8       ??_C@_1BG@LJBBIPGB@?$AAs?$AAr?$AA?9?$AAb?$AAa?$AA?9?$AAc?$AAy?$AAr?$AAl@ 00000001800533e8     libucrt:lcidtoname_downlevel.obj
 0002:00009400       ??_C@_1BG@JLBENFOE@?$AAs?$AAr?$AA?9?$AAb?$AAa?$AA?9?$AAl?$AAa?$AAt?$AAn@ 0000000180053400     libucrt:lcidtoname_downlevel.obj
 0002:00009418       ??_C@_1BG@KODPNHE@?$AAs?$AAr?$AA?9?$AAs?$AAp?$AA?9?$AAc?$AAy?$AAr?$AAl@ 0000000180053418     libucrt:lcidtoname_downlevel.obj
 0002:00009430       ??_C@_1BG@CIOGKHPB@?$AAs?$AAr?$AA?9?$AAs?$AAp?$AA?9?$AAl?$AAa?$AAt?$AAn@ 0000000180053430     libucrt:lcidtoname_downlevel.obj
 0002:00009448       ??_C@_1M@NGFJLMAC@?$AAs?$AAv?$AA?9?$AAf?$AAi@ 0000000180053448     libucrt:lcidtoname_downlevel.obj
 0002:00009458       ??_C@_1M@MPJEJAJC@?$AAs?$AAv?$AA?9?$AAs?$AAe@ 0000000180053458     libucrt:lcidtoname_downlevel.obj
 0002:00009468       ??_C@_1M@MPNDHLFK@?$AAs?$AAw?$AA?9?$AAk?$AAe@ 0000000180053468     libucrt:lcidtoname_downlevel.obj
 0002:00009478       ??_C@_1O@KOHBJJI@?$AAs?$AAy?$AAr?$AA?9?$AAs?$AAy@ 0000000180053478     libucrt:lcidtoname_downlevel.obj
 0002:00009488       ??_C@_1M@LDCEFHA@?$AAt?$AAa?$AA?9?$AAi?$AAn@ 0000000180053488     libucrt:lcidtoname_downlevel.obj
 0002:00009498       ??_C@_1M@CNJOFAK@?$AAt?$AAe?$AA?9?$AAi?$AAn@ 0000000180053498     libucrt:lcidtoname_downlevel.obj
 0002:000094a8       ??_C@_1M@GNAECACD@?$AAt?$AAh?$AA?9?$AAt?$AAh@ 00000001800534a8     libucrt:lcidtoname_downlevel.obj
 0002:000094b8       ??_C@_1M@CHBIHOJO@?$AAt?$AAn?$AA?9?$AAz?$AAa@ 00000001800534b8     libucrt:lcidtoname_downlevel.obj
 0002:000094c8       ??_C@_1M@GCCMIGPJ@?$AAt?$AAr?$AA?9?$AAt?$AAr@ 00000001800534c8     libucrt:lcidtoname_downlevel.obj
 0002:000094d8       ??_C@_1M@CELMCNBK@?$AAt?$AAt?$AA?9?$AAr?$AAu@ 00000001800534d8     libucrt:lcidtoname_downlevel.obj
 0002:000094e8       ??_C@_1M@KLMCELGA@?$AAu?$AAk?$AA?9?$AAu?$AAa@ 00000001800534e8     libucrt:lcidtoname_downlevel.obj
 0002:000094f8       ??_C@_1M@EPAJJAJF@?$AAu?$AAr?$AA?9?$AAp?$AAk@ 00000001800534f8     libucrt:lcidtoname_downlevel.obj
 0002:00009508       ??_C@_1BG@GEGPMCDJ@?$AAu?$AAz?$AA?9?$AAu?$AAz?$AA?9?$AAc?$AAy?$AAr?$AAl@ 0000000180053508     libucrt:lcidtoname_downlevel.obj
 0002:00009520       ??_C@_1BG@EGGKJILM@?$AAu?$AAz?$AA?9?$AAu?$AAz?$AA?9?$AAl?$AAa?$AAt?$AAn@ 0000000180053520     libucrt:lcidtoname_downlevel.obj
 0002:00009538       ??_C@_1M@GFOCLFF@?$AAv?$AAi?$AA?9?$AAv?$AAn@ 0000000180053538     libucrt:lcidtoname_downlevel.obj
 0002:00009548       ??_C@_1M@CPAMEDFI@?$AAx?$AAh?$AA?9?$AAz?$AAa@ 0000000180053548     libucrt:lcidtoname_downlevel.obj
 0002:00009558       ??_C@_1O@EBKIFIGN@?$AAz?$AAh?$AA?9?$AAc?$AAh?$AAs@ 0000000180053558     libucrt:lcidtoname_downlevel.obj
 0002:00009568       ??_C@_1O@NMHPGANE@?$AAz?$AAh?$AA?9?$AAc?$AAh?$AAt@ 0000000180053568     libucrt:lcidtoname_downlevel.obj
 0002:00009578       ??_C@_1M@LPINJOMC@?$AAz?$AAh?$AA?9?$AAc?$AAn@ 0000000180053578     libucrt:lcidtoname_downlevel.obj
 0002:00009588       ??_C@_1M@OCJEJODD@?$AAz?$AAh?$AA?9?$AAh?$AAk@ 0000000180053588     libucrt:lcidtoname_downlevel.obj
 0002:00009598       ??_C@_1M@DNDLJINH@?$AAz?$AAh?$AA?9?$AAm?$AAo@ 0000000180053598     libucrt:lcidtoname_downlevel.obj
 0002:000095a8       ??_C@_1M@MBFDNDND@?$AAz?$AAh?$AA?9?$AAs?$AAg@ 00000001800535a8     libucrt:lcidtoname_downlevel.obj
 0002:000095b8       ??_C@_1M@IMEPLEPE@?$AAz?$AAh?$AA?9?$AAt?$AAw@ 00000001800535b8     libucrt:lcidtoname_downlevel.obj
 0002:000095c8       ??_C@_1M@BBGHNHJP@?$AAz?$AAu?$AA?9?$AAz?$AAa@ 00000001800535c8     libucrt:lcidtoname_downlevel.obj
 0002:00009600       ?large_power_data@?1??multiply_by_power_of_ten@__crt_strtox@@YA_NAEAUbig_integer@2@I@Z@4QBIB 0000000180053600     libucrt:cfout.obj
 0002:00009f10       ?large_power_indices@?1??multiply_by_power_of_ten@__crt_strtox@@YA_NAEAUbig_integer@2@I@Z@4QBUunpack_index@?1??12@YA_N0I@Z@B 0000000180053f10     libucrt:cfout.obj
 0002:00009fa8       ?small_powers_of_ten@?1??multiply_by_power_of_ten@__crt_strtox@@YA_NAEAUbig_integer@2@I@Z@4QBIB 0000000180053fa8     libucrt:cfout.obj
 0002:00009fcc       ??_C@_01GBGANLPD@0@        0000000180053fcc     libucrt:cfout.obj
 0002:00009fd0       ??_C@_05DNEBIAHO@1?$CDINF@ 0000000180053fd0     libucrt:cfout.obj
 0002:00009fd8       ??_C@_06IMKFLFPG@1?$CDQNAN@ 0000000180053fd8     libucrt:cfout.obj
 0002:00009fe0       ??_C@_06PGGFOGJG@1?$CDSNAN@ 0000000180053fe0     libucrt:cfout.obj
 0002:00009fe8       ??_C@_05PHHOCPM@1?$CDIND@  0000000180053fe8     libucrt:cfout.obj
 0002:0000a240       ??_C@_1BA@BALFACEM@?$AAC?$AAO?$AAN?$AAO?$AAU?$AAT?$AA$@ 0000000180054240     libucrt:initcon.obj
 0002:0000a250       __log10_256_lead           0000000180054250     libucrt:log10_256_lead_tail_table.obj
 0002:0000aa60       __log10_256_tail           0000000180054a60     libucrt:log10_256_lead_tail_table.obj
 0002:0000b270       __log_F_inv_qword          0000000180055270     libucrt:log_f_inv_qword_table.obj
 0002:0000bc80       ??_R4type_info@@6B@        0000000180055c80     LIBCMT:std_type_info_static.obj
 0002:0000bca8       ??_R3type_info@@8          0000000180055ca8     LIBCMT:std_type_info_static.obj
 0002:0000bcc0       ??_R2type_info@@8          0000000180055cc0     LIBCMT:std_type_info_static.obj
 0002:0000bcd0       ??_R1A@?0A@EA@type_info@@8 0000000180055cd0     LIBCMT:std_type_info_static.obj
 0002:0000bcf8       ??_R3DNameNode@@8          0000000180055cf8     libvcruntime:undname.obj
 0002:0000bd10       ??_R2DNameNode@@8          0000000180055d10     libvcruntime:undname.obj
 0002:0000bd20       ??_R1A@?0A@EA@DNameNode@@8 0000000180055d20     libvcruntime:undname.obj
 0002:0000bd48       ??_R4charNode@@6B@         0000000180055d48     libvcruntime:undname.obj
 0002:0000bd70       ??_R3charNode@@8           0000000180055d70     libvcruntime:undname.obj
 0002:0000bd88       ??_R2charNode@@8           0000000180055d88     libvcruntime:undname.obj
 0002:0000bda0       ??_R1A@?0A@EA@charNode@@8  0000000180055da0     libvcruntime:undname.obj
 0002:0000bdc8       ??_R4pcharNode@@6B@        0000000180055dc8     libvcruntime:undname.obj
 0002:0000bdf0       ??_R3pcharNode@@8          0000000180055df0     libvcruntime:undname.obj
 0002:0000be08       ??_R2pcharNode@@8          0000000180055e08     libvcruntime:undname.obj
 0002:0000be20       ??_R1A@?0A@EA@pcharNode@@8 0000000180055e20     libvcruntime:undname.obj
 0002:0000be48       ??_R4pDNameNode@@6B@       0000000180055e48     libvcruntime:undname.obj
 0002:0000be70       ??_R3pDNameNode@@8         0000000180055e70     libvcruntime:undname.obj
 0002:0000be88       ??_R2pDNameNode@@8         0000000180055e88     libvcruntime:undname.obj
 0002:0000bea0       ??_R1A@?0A@EA@pDNameNode@@8 0000000180055ea0     libvcruntime:undname.obj
 0002:0000bec8       ??_R4DNameStatusNode@@6B@  0000000180055ec8     libvcruntime:undname.obj
 0002:0000bef0       ??_R3DNameStatusNode@@8    0000000180055ef0     libvcruntime:undname.obj
 0002:0000bf08       ??_R2DNameStatusNode@@8    0000000180055f08     libvcruntime:undname.obj
 0002:0000bf20       ??_R1A@?0A@EA@DNameStatusNode@@8 0000000180055f20     libvcruntime:undname.obj
 0002:0000bf48       ??_R4pairNode@@6B@         0000000180055f48     libvcruntime:undname.obj
 0002:0000bf70       ??_R3pairNode@@8           0000000180055f70     libvcruntime:undname.obj
 0002:0000bf88       ??_R2pairNode@@8           0000000180055f88     libvcruntime:undname.obj
 0002:0000bfa0       ??_R1A@?0A@EA@pairNode@@8  0000000180055fa0     libvcruntime:undname.obj
 0002:0000bfc8       ??_R4exception@std@@6B@    0000000180055fc8     libvcruntime:frame.obj
 0002:0000bff0       ??_R3exception@std@@8      0000000180055ff0     libvcruntime:frame.obj
 0002:0000c008       ??_R2exception@std@@8      0000000180056008     libvcruntime:frame.obj
 0002:0000c018       ??_R1A@?0A@EA@exception@std@@8 0000000180056018     libvcruntime:frame.obj
 0002:0000c040       ??_R4bad_exception@std@@6B@ 0000000180056040     libvcruntime:frame.obj
 0002:0000c068       ??_R3bad_exception@std@@8  0000000180056068     libvcruntime:frame.obj
 0002:0000c080       ??_R2bad_exception@std@@8  0000000180056080     libvcruntime:frame.obj
 0002:0000c098       ??_R1A@?0A@EA@bad_exception@std@@8 0000000180056098     libvcruntime:frame.obj
 0002:0000c0bc       __volatile_metadata        00000001800560bc     <linker-defined>
 0002:0000c6b0       __rtc_iaa                  00000001800566b0     LIBCMT:initsect.obj
 0002:0000c6b8       __rtc_izz                  00000001800566b8     LIBCMT:initsect.obj
 0002:0000c6c0       __rtc_taa                  00000001800566c0     LIBCMT:initsect.obj
 0002:0000c6c8       __rtc_tzz                  00000001800566c8     LIBCMT:initsect.obj
 0002:00010848       _TI2?AVbad_exception@std@@ 000000018005a848     libvcruntime:frame.obj
 0002:00010868       _CTA2?AVbad_exception@std@@ 000000018005a868     libvcruntime:frame.obj
 0002:00010880       _CT??_R0?AVbad_exception@std@@@8??0bad_exception@std@@QEAA@AEBV01@@Z24 000000018005a880     libvcruntime:frame.obj
 0002:000108a8       _CT??_R0?AVexception@std@@@8??0exception@std@@QEAA@AEBV01@@Z24 000000018005a8a8     libvcruntime:frame.obj
 0002:000108cc       __DELAY_IMPORT_DESCRIPTOR_physxcommon_64_dll 000000018005a8cc     PhysXCommon_64:PhysXCommon_64.dll
 0002:000108ec       __DELAY_IMPORT_DESCRIPTOR_physxfoundation_64_dll 000000018005a8ec     PhysXFoundation_64:PhysXFoundation_64.dll
 0002:0001090c       __NULL_DELAY_IMPORT_DESCRIPTOR 000000018005a90c     PhysXCommon_64:PhysXCommon_64.dll
 0002:00010a50       \177PhysXCommon_64_NULL_THUNK_DATA_DLN 000000018005aa50     PhysXCommon_64:PhysXCommon_64.dll
 0002:00010ab0       \177PhysXFoundation_64_NULL_THUNK_DATA_DLN 000000018005aab0     PhysXFoundation_64:PhysXFoundation_64.dll
 0002:00011410       \177PhysXCommon_64_NULL_THUNK_DATA_DLB 000000018005b410     PhysXCommon_64:PhysXCommon_64.dll
 0002:00011538       \177PhysXFoundation_64_NULL_THUNK_DATA_DLB 000000018005b538     PhysXFoundation_64:PhysXFoundation_64.dll
 0002:000133c0       __IMPORT_DESCRIPTOR_KERNEL32 000000018005d3c0     kernel32:KERNEL32.dll
 0002:000133d4       __NULL_IMPORT_DESCRIPTOR   000000018005d3d4     kernel32:KERNEL32.dll
 0003:00000008       __pfnDliNotifyHook2        000000018005e008     WindowsCookingDelayLoadHook.obj
 0003:00000010       _fltused                   000000018005e010     LIBCMT:fltused.obj
 0003:00000020       __isa_inverted             000000018005e020     LIBCMT:cpu_disp.obj
 0003:00000028       __isa_available            000000018005e028     LIBCMT:cpu_disp.obj
 0003:0000002c       __isa_enabled              000000018005e02c     LIBCMT:cpu_disp.obj
 0003:00000030       __memset_fast_string_threshold 000000018005e030     LIBCMT:cpu_disp.obj
 0003:00000038       __memset_nt_threshold      000000018005e038     LIBCMT:cpu_disp.obj
 0003:00000040       __scrt_native_dllmain_reason 000000018005e040     LIBCMT:utility.obj
 0003:00000080       __security_cookie          000000018005e080     LIBCMT:gs_cookie.obj
 0003:000000c0       __security_cookie_complement 000000018005e0c0     LIBCMT:gs_cookie.obj
 0003:000000f0       __abort_behavior           000000018005e0f0     libucrt:abort.obj
 0003:00000120       __acrt_initial_multibyte_data 000000018005e120     libucrt:mbctype.obj
 0003:00000660       __acrt_initial_locale_data 000000018005e660     libucrt:nlsdata.obj
 0003:000007b8       __acrt_initial_locale_pointers 000000018005e7b8     libucrt:nlsdata.obj
 0003:000007c8       __acrt_wide_c_locale_string 000000018005e7c8     libucrt:nlsdata.obj
 0003:000007d0       _iob                       000000018005e7d0     libucrt:_file.obj
 0003:000008e0       __globallocalestatus       000000018005e8e0     libucrt:glstatus.obj
 0003:000008f0       __acrt_lconv_c             000000018005e8f0     libucrt:localeconv.obj
 0003:00000988       __acrt_lconv_static_decimal 000000018005e988     libucrt:localeconv.obj
 0003:0000098c       __acrt_lconv_static_W_decimal 000000018005e98c     libucrt:localeconv.obj
 0003:00000990       _lookuptrailbytes          000000018005e990     libucrt:read.obj
 0003:00000aa0       ??_R0?AVAdjEdge@@@8        000000018005eaa0     Adjacencies.obj
 0003:00000ac0       ??_R0I@8                   000000018005eac0     Adjacencies.obj
 0003:00000ad8       ??_R0?AVAdjTriangle@physx@@@8 000000018005ead8     Adjacencies.obj
 0003:00000b00       ??_R0?AVCooking@physx@@@8  000000018005eb00     Cooking.obj
 0003:00000b28       ??_R0?AVHeightField@Gu@physx@@@8 000000018005eb28     Cooking.obj
 0003:00000b58       ??_R0?AVQuickHullConvexHullLib@physx@@@8 000000018005eb58     Cooking.obj
 0003:00000b90       ??_R0?AUPxDebugLine@physx@@@8 000000018005eb90     Cooking.obj
 0003:00000bb8       ??_R0M@8                   000000018005ebb8     CookingUtils.obj
 0003:00000bd0       ??_R0?AUEdgeData@Gu@physx@@@8 000000018005ebd0     EdgeList.obj
 0003:00000bf8       ??_R0?AUEdgeTriangleData@Gu@physx@@@8 000000018005ebf8     EdgeList.obj
 0003:00000c28       ??_R0?AVQuantizerImpl@@@8  000000018005ec28     Quantizer.obj
 0003:00000c50       ??_R0?AVPxVec3@physx@@@8   000000018005ec50     Quantizer.obj
 0003:00000c78       ??_R0?AUSlab@NodeAllocator@Gu@physx@@@8 000000018005ec78     BVHStructureBuilder.obj
 0003:00000cb0       ??_R0?AUInterval@physx@@@8 000000018005ecb0     RTreeCooking.obj
 0003:00000cd8       ??_R0?AURTreeNodeQ@Gu@physx@@@8 000000018005ecd8     RTreeCooking.obj
 0003:00000d08       ??_R0?AURTreeNodeNQ@physx@@@8 000000018005ed08     RTreeCooking.obj
 0003:00000d30       ??_R0?AUPxBounds3V@physx@@@8 000000018005ed30     RTreeCooking.obj
 0003:00000d58       ??_R0?AVEdgeListBuilder@Gu@physx@@@8 000000018005ed58     TriangleMeshBuilder.obj
 0003:00000d88       ??_R0?AVBV32Tree@Gu@physx@@@8 000000018005ed88     TriangleMeshBuilder.obj
 0003:00000db0       ??_R0E@8                   000000018005edb0     TriangleMeshBuilder.obj
 0003:00000dc8       ??_R0G@8                   000000018005edc8     TriangleMeshBuilder.obj
 0003:00000de0       ??_R0?AUEdgeTriLookup@physx@@@8 000000018005ede0     TriangleMeshBuilder.obj
 0003:00000e10       ??_R0?AUEdgeDescData@Gu@physx@@@8 000000018005ee10     ConvexHullBuilder.obj
 0003:00000e40       ??_R0_N@8                  000000018005ee40     ConvexHullBuilder.obj
 0003:00000e58       ??_R0?AVConvexHull@physx@@@8 000000018005ee58     ConvexHullUtils.obj
 0003:00000e80       ??_R0?AVPxPlane@physx@@@8  000000018005ee80     ConvexHullUtils.obj
 0003:00000ea8       ??_R0?AVHalfEdge@ConvexHull@physx@@@8 000000018005eea8     ConvexHullUtils.obj
 0003:00000ed8       ??_R0?AVBigConvexData@physx@@@8 000000018005eed8     ConvexMeshBuilder.obj
 0003:00000f08       ??_R0?AUHullTriangleData@physx@@@8 000000018005ef08     ConvexPolygonsBuilder.obj
 0003:00000f38       ??_R0?AVPair@@@8           000000018005ef38     ConvexPolygonsBuilder.obj
 0003:00000f58       ??_R0?AVQuickHull@local@@@8 000000018005ef58     QuickHullConvexHullLib.obj
 0003:00000f80       ??_R0?AUExpandPoint@local@@@8 000000018005ef80     QuickHullConvexHullLib.obj
 0003:00000fa8       ??_R0PEAUQuickHullVertex@local@@@8 000000018005efa8     QuickHullConvexHullLib.obj
 0003:00000fd8       ??_R0PEAUQuickHullFace@local@@@8 000000018005efd8     QuickHullConvexHullLib.obj
 0003:00001008       ??_R0PEAUQuickHullHalfEdge@local@@@8 000000018005f008     QuickHullConvexHullLib.obj
 0003:00001038       ??_R0?AVbad_exception@std@@@8 000000018005f038     libvcruntime:frame.obj
 0003:00001060       ??_R0?AVexception@std@@@8  000000018005f060     libvcruntime:frame.obj
 0003:00001088       ??_R0?AVtype_info@@@8      000000018005f088     LIBCMT:std_type_info_static.obj
 0003:000010a8       ??_R0?AVDNameNode@@@8      000000018005f0a8     libvcruntime:undname.obj
 0003:000010c8       ??_R0?AVcharNode@@@8       000000018005f0c8     libvcruntime:undname.obj
 0003:000010e8       ??_R0?AVpcharNode@@@8      000000018005f0e8     libvcruntime:undname.obj
 0003:00001108       ??_R0?AVpDNameNode@@@8     000000018005f108     libvcruntime:undname.obj
 0003:00001130       ??_R0?AVDNameStatusNode@@@8 000000018005f130     libvcruntime:undname.obj
 0003:00001158       ??_R0?AVpairNode@@@8       000000018005f158     libvcruntime:undname.obj
 0003:00001178       __imp_??0RadixSortBuffered@Cm@physx@@QEAA@XZ 000000018005f178     PhysXCommon_64:PhysXCommon_64.dll
 0003:00001180       __imp_??1BigConvexData@physx@@QEAA@XZ 000000018005f180     PhysXCommon_64:PhysXCommon_64.dll
 0003:00001188       __imp_??1RadixSortBuffered@Cm@physx@@UEAA@XZ 000000018005f188     PhysXCommon_64:PhysXCommon_64.dll
 0003:00001190       __imp_?Sort@RadixSortBuffered@Cm@physx@@QEAAAEAV123@PEBIIW4RadixHint@23@@Z 000000018005f190     PhysXCommon_64:PhysXCommon_64.dll
 0003:00001198       __imp_??0HeightField@Gu@physx@@QEAA@PEAVGuMeshFactory@2@@Z 000000018005f198     PhysXCommon_64:PhysXCommon_64.dll
 0003:000011a0       __imp_?loadFromDesc@HeightField@Gu@physx@@QEAA_NAEBVPxHeightFieldDesc@3@@Z 000000018005f1a0     PhysXCommon_64:PhysXCommon_64.dll
 0003:000011a8       __imp_?computeCellCoordinates@HeightField@Gu@physx@@QEBAIMMAEAM0@Z 000000018005f1a8     PhysXCommon_64:PhysXCommon_64.dll
 0003:000011b0       __imp_?releaseMemory@HeightField@Gu@physx@@QEAAXXZ 000000018005f1b0     PhysXCommon_64:PhysXCommon_64.dll
 0003:000011b8       __imp_??1HeightField@Gu@physx@@UEAA@XZ 000000018005f1b8     PhysXCommon_64:PhysXCommon_64.dll
 0003:000011c0       __imp_??0NodeAllocator@Gu@physx@@QEAA@XZ 000000018005f1c0     PhysXCommon_64:PhysXCommon_64.dll
 0003:000011c8       __imp_??1NodeAllocator@Gu@physx@@QEAA@XZ 000000018005f1c8     PhysXCommon_64:PhysXCommon_64.dll
 0003:000011d0       __imp_?release@NodeAllocator@Gu@physx@@QEAAXXZ 000000018005f1d0     PhysXCommon_64:PhysXCommon_64.dll
 0003:000011d8       __imp_?buildAABBTree@Gu@physx@@YA_NAEAVAABBTreeBuildParams@12@AEAVNodeAllocator@12@AEAUBuildStats@12@AEAPEAI@Z 000000018005f1d8     PhysXCommon_64:PhysXCommon_64.dll
 0003:000011e0       __imp_?writeDword@physx@@YAXI_NAEAVPxOutputStream@1@@Z 000000018005f1e0     PhysXCommon_64:PhysXCommon_64.dll
 0003:000011e8       __imp_?writeFloatBuffer@physx@@YAXPEBMI_NAEAVPxOutputStream@1@@Z 000000018005f1e8     PhysXCommon_64:PhysXCommon_64.dll
 0003:000011f0       __imp_?writeHeader@physx@@YA_NCCCCI_NAEAVPxOutputStream@1@@Z 000000018005f1f0     PhysXCommon_64:PhysXCommon_64.dll
 0003:000011f8       __imp_?writeWord@physx@@YAXG_NAEAVPxOutputStream@1@@Z 000000018005f1f8     PhysXCommon_64:PhysXCommon_64.dll
 0003:00001200       __imp_?writeFloat@physx@@YAXM_NAEAVPxOutputStream@1@@Z 000000018005f200     PhysXCommon_64:PhysXCommon_64.dll
 0003:00001208       __imp_?computeBoundsAroundVertices@Gu@physx@@YAXAEAVPxBounds3@2@IPEIBVPxVec3@2@@Z 000000018005f208     PhysXCommon_64:PhysXCommon_64.dll
 0003:00001210       __imp_??0SourceMesh@Gu@physx@@QEAA@XZ 000000018005f210     PhysXCommon_64:PhysXCommon_64.dll
 0003:00001218       __imp_??1SourceMesh@Gu@physx@@QEAA@XZ 000000018005f218     PhysXCommon_64:PhysXCommon_64.dll
 0003:00001220       __imp_??0BV4Tree@Gu@physx@@QEAA@XZ 000000018005f220     PhysXCommon_64:PhysXCommon_64.dll
 0003:00001228       __imp_??1BV4Tree@Gu@physx@@QEAA@XZ 000000018005f228     PhysXCommon_64:PhysXCommon_64.dll
 0003:00001230       __imp_??0BV32Tree@Gu@physx@@QEAA@XZ 000000018005f230     PhysXCommon_64:PhysXCommon_64.dll
 0003:00001238       __imp_??1BV32Tree@Gu@physx@@QEAA@XZ 000000018005f238     PhysXCommon_64:PhysXCommon_64.dll
 0003:00001240       __imp_?writeWordBuffer@physx@@YAXPEBGI_NAEAVPxOutputStream@1@@Z 000000018005f240     PhysXCommon_64:PhysXCommon_64.dll
 0003:00001248       __imp_?computeMaxIndex@physx@@YAIPEBII@Z 000000018005f248     PhysXCommon_64:PhysXCommon_64.dll
 0003:00001250       __imp_?storeIndices@physx@@YAXIIPEBIAEAVPxOutputStream@1@_N@Z 000000018005f250     PhysXCommon_64:PhysXCommon_64.dll
 0003:00001258       __imp_?BuildBV4Ex@Gu@physx@@YA_NAEAVBV4Tree@12@AEAVSourceMesh@12@MI@Z 000000018005f258     PhysXCommon_64:PhysXCommon_64.dll
 0003:00001260       __imp_?BuildBV32Ex@Gu@physx@@YA_NAEAVBV32Tree@12@AEAVSourceMesh@12@MI@Z 000000018005f260     PhysXCommon_64:PhysXCommon_64.dll
 0003:00001268       __imp_?computeMaxIndex@physx@@YAGPEBGI@Z 000000018005f268     PhysXCommon_64:PhysXCommon_64.dll
 0003:00001270       __imp_?WriteHeader@Gu@physx@@YA_NEEEEI_NAEAVPxOutputStream@2@@Z 000000018005f270     PhysXCommon_64:PhysXCommon_64.dll
 0003:00001278       __imp_?StoreIndices@Gu@physx@@YAXGIPEBGAEAVPxOutputStream@2@_N@Z 000000018005f278     PhysXCommon_64:PhysXCommon_64.dll
 0003:00001280       __imp_?CreateOffsets@BigConvexData@physx@@IEAAXXZ 000000018005f280     PhysXCommon_64:PhysXCommon_64.dll
 0003:00001288       __imp_?computeOBBPoints@Gu@physx@@YAXPEIAVPxVec3@2@AEBV32@1111@Z 000000018005f288     PhysXCommon_64:PhysXCommon_64.dll
 0003:00001290       __imp_??0BigConvexData@physx@@QEAA@XZ 000000018005f290     PhysXCommon_64:PhysXCommon_64.dll
 0003:00001298       \177PhysXCommon_64_NULL_THUNK_DATA_DLA 000000018005f298     PhysXCommon_64:PhysXCommon_64.dll
 0003:000012a0       __imp_PxGetFoundation      000000018005f2a0     PhysXFoundation_64:PhysXFoundation_64.dll
 0003:000012a8       __imp_?deallocate@TempAllocator@shdfnd@physx@@QEAAXPEAX@Z 000000018005f2a8     PhysXFoundation_64:PhysXFoundation_64.dll
 0003:000012b0       __imp_?getAllocator@shdfnd@physx@@YAAEAVPxAllocatorCallback@2@XZ 000000018005f2b0     PhysXFoundation_64:PhysXFoundation_64.dll
 0003:000012b8       __imp_?getInstance@Foundation@shdfnd@physx@@SAAEAV123@XZ 000000018005f2b8     PhysXFoundation_64:PhysXFoundation_64.dll
 0003:000012c0       __imp_?error@Foundation@shdfnd@physx@@QEAAXW4Enum@PxErrorCode@3@PEBDH1ZZ 000000018005f2c0     PhysXFoundation_64:PhysXFoundation_64.dll
 0003:000012c8       __imp_?incRefCount@Foundation@shdfnd@physx@@SAXXZ 000000018005f2c8     PhysXFoundation_64:PhysXFoundation_64.dll
 0003:000012d0       __imp_?decRefCount@Foundation@shdfnd@physx@@SAXXZ 000000018005f2d0     PhysXFoundation_64:PhysXFoundation_64.dll
 0003:000012d8       __imp_??0FPUGuard@shdfnd@physx@@QEAA@XZ 000000018005f2d8     PhysXFoundation_64:PhysXFoundation_64.dll
 0003:000012e0       __imp_??1FPUGuard@shdfnd@physx@@QEAA@XZ 000000018005f2e0     PhysXFoundation_64:PhysXFoundation_64.dll
 0003:000012e8       __imp_?allocate@TempAllocator@shdfnd@physx@@QEAAPEAX_KPEBDH@Z 000000018005f2e8     PhysXFoundation_64:PhysXFoundation_64.dll
 0003:000012f0       __imp_?PxDiagonalize@physx@@YA?AVPxVec3@1@AEBVPxMat33@1@AEAVPxQuat@1@@Z 000000018005f2f0     PhysXFoundation_64:PhysXFoundation_64.dll
 0003:000012f8       \177PhysXFoundation_64_NULL_THUNK_DATA_DLA 000000018005f2f8     PhysXFoundation_64:PhysXFoundation_64.dll
 0003:000016c8       __hmod__PhysXCommon_64_dll 000000018005f6c8     PhysXCommon_64:PhysXCommon_64.dll
 0003:000016d0       __hmod__PhysXFoundation_64_dll 000000018005f6d0     PhysXFoundation_64:PhysXFoundation_64.dll
 0003:000016d8       ?DloadKernel32@@3PEAUHINSTANCE__@@EA 000000018005f6d8     Delayimp:delayhlp.obj
 0003:000016e0       ?DloadAcquireSRWLockExclusive@@3P6AXPEA_K@ZEA 000000018005f6e0     Delayimp:delayhlp.obj
 0003:000016e8       ?DloadReleaseSRWLockExclusive@@3P6AXPEA_K@ZEA 000000018005f6e8     Delayimp:delayhlp.obj
 0003:000016f0       ?DloadSrwLock@@3_KA        000000018005f6f0     Delayimp:delayhlp.obj
 0003:000016f8       ?DloadSectionLockCount@@3KA 000000018005f6f8     Delayimp:delayhlp.obj
 0003:000016fc       ?DloadSectionOldProtection@@3KA 000000018005f6fc     Delayimp:delayhlp.obj
 0003:00001700       ?DloadSectionCommitPermanent@@3KA 000000018005f700     Delayimp:delayhlp.obj
 0003:00001710       ?__type_info_root_node@@3U__type_info_node@@A 000000018005f710     LIBCMT:tncleanup.obj
 0003:00001724       __avx10_version            000000018005f724     LIBCMT:cpu_disp.obj
 0003:00001728       __favor                    000000018005f728     LIBCMT:cpu_disp.obj
 0003:00001730       ?_OptionsStorage@?1??__local_stdio_printf_options@@9@4_KA 000000018005f730     LIBCMT:default_local_stdio_options.obj
 0003:00001738       ?_OptionsStorage@?1??__local_stdio_scanf_options@@9@4_KA 000000018005f738     LIBCMT:default_local_stdio_options.obj
 0003:00001740       __scrt_current_native_startup_state 000000018005f740     LIBCMT:utility.obj
 0003:00001748       __scrt_native_startup_lock 000000018005f748     LIBCMT:utility.obj
 0003:00001788       __scrt_debugger_hook_flag  000000018005f788     LIBCMT:utility_desktop.obj
 0003:00001790       ?__WinRTOutOfMemoryExceptionCallback@@3P6APEAXXZEA 000000018005f790     libvcruntime:ehhelpers.obj
 0003:00001798       __pPurecall                000000018005f798     libvcruntime:purevirt_data.obj
 0003:000017a0       ?pArgList@UnDecorator@@0PEAVReplicator@@EA 000000018005f7a0     libvcruntime:undname.obj
 0003:000017a8       ?pZNameList@UnDecorator@@0PEAVReplicator@@EA 000000018005f7a8     libvcruntime:undname.obj
 0003:000017b0       ?pTemplateArgList@UnDecorator@@0PEAVReplicator@@EA 000000018005f7b0     libvcruntime:undname.obj
 0003:000017b8       ?gName@UnDecorator@@0PEBDEB 000000018005f7b8     libvcruntime:undname.obj
 0003:000017c0       ?name@UnDecorator@@0PEBDEB 000000018005f7c0     libvcruntime:undname.obj
 0003:000017c8       ?disableFlags@UnDecorator@@0KA 000000018005f7c8     libvcruntime:undname.obj
 0003:000017cc       ?fExplicitTemplateParams@UnDecorator@@0_NA 000000018005f7cc     libvcruntime:undname.obj
 0003:000017cd       ?fGetTemplateArgumentList@UnDecorator@@0_NA 000000018005f7cd     libvcruntime:undname.obj
 0003:000017d0       ?m_pGetParameter@UnDecorator@@0P6APEADJ@ZEA 000000018005f7d0     libvcruntime:undname.obj
 0003:000017d8       ?m_CHPENameOffset@UnDecorator@@0KA 000000018005f7d8     libvcruntime:undname.obj
 0003:000017dc       ?m_recursionLevel@UnDecorator@@0KA 000000018005f7dc     libvcruntime:undname.obj
 0003:00001a28       _environ_table             000000018005fa28     libucrt:environment_initialization.obj
 0003:00001a30       _wenviron_table            000000018005fa30     libucrt:environment_initialization.obj
 0003:00001a38       __dcrt_initial_wide_environment 000000018005fa38     libucrt:environment_initialization.obj
 0003:00001a40       __dcrt_initial_narrow_environment 000000018005fa40     libucrt:environment_initialization.obj
 0003:00001a48       __acrt_atexit_table        000000018005fa48     libucrt:onexit.obj
 0003:00001a60       __acrt_at_quick_exit_table 000000018005fa60     libucrt:onexit.obj
 0003:00001a78       __fma3_is_available        000000018005fa78     libucrt:fma3_available.obj
 0003:00001a7c       __use_fma3_lib             000000018005fa7c     libucrt:fma3_available.obj
 0003:00001cc0       _mbctype                   000000018005fcc0     libucrt:mbctype.obj
 0003:00001cc8       _mbcasemap                 000000018005fcc8     libucrt:mbctype.obj
 0003:00001cd0       __acrt_current_multibyte_data 000000018005fcd0     libucrt:mbctype.obj
 0003:00001ce0       _pgmptr                    000000018005fce0     libucrt:argv_data.obj
 0003:00001ce8       __argc                     000000018005fce8     libucrt:argv_data.obj
 0003:00001cf0       __argv                     000000018005fcf0     libucrt:argv_data.obj
 0003:00001cf8       __wargv                    000000018005fcf8     libucrt:argv_data.obj
 0003:00001d00       _acmdln                    000000018005fd00     libucrt:argv_data.obj
 0003:00001d08       _wcmdln                    000000018005fd08     libucrt:argv_data.obj
 0003:00001eb8       __acrt_heap                000000018005feb8     libucrt:heap_handle.obj
 0003:00001ec0       __pioinfo                  000000018005fec0     libucrt:ioinit.obj
 0003:000022c0       _nhandle                   00000001800602c0     libucrt:ioinit.obj
 0003:000022f8       __acrt_current_locale_data 00000001800602f8     libucrt:nlsdata.obj
 0003:00002300       _nstream                   0000000180060300     libucrt:_file.obj
 0003:00002308       __piob                     0000000180060308     libucrt:_file.obj
 0003:00002310       __acrt_stdout_buffer       0000000180060310     libucrt:_sftbuf.obj
 0003:00002318       __acrt_stderr_buffer       0000000180060318     libucrt:_sftbuf.obj
 0003:00002330       __acrt_locale_changed_data 0000000180060330     libucrt:wsetlocale.obj
 0003:00002338       __acrt_lconv_static_null   0000000180060338     libucrt:localeconv.obj
 0003:0000233c       __acrt_lconv_static_W_null 000000018006033c     libucrt:localeconv.obj
 0003:000028c0       __scrt_ucrt_dll_is_in_use  00000001800608c0     <common>
 0003:000028c8       __dyn_tls_init_callback    00000001800608c8     <common>
 0005:00000100       __common_ssin_reduction_data 0000000180065100     LIBCMT:svml_s_sin_data.obj
 0005:00000d00       __common_ssin_data         0000000180065d00     LIBCMT:svml_s_sin_data.obj

 entry point at        0001:00027ef0

 Static symbols

 0000:fff96000       .debug$S                   0000000180000000     PhysXCooking_64.exp
 0000:fff96000       .debug$S                   0000000180000000     kernel32:KERNEL32.dll
 0000:fff96000       .debug$S                   0000000180000000     kernel32:KERNEL32.dll
 0000:fff96000       .debug$S                   0000000180000000     kernel32:KERNEL32.dll
 0000:fff96000       .debug$S                   0000000180000000     kernel32:KERNEL32.dll
 0000:fff96000       .debug$S                   0000000180000000     kernel32:KERNEL32.dll
 0000:fff96000       .debug$S                   0000000180000000     kernel32:KERNEL32.dll
 0000:fff96000       .debug$S                   0000000180000000     kernel32:KERNEL32.dll
 0000:fff96000       .debug$S                   0000000180000000     kernel32:KERNEL32.dll
 0000:fff96000       .debug$S                   0000000180000000     kernel32:KERNEL32.dll
 0000:fff96000       .debug$S                   0000000180000000     kernel32:KERNEL32.dll
 0000:fff96000       .debug$S                   0000000180000000     kernel32:KERNEL32.dll
 0000:fff96000       .debug$S                   0000000180000000     kernel32:KERNEL32.dll
 0000:fff96000       .debug$S                   0000000180000000     kernel32:KERNEL32.dll
 0000:fff96000       .debug$S                   0000000180000000     kernel32:KERNEL32.dll
 0000:fff96000       .debug$S                   0000000180000000     kernel32:KERNEL32.dll
 0000:fff96000       .debug$S                   0000000180000000     kernel32:KERNEL32.dll
 0000:fff96000       .debug$S                   0000000180000000     kernel32:KERNEL32.dll
 0000:fff96000       .debug$S                   0000000180000000     kernel32:KERNEL32.dll
 0000:fff96000       .debug$S                   0000000180000000     kernel32:KERNEL32.dll
 0000:fff96000       .debug$S                   0000000180000000     kernel32:KERNEL32.dll
 0000:fff96000       .debug$S                   0000000180000000     kernel32:KERNEL32.dll
 0000:fff96000       .debug$S                   0000000180000000     kernel32:KERNEL32.dll
 0000:fff96000       .debug$S                   0000000180000000     kernel32:KERNEL32.dll
 0000:fff96000       .debug$S                   0000000180000000     kernel32:KERNEL32.dll
 0000:fff96000       .debug$S                   0000000180000000     kernel32:KERNEL32.dll
 0000:fff96000       .debug$S                   0000000180000000     kernel32:KERNEL32.dll
 0000:fff96000       .debug$S                   0000000180000000     kernel32:KERNEL32.dll
 0000:fff96000       .debug$S                   0000000180000000     kernel32:KERNEL32.dll
 0000:fff96000       .debug$S                   0000000180000000     kernel32:KERNEL32.dll
 0000:fff96000       .debug$S                   0000000180000000     kernel32:KERNEL32.dll
 0000:fff96000       .debug$S                   0000000180000000     kernel32:KERNEL32.dll
 0000:fff96000       .debug$S                   0000000180000000     kernel32:KERNEL32.dll
 0000:fff96000       .debug$S                   0000000180000000     kernel32:KERNEL32.dll
 0000:fff96000       .debug$S                   0000000180000000     kernel32:KERNEL32.dll
 0000:fff96000       .debug$S                   0000000180000000     kernel32:KERNEL32.dll
 0000:fff96000       .debug$S                   0000000180000000     kernel32:KERNEL32.dll
 0000:fff96000       .debug$S                   0000000180000000     kernel32:KERNEL32.dll
 0000:fff96000       .debug$S                   0000000180000000     kernel32:KERNEL32.dll
 0000:fff96000       .debug$S                   0000000180000000     kernel32:KERNEL32.dll
 0000:fff96000       .debug$S                   0000000180000000     kernel32:KERNEL32.dll
 0000:fff96000       .debug$S                   0000000180000000     kernel32:KERNEL32.dll
 0000:fff96000       .debug$S                   0000000180000000     kernel32:KERNEL32.dll
 0000:fff96000       .debug$S                   0000000180000000     kernel32:KERNEL32.dll
 0000:fff96000       .debug$S                   0000000180000000     kernel32:KERNEL32.dll
 0000:fff96000       .debug$S                   0000000180000000     kernel32:KERNEL32.dll
 0000:fff96000       .debug$S                   0000000180000000     kernel32:KERNEL32.dll
 0000:fff96000       .debug$S                   0000000180000000     kernel32:KERNEL32.dll
 0000:fff96000       .debug$S                   0000000180000000     kernel32:KERNEL32.dll
 0000:fff96000       .debug$S                   0000000180000000     kernel32:KERNEL32.dll
 0000:fff96000       .debug$S                   0000000180000000     kernel32:KERNEL32.dll
 0000:fff96000       .debug$S                   0000000180000000     kernel32:KERNEL32.dll
 0000:fff96000       .debug$S                   0000000180000000     kernel32:KERNEL32.dll
 0000:fff96000       .debug$S                   0000000180000000     kernel32:KERNEL32.dll
 0000:fff96000       .debug$S                   0000000180000000     kernel32:KERNEL32.dll
 0000:fff96000       .debug$S                   0000000180000000     kernel32:KERNEL32.dll
 0000:fff96000       .debug$S                   0000000180000000     kernel32:KERNEL32.dll
 0000:fff96000       .debug$S                   0000000180000000     kernel32:KERNEL32.dll
 0000:fff96000       .debug$S                   0000000180000000     kernel32:KERNEL32.dll
 0000:fff96000       .debug$S                   0000000180000000     kernel32:KERNEL32.dll
 0000:fff96000       .debug$S                   0000000180000000     kernel32:KERNEL32.dll
 0000:fff96000       .debug$S                   0000000180000000     kernel32:KERNEL32.dll
 0000:fff96000       .debug$S                   0000000180000000     kernel32:KERNEL32.dll
 0000:fff96000       .debug$S                   0000000180000000     kernel32:KERNEL32.dll
 0000:fff96000       .debug$S                   0000000180000000     kernel32:KERNEL32.dll
 0000:fff96000       .debug$S                   0000000180000000     kernel32:KERNEL32.dll
 0000:fff96000       .debug$S                   0000000180000000     kernel32:KERNEL32.dll
 0000:fff96000       .debug$S                   0000000180000000     kernel32:KERNEL32.dll
 0000:fff96000       .debug$S                   0000000180000000     kernel32:KERNEL32.dll
 0000:fff96000       .debug$S                   0000000180000000     kernel32:KERNEL32.dll
 0000:fff96000       .debug$S                   0000000180000000     kernel32:KERNEL32.dll
 0000:fff96000       .debug$S                   0000000180000000     kernel32:KERNEL32.dll
 0000:fff96000       .debug$S                   0000000180000000     kernel32:KERNEL32.dll
 0000:fff96000       .debug$S                   0000000180000000     kernel32:KERNEL32.dll
 0000:fff96000       .debug$S                   0000000180000000     kernel32:KERNEL32.dll
 0000:fff96000       .debug$S                   0000000180000000     kernel32:KERNEL32.dll
 0000:fff96000       .debug$S                   0000000180000000     kernel32:KERNEL32.dll
 0000:fff96000       .debug$S                   0000000180000000     kernel32:KERNEL32.dll
 0000:fff96000       .debug$S                   0000000180000000     kernel32:KERNEL32.dll
 0000:fff96000       .debug$S                   0000000180000000     kernel32:KERNEL32.dll
 0000:fff96000       .debug$S                   0000000180000000     kernel32:KERNEL32.dll
 0000:fff96000       .debug$S                   0000000180000000     kernel32:KERNEL32.dll
 0000:fff96000       .debug$S                   0000000180000000     kernel32:KERNEL32.dll
 0000:fff96000       .debug$S                   0000000180000000     kernel32:KERNEL32.dll
 0000:fff96000       .debug$S                   0000000180000000     kernel32:KERNEL32.dll
 0000:fff96000       .debug$S                   0000000180000000     kernel32:KERNEL32.dll
 0000:fff96000       .debug$S                   0000000180000000     kernel32:KERNEL32.dll
 0000:fff96000       .debug$S                   0000000180000000     kernel32:KERNEL32.dll
 0000:fff96000       .debug$S                   0000000180000000     kernel32:KERNEL32.dll
 0000:fff96000       .debug$S                   0000000180000000     kernel32:KERNEL32.dll
 0000:fff96000       .debug$S                   0000000180000000     kernel32:KERNEL32.dll
 0000:fff96000       .debug$S                   0000000180000000     kernel32:KERNEL32.dll
 0000:fff96000       .debug$S                   0000000180000000     kernel32:KERNEL32.dll
 0000:fff96000       .debug$S                   0000000180000000     kernel32:KERNEL32.dll
 0000:fff96000       .debug$S                   0000000180000000     kernel32:KERNEL32.dll
 0000:fff96000       .debug$S                   0000000180000000     PhysXCommon_64:PhysXCommon_64.dll
 0000:fff96000       .debug$S                   0000000180000000     PhysXCommon_64:PhysXCommon_64.dll
 0000:fff96000       .debug$S                   0000000180000000     PhysXCommon_64:PhysXCommon_64.dll
 0000:fff96000       .debug$S                   0000000180000000     PhysXCommon_64:PhysXCommon_64.dll
 0000:fff96000       .debug$S                   0000000180000000     PhysXCommon_64:PhysXCommon_64.dll
 0000:fff96000       .debug$S                   0000000180000000     PhysXCommon_64:PhysXCommon_64.dll
 0000:fff96000       .debug$S                   0000000180000000     PhysXCommon_64:PhysXCommon_64.dll
 0000:fff96000       .debug$S                   0000000180000000     PhysXCommon_64:PhysXCommon_64.dll
 0000:fff96000       .debug$S                   0000000180000000     PhysXCommon_64:PhysXCommon_64.dll
 0000:fff96000       .debug$S                   0000000180000000     PhysXCommon_64:PhysXCommon_64.dll
 0000:fff96000       .debug$S                   0000000180000000     PhysXCommon_64:PhysXCommon_64.dll
 0000:fff96000       .debug$S                   0000000180000000     PhysXCommon_64:PhysXCommon_64.dll
 0000:fff96000       .debug$S                   0000000180000000     PhysXCommon_64:PhysXCommon_64.dll
 0000:fff96000       .debug$S                   0000000180000000     PhysXCommon_64:PhysXCommon_64.dll
 0000:fff96000       .debug$S                   0000000180000000     PhysXCommon_64:PhysXCommon_64.dll
 0000:fff96000       .debug$S                   0000000180000000     PhysXCommon_64:PhysXCommon_64.dll
 0000:fff96000       .debug$S                   0000000180000000     PhysXCommon_64:PhysXCommon_64.dll
 0000:fff96000       .debug$S                   0000000180000000     PhysXCommon_64:PhysXCommon_64.dll
 0000:fff96000       .debug$S                   0000000180000000     PhysXCommon_64:PhysXCommon_64.dll
 0000:fff96000       .debug$S                   0000000180000000     PhysXCommon_64:PhysXCommon_64.dll
 0000:fff96000       .debug$S                   0000000180000000     PhysXCommon_64:PhysXCommon_64.dll
 0000:fff96000       .debug$S                   0000000180000000     PhysXCommon_64:PhysXCommon_64.dll
 0000:fff96000       .debug$S                   0000000180000000     PhysXCommon_64:PhysXCommon_64.dll
 0000:fff96000       .debug$S                   0000000180000000     PhysXCommon_64:PhysXCommon_64.dll
 0000:fff96000       .debug$S                   0000000180000000     PhysXCommon_64:PhysXCommon_64.dll
 0000:fff96000       .debug$S                   0000000180000000     PhysXCommon_64:PhysXCommon_64.dll
 0000:fff96000       .debug$S                   0000000180000000     PhysXCommon_64:PhysXCommon_64.dll
 0000:fff96000       .debug$S                   0000000180000000     PhysXCommon_64:PhysXCommon_64.dll
 0000:fff96000       .debug$S                   0000000180000000     PhysXCommon_64:PhysXCommon_64.dll
 0000:fff96000       .debug$S                   0000000180000000     PhysXCommon_64:PhysXCommon_64.dll
 0000:fff96000       .debug$S                   0000000180000000     PhysXCommon_64:PhysXCommon_64.dll
 0000:fff96000       .debug$S                   0000000180000000     PhysXCommon_64:PhysXCommon_64.dll
 0000:fff96000       .debug$S                   0000000180000000     PhysXCommon_64:PhysXCommon_64.dll
 0000:fff96000       .debug$S                   0000000180000000     PhysXCommon_64:PhysXCommon_64.dll
 0000:fff96000       .debug$S                   0000000180000000     PhysXCommon_64:PhysXCommon_64.dll
 0000:fff96000       .debug$S                   0000000180000000     PhysXCommon_64:PhysXCommon_64.dll
 0000:fff96000       .debug$S                   0000000180000000     PhysXCommon_64:PhysXCommon_64.dll
 0000:fff96000       .debug$S                   0000000180000000     PhysXCommon_64:PhysXCommon_64.dll
 0000:fff96000       .debug$S                   0000000180000000     PhysXFoundation_64:PhysXFoundation_64.dll
 0000:fff96000       .debug$S                   0000000180000000     PhysXFoundation_64:PhysXFoundation_64.dll
 0000:fff96000       .debug$S                   0000000180000000     PhysXFoundation_64:PhysXFoundation_64.dll
 0000:fff96000       .debug$S                   0000000180000000     PhysXFoundation_64:PhysXFoundation_64.dll
 0000:fff96000       .debug$S                   0000000180000000     PhysXFoundation_64:PhysXFoundation_64.dll
 0000:fff96000       .debug$S                   0000000180000000     PhysXFoundation_64:PhysXFoundation_64.dll
 0000:fff96000       .debug$S                   0000000180000000     PhysXFoundation_64:PhysXFoundation_64.dll
 0000:fff96000       .debug$S                   0000000180000000     PhysXFoundation_64:PhysXFoundation_64.dll
 0000:fff96000       .debug$S                   0000000180000000     PhysXFoundation_64:PhysXFoundation_64.dll
 0000:fff96000       .debug$S                   0000000180000000     PhysXFoundation_64:PhysXFoundation_64.dll
 0000:fff96000       .debug$S                   0000000180000000     PhysXFoundation_64:PhysXFoundation_64.dll
 0001:00000000       ??__EmaxFError@_VecMathTests@aos@shdfnd@physx@@YAXXZ 0000000180001000 f   Cooking.obj
 0001:00000010       ??__EmaxV3Error@_VecMathTests@aos@shdfnd@physx@@YAXXZ 0000000180001010 f   Cooking.obj
 0001:00000020       ??__EmaxV4Error@_VecMathTests@aos@shdfnd@physx@@YAXXZ 0000000180001020 f   Cooking.obj
 0001:00000030       ??__EminFError@_VecMathTests@aos@shdfnd@physx@@YAXXZ 0000000180001030 f   Cooking.obj
 0001:00000040       ??__EminV3Error@_VecMathTests@aos@shdfnd@physx@@YAXXZ 0000000180001040 f   Cooking.obj
 0001:00000050       ??__EminV4Error@_VecMathTests@aos@shdfnd@physx@@YAXXZ 0000000180001050 f   Cooking.obj
 0001:00000060       ??__EmaxFError@_VecMathTests@aos@shdfnd@physx@@YAXXZ 0000000180001060 f   BVHStructureBuilder.obj
 0001:00000070       ??__EmaxV3Error@_VecMathTests@aos@shdfnd@physx@@YAXXZ 0000000180001070 f   BVHStructureBuilder.obj
 0001:00000080       ??__EmaxV4Error@_VecMathTests@aos@shdfnd@physx@@YAXXZ 0000000180001080 f   BVHStructureBuilder.obj
 0001:00000090       ??__EminFError@_VecMathTests@aos@shdfnd@physx@@YAXXZ 0000000180001090 f   BVHStructureBuilder.obj
 0001:000000a0       ??__EminV3Error@_VecMathTests@aos@shdfnd@physx@@YAXXZ 00000001800010a0 f   BVHStructureBuilder.obj
 0001:000000b0       ??__EminV4Error@_VecMathTests@aos@shdfnd@physx@@YAXXZ 00000001800010b0 f   BVHStructureBuilder.obj
 0001:000000c0       ??__EmaxFError@_VecMathTests@aos@shdfnd@physx@@YAXXZ 00000001800010c0 f   RTreeCooking.obj
 0001:000000d0       ??__EmaxV3Error@_VecMathTests@aos@shdfnd@physx@@YAXXZ 00000001800010d0 f   RTreeCooking.obj
 0001:000000e0       ??__EmaxV4Error@_VecMathTests@aos@shdfnd@physx@@YAXXZ 00000001800010e0 f   RTreeCooking.obj
 0001:000000f0       ??__EminFError@_VecMathTests@aos@shdfnd@physx@@YAXXZ 00000001800010f0 f   RTreeCooking.obj
 0001:00000100       ??__EminV3Error@_VecMathTests@aos@shdfnd@physx@@YAXXZ 0000000180001100 f   RTreeCooking.obj
 0001:00000110       ??__EminV4Error@_VecMathTests@aos@shdfnd@physx@@YAXXZ 0000000180001110 f   RTreeCooking.obj
 0001:00000120       ??__EmaxFError@_VecMathTests@aos@shdfnd@physx@@YAXXZ 0000000180001120 f   MeshBuilder.obj
 0001:00000130       ??__EmaxV3Error@_VecMathTests@aos@shdfnd@physx@@YAXXZ 0000000180001130 f   MeshBuilder.obj
 0001:00000140       ??__EmaxV4Error@_VecMathTests@aos@shdfnd@physx@@YAXXZ 0000000180001140 f   MeshBuilder.obj
 0001:00000150       ??__EminFError@_VecMathTests@aos@shdfnd@physx@@YAXXZ 0000000180001150 f   MeshBuilder.obj
 0001:00000160       ??__EminV3Error@_VecMathTests@aos@shdfnd@physx@@YAXXZ 0000000180001160 f   MeshBuilder.obj
 0001:00000170       ??__EminV4Error@_VecMathTests@aos@shdfnd@physx@@YAXXZ 0000000180001170 f   MeshBuilder.obj
 0001:00000180       ??__EmaxFError@_VecMathTests@aos@shdfnd@physx@@YAXXZ 0000000180001180 f   TriangleMeshBuilder.obj
 0001:00000190       ??__EmaxV3Error@_VecMathTests@aos@shdfnd@physx@@YAXXZ 0000000180001190 f   TriangleMeshBuilder.obj
 0001:000001a0       ??__EmaxV4Error@_VecMathTests@aos@shdfnd@physx@@YAXXZ 00000001800011a0 f   TriangleMeshBuilder.obj
 0001:000001b0       ??__EminFError@_VecMathTests@aos@shdfnd@physx@@YAXXZ 00000001800011b0 f   TriangleMeshBuilder.obj
 0001:000001c0       ??__EminV3Error@_VecMathTests@aos@shdfnd@physx@@YAXXZ 00000001800011c0 f   TriangleMeshBuilder.obj
 0001:000001d0       ??__EminV4Error@_VecMathTests@aos@shdfnd@physx@@YAXXZ 00000001800011d0 f   TriangleMeshBuilder.obj
 0001:000001e0       ??__EmaxFError@_VecMathTests@aos@shdfnd@physx@@YAXXZ 00000001800011e0 f   BigConvexDataBuilder.obj
 0001:000001f0       ??__EmaxV3Error@_VecMathTests@aos@shdfnd@physx@@YAXXZ 00000001800011f0 f   BigConvexDataBuilder.obj
 0001:00000200       ??__EmaxV4Error@_VecMathTests@aos@shdfnd@physx@@YAXXZ 0000000180001200 f   BigConvexDataBuilder.obj
 0001:00000210       ??__EminFError@_VecMathTests@aos@shdfnd@physx@@YAXXZ 0000000180001210 f   BigConvexDataBuilder.obj
 0001:00000220       ??__EminV3Error@_VecMathTests@aos@shdfnd@physx@@YAXXZ 0000000180001220 f   BigConvexDataBuilder.obj
 0001:00000230       ??__EminV4Error@_VecMathTests@aos@shdfnd@physx@@YAXXZ 0000000180001230 f   BigConvexDataBuilder.obj
 0001:00000240       ??__EmaxFError@_VecMathTests@aos@shdfnd@physx@@YAXXZ 0000000180001240 f   ConvexHullBuilder.obj
 0001:00000250       ??__EmaxV3Error@_VecMathTests@aos@shdfnd@physx@@YAXXZ 0000000180001250 f   ConvexHullBuilder.obj
 0001:00000260       ??__EmaxV4Error@_VecMathTests@aos@shdfnd@physx@@YAXXZ 0000000180001260 f   ConvexHullBuilder.obj
 0001:00000270       ??__EminFError@_VecMathTests@aos@shdfnd@physx@@YAXXZ 0000000180001270 f   ConvexHullBuilder.obj
 0001:00000280       ??__EminV3Error@_VecMathTests@aos@shdfnd@physx@@YAXXZ 0000000180001280 f   ConvexHullBuilder.obj
 0001:00000290       ??__EminV4Error@_VecMathTests@aos@shdfnd@physx@@YAXXZ 0000000180001290 f   ConvexHullBuilder.obj
 0001:000002a0       ??__EmaxFError@_VecMathTests@aos@shdfnd@physx@@YAXXZ 00000001800012a0 f   ConvexHullUtils.obj
 0001:000002b0       ??__EmaxV3Error@_VecMathTests@aos@shdfnd@physx@@YAXXZ 00000001800012b0 f   ConvexHullUtils.obj
 0001:000002c0       ??__EmaxV4Error@_VecMathTests@aos@shdfnd@physx@@YAXXZ 00000001800012c0 f   ConvexHullUtils.obj
 0001:000002d0       ??__EminFError@_VecMathTests@aos@shdfnd@physx@@YAXXZ 00000001800012d0 f   ConvexHullUtils.obj
 0001:000002e0       ??__EminV3Error@_VecMathTests@aos@shdfnd@physx@@YAXXZ 00000001800012e0 f   ConvexHullUtils.obj
 0001:000002f0       ??__EminV4Error@_VecMathTests@aos@shdfnd@physx@@YAXXZ 00000001800012f0 f   ConvexHullUtils.obj
 0001:00000300       ??__EmaxFError@_VecMathTests@aos@shdfnd@physx@@YAXXZ 0000000180001300 f   ConvexMeshBuilder.obj
 0001:00000310       ??__EmaxV3Error@_VecMathTests@aos@shdfnd@physx@@YAXXZ 0000000180001310 f   ConvexMeshBuilder.obj
 0001:00000320       ??__EmaxV4Error@_VecMathTests@aos@shdfnd@physx@@YAXXZ 0000000180001320 f   ConvexMeshBuilder.obj
 0001:00000330       ??__EminFError@_VecMathTests@aos@shdfnd@physx@@YAXXZ 0000000180001330 f   ConvexMeshBuilder.obj
 0001:00000340       ??__EminV3Error@_VecMathTests@aos@shdfnd@physx@@YAXXZ 0000000180001340 f   ConvexMeshBuilder.obj
 0001:00000350       ??__EminV4Error@_VecMathTests@aos@shdfnd@physx@@YAXXZ 0000000180001350 f   ConvexMeshBuilder.obj
 0001:00000360       ??__EmaxFError@_VecMathTests@aos@shdfnd@physx@@YAXXZ 0000000180001360 f   VolumeIntegration.obj
 0001:00000370       ??__EmaxV3Error@_VecMathTests@aos@shdfnd@physx@@YAXXZ 0000000180001370 f   VolumeIntegration.obj
 0001:00000380       ??__EmaxV4Error@_VecMathTests@aos@shdfnd@physx@@YAXXZ 0000000180001380 f   VolumeIntegration.obj
 0001:00000390       ??__EminFError@_VecMathTests@aos@shdfnd@physx@@YAXXZ 0000000180001390 f   VolumeIntegration.obj
 0001:000003a0       ??__EminV3Error@_VecMathTests@aos@shdfnd@physx@@YAXXZ 00000001800013a0 f   VolumeIntegration.obj
 0001:000003b0       ??__EminV4Error@_VecMathTests@aos@shdfnd@physx@@YAXXZ 00000001800013b0 f   VolumeIntegration.obj
 0001:000005c0       ?AddTriangle@@YAXIIIIPEAVAdjTriangle@physx@@AEAIPEAVAdjEdge@@@Z 00000001800015c0 f   Adjacencies.obj
 0001:00000740       ?CreateDatabase@@YA_NPEAVAdjTriangle@physx@@IPEBVAdjEdge@@AEBUADJACENCIESCREATE@2@@Z 0000000180001740 f   Adjacencies.obj
 0001:00000d20       ?UpdateLink@@YA_NIIIIPEAVAdjTriangle@physx@@AEBUADJACENCIESCREATE@2@@Z 0000000180001d20 f   Adjacencies.obj
 0001:00009090       ?buildFromBounds@physx@@YAXAEAURTree@Gu@1@PEBUPxBounds3V@1@IAEAV?$Array@IV?$ReflectionAllocator@I@shdfnd@physx@@@shdfnd@1@PEAURemapCallback@RTreeCooker@1@AEAT__m128@@4MW4Enum@PxMeshCookingHint@1@@Z 000000018000a090 f   RTreeCooking.obj
 0001:0000d2b0       ?buildAdjacencies@physx@@YAXPEAUuint4@1@PEAVPxVec3@1@PEBV31@PEBUuint3@1@I@Z 000000018000e2b0 f   TriangleMeshBuilder.obj
 0001:0000eaf0       ?findAdjacent@physx@@YAIPEBVPxVec3@1@0PEBUuint3@1@IIIAEBVPxPlane@1@PEAUEdgeTriLookup@1@I@Z 000000018000faf0 f   TriangleMeshBuilder.obj
 0001:000139f0       ?checkPointsAABBValidity@local@@YA_NIPEBVPxVec3@physx@@IMMAEAV23@1AEAIPEAV23@_N@Z 00000001800149f0 f   ConvexHullLib.obj
 0001:00018e90       ?ComputeInternalExtent@@YAXAEAUConvexHullData@Gu@physx@@PEBUHullPolygonData@23@@Z 0000000180019e90 f   ConvexMeshBuilder.obj
 0001:0001a3b0       ?CheckFloodFillFace@Local@?7??extractHullPolygons@@YA_NAEAIAEAV?$Array@IV?$ReflectionAllocator@I@shdfnd@physx@@@shdfnd@physx@@AEBVConvexPolygonsBuilder@5@PEAV345@1@Z@SA_NIPEBVAdjTriangle@5@PEBI@Z 000000018001b3b0 f   ConvexPolygonsBuilder.obj
 0001:0001a990       ?FloodFill@Local@?7??extractHullPolygons@@YA_NAEAIAEAV?$Array@IV?$ReflectionAllocator@I@shdfnd@physx@@@shdfnd@physx@@AEBVConvexPolygonsBuilder@5@PEAV345@1@Z@SAX1PEBVAdjTriangle@5@IPEA_N@Z 000000018001b990 f   ConvexPolygonsBuilder.obj
 0001:0001aa70       ?TestDuplicateTriangles@@YA_NAEAIPEAU?$TriangleT@I@Gu@physx@@_N@Z 000000018001ba70 f   ConvexPolygonsBuilder.obj
 0001:0001ac40       ?checkRedundantVertices@@YAXAEAIAEAV?$Array@IV?$ReflectionAllocator@I@shdfnd@physx@@@shdfnd@physx@@AEBVConvexPolygonsBuilder@3@11@Z 000000018001bc40 f   ConvexPolygonsBuilder.obj
 0001:0001c460       ?computeNewellPlane@@YA_NAEAVPxPlane@physx@@IPEBEPEBVPxVec3@2@@Z 000000018001d460 f   ConvexPolygonsBuilder.obj
 0001:0001d8b0       ?extractHullPolygons@@YA_NAEAIAEAV?$Array@IV?$ReflectionAllocator@I@shdfnd@physx@@@shdfnd@physx@@AEBVConvexPolygonsBuilder@3@PEAV123@1@Z 000000018001e8b0 f   ConvexPolygonsBuilder.obj
 0001:0001e2f0       ?findLineStrip@@YA_NAEAV?$Array@IV?$ReflectionAllocator@I@shdfnd@physx@@@shdfnd@physx@@AEBV?$Array@VPair@@V?$ReflectionAllocator@VPair@@@shdfnd@physx@@@23@@Z 000000018001f2f0 f   ConvexPolygonsBuilder.obj
 0001:00025bd0       ?computeVolumeIntegrals@VolumeIntegratorEberly@?A0x15ce7506@physx@@QEAA_NAEAUPxIntegrals@3@AEBVPxVec3@3@@Z 0000000180026bd0 f   VolumeIntegration.obj
 0001:00026740       ?computeVolumeIntegralsSIMD@VolumeIntegratorEberly@?A0x15ce7506@physx@@QEAA_NAEAUPxIntegrals@3@AEBVPxVec3@3@@Z 0000000180027740 f   VolumeIntegration.obj
 0001:00026e20       $LN24                      0000000180027e20     WindowsCookingDelayLoadHook.obj
 0001:00027288       ??$GuardedWrite@V<lambda_1>@?1??__delayLoadHelper2@@YAP6A_JXZPEBUImgDelayDescr@@PEAP6A_JXZ@Z@@@YAXPEAX_KV<lambda_1>@?1??__delayLoadHelper2@@YAP6A_JXZPEBUImgDelayDescr@@PEAP6A_JXZ@Z@@Z 0000000180028288 f   Delayimp:delayhlp.obj
 0001:00027b00       $$000000                   0000000180028b00     LIBCMT:chkstk.obj
 0001:00027b60       ?<lambda_invoker_cdecl>@<lambda_2>@?1??__std_type_info_name@@YAPEBDPEAU__std_type_info_data@@PEAU__type_info_node@@@Z@SA@QEAX@Z 0000000180028b60 f   libvcruntime:std_type_info.obj
 0001:00027b70       $$000000                   0000000180028b70     LIBCMT:svml_ssinf4_dispatch.obj
 0001:00027be0       ?dllmain_crt_dispatch@@YAHQEAUHINSTANCE__@@KQEAX@Z 0000000180028be0 f   LIBCMT:dll_dllmain.obj
 0001:00027c30       ?dllmain_crt_process_attach@@YAHQEAUHINSTANCE__@@QEAX@Z 0000000180028c30 f   LIBCMT:dll_dllmain.obj
 0001:00027d48       ?dllmain_crt_process_detach@@YAH_N@Z 0000000180028d48 f   LIBCMT:dll_dllmain.obj
 0001:00027dc8       ?dllmain_dispatch@@YAHQEAUHINSTANCE__@@KQEAX@Z 0000000180028dc8 f   LIBCMT:dll_dllmain.obj
 0001:00028200       $$000000                   0000000180029200     LIBCMT:svml_ssinf4_sse2.obj
 0001:00028b40       $$000000                   0000000180029b40     LIBCMT:svml_ssinf4_sse4.obj
 0001:00029880       $$000000                   000000018002a880     LIBCMT:svml_s_sin_cout.obj
 0001:00029924       ?<lambda_invoker_cdecl>@<lambda_1>@?1??__std_type_info_name@@YAPEBDPEAU__std_type_info_data@@PEAU__type_info_node@@@Z@SA@_K@Z 000000018002a924 f   libvcruntime:std_type_info.obj
 0001:0002a620       ??1TrackRecursion@?1??getDecoratedName@UnDecorator@@CA?AVDName@@XZ@QEAA@XZ 000000018002b620 f   libvcruntime:undname.obj
 0001:000322e0       $$000000                   00000001800332e0     libvcruntime:notify.obj
 0001:00032300       $$000000                   0000000180033300     libvcruntime:notify.obj
 0001:00032310       $$000000                   0000000180033310     libvcruntime:notify.obj
 0001:00033270       ?try_get_function@@YAPEAXW4function_id@?A0x14174aea@@QEBDQEBW4module_id@2@2@Z 0000000180034270 f   libvcruntime:winapi_downlevel.obj
 0001:00033754       ??$BuildCatchObjectHelperInternal@V__FrameHandler3@@@@YAHPEAUEHExceptionRecord@@PEAXPEBU_s_HandlerType@@PEBU_s_CatchableType@@@Z 0000000180034754 f   libvcruntime:frame.obj
 0001:00033954       ??$BuildCatchObjectHelperInternal@V__FrameHandler4@@@@YAHPEAUEHExceptionRecord@@PEAXPEAUHandlerType4@FH4@@PEBU_s_CatchableType@@@Z 0000000180034954 f   libvcruntime:frame.obj
 0001:00033b58       ??$BuildCatchObjectInternal@V__FrameHandler3@@@@YAXPEAUEHExceptionRecord@@PEAXPEBU_s_HandlerType@@PEBU_s_CatchableType@@@Z 0000000180034b58 f   libvcruntime:frame.obj
 0001:00033c18       ??$BuildCatchObjectInternal@V__FrameHandler4@@@@YAXPEAUEHExceptionRecord@@PEAXPEAUHandlerType4@FH4@@PEBU_s_CatchableType@@@Z 0000000180034c18 f   libvcruntime:frame.obj
 0001:00033cdc       ??$CatchIt@V__FrameHandler3@@@@YAXPEAUEHExceptionRecord@@PEA_KPEAU_CONTEXT@@PEAU_xDISPATCHER_CONTEXT@@PEBU_s_FuncInfo@@PEBU_s_HandlerType@@PEBU_s_CatchableType@@PEBU_s_TryBlockMapEntry@@H1EE@Z 0000000180034cdc f   libvcruntime:frame.obj
 0001:00033db0       ??$CatchIt@V__FrameHandler4@@@@YAXPEAUEHExceptionRecord@@PEA_KPEAU_CONTEXT@@PEAU_xDISPATCHER_CONTEXT@@PEAUFuncInfo4@FH4@@PEAUHandlerType4@4@PEBU_s_CatchableType@@PEAUTryBlockMapEntry4@4@H1EE@Z 0000000180034db0 f   libvcruntime:frame.obj
 0001:00033e84       ??$FindHandler@V__FrameHandler3@@@@YAXPEAUEHExceptionRecord@@PEA_KPEAU_CONTEXT@@PEAU_xDISPATCHER_CONTEXT@@PEBU_s_FuncInfo@@EH1@Z 0000000180034e84 f   libvcruntime:frame.obj
 0001:00034354       ??$FindHandler@V__FrameHandler4@@@@YAXPEAUEHExceptionRecord@@PEA_KPEAU_CONTEXT@@PEAU_xDISPATCHER_CONTEXT@@PEAUFuncInfo4@FH4@@EH1@Z 0000000180035354 f   libvcruntime:frame.obj
 0001:00034858       ??$FindHandlerForForeignException@V__FrameHandler3@@@@YAXPEAUEHExceptionRecord@@PEA_KPEAU_CONTEXT@@PEAU_xDISPATCHER_CONTEXT@@PEBU_s_FuncInfo@@HH1@Z 0000000180035858 f   libvcruntime:frame.obj
 0001:00034ac8       ??$FindHandlerForForeignException@V__FrameHandler4@@@@YAXPEAUEHExceptionRecord@@PEA_KPEAU_CONTEXT@@PEAU_xDISPATCHER_CONTEXT@@PEAUFuncInfo4@FH4@@HH1@Z 0000000180035ac8 f   libvcruntime:frame.obj
 0001:00035d88       ?ExFilterRethrow@@YAHPEAU_EXCEPTION_POINTERS@@PEAUEHExceptionRecord@@PEAH@Z 0000000180036d88 f   libvcruntime:frame.obj
 0001:00035e0c       ?ExFilterRethrowFH4@@YAHPEAU_EXCEPTION_POINTERS@@PEAUEHExceptionRecord@@HPEAH@Z 0000000180036e0c f   libvcruntime:frame.obj
 0001:00036368       ?IsInExceptionSpec@@YAEPEAUEHExceptionRecord@@PEBU_s_ESTypeList@@@Z 0000000180037368 f   libvcruntime:frame.obj
 0001:00036458       ?Is_bad_exception_allowed@@YAEPEBU_s_ESTypeList@@@Z 0000000180037458 f   libvcruntime:frame.obj
 0001:00036770       $$000000                   0000000180037770     libvcruntime:handlers.obj
 0001:000367b0       $$000000                   00000001800377b0     libvcruntime:handlers.obj
 0001:000367e0       $$000000                   00000001800377e0     libvcruntime:handlers.obj
 0001:00036810       $$000000                   0000000180037810     libvcruntime:handlers.obj
 0001:000369c0       $$000000                   00000001800379c0     libucrt:strcmp.obj
 0001:00036e30       $$000000                   0000000180037e30     libucrt:cosf.obj
 0001:00037330       $$000000                   0000000180038330     libucrt:sinf.obj
 0001:00037ce8       ??$?RV<lambda_d80eeec6fff315bfe5c115232f3240e3>@@AEAV<lambda_6e4b09c48022b2350581041d5f6b0c4c>@@V<lambda_2358e3775559c9db80273638284d5e45>@@@?$__crt_seh_guarded_call@X@@QEAAX$$QEAV<lambda_d80eeec6fff315bfe5c115232f3240e3>@@AEAV<lambda_6e4b09c48022b2350581041d5f6b0c4c>@@$$QEAV<lambda_2358e3775559c9db80273638284d5e45>@@@Z 0000000180038ce8 f   libucrt:exit.obj
 0001:00037d20       ??R<lambda_6e4b09c48022b2350581041d5f6b0c4c>@@QEBA@XZ 0000000180038d20 f   libucrt:exit.obj
 0001:00037dec       ?common_exit@@YAXHW4_crt_exit_cleanup_mode@@W4_crt_exit_return_mode@@@Z 0000000180038dec f   libucrt:exit.obj
 0001:00037eb4       ?exit_or_terminate_process@@YAXI@Z 0000000180038eb4 f   libucrt:exit.obj
 0001:00037ee8       ?should_call_terminate_process@@YA_NXZ 0000000180038ee8 f   libucrt:exit.obj
 0001:00037f0c       ?try_cor_exit_process@@YAXI@Z 0000000180038f0c f   libucrt:exit.obj
 0001:00037fa8       ??$parse_command_line@D@@YAXPEADPEAPEAD0PEA_K2@Z 0000000180038fa8 f   libucrt:argv_parsing.obj
 0001:00038358       ??$common_initialize_environment_nolock@D@@YAHXZ 0000000180039358 f   libucrt:environment_initialization.obj
 0001:000383cc       ??$create_environment@D@@YAQEAPEADQEAD@Z 00000001800393cc f   libucrt:environment_initialization.obj
 0001:000384dc       ??$free_environment@D@@YAXQEAPEAD@Z 00000001800394dc f   libucrt:environment_initialization.obj
 0001:000384dc       ??$free_environment@_W@@YAXQEAPEA_W@Z 00000001800394dc f   libucrt:environment_initialization.obj
 0001:00038520       ??$uninitialize_environment_internal@D@@YAXAEAPEAPEAD@Z 0000000180039520 f   libucrt:environment_initialization.obj
 0001:0003853c       ??$uninitialize_environment_internal@_W@@YAXAEAPEAPEA_W@Z 000000018003953c f   libucrt:environment_initialization.obj
 0001:000385a4       ??$?RV<lambda_7777bce6b2f8c936911f934f8298dc43>@@AEAV<lambda_f03950bc5685219e0bcd2087efbe011e>@@V<lambda_3883c3dff614d5e0c5f61bb1ac94921c>@@@?$__crt_seh_guarded_call@H@@QEAAH$$QEAV<lambda_7777bce6b2f8c936911f934f8298dc43>@@AEAV<lambda_f03950bc5685219e0bcd2087efbe011e>@@$$QEAV<lambda_3883c3dff614d5e0c5f61bb1ac94921c>@@@Z 00000001800395a4 f   libucrt:onexit.obj
 0001:000385e0       ??R<lambda_f03950bc5685219e0bcd2087efbe011e>@@QEBA@XZ 00000001800395e0 f   libucrt:onexit.obj
 0001:0003876c       initialize_global_variables 000000018003976c f   libucrt:initialization.obj
 0001:00038780       initialize_c               0000000180039780 f   libucrt:initialization.obj
 0001:000387a4       initialize_environment     00000001800397a4 f   libucrt:initialization.obj
 0001:000387a4       initialize_global_state_isolation 00000001800397a4 f   libucrt:initialization.obj
 0001:000387a4       report_memory_leaks        00000001800397a4 f   libucrt:initialization.obj
 0001:000387a4       uninitialize_c             00000001800397a4 f   libucrt:initialization.obj
 0001:000387a4       uninitialize_global_state_isolation 00000001800397a4 f   libucrt:initialization.obj
 0001:000387a8       uninitialize_environment   00000001800397a8 f   libucrt:initialization.obj
 0001:000387b8       initialize_pointers        00000001800397b8 f   libucrt:initialization.obj
 0001:000387f8       uninitialize_vcruntime     00000001800397f8 f   libucrt:initialization.obj
 0001:00038800       uninitialize_allocated_memory 0000000180039800 f   libucrt:initialization.obj
 0001:00038840       uninitialize_allocated_io_buffers 0000000180039840 f   libucrt:initialization.obj
 0001:00038a08       ??$common_vsprintf@Vformat_validation_base@__crt_stdio_output@@D@@YAH_KQEAD0QEBDAEAV__crt_cached_ptd_host@@1@Z 0000000180039a08 f   libucrt:output.obj
 0001:0003b3f0       $$000000                   000000018003c3f0     libucrt:strncmp.obj
 0001:0003b584       _call_matherr              000000018003c584 f   libucrt:libm_error.obj
 0001:0003b5ec       _exception_enabled         000000018003c5ec f   libucrt:libm_error.obj
 0001:0003b930       $$000000                   000000018003c930     libucrt:remainder_piby2f_forasm.obj
 0001:0003ba80       $$000000                   000000018003ca80     libucrt:remainder_piby2_forfma3.obj
 0001:0003bcfc       _sincosf_special           000000018003ccfc f   libucrt:sincos_special.obj
 0001:0003be10       $$000000                   000000018003ce10     libucrt:remainder_piby2f_forc.obj
 0001:0003bfd8       ??$?RV<lambda_0ae27a3a962d80f24befdcbee591983d>@@AEAV<lambda_8d0ee55de4b1038c4002e0adecdf1839>@@V<lambda_dc504788e8f1664fe9b84e20bfb512f2>@@@?$__crt_seh_guarded_call@X@@QEAAX$$QEAV<lambda_0ae27a3a962d80f24befdcbee591983d>@@AEAV<lambda_8d0ee55de4b1038c4002e0adecdf1839>@@$$QEAV<lambda_dc504788e8f1664fe9b84e20bfb512f2>@@@Z 000000018003cfd8 f   libucrt:per_thread_data.obj
 0001:0003c018       ??$?RV<lambda_2d41944a1d46af3157314b8a01080d33>@@AEAV<lambda_8f455de75cd7d7f24b4096f044d8b9e6>@@V<lambda_aa500f224e6afead328df44964fe2772>@@@?$__crt_seh_guarded_call@X@@QEAAX$$QEAV<lambda_2d41944a1d46af3157314b8a01080d33>@@AEAV<lambda_8f455de75cd7d7f24b4096f044d8b9e6>@@$$QEAV<lambda_aa500f224e6afead328df44964fe2772>@@@Z 000000018003d018 f   libucrt:per_thread_data.obj
 0001:0003c058       ??$?RV<lambda_aa87e3671a710a21b5dc78c0bdf72e11>@@AEAV<lambda_92619d2358a28f41a33ba319515a20b9>@@V<lambda_6992ecaafeb10aed2b74cb1fae11a551>@@@?$__crt_seh_guarded_call@X@@QEAAX$$QEAV<lambda_aa87e3671a710a21b5dc78c0bdf72e11>@@AEAV<lambda_92619d2358a28f41a33ba319515a20b9>@@$$QEAV<lambda_6992ecaafeb10aed2b74cb1fae11a551>@@@Z 000000018003d058 f   libucrt:per_thread_data.obj
 0001:0003c0a0       ??$?RV<lambda_f2e299630e499de9f9a165e60fcd3db5>@@AEAV<lambda_2ae9d31cdba2644fcbeaf08da7c24588>@@V<lambda_40d01ff24d0e7b3814fdbdcee8eab3c7>@@@?$__crt_seh_guarded_call@X@@QEAAX$$QEAV<lambda_f2e299630e499de9f9a165e60fcd3db5>@@AEAV<lambda_2ae9d31cdba2644fcbeaf08da7c24588>@@$$QEAV<lambda_40d01ff24d0e7b3814fdbdcee8eab3c7>@@@Z 000000018003d0a0 f   libucrt:per_thread_data.obj
 0001:0003c100       ?construct_ptd_array@@YAXQEAU__acrt_ptd@@@Z 000000018003d100 f   libucrt:per_thread_data.obj
 0001:0003c1d0       ?destroy_fls@@YAXPEAX@Z    000000018003d1d0 f   libucrt:per_thread_data.obj
 0001:0003c1f0       ?destroy_ptd_array@@YAXQEAU__acrt_ptd@@@Z 000000018003d1f0 f   libucrt:per_thread_data.obj
 0001:0003c2e8       ?replace_current_thread_locale_nolock@@YAXQEAU__acrt_ptd@@QEAU__crt_locale_data@@@Z 000000018003d2e8 f   libucrt:per_thread_data.obj
 0001:0003cd68       ?<lambda_invoker_cdecl>@<lambda_a1ce4c8ae42411fd470c77163914f50e>@@CAHPEBX0@Z 000000018003dd68 f   libucrt:argv_wildcards.obj
 0001:0003d084       ??$common_expand_argv_wildcards@D@@YAHQEAPEADQEAPEAPEAD@Z 000000018003e084 f   libucrt:argv_wildcards.obj
 0001:0003d2c8       ??$copy_and_add_argument_to_buffer@D@@YAHQEBD0_KAEAV?$argument_list@D@?A0x5f5c8891@@@Z 000000018003e2c8 f   libucrt:argv_wildcards.obj
 0001:0003d44c       ??$expand_argument_wildcards@D@@YAHQEAD0AEAV?$argument_list@D@?A0x5f5c8891@@@Z 000000018003e44c f   libucrt:argv_wildcards.obj
 0001:0003da80       ??$?RV<lambda_efdfa57d1f175319df784efa44bb7b81>@@AEAV<lambda_5f0a4c1567f8adc6734073e5d1e1b35c>@@V<lambda_2e8a7d3640ea6ccb4c2413664c2db6fd>@@@?$__crt_seh_guarded_call@X@@QEAAX$$QEAV<lambda_efdfa57d1f175319df784efa44bb7b81>@@AEAV<lambda_5f0a4c1567f8adc6734073e5d1e1b35c>@@$$QEAV<lambda_2e8a7d3640ea6ccb4c2413664c2db6fd>@@@Z 000000018003ea80 f   libucrt:mbctype.obj
 0001:0003dc50       ?getSystemCP@@YAHH@Z       000000018003ec50 f   libucrt:mbctype.obj
 0001:0003dcd0       ?setSBCS@@YAXPEAU__crt_multibyte_data@@@Z 000000018003ecd0 f   libucrt:mbctype.obj
 0001:0003dd68       ?setSBUpLow@@YAXPEAU__crt_multibyte_data@@@Z 000000018003ed68 f   libucrt:mbctype.obj
 0001:0003df50       ?setmbcp_internal@@YAHH_NQEAU__acrt_ptd@@QEAPEAU__crt_multibyte_data@@@Z 000000018003ef50 f   libucrt:mbctype.obj
 0001:0003e1c0       ?update_thread_multibyte_data_internal@@YAPEAU__crt_multibyte_data@@QEAU__acrt_ptd@@QEAPEAU1@@Z 000000018003f1c0 f   libucrt:mbctype.obj
 0001:0003e5b4       ?x_ismbbtype_l@@YAHPEAU__crt_locale_pointers@@IHH@Z 000000018003f5b4 f   libucrt:ismbbyte.obj
 0001:0003e97c       ?try_get_function@@YAPEAXW4function_id@?A0x391cf84c@@QEBDQEBW4module_id@2@2@Z 000000018003f97c f   libucrt:winapi_thunks.obj
 0001:0003ee40       ?initialize_inherited_file_handles_nolock@@YAXXZ 000000018003fe40 f   libucrt:ioinit.obj
 0001:0003ef30       ?initialize_stdio_handles_nolock@@YAXXZ 000000018003ff30 f   libucrt:ioinit.obj
 0001:0003f210       ??$?RV<lambda_450d765d439847d4c735a33c368b5fc0>@@AEAV<lambda_44731a7d0e6d81c3e6aa82d741081786>@@V<lambda_601a2a7da3b7a96e9554ac7215c4b07c>@@@?$__crt_seh_guarded_call@P6AXH@Z@@QEAAP6AXH@Z$$QEAV<lambda_450d765d439847d4c735a33c368b5fc0>@@AEAV<lambda_44731a7d0e6d81c3e6aa82d741081786>@@$$QEAV<lambda_601a2a7da3b7a96e9554ac7215c4b07c>@@@Z 0000000180040210 f   libucrt:signal.obj
 0001:0003f588       ??$?RV<lambda_842d9ff0dc9ef11c61343bbaebe7f885>@@AEAV<lambda_c5860995281e5c4ce005b3de8f5874ee>@@V<lambda_d90129c13df834fdcbf8d2b88dafcf2d>@@@?$__crt_seh_guarded_call@X@@QEAAX$$QEAV<lambda_842d9ff0dc9ef11c61343bbaebe7f885>@@AEAV<lambda_c5860995281e5c4ce005b3de8f5874ee>@@$$QEAV<lambda_d90129c13df834fdcbf8d2b88dafcf2d>@@@Z 0000000180040588 f   libucrt:fflush.obj
 0001:0003f624       ??$?RV<lambda_886d6c58226a84441f68b9f2b8217b83>@@AEAV<lambda_ab61a845afdef5b7c387490eaf3616ee>@@V<lambda_f7f22ab5edc0698d5f6905b0d3f44752>@@@?$__crt_seh_guarded_call@X@@QEAAX$$QEAV<lambda_886d6c58226a84441f68b9f2b8217b83>@@AEAV<lambda_ab61a845afdef5b7c387490eaf3616ee>@@$$QEAV<lambda_f7f22ab5edc0698d5f6905b0d3f44752>@@@Z 0000000180040624 f   libucrt:fflush.obj
 0001:0003f708       ?common_flush_all@@YAH_N@Z 0000000180040708 f   libucrt:fflush.obj
 0001:0003fec4       ?fp_format_a@@YAHQEBNPEAD_KQEAD2H_NIW4__acrt_rounding_mode@@AEAV__crt_cached_ptd_host@@@Z 0000000180040ec4 f   libucrt:cvt.obj
 0001:0004025c       ?fp_format_e@@YAHQEBNQEAD_K12H_NIW4__acrt_rounding_mode@@AEAV__crt_cached_ptd_host@@@Z 000000018004125c f   libucrt:cvt.obj
 0001:00040358       ?fp_format_e_internal@@YAHQEAD_KH_NIQEAU_strflt@@2AEAV__crt_cached_ptd_host@@@Z 0000000180041358 f   libucrt:cvt.obj
 0001:0004053c       ?fp_format_f@@YAHQEBNQEAD_K12HW4__acrt_rounding_mode@@AEAV__crt_cached_ptd_host@@@Z 000000018004153c f   libucrt:cvt.obj
 0001:00040614       ?fp_format_f_internal@@YAHQEAD_KHQEAU_strflt@@_NAEAV__crt_cached_ptd_host@@@Z 0000000180041614 f   libucrt:cvt.obj
 0001:0004076c       ?fp_format_g@@YAHQEBNQEAD_K12H_NIW4__acrt_rounding_mode@@AEAV__crt_cached_ptd_host@@@Z 000000018004176c f   libucrt:cvt.obj
 0001:000408c0       ?should_round_up@@YA_NQEBN_KFW4__acrt_rounding_mode@@@Z 00000001800418c0 f   libucrt:cvt.obj
 0001:00041028       ??$?RV<lambda_410d79af7f07d98d83a3f525b3859a53>@@AEAV<lambda_3e16ef9562a7dcce91392c22ab16ea36>@@V<lambda_38119f0e861e05405d8a144b9b982f0a>@@@?$__crt_seh_guarded_call@X@@QEAAX$$QEAV<lambda_410d79af7f07d98d83a3f525b3859a53>@@AEAV<lambda_3e16ef9562a7dcce91392c22ab16ea36>@@$$QEAV<lambda_38119f0e861e05405d8a144b9b982f0a>@@@Z 0000000180042028 f   libucrt:wsetlocale.obj
 0001:00041210       $$000000                   0000000180042210     libucrt:fpsr.obj
 0001:00041f10       fallbackMethod             0000000180042f10 f   libucrt:strpbrk.obj
 0001:000422bc       $LN79                      00000001800432bc     libucrt:strpbrk.obj
 0001:000422f8       $LN78                      00000001800432f8     libucrt:strpbrk.obj
 0001:00042338       $LN77                      0000000180043338     libucrt:strpbrk.obj
 0001:000425a4       ?__acrt_LCMapStringA_stat@@YAHPEAU__crt_locale_pointers@@PEB_WKPEBDHPEADHHH@Z 00000001800435a4 f   libucrt:lcmapstringa.obj
 0001:00042970       ?initialize_multibyte@@YAHXZ 0000000180043970 f   libucrt:multibyte_initializer.obj
 0001:00042e08       ??$?RV<lambda_a37b2b86f63e897a80ea819b0eb08c01>@@AEAV<lambda_38ce7e780aa69e748d6df282ebc68efe>@@V<lambda_99fb1378e971ab6e7edea83e3a7a83a2>@@@?$__crt_seh_guarded_call@H@@QEAAH$$QEAV<lambda_a37b2b86f63e897a80ea819b0eb08c01>@@AEAV<lambda_38ce7e780aa69e748d6df282ebc68efe>@@$$QEAV<lambda_99fb1378e971ab6e7edea83e3a7a83a2>@@@Z 0000000180043e08 f   libucrt:commit.obj
 0001:00042f28       ?write_double_translated_ansi_nolock@@YA?AUwrite_result@?A0x17268360@@HQEBDIAEAV__crt_cached_ptd_host@@@Z 0000000180043f28 f   libucrt:write.obj
 0001:000433a0       ?write_text_ansi_nolock@@YA?AUwrite_result@?A0x17268360@@HQEBDI@Z 00000001800443a0 f   libucrt:write.obj
 0001:000434a4       ?write_text_utf16le_nolock@@YA?AUwrite_result@?A0x17268360@@HQEBDI@Z 00000001800444a4 f   libucrt:write.obj
 0001:000435c0       ?write_text_utf8_nolock@@YA?AUwrite_result@?A0x17268360@@HQEBDI@Z 00000001800445c0 f   libucrt:write.obj
 0001:00043cb0       ?should_round_up@@YA_NQEBD0HW4__acrt_has_trailing_digits@@W4__acrt_rounding_mode@@@Z 0000000180044cb0 f   libucrt:_fptostr.obj
 0001:000455bc       memcpy_s                   00000001800465bc f   libucrt:cfout.obj
 0001:00045a5c       ?free_crt_array_internal@@YAXQEAPEBX_K@Z 0000000180046a5c f   libucrt:inittime.obj
 0001:00045c04       ??$common_lseek_nolock@_J@@YA_JH_JHAEAV__crt_cached_ptd_host@@@Z 0000000180046c04 f   libucrt:lseek.obj
 0001:00045cf4       ?_fclose_internal@@YAHQEAU_iobuf@@AEAV__crt_cached_ptd_host@@@Z 0000000180046cf4 f   libucrt:fclose.obj
 0001:00045d70       ?_fclose_nolock_internal@@YAHQEAU_iobuf@@AEAV__crt_cached_ptd_host@@@Z 0000000180046d70 f   libucrt:fclose.obj
 0001:000460a0       $$000000                   00000001800470a0     libucrt:log10.obj
 0001:00046c68       ??$?RV<lambda_ad8af0d99a0adf03d037d7dffe354bb5>@@AEAV<lambda_c9ba49e555ba839a7b07aa3fbecb7617>@@V<lambda_2f1ebd5d68526518146ae959c9e734c8>@@@?$__crt_seh_guarded_call@H@@QEAAH$$QEAV<lambda_ad8af0d99a0adf03d037d7dffe354bb5>@@AEAV<lambda_c9ba49e555ba839a7b07aa3fbecb7617>@@$$QEAV<lambda_2f1ebd5d68526518146ae959c9e734c8>@@@Z 0000000180047c68 f   libucrt:close.obj
 0001:00046f04       common_control87           0000000180047f04 f   libucrt:ieee.obj
 0001:000471c0       _log_special_common        00000001800481c0 f   libucrt:log_special.obj
 0001:000473b0       $$000000                   00000001800483b0     LIBCMT:amdsecgs.obj
 0001:00047624       capture_current_context    0000000180048624 f   LIBCMT:gs_report.obj
 0001:00047694       capture_previous_context   0000000180048694 f   LIBCMT:gs_report.obj
 0001:00047910       $$000000                   0000000180048910     LIBCMT:guard_dispatch.obj
 0001:00047930       $$000000                   0000000180048930     LIBCMT:guard_xfg_dispatch.obj
 0001:00047970       $$000000                   0000000180048970     libvcruntime:memset.obj
 0001:00047980       $$000000                   0000000180048980     libvcruntime:memset.obj
 0001:000479c1       SetSmall15                 00000001800489c1     libvcruntime:memset.obj
 0001:000479c5       SetSmall7                  00000001800489c5     libvcruntime:memset.obj
 0001:000479c9       SetSmall3                  00000001800489c9     libvcruntime:memset.obj
 0001:000479ce       SetSmall1                  00000001800489ce     libvcruntime:memset.obj
 0001:000479d2       SetSmall0                  00000001800489d2     libvcruntime:memset.obj
 0001:000479d3       SetSmall14                 00000001800489d3     libvcruntime:memset.obj
 0001:000479d7       SetSmall6                  00000001800489d7     libvcruntime:memset.obj
 0001:000479db       SetSmall2                  00000001800489db     libvcruntime:memset.obj
 0001:000479e0       MoveSmall0                 00000001800489e0     libvcruntime:memset.obj
 0001:000479f0       SetSmall13                 00000001800489f0     libvcruntime:memset.obj
 0001:000479f4       SetSmall5                  00000001800489f4     libvcruntime:memset.obj
 0001:00047a00       SetSmall12                 0000000180048a00     libvcruntime:memset.obj
 0001:00047a04       SetSmall4                  0000000180048a04     libvcruntime:memset.obj
 0001:00047a09       SetSmall11                 0000000180048a09     libvcruntime:memset.obj
 0001:00047a17       SetSmall9                  0000000180048a17     libvcruntime:memset.obj
 0001:00047a20       SetSmall10                 0000000180048a20     libvcruntime:memset.obj
 0001:00047a2a       SetSmall8                  0000000180048a2a     libvcruntime:memset.obj
 0001:00047a30       SetAbove15                 0000000180048a30     libvcruntime:memset.obj
 0001:00047a46       SetAbove32                 0000000180048a46     libvcruntime:memset.obj
 0001:00047a72       SetWithYMM                 0000000180048a72     libvcruntime:memset.obj
 0001:00047ab0       YmmLoop                    0000000180048ab0     libvcruntime:memset.obj
 0001:00047afa       SetUpTo256WithYMM          0000000180048afa     libvcruntime:memset.obj
 0001:00047b17       Set8YmmBlocks              0000000180048b17     libvcruntime:memset.obj
 0001:00047b21       Set7YmmBlocks              0000000180048b21     libvcruntime:memset.obj
 0001:00047b2b       Set6YmmBlocks              0000000180048b2b     libvcruntime:memset.obj
 0001:00047b35       Set5YmmBlocks              0000000180048b35     libvcruntime:memset.obj
 0001:00047b3f       Set4YmmBlocks              0000000180048b3f     libvcruntime:memset.obj
 0001:00047b46       Set3YmmBlocks              0000000180048b46     libvcruntime:memset.obj
 0001:00047b4d       Set2YmmBlocks              0000000180048b4d     libvcruntime:memset.obj
 0001:00047b54       Set1YmmBlocks              0000000180048b54     libvcruntime:memset.obj
 0001:00047b5b       Set0YmmBlocks              0000000180048b5b     libvcruntime:memset.obj
 0001:00047b63       SetWithYMMNT               0000000180048b63     libvcruntime:memset.obj
 0001:00047b70       YmmLoopNT                  0000000180048b70     libvcruntime:memset.obj
 0001:00047bd7       Set8YmmBlocksNT            0000000180048bd7     libvcruntime:memset.obj
 0001:00047be1       Set7YmmBlocksNT            0000000180048be1     libvcruntime:memset.obj
 0001:00047beb       Set6YmmBlocksNT            0000000180048beb     libvcruntime:memset.obj
 0001:00047bf5       Set5YmmBlocksNT            0000000180048bf5     libvcruntime:memset.obj
 0001:00047bff       Set4YmmBlocksNT            0000000180048bff     libvcruntime:memset.obj
 0001:00047c06       Set3YmmBlocksNT            0000000180048c06     libvcruntime:memset.obj
 0001:00047c0d       Set2YmmBlocksNT            0000000180048c0d     libvcruntime:memset.obj
 0001:00047c14       Set1YmmBlocksNT            0000000180048c14     libvcruntime:memset.obj
 0001:00047c1b       Set0YmmBlocksNT            0000000180048c1b     libvcruntime:memset.obj
 0001:00047c30       NoAVX                      0000000180048c30     libvcruntime:memset.obj
 0001:00047c46       SetWithXMM                 0000000180048c46     libvcruntime:memset.obj
 0001:00047c70       XmmLoop                    0000000180048c70     libvcruntime:memset.obj
 0001:00047cae       SetUpTo128WithXMM          0000000180048cae     libvcruntime:memset.obj
 0001:00047ccb       Set8XmmBlocks              0000000180048ccb     libvcruntime:memset.obj
 0001:00047cd2       Set7XmmBlocks              0000000180048cd2     libvcruntime:memset.obj
 0001:00047cd9       Set6XmmBlocks              0000000180048cd9     libvcruntime:memset.obj
 0001:00047ce0       Set5XmmBlocks              0000000180048ce0     libvcruntime:memset.obj
 0001:00047ce7       Set4XmmBlocks              0000000180048ce7     libvcruntime:memset.obj
 0001:00047cee       Set3XmmBlocks              0000000180048cee     libvcruntime:memset.obj
 0001:00047cf5       Set2XmmBlocks              0000000180048cf5     libvcruntime:memset.obj
 0001:00047cfc       Set1XmmBlocks              0000000180048cfc     libvcruntime:memset.obj
 0001:00047d03       Set0XmmBlocks              0000000180048d03     libvcruntime:memset.obj
 0001:00047d30       $$000000                   0000000180048d30     libvcruntime:memcpy.obj
 0001:00047d40       $$000000                   0000000180048d40     libvcruntime:memcpy.obj
 0001:00047d6e       MoveSmall0                 0000000180048d6e     libvcruntime:memcpy.obj
 0001:00047d70       MoveSmall15                0000000180048d70     libvcruntime:memcpy.obj
 0001:00047d90       MoveSmall11                0000000180048d90     libvcruntime:memcpy.obj
 0001:00047da8       MoveSmall2                 0000000180048da8     libvcruntime:memcpy.obj
 0001:00047db0       MoveSmall7                 0000000180048db0     libvcruntime:memcpy.obj
 0001:00047dc8       MoveSmall14                0000000180048dc8     libvcruntime:memcpy.obj
 0001:00047ddf       MoveSmall3                 0000000180048ddf     libvcruntime:memcpy.obj
 0001:00047df0       MoveSmall13                0000000180048df0     libvcruntime:memcpy.obj
 0001:00047e06       MoveSmall10                0000000180048e06     libvcruntime:memcpy.obj
 0001:00047e15       MoveSmall9                 0000000180048e15     libvcruntime:memcpy.obj
 0001:00047e23       MoveSmall12                0000000180048e23     libvcruntime:memcpy.obj
 0001:00047e30       MoveSmall6                 0000000180048e30     libvcruntime:memcpy.obj
 0001:00047e3f       MoveSmall5                 0000000180048e3f     libvcruntime:memcpy.obj
 0001:00047e4d       MoveSmall8                 0000000180048e4d     libvcruntime:memcpy.obj
 0001:00047e54       MoveSmall1                 0000000180048e54     libvcruntime:memcpy.obj
 0001:00047e5a       MoveSmall4                 0000000180048e5a     libvcruntime:memcpy.obj
 0001:00047e60       MoveAbove15                0000000180048e60     libvcruntime:memcpy.obj
 0001:00047e7d       MoveAbove32                0000000180048e7d     libvcruntime:memcpy.obj
 0001:00047ebd       MoveWithYMM                0000000180048ebd     libvcruntime:memcpy.obj
 0001:00047f10       YmmLoop                    0000000180048f10     libvcruntime:memcpy.obj
 0001:00047f98       MovUpTo256WithYMM          0000000180048f98     libvcruntime:memcpy.obj
 0001:00047fb5       Mov8YmmBlocks              0000000180048fb5     libvcruntime:memcpy.obj
 0001:00047fc9       Mov7YmmBlocks              0000000180048fc9     libvcruntime:memcpy.obj
 0001:00047fdd       Mov6YmmBlocks              0000000180048fdd     libvcruntime:memcpy.obj
 0001:00047ff1       Mov5YmmBlocks              0000000180048ff1     libvcruntime:memcpy.obj
 0001:00048005       Mov4YmmBlocks              0000000180049005     libvcruntime:memcpy.obj
 0001:00048013       Mov3YmmBlocks              0000000180049013     libvcruntime:memcpy.obj
 0001:00048021       Mov2YmmBlocks              0000000180049021     libvcruntime:memcpy.obj
 0001:0004802f       Mov1YmmBlocks              000000018004902f     libvcruntime:memcpy.obj
 0001:00048036       Mov0YmmBlocks              0000000180049036     libvcruntime:memcpy.obj
 0001:00048040       YmmLoopNT                  0000000180049040     libvcruntime:memcpy.obj
 0001:000480e5       Mov8YmmBlocksNT            00000001800490e5     libvcruntime:memcpy.obj
 0001:000480f9       Mov7YmmBlocksNT            00000001800490f9     libvcruntime:memcpy.obj
 0001:0004810d       Mov6YmmBlocksNT            000000018004910d     libvcruntime:memcpy.obj
 0001:00048121       Mov5YmmBlocksNT            0000000180049121     libvcruntime:memcpy.obj
 0001:00048135       Mov4YmmBlocksNT            0000000180049135     libvcruntime:memcpy.obj
 0001:00048143       Mov3YmmBlocksNT            0000000180049143     libvcruntime:memcpy.obj
 0001:00048151       Mov2YmmBlocksNT            0000000180049151     libvcruntime:memcpy.obj
 0001:0004815f       Mov1YmmBlocksNT            000000018004915f     libvcruntime:memcpy.obj
 0001:00048166       Mov0YmmBlocksNT            0000000180049166     libvcruntime:memcpy.obj
 0001:00048180       NoAVX                      0000000180049180     libvcruntime:memcpy.obj
 0001:00048196       MoveWithXMM                0000000180049196     libvcruntime:memcpy.obj
 0001:000481d0       XmmLoop                    00000001800491d0     libvcruntime:memcpy.obj
 0001:0004823c       MovUpTo128WithXMM          000000018004923c     libvcruntime:memcpy.obj
 0001:00048259       Mov8XmmBlocks              0000000180049259     libvcruntime:memcpy.obj
 0001:00048267       Mov7XmmBlocks              0000000180049267     libvcruntime:memcpy.obj
 0001:00048275       Mov6XmmBlocks              0000000180049275     libvcruntime:memcpy.obj
 0001:00048283       Mov5XmmBlocks              0000000180049283     libvcruntime:memcpy.obj
 0001:00048291       Mov4XmmBlocks              0000000180049291     libvcruntime:memcpy.obj
 0001:0004829f       Mov3XmmBlocks              000000018004929f     libvcruntime:memcpy.obj
 0001:000482ad       Mov2XmmBlocks              00000001800492ad     libvcruntime:memcpy.obj
 0001:000482bb       Mov1XmmBlocks              00000001800492bb     libvcruntime:memcpy.obj
 0001:000482c2       Mov0XmmBlocks              00000001800492c2     libvcruntime:memcpy.obj
 0001:000482d0       CopyDown                   00000001800492d0     libvcruntime:memcpy.obj
 0001:000482eb       XmmMovAlign                00000001800492eb     libvcruntime:memcpy.obj
 0001:00048303       XmmMovLargeTest            0000000180049303     libvcruntime:memcpy.obj
 0001:00048320       XmmMovLargeOuter           0000000180049320     libvcruntime:memcpy.obj
 0001:00048327       XmmMovLargeInner           0000000180049327     libvcruntime:memcpy.obj
 0001:0004837d       XmmMovSmallTest            000000018004937d     libvcruntime:memcpy.obj
 0001:00048390       XmmMovSmallLoop            0000000180049390     libvcruntime:memcpy.obj
 0001:000483a0       XmmMovTrailing             00000001800493a0     libvcruntime:memcpy.obj
 0001:000483a9       XmmMovReturn               00000001800493a9     libvcruntime:memcpy.obj
 0001:000483c0       ?fin$0@?0??dllmain_crt_process_attach@@YAHQEAUHINSTANCE__@@QEAX@Z@4HA 00000001800493c0 f   LIBCMT:dll_dllmain.obj
 0001:000483d7       ?fin$0@?0??dllmain_crt_process_detach@@YAH_N@Z@4HA 00000001800493d7 f   LIBCMT:dll_dllmain.obj
 0001:000483f0       ?fin$1@?0??dllmain_crt_process_detach@@YAH_N@Z@4HA 00000001800493f0 f   LIBCMT:dll_dllmain.obj
 0001:00048404       ?filt$0@?0??dllmain_dispatch@@YAHQEAUHINSTANCE__@@KQEAX@Z@4HA 0000000180049404 f   LIBCMT:dll_dllmain.obj
 0001:0004843a       __scrt_is_nonwritable_in_current_image$filt$0 000000018004943a f   LIBCMT:utility.obj
 0001:00048452       __DestructExceptionObject$filt$0 0000000180049452 f   libvcruntime:ehhelpers.obj
 0001:000484e8       ?dtor$0@?0??getDecoratedName@UnDecorator@@CA?AVDName@@XZ@4HA 00000001800494e8 f   libvcruntime:undname.obj
 0001:000484f4       __unDNameEx$fin$0          00000001800494f4 f   libvcruntime:undname.obj
 0001:0004850a       ?filt$0@?0???$_CallSETranslator@V__FrameHandler3@@@@YAHPEAUEHExceptionRecord@@PEA_KPEAU_CONTEXT@@PEAU_xDISPATCHER_CONTEXT@@PEBU_s_FuncInfo@@K1H@Z@4HA 000000018004950a f   libvcruntime:risctrnsctrl.obj
 0001:000485b2       ?filt$0@?0???$_CallSETranslator@V__FrameHandler4@@@@YAHPEAUEHExceptionRecord@@PEA_KPEAU_CONTEXT@@PEAU_xDISPATCHER_CONTEXT@@PEAUFuncInfo4@FH4@@K1H@Z@4HA 00000001800495b2 f   libvcruntime:risctrnsctrl.obj
 0001:00048668       ?fin$0@?0???$__InternalCxxFrameHandlerWrapper@V__FrameHandler4@@@@YA?AW4_EXCEPTION_DISPOSITION@@PEAUEHExceptionRecord@@PEA_KPEAU_CONTEXT@@PEAU_xDISPATCHER_CONTEXT@@PEAUFuncInfo4@FH4@@H1E@Z@4HA 0000000180049668 f   libvcruntime:frame.obj
 0001:00048684       ?filt$0@?0??CxxCallCatchBlock@__FrameHandler3@@SAPEAXPEAU_EXCEPTION_RECORD@@@Z@4HA 0000000180049684 f   libvcruntime:frame.obj
 0001:000486a9       ?fin$1@?0??CxxCallCatchBlock@__FrameHandler3@@SAPEAXPEAU_EXCEPTION_RECORD@@@Z@4HA 00000001800496a9 f   libvcruntime:frame.obj
 0001:0004872f       ?filt$0@?0??CxxCallCatchBlock@__FrameHandler4@@SAPEAXPEAU_EXCEPTION_RECORD@@@Z@4HA 000000018004972f f   libvcruntime:frame.obj
 0001:0004875e       ?fin$1@?0??CxxCallCatchBlock@__FrameHandler4@@SAPEAXPEAU_EXCEPTION_RECORD@@@Z@4HA 000000018004975e f   libvcruntime:frame.obj
 0001:000487ef       ?filt$0@?0??FrameUnwindToState@__FrameHandler3@@SAXPEA_KPEAU_xDISPATCHER_CONTEXT@@PEBU_s_FuncInfo@@H@Z@4HA 00000001800497ef f   libvcruntime:frame.obj
 0001:00048805       ?fin$1@?0??FrameUnwindToState@__FrameHandler3@@SAXPEA_KPEAU_xDISPATCHER_CONTEXT@@PEBU_s_FuncInfo@@H@Z@4HA 0000000180049805 f   libvcruntime:frame.obj
 0001:00048828       ?filt$0@?0??FrameUnwindToState@__FrameHandler4@@SAXPEA_KPEAU_xDISPATCHER_CONTEXT@@PEAUFuncInfo4@FH4@@H@Z@4HA 0000000180049828 f   libvcruntime:frame.obj
 0001:0004883e       ?fin$1@?0??FrameUnwindToState@__FrameHandler4@@SAXPEA_KPEAU_xDISPATCHER_CONTEXT@@PEAUFuncInfo4@FH4@@H@Z@4HA 000000018004983e f   libvcruntime:frame.obj
 0001:00048861       ?fin$0@?0???$?RV<lambda_0ae27a3a962d80f24befdcbee591983d>@@AEAV<lambda_8d0ee55de4b1038c4002e0adecdf1839>@@V<lambda_dc504788e8f1664fe9b84e20bfb512f2>@@@?$__crt_seh_guarded_call@X@@QEAAX$$QEAV<lambda_0ae27a3a962d80f24befdcbee591983d>@@AEAV<lambda_8d0ee55de4b1038c4002e0adecdf1839>@@$$QEAV<lambda_dc504788e8f1664fe9b84e20bfb512f2>@@@Z@4HA 0000000180049861 f   libucrt:per_thread_data.obj
 0001:00048861       ?fin$0@?0???$?RV<lambda_2d41944a1d46af3157314b8a01080d33>@@AEAV<lambda_8f455de75cd7d7f24b4096f044d8b9e6>@@V<lambda_aa500f224e6afead328df44964fe2772>@@@?$__crt_seh_guarded_call@X@@QEAAX$$QEAV<lambda_2d41944a1d46af3157314b8a01080d33>@@AEAV<lambda_8f455de75cd7d7f24b4096f044d8b9e6>@@$$QEAV<lambda_aa500f224e6afead328df44964fe2772>@@@Z@4HA 0000000180049861 f   libucrt:per_thread_data.obj
 0001:00048861       ?fin$0@?0???$?RV<lambda_aa87e3671a710a21b5dc78c0bdf72e11>@@AEAV<lambda_92619d2358a28f41a33ba319515a20b9>@@V<lambda_6992ecaafeb10aed2b74cb1fae11a551>@@@?$__crt_seh_guarded_call@X@@QEAAX$$QEAV<lambda_aa87e3671a710a21b5dc78c0bdf72e11>@@AEAV<lambda_92619d2358a28f41a33ba319515a20b9>@@$$QEAV<lambda_6992ecaafeb10aed2b74cb1fae11a551>@@@Z@4HA 0000000180049861 f   libucrt:per_thread_data.obj
 0001:00048861       ?fin$0@?0???$?RV<lambda_f2e299630e499de9f9a165e60fcd3db5>@@AEAV<lambda_2ae9d31cdba2644fcbeaf08da7c24588>@@V<lambda_40d01ff24d0e7b3814fdbdcee8eab3c7>@@@?$__crt_seh_guarded_call@X@@QEAAX$$QEAV<lambda_f2e299630e499de9f9a165e60fcd3db5>@@AEAV<lambda_2ae9d31cdba2644fcbeaf08da7c24588>@@$$QEAV<lambda_40d01ff24d0e7b3814fdbdcee8eab3c7>@@@Z@4HA 0000000180049861 f   libucrt:per_thread_data.obj
 0001:00048861       ?fin$0@?0???$?RV<lambda_450d765d439847d4c735a33c368b5fc0>@@AEAV<lambda_44731a7d0e6d81c3e6aa82d741081786>@@V<lambda_601a2a7da3b7a96e9554ac7215c4b07c>@@@?$__crt_seh_guarded_call@P6AXH@Z@@QEAAP6AXH@Z$$QEAV<lambda_450d765d439847d4c735a33c368b5fc0>@@AEAV<lambda_44731a7d0e6d81c3e6aa82d741081786>@@$$QEAV<lambda_601a2a7da3b7a96e9554ac7215c4b07c>@@@Z@4HA 0000000180049861 f   libucrt:signal.obj
 0001:00048861       ?fin$0@?0???$?RV<lambda_d80eeec6fff315bfe5c115232f3240e3>@@AEAV<lambda_6e4b09c48022b2350581041d5f6b0c4c>@@V<lambda_2358e3775559c9db80273638284d5e45>@@@?$__crt_seh_guarded_call@X@@QEAAX$$QEAV<lambda_d80eeec6fff315bfe5c115232f3240e3>@@AEAV<lambda_6e4b09c48022b2350581041d5f6b0c4c>@@$$QEAV<lambda_2358e3775559c9db80273638284d5e45>@@@Z@4HA 0000000180049861 f   libucrt:exit.obj
 0001:00048861       ?fin$0@?0???$?RV<lambda_7777bce6b2f8c936911f934f8298dc43>@@AEAV<lambda_f03950bc5685219e0bcd2087efbe011e>@@V<lambda_3883c3dff614d5e0c5f61bb1ac94921c>@@@?$__crt_seh_guarded_call@H@@QEAAH$$QEAV<lambda_7777bce6b2f8c936911f934f8298dc43>@@AEAV<lambda_f03950bc5685219e0bcd2087efbe011e>@@$$QEAV<lambda_3883c3dff614d5e0c5f61bb1ac94921c>@@@Z@4HA 0000000180049861 f   libucrt:onexit.obj
 0001:0004887b       ?filt$0@?0???R<lambda_6e4b09c48022b2350581041d5f6b0c4c>@@QEBA@XZ@4HA 000000018004987b f   libucrt:exit.obj
 0001:000488a8       _ctrlfp$filt$0             00000001800498a8 f   libucrt:fpctrl.obj
 0001:000488a8       common_control87$filt$0    00000001800498a8 f   libucrt:ieee.obj
 0001:000488d4       ?fin$0@?0???$?RV<lambda_efdfa57d1f175319df784efa44bb7b81>@@AEAV<lambda_5f0a4c1567f8adc6734073e5d1e1b35c>@@V<lambda_2e8a7d3640ea6ccb4c2413664c2db6fd>@@@?$__crt_seh_guarded_call@X@@QEAAX$$QEAV<lambda_efdfa57d1f175319df784efa44bb7b81>@@AEAV<lambda_5f0a4c1567f8adc6734073e5d1e1b35c>@@$$QEAV<lambda_2e8a7d3640ea6ccb4c2413664c2db6fd>@@@Z@4HA 00000001800498d4 f   libucrt:mbctype.obj
 0001:000488ee       ?fin$0@?0??update_thread_multibyte_data_internal@@YAPEAU__crt_multibyte_data@@QEAU__acrt_ptd@@QEAPEAU1@@Z@4HA 00000001800498ee f   libucrt:mbctype.obj
 0001:00048907       __acrt_initialize_lowio$fin$0 0000000180049907 f   libucrt:ioinit.obj
 0001:00048907       __acrt_lowio_ensure_fh_exists$fin$0 0000000180049907 f   libucrt:osfinfo.obj
 0001:00048920       _query_new_handler$fin$0   0000000180049920 f   libucrt:new_handler.obj
 0001:00048936       raise$fin$0                0000000180049936 f   libucrt:signal.obj
 0001:00048957       ?fin$0@?0???$?RV<lambda_842d9ff0dc9ef11c61343bbaebe7f885>@@AEAV<lambda_c5860995281e5c4ce005b3de8f5874ee>@@V<lambda_d90129c13df834fdcbf8d2b88dafcf2d>@@@?$__crt_seh_guarded_call@X@@QEAAX$$QEAV<lambda_842d9ff0dc9ef11c61343bbaebe7f885>@@AEAV<lambda_c5860995281e5c4ce005b3de8f5874ee>@@$$QEAV<lambda_d90129c13df834fdcbf8d2b88dafcf2d>@@@Z@4HA 0000000180049957 f   libucrt:fflush.obj
 0001:00048972       ?fin$0@?0???$?RV<lambda_886d6c58226a84441f68b9f2b8217b83>@@AEAV<lambda_ab61a845afdef5b7c387490eaf3616ee>@@V<lambda_f7f22ab5edc0698d5f6905b0d3f44752>@@@?$__crt_seh_guarded_call@X@@QEAAX$$QEAV<lambda_886d6c58226a84441f68b9f2b8217b83>@@AEAV<lambda_ab61a845afdef5b7c387490eaf3616ee>@@$$QEAV<lambda_f7f22ab5edc0698d5f6905b0d3f44752>@@@Z@4HA 0000000180049972 f   libucrt:fflush.obj
 0001:0004898f       ?fin$0@?0???$?RV<lambda_410d79af7f07d98d83a3f525b3859a53>@@AEAV<lambda_3e16ef9562a7dcce91392c22ab16ea36>@@V<lambda_38119f0e861e05405d8a144b9b982f0a>@@@?$__crt_seh_guarded_call@X@@QEAAX$$QEAV<lambda_410d79af7f07d98d83a3f525b3859a53>@@AEAV<lambda_3e16ef9562a7dcce91392c22ab16ea36>@@$$QEAV<lambda_38119f0e861e05405d8a144b9b982f0a>@@@Z@4HA 000000018004998f f   libucrt:wsetlocale.obj
 0001:000489a9       __acrt_update_thread_locale_data$fin$0 00000001800499a9 f   libucrt:locale_refcounting.obj
 0001:000489c2       ?fin$0@?0???$?RV<lambda_ad8af0d99a0adf03d037d7dffe354bb5>@@AEAV<lambda_c9ba49e555ba839a7b07aa3fbecb7617>@@V<lambda_2f1ebd5d68526518146ae959c9e734c8>@@@?$__crt_seh_guarded_call@H@@QEAAH$$QEAV<lambda_ad8af0d99a0adf03d037d7dffe354bb5>@@AEAV<lambda_c9ba49e555ba839a7b07aa3fbecb7617>@@$$QEAV<lambda_2f1ebd5d68526518146ae959c9e734c8>@@@Z@4HA 00000001800499c2 f   libucrt:close.obj
 0001:000489c2       ?fin$0@?0???$?RV<lambda_a37b2b86f63e897a80ea819b0eb08c01>@@AEAV<lambda_38ce7e780aa69e748d6df282ebc68efe>@@V<lambda_99fb1378e971ab6e7edea83e3a7a83a2>@@@?$__crt_seh_guarded_call@H@@QEAAH$$QEAV<lambda_a37b2b86f63e897a80ea819b0eb08c01>@@AEAV<lambda_38ce7e780aa69e748d6df282ebc68efe>@@$$QEAV<lambda_99fb1378e971ab6e7edea83e3a7a83a2>@@@Z@4HA 00000001800499c2 f   libucrt:commit.obj
 0001:000489dc       _write_internal$fin$0      00000001800499dc f   libucrt:write.obj
 0001:000489f3       _fcloseall$fin$0           00000001800499f3 f   libucrt:closeall.obj
 0001:00048a0c       ?fin$0@?0??_fclose_internal@@YAHQEAU_iobuf@@AEAV__crt_cached_ptd_host@@@Z@4HA 0000000180049a0c f   libucrt:fclose.obj
 0001:00048a30       _IsNonwritableInCurrentImage$filt$0 0000000180049a30 f   LIBCMT:pesect.obj
 0002:000002b8       ?minFError$initializer$@_VecMathTests@aos@shdfnd@physx@@3P6AXXZEA 000000018004a2b8     Cooking.obj
 0002:000002c0       ?maxFError$initializer$@_VecMathTests@aos@shdfnd@physx@@3P6AXXZEA 000000018004a2c0     Cooking.obj
 0002:000002c8       ?minV3Error$initializer$@_VecMathTests@aos@shdfnd@physx@@3P6AXXZEA 000000018004a2c8     Cooking.obj
 0002:000002d0       ?maxV3Error$initializer$@_VecMathTests@aos@shdfnd@physx@@3P6AXXZEA 000000018004a2d0     Cooking.obj
 0002:000002d8       ?minV4Error$initializer$@_VecMathTests@aos@shdfnd@physx@@3P6AXXZEA 000000018004a2d8     Cooking.obj
 0002:000002e0       ?maxV4Error$initializer$@_VecMathTests@aos@shdfnd@physx@@3P6AXXZEA 000000018004a2e0     Cooking.obj
 0002:000002e8       ?minFError$initializer$@_VecMathTests@aos@shdfnd@physx@@3P6AXXZEA 000000018004a2e8     BVHStructureBuilder.obj
 0002:000002f0       ?maxFError$initializer$@_VecMathTests@aos@shdfnd@physx@@3P6AXXZEA 000000018004a2f0     BVHStructureBuilder.obj
 0002:000002f8       ?minV3Error$initializer$@_VecMathTests@aos@shdfnd@physx@@3P6AXXZEA 000000018004a2f8     BVHStructureBuilder.obj
 0002:00000300       ?maxV3Error$initializer$@_VecMathTests@aos@shdfnd@physx@@3P6AXXZEA 000000018004a300     BVHStructureBuilder.obj
 0002:00000308       ?minV4Error$initializer$@_VecMathTests@aos@shdfnd@physx@@3P6AXXZEA 000000018004a308     BVHStructureBuilder.obj
 0002:00000310       ?maxV4Error$initializer$@_VecMathTests@aos@shdfnd@physx@@3P6AXXZEA 000000018004a310     BVHStructureBuilder.obj
 0002:00000318       ?minFError$initializer$@_VecMathTests@aos@shdfnd@physx@@3P6AXXZEA 000000018004a318     RTreeCooking.obj
 0002:00000320       ?maxFError$initializer$@_VecMathTests@aos@shdfnd@physx@@3P6AXXZEA 000000018004a320     RTreeCooking.obj
 0002:00000328       ?minV3Error$initializer$@_VecMathTests@aos@shdfnd@physx@@3P6AXXZEA 000000018004a328     RTreeCooking.obj
 0002:00000330       ?maxV3Error$initializer$@_VecMathTests@aos@shdfnd@physx@@3P6AXXZEA 000000018004a330     RTreeCooking.obj
 0002:00000338       ?minV4Error$initializer$@_VecMathTests@aos@shdfnd@physx@@3P6AXXZEA 000000018004a338     RTreeCooking.obj
 0002:00000340       ?maxV4Error$initializer$@_VecMathTests@aos@shdfnd@physx@@3P6AXXZEA 000000018004a340     RTreeCooking.obj
 0002:00000348       ?minFError$initializer$@_VecMathTests@aos@shdfnd@physx@@3P6AXXZEA 000000018004a348     MeshBuilder.obj
 0002:00000350       ?maxFError$initializer$@_VecMathTests@aos@shdfnd@physx@@3P6AXXZEA 000000018004a350     MeshBuilder.obj
 0002:00000358       ?minV3Error$initializer$@_VecMathTests@aos@shdfnd@physx@@3P6AXXZEA 000000018004a358     MeshBuilder.obj
 0002:00000360       ?maxV3Error$initializer$@_VecMathTests@aos@shdfnd@physx@@3P6AXXZEA 000000018004a360     MeshBuilder.obj
 0002:00000368       ?minV4Error$initializer$@_VecMathTests@aos@shdfnd@physx@@3P6AXXZEA 000000018004a368     MeshBuilder.obj
 0002:00000370       ?maxV4Error$initializer$@_VecMathTests@aos@shdfnd@physx@@3P6AXXZEA 000000018004a370     MeshBuilder.obj
 0002:00000378       ?minFError$initializer$@_VecMathTests@aos@shdfnd@physx@@3P6AXXZEA 000000018004a378     TriangleMeshBuilder.obj
 0002:00000380       ?maxFError$initializer$@_VecMathTests@aos@shdfnd@physx@@3P6AXXZEA 000000018004a380     TriangleMeshBuilder.obj
 0002:00000388       ?minV3Error$initializer$@_VecMathTests@aos@shdfnd@physx@@3P6AXXZEA 000000018004a388     TriangleMeshBuilder.obj
 0002:00000390       ?maxV3Error$initializer$@_VecMathTests@aos@shdfnd@physx@@3P6AXXZEA 000000018004a390     TriangleMeshBuilder.obj
 0002:00000398       ?minV4Error$initializer$@_VecMathTests@aos@shdfnd@physx@@3P6AXXZEA 000000018004a398     TriangleMeshBuilder.obj
 0002:000003a0       ?maxV4Error$initializer$@_VecMathTests@aos@shdfnd@physx@@3P6AXXZEA 000000018004a3a0     TriangleMeshBuilder.obj
 0002:000003a8       ?minFError$initializer$@_VecMathTests@aos@shdfnd@physx@@3P6AXXZEA 000000018004a3a8     BigConvexDataBuilder.obj
 0002:000003b0       ?maxFError$initializer$@_VecMathTests@aos@shdfnd@physx@@3P6AXXZEA 000000018004a3b0     BigConvexDataBuilder.obj
 0002:000003b8       ?minV3Error$initializer$@_VecMathTests@aos@shdfnd@physx@@3P6AXXZEA 000000018004a3b8     BigConvexDataBuilder.obj
 0002:000003c0       ?maxV3Error$initializer$@_VecMathTests@aos@shdfnd@physx@@3P6AXXZEA 000000018004a3c0     BigConvexDataBuilder.obj
 0002:000003c8       ?minV4Error$initializer$@_VecMathTests@aos@shdfnd@physx@@3P6AXXZEA 000000018004a3c8     BigConvexDataBuilder.obj
 0002:000003d0       ?maxV4Error$initializer$@_VecMathTests@aos@shdfnd@physx@@3P6AXXZEA 000000018004a3d0     BigConvexDataBuilder.obj
 0002:000003d8       ?minFError$initializer$@_VecMathTests@aos@shdfnd@physx@@3P6AXXZEA 000000018004a3d8     ConvexHullBuilder.obj
 0002:000003e0       ?maxFError$initializer$@_VecMathTests@aos@shdfnd@physx@@3P6AXXZEA 000000018004a3e0     ConvexHullBuilder.obj
 0002:000003e8       ?minV3Error$initializer$@_VecMathTests@aos@shdfnd@physx@@3P6AXXZEA 000000018004a3e8     ConvexHullBuilder.obj
 0002:000003f0       ?maxV3Error$initializer$@_VecMathTests@aos@shdfnd@physx@@3P6AXXZEA 000000018004a3f0     ConvexHullBuilder.obj
 0002:000003f8       ?minV4Error$initializer$@_VecMathTests@aos@shdfnd@physx@@3P6AXXZEA 000000018004a3f8     ConvexHullBuilder.obj
 0002:00000400       ?maxV4Error$initializer$@_VecMathTests@aos@shdfnd@physx@@3P6AXXZEA 000000018004a400     ConvexHullBuilder.obj
 0002:00000408       ?minFError$initializer$@_VecMathTests@aos@shdfnd@physx@@3P6AXXZEA 000000018004a408     ConvexHullUtils.obj
 0002:00000410       ?maxFError$initializer$@_VecMathTests@aos@shdfnd@physx@@3P6AXXZEA 000000018004a410     ConvexHullUtils.obj
 0002:00000418       ?minV3Error$initializer$@_VecMathTests@aos@shdfnd@physx@@3P6AXXZEA 000000018004a418     ConvexHullUtils.obj
 0002:00000420       ?maxV3Error$initializer$@_VecMathTests@aos@shdfnd@physx@@3P6AXXZEA 000000018004a420     ConvexHullUtils.obj
 0002:00000428       ?minV4Error$initializer$@_VecMathTests@aos@shdfnd@physx@@3P6AXXZEA 000000018004a428     ConvexHullUtils.obj
 0002:00000430       ?maxV4Error$initializer$@_VecMathTests@aos@shdfnd@physx@@3P6AXXZEA 000000018004a430     ConvexHullUtils.obj
 0002:00000438       ?minFError$initializer$@_VecMathTests@aos@shdfnd@physx@@3P6AXXZEA 000000018004a438     ConvexMeshBuilder.obj
 0002:00000440       ?maxFError$initializer$@_VecMathTests@aos@shdfnd@physx@@3P6AXXZEA 000000018004a440     ConvexMeshBuilder.obj
 0002:00000448       ?minV3Error$initializer$@_VecMathTests@aos@shdfnd@physx@@3P6AXXZEA 000000018004a448     ConvexMeshBuilder.obj
 0002:00000450       ?maxV3Error$initializer$@_VecMathTests@aos@shdfnd@physx@@3P6AXXZEA 000000018004a450     ConvexMeshBuilder.obj
 0002:00000458       ?minV4Error$initializer$@_VecMathTests@aos@shdfnd@physx@@3P6AXXZEA 000000018004a458     ConvexMeshBuilder.obj
 0002:00000460       ?maxV4Error$initializer$@_VecMathTests@aos@shdfnd@physx@@3P6AXXZEA 000000018004a460     ConvexMeshBuilder.obj
 0002:00000468       ?minFError$initializer$@_VecMathTests@aos@shdfnd@physx@@3P6AXXZEA 000000018004a468     VolumeIntegration.obj
 0002:00000470       ?maxFError$initializer$@_VecMathTests@aos@shdfnd@physx@@3P6AXXZEA 000000018004a470     VolumeIntegration.obj
 0002:00000478       ?minV3Error$initializer$@_VecMathTests@aos@shdfnd@physx@@3P6AXXZEA 000000018004a478     VolumeIntegration.obj
 0002:00000480       ?maxV3Error$initializer$@_VecMathTests@aos@shdfnd@physx@@3P6AXXZEA 000000018004a480     VolumeIntegration.obj
 0002:00000488       ?minV4Error$initializer$@_VecMathTests@aos@shdfnd@physx@@3P6AXXZEA 000000018004a488     VolumeIntegration.obj
 0002:00000490       ?maxV4Error$initializer$@_VecMathTests@aos@shdfnd@physx@@3P6AXXZEA 000000018004a490     VolumeIntegration.obj
 0002:00000630       ?minus1w@?A0x4cef1c98@aos@shdfnd@physx@@3QBMB 000000018004a630     Cooking.obj
 0002:00000640       ?gMaskXYZ@internalWindowsSimd@aos@shdfnd@physx@@3QBIB 000000018004a640     Cooking.obj
 0002:00000de0       ?minus1w@?A0x008a2191@aos@shdfnd@physx@@3QBMB 000000018004ade0     BVHStructureBuilder.obj
 0002:00000df0       ?gMaskXYZ@internalWindowsSimd@aos@shdfnd@physx@@3QBIB 000000018004adf0     BVHStructureBuilder.obj
 0002:00000e70       ?minus1w@?A0xf0ceaee0@aos@shdfnd@physx@@3QBMB 000000018004ae70     RTreeCooking.obj
 0002:00000e80       ?gMaskXYZ@internalWindowsSimd@aos@shdfnd@physx@@3QBIB 000000018004ae80     RTreeCooking.obj
 0002:00000ec8       ?stopAtTrisPerPage@physx@@3QBIB 000000018004aec8     RTreeCooking.obj
 0002:00000f08       ?stopAtTrisPerLeaf@physx@@3QBIB 000000018004af08     RTreeCooking.obj
 0002:000010d0       ?minus1w@?A0x906effeb@aos@shdfnd@physx@@3QBMB 000000018004b0d0     MeshBuilder.obj
 0002:000010e0       ?gMaskXYZ@internalWindowsSimd@aos@shdfnd@physx@@3QBIB 000000018004b0e0     MeshBuilder.obj
 0002:00001100       ?minus1w@?A0x70d7e8fe@aos@shdfnd@physx@@3QBMB 000000018004b100     TriangleMeshBuilder.obj
 0002:00001110       ?gMaskXYZ@internalWindowsSimd@aos@shdfnd@physx@@3QBIB 000000018004b110     TriangleMeshBuilder.obj
 0002:000014f0       ?minus1w@?A0x293a5db3@aos@shdfnd@physx@@3QBMB 000000018004b4f0     BigConvexDataBuilder.obj
 0002:00001500       ?gMaskXYZ@internalWindowsSimd@aos@shdfnd@physx@@3QBIB 000000018004b500     BigConvexDataBuilder.obj
 0002:00001580       ?minus1w@?A0x94206622@aos@shdfnd@physx@@3QBMB 000000018004b580     ConvexHullBuilder.obj
 0002:00001590       ?gMaskXYZ@internalWindowsSimd@aos@shdfnd@physx@@3QBIB 000000018004b590     ConvexHullBuilder.obj
 0002:00001a20       ?minus1w@?A0x051f2c5b@aos@shdfnd@physx@@3QBMB 000000018004ba20     ConvexHullUtils.obj
 0002:00001a30       ?gMaskXYZ@internalWindowsSimd@aos@shdfnd@physx@@3QBIB 000000018004ba30     ConvexHullUtils.obj
 0002:00001ae0       ?minus1w@?A0x5a84c677@aos@shdfnd@physx@@3QBMB 000000018004bae0     ConvexMeshBuilder.obj
 0002:00001af0       ?gMaskXYZ@internalWindowsSimd@aos@shdfnd@physx@@3QBIB 000000018004baf0     ConvexMeshBuilder.obj
 0002:00002080       ?minus1w@?A0x15ce7506@aos@shdfnd@physx@@3QBMB 000000018004c080     VolumeIntegration.obj
 0002:00002090       ?gMaskXYZ@internalWindowsSimd@aos@shdfnd@physx@@3QBIB 000000018004c090     VolumeIntegration.obj
 0002:00002220       L_abs_mask                 000000018004c220     LIBCMT:svml_ssinf4_dispatch.obj
 0002:00002230       L_real_one                 000000018004c230     LIBCMT:svml_ssinf4_dispatch.obj
 0002:00002240       L_one_half                 000000018004c240     LIBCMT:svml_ssinf4_dispatch.obj
 0002:00002250       L_two_to_neg_13            000000018004c250     LIBCMT:svml_ssinf4_dispatch.obj
 0002:00002260       L_pi_over_two              000000018004c260     LIBCMT:svml_ssinf4_dispatch.obj
 0002:00002270       L_pi_over_two2             000000018004c270     LIBCMT:svml_ssinf4_dispatch.obj
 0002:000023f0       ?tokenTable@@3QBUStringLiteral@@B 000000018004c3f0     libvcruntime:undname.obj
 0002:00002500       ?nameTable@@3QBUStringLiteral@@B 000000018004c500     libvcruntime:undname.obj
 0002:00002a30       ?rttiTable@@3QBUStringLiteral@@B 000000018004ca30     libvcruntime:undname.obj
 0002:00002a80       ?IndirectionName@@3QBUStringLiteral@@B 000000018004ca80     libvcruntime:undname.obj
 0002:00002ae0       ?PrefixName@@3QBUStringLiteral@@B 000000018004cae0     libvcruntime:undname.obj
 0002:00003740       ?result@?1??IsValidIdentChar@@YA_ND@Z@4U<unnamed-type-result>@?1??InitValidIdentChar@@YA@XZ@B 000000018004d740     libvcruntime:undname.obj
 0002:000038b0       ?ExceptionTemplate@?1??UnwindNestedFrames@__FrameHandler4@@SAXPEA_KPEAUEHExceptionRecord@@PEAU_CONTEXT@@0PEAXPEAUFuncInfo4@FH4@@HHPEAUHandlerType4@6@PEAU_xDISPATCHER_CONTEXT@@E@Z@4U_EXCEPTION_RECORD@@B 000000018004d8b0     libvcruntime:risctrnsctrl.obj
 0002:00003950       ?ExceptionTemplate@?1??UnwindNestedFrames@__FrameHandler3@@SAXPEA_KPEAUEHExceptionRecord@@PEAU_CONTEXT@@0PEAXPEBU_s_FuncInfo@@HHPEBU_s_HandlerType@@PEAU_xDISPATCHER_CONTEXT@@E@Z@4U_EXCEPTION_RECORD@@B 000000018004d950     libvcruntime:risctrnsctrl.obj
 0002:000039e8       ?module_names@?A0x14174aea@@3QBQEB_WB 000000018004d9e8     libvcruntime:winapi_downlevel.obj
 0002:00003aa8       ?candidate_modules@?1??try_get_FlsAlloc@@YAP6AKP6AXPEAX@Z@ZXZ@4QBW4module_id@?A0x14174aea@@B 000000018004daa8     libvcruntime:winapi_downlevel.obj
 0002:00003ac0       ?candidate_modules@?1??try_get_FlsFree@@YAP6AHK@ZXZ@4QBW4module_id@?A0x14174aea@@B 000000018004dac0     libvcruntime:winapi_downlevel.obj
 0002:00003ad0       ?candidate_modules@?1??try_get_FlsGetValue@@YAP6APEAXK@ZXZ@4QBW4module_id@?A0x14174aea@@B 000000018004dad0     libvcruntime:winapi_downlevel.obj
 0002:00003ae8       ?candidate_modules@?1??try_get_FlsSetValue@@YAP6AHKPEAX@ZXZ@4QBW4module_id@?A0x14174aea@@B 000000018004dae8     libvcruntime:winapi_downlevel.obj
 0002:00003b00       ?candidate_modules@?1??try_get_InitializeCriticalSectionEx@@YAP6AHPEAU_RTL_CRITICAL_SECTION@@KK@ZXZ@4QBW4module_id@?A0x14174aea@@B 000000018004db00     libvcruntime:winapi_downlevel.obj
 0002:00003b80       ?atan_jby256@?1??atan2f@@9@9 000000018004db80     libucrt:atan2f.obj
 0002:00004380       L_real_one                 000000018004e380     libucrt:cosf.obj
 0002:00004390       L_one_half                 000000018004e390     libucrt:cosf.obj
 0002:000043a0       L_2bypi                    000000018004e3a0     libucrt:cosf.obj
 0002:000043b0       L_one_sixth                000000018004e3b0     libucrt:cosf.obj
 0002:000043c0       L_piby2                    000000018004e3c0     libucrt:cosf.obj
 0002:000043d0       L_piby2_1                  000000018004e3d0     libucrt:cosf.obj
 0002:000043e0       L_piby2_1tail              000000018004e3e0     libucrt:cosf.obj
 0002:000043f0       L_piby2_2                  000000018004e3f0     libucrt:cosf.obj
 0002:00004400       L_piby2_2tail              000000018004e400     libucrt:cosf.obj
 0002:00004410       L_large_x_sse2             000000018004e410     libucrt:cosf.obj
 0002:00004420       L_large_x_fma3             000000018004e420     libucrt:cosf.obj
 0002:00004430       L_sign_mask                000000018004e430     libucrt:cosf.obj
 0002:00004440       L__int_three               000000018004e440     libucrt:cosf.obj
 0002:00004450       L__min_norm_double         000000018004e450     libucrt:cosf.obj
 0002:00004460       L_two_to_neg_7             000000018004e460     libucrt:cosf.obj
 0002:00004470       L_two_to_neg_13            000000018004e470     libucrt:cosf.obj
 0002:00004480       L_two_to_32_float          000000018004e480     libucrt:cosf.obj
 0002:00004488       L_one_float                000000018004e488     libucrt:cosf.obj
 0002:00004490       L_inf_mask_32              000000018004e490     libucrt:cosf.obj
 0002:000044a0       L_signbit                  000000018004e4a0     libucrt:sinf.obj
 0002:000044b0       L_sign_mask                000000018004e4b0     libucrt:sinf.obj
 0002:000044c0       L_one                      000000018004e4c0     libucrt:sinf.obj
 0002:000044d0       L_int_three                000000018004e4d0     libucrt:sinf.obj
 0002:000044e0       L_one_half                 000000018004e4e0     libucrt:sinf.obj
 0002:000044f0       L_twobypi                  000000018004e4f0     libucrt:sinf.obj
 0002:00004500       L_piby2_1                  000000018004e500     libucrt:sinf.obj
 0002:00004510       L_one_sixth                000000018004e510     libucrt:sinf.obj
 0002:00004520       L_piby2_1tail              000000018004e520     libucrt:sinf.obj
 0002:00004530       L_piby2_2                  000000018004e530     libucrt:sinf.obj
 0002:00004540       L_piby2_2tail              000000018004e540     libucrt:sinf.obj
 0002:00004550       L_inf_mask_32              000000018004e550     libucrt:sinf.obj
 0002:00004560       L_int_two                  000000018004e560     libucrt:sinf.obj
 0002:00004570       L_piby2_lead               000000018004e570     libucrt:sinf.obj
 0002:00004580       L_piby4                    000000018004e580     libucrt:sinf.obj
 0002:00004590       L_mask_3f2                 000000018004e590     libucrt:sinf.obj
 0002:000045a0       L_mask_3f8                 000000018004e5a0     libucrt:sinf.obj
 0002:000045b0       L_large_x_fma3             000000018004e5b0     libucrt:sinf.obj
 0002:000045b8       L_large_x_sse2             000000018004e5b8     libucrt:sinf.obj
 0002:000045c0       L_near_one                 000000018004e5c0     libucrt:sinf.obj
 0002:000045c8       L_two_to_32                000000018004e5c8     libucrt:sinf.obj
 0002:000046a8       $cppxdata$?try_cor_exit_process@@YAXI@Z 000000018004e6a8     libucrt:exit.obj
 0002:000046d0       $cppxdata$?common_exit@@YAXHW4_crt_exit_cleanup_mode@@W4_crt_exit_return_mode@@@Z 000000018004e6d0     libucrt:exit.obj
 0002:00004720       $cppxdata$__dcrt_uninitialize_environments_nolock 000000018004e720     libucrt:environment_initialization.obj
 0002:00004748       $cppxdata$_execute_onexit_table 000000018004e748     libucrt:onexit.obj
 0002:00004770       __acrt_initializers        000000018004e770     libucrt:initialization.obj
 0002:00004a90       L__piby2                   000000018004ea90     libucrt:remainder_piby2f_forasm.obj
 0002:00004aa0       L_piby2_lead               000000018004eaa0     libucrt:remainder_piby2_forfma3.obj
 0002:00004ab0       L_fff800                   000000018004eab0     libucrt:remainder_piby2_forfma3.obj
 0002:00004ac0       L_piby2_part1              000000018004eac0     libucrt:remainder_piby2_forfma3.obj
 0002:00004ad0       L_piby2_part2              000000018004ead0     libucrt:remainder_piby2_forfma3.obj
 0002:00004ae0       L_piby2_part3              000000018004eae0     libucrt:remainder_piby2_forfma3.obj
 0002:00004af0       L_piby2_1                  000000018004eaf0     libucrt:remainder_piby2_forfma3.obj
 0002:00004b00       L_piby2_2                  000000018004eb00     libucrt:remainder_piby2_forfma3.obj
 0002:00004b10       L_piby2_3                  000000018004eb10     libucrt:remainder_piby2_forfma3.obj
 0002:00004b20       L_piby2_1tail              000000018004eb20     libucrt:remainder_piby2_forfma3.obj
 0002:00004b30       L_piby2_2tail              000000018004eb30     libucrt:remainder_piby2_forfma3.obj
 0002:00004b40       L_piby2_3tail              000000018004eb40     libucrt:remainder_piby2_forfma3.obj
 0002:00004b50       L_sign_mask                000000018004eb50     libucrt:remainder_piby2_forfma3.obj
 0002:00004b60       L_twobypi                  000000018004eb60     libucrt:remainder_piby2_forfma3.obj
 0002:00004b70       L_point_five               000000018004eb70     libucrt:remainder_piby2_forfma3.obj
 0002:00004b80       L_int_three                000000018004eb80     libucrt:remainder_piby2_forfma3.obj
 0002:00004b90       L_inf_mask_64              000000018004eb90     libucrt:remainder_piby2_forfma3.obj
 0002:00004ba0       L_signbit                  000000018004eba0     libucrt:remainder_piby2_forfma3.obj
 0002:00004bb0       L_r                        000000018004ebb0     libucrt:remainder_piby2_forfma3.obj
 0002:00004bc0       L_xc1                      000000018004ebc0     libucrt:remainder_piby2_forfma3.obj
 0002:00004bd0       L_xc2                      000000018004ebd0     libucrt:remainder_piby2_forfma3.obj
 0002:00004be0       L_xc3                      000000018004ebe0     libucrt:remainder_piby2_forfma3.obj
 0002:00004bf0       L_sigma                    000000018004ebf0     libucrt:remainder_piby2_forfma3.obj
 0002:00004d00       L__piby2                   000000018004ed00     libucrt:remainder_piby2f_forc.obj
 0002:00004d10       L__2_by_pi_bits            000000018004ed10     libucrt:remainder_piby2f_forc.obj
 0002:00004db0       ?errtable@@3QBUerrentry@?A0x31fdb9ec@@B 000000018004edb0     libucrt:errno.obj
 0002:00004f18       ?_mb_locale_names@@3QBQEB_WB 000000018004ef18     libucrt:mbctype.obj
 0002:00004f80       ?module_names@?A0x391cf84c@@3QBQEB_WB 000000018004ef80     libucrt:winapi_thunks.obj
 0002:000054d8       ?candidate_modules@?1??try_get_AreFileApisANSI@@YAP6AHXZXZ@4QBW4module_id@?A0x391cf84c@@B 000000018004f4d8     libucrt:winapi_thunks.obj
 0002:000054f0       ?candidate_modules@?1??try_get_InitializeCriticalSectionEx@@YAP6AHPEAU_RTL_CRITICAL_SECTION@@KK@ZXZ@4QBW4module_id@?A0x391cf84c@@B 000000018004f4f0     libucrt:winapi_thunks.obj
 0002:000054f8       ?candidate_modules@?1??try_get_LCMapStringEx@@YAP6AHPEB_WK0HPEA_WHPEAU_nlsversioninfo@@PEAX_J@ZXZ@4QBW4module_id@?A0x391cf84c@@B 000000018004f4f8     libucrt:winapi_thunks.obj
 0002:00005510       ?candidate_modules@?1??try_get_LocaleNameToLCID@@YAP6AKPEB_WK@ZXZ@4QBW4module_id@?A0x391cf84c@@B 000000018004f510     libucrt:winapi_thunks.obj
 0002:0000552c       ?candidate_modules@?1??try_get_AppPolicyGetProcessTerminationMethod@@YAP6AJPEAXPEAW4AppPolicyProcessTerminationMethod@@@ZXZ@4QBW4module_id@?A0x391cf84c@@B 000000018004f52c     libucrt:winapi_thunks.obj
 0002:00005be0       ?strings@?1??fp_format_nan_or_infinity@@YAHW4__acrt_fp_class@@_NPEAD_K1@Z@4QAY03QEBDA 000000018004fbe0     libucrt:cvt.obj
 0002:000062c0       __real@433fffffffffffff    00000001800502c0     libucrt:fpsr.obj
 0002:000062c8       __real@c33fffffffffffff    00000001800502c8     libucrt:fpsr.obj
 0002:000062e0       ?LcidToLocaleNameTable@?A0x881e4c05@@3QBULcidToLocaleName@1@B 00000001800502e0     libucrt:lcidtoname_downlevel.obj
 0002:00007d40       ?LocaleNameToIndexTable@?A0x881e4c05@@3QBULocaleNameIndex@1@B 0000000180051d40     libucrt:lcidtoname_downlevel.obj
 0002:000095d8       $cppxdata$?write_double_translated_ansi_nolock@@YA?AUwrite_result@?A0x17268360@@HQEBDIAEAV__crt_cached_ptd_host@@@Z 00000001800535d8     libucrt:write.obj
 0002:00009ff0       __real_ninf                0000000180053ff0     libucrt:log10.obj
 0002:0000a000       __real_inf                 0000000180054000     libucrt:log10.obj
 0002:0000a010       __real_neg_qnan            0000000180054010     libucrt:log10.obj
 0002:0000a020       __real_qnanbit             0000000180054020     libucrt:log10.obj
 0002:0000a030       __int_1023                 0000000180054030     libucrt:log10.obj
 0002:0000a040       __mask_001                 0000000180054040     libucrt:log10.obj
 0002:0000a050       __mask_mant                0000000180054050     libucrt:log10.obj
 0002:0000a060       __mask_mant_top8           0000000180054060     libucrt:log10.obj
 0002:0000a070       __mask_mant9               0000000180054070     libucrt:log10.obj
 0002:0000a080       __real_log10_e             0000000180054080     libucrt:log10.obj
 0002:0000a090       __real_log10_e_lead        0000000180054090     libucrt:log10.obj
 0002:0000a0a0       __real_log10_e_tail        00000001800540a0     libucrt:log10.obj
 0002:0000a0b0       __real_log10_2_lead        00000001800540b0     libucrt:log10.obj
 0002:0000a0c0       __real_log10_2_tail        00000001800540c0     libucrt:log10.obj
 0002:0000a0d0       __real_two                 00000001800540d0     libucrt:log10.obj
 0002:0000a0e0       __real_one                 00000001800540e0     libucrt:log10.obj
 0002:0000a0f0       __real_half                00000001800540f0     libucrt:log10.obj
 0002:0000a100       __mask_100                 0000000180054100     libucrt:log10.obj
 0002:0000a110       __real_1_over_512          0000000180054110     libucrt:log10.obj
 0002:0000a120       __real_1_over_2            0000000180054120     libucrt:log10.obj
 0002:0000a130       __real_1_over_3            0000000180054130     libucrt:log10.obj
 0002:0000a140       __real_1_over_4            0000000180054140     libucrt:log10.obj
 0002:0000a150       __real_1_over_5            0000000180054150     libucrt:log10.obj
 0002:0000a160       __real_1_over_6            0000000180054160     libucrt:log10.obj
 0002:0000a170       __real_neg_1023            0000000180054170     libucrt:log10.obj
 0002:0000a180       __mask_2045                0000000180054180     libucrt:log10.obj
 0002:0000a190       __real_threshold           0000000180054190     libucrt:log10.obj
 0002:0000a1a0       __real_near_one_lt         00000001800541a0     libucrt:log10.obj
 0002:0000a1b0       __real_near_one_gt         00000001800541b0     libucrt:log10.obj
 0002:0000a1c0       __real_min_norm            00000001800541c0     libucrt:log10.obj
 0002:0000a1d0       __real_notsign             00000001800541d0     libucrt:log10.obj
 0002:0000a1e0       __real_ca1                 00000001800541e0     libucrt:log10.obj
 0002:0000a1f0       __real_ca2                 00000001800541f0     libucrt:log10.obj
 0002:0000a200       __real_ca3                 0000000180054200     libucrt:log10.obj
 0002:0000a210       __real_ca4                 0000000180054210     libucrt:log10.obj
 0002:0000a220       __mask_lower               0000000180054220     libucrt:log10.obj
 0002:0000a230       __flag_x_zero              0000000180054230     libucrt:log10.obj
 0002:0000a234       __flag_x_neg               0000000180054234     libucrt:log10.obj
 0002:0000a238       __flag_x_nan               0000000180054238     libucrt:log10.obj
 0002:0000ba80       GS_ExceptionPointers       0000000180055a80     LIBCMT:gs_report.obj
 0002:0000baf0       SetSmall                   0000000180055af0     libvcruntime:memset.obj
 0002:0000bb30       SetSmallYmm                0000000180055b30     libvcruntime:memset.obj
 0002:0000bb54       SetSmallYmmNT              0000000180055b54     libvcruntime:memset.obj
 0002:0000bb78       SetSmallXmm                0000000180055b78     libvcruntime:memset.obj
 0002:0000bba0       MoveSmall                  0000000180055ba0     libvcruntime:memcpy.obj
 0002:0000bbe0       MoveSmallYmm               0000000180055be0     libvcruntime:memcpy.obj
 0002:0000bc04       MoveSmallYmmNT             0000000180055c04     libvcruntime:memcpy.obj
 0002:0000bc28       MoveSmallXmm               0000000180055c28     libvcruntime:memcpy.obj
 0002:0000c6d0       $unwind$??1Adjacencies@physx@@QEAA@XZ 00000001800566d0     Adjacencies.obj
 0002:0000c6d0       $unwind$??_EPxFoundation@physx@@MEAAPEAXI@Z 00000001800566d0     Adjacencies.obj
 0002:0000c6d0       $unwind$??0ConvexMeshBuilder@physx@@QEAA@_N@Z 00000001800566d0     ConvexMeshBuilder.obj
 0002:0000c6d0       $unwind$?isFinite@PxVec3@physx@@QEBA_NXZ 00000001800566d0     ConvexMeshBuilder.obj
 0002:0000c6d0       $unwind$??0ConvexPolygonsBuilder@physx@@QEAA@PEAUConvexHullData@Gu@1@_N@Z 00000001800566d0     ConvexPolygonsBuilder.obj
 0002:0000c6d0       $unwind$??_GCooking@physx@@UEAAPEAXI@Z 00000001800566d0     Cooking.obj
 0002:0000c6d0       $unwind$??_GPxBase@physx@@MEAAPEAXI@Z 00000001800566d0     Cooking.obj
 0002:0000c6d0       $unwind$??_GPxCooking@physx@@MEAAPEAXI@Z 00000001800566d0     Cooking.obj
 0002:0000c6d0       $unwind$?getTriangleNormal@HeightField@Gu@physx@@UEBA?AVPxVec3@3@I@Z 00000001800566d0     Cooking.obj
 0002:0000c6d0       $unwind$?isKindOf@PxConvexMesh@physx@@MEBA_NPEBD@Z 00000001800566d0     Cooking.obj
 0002:0000c6d0       $unwind$?isKindOf@PxHeightField@physx@@MEBA_NPEBD@Z 00000001800566d0     Cooking.obj
 0002:0000c6d0       $unwind$??_GQuantizer@physx@@MEAAPEAXI@Z 00000001800566d0     Quantizer.obj
 0002:0000c6d0       $unwind$??1RTreeTriangleData@Gu@physx@@UEAA@XZ 00000001800566d0     TriangleMeshBuilder.obj
 0002:0000c6d0       $unwind$??1RTreeTriangleMeshBuilder@physx@@UEAA@XZ 00000001800566d0     TriangleMeshBuilder.obj
 0002:0000c6d0       $unwind$??_GRTreeCookerRemap@physx@@UEAAPEAXI@Z 00000001800566d0     TriangleMeshBuilder.obj
 0002:0000c6d0       $unwind$??_GRemapCallback@RTreeCooker@physx@@UEAAPEAXI@Z 00000001800566d0     TriangleMeshBuilder.obj
 0002:0000c6d0       $unwind$_calloc_base       00000001800566d0     libucrt:calloc_base.obj
 0002:0000c6d0       $unwind$_malloc_base       00000001800566d0     libucrt:malloc_base.obj
 0002:0000c6d0       $unwind$initialize_pointers 00000001800566d0     libucrt:initialization.obj
 0002:0000c6d0       $unwind$uninitialize_allocated_memory 00000001800566d0     libucrt:initialization.obj
 0002:0000c6d0       $unwind$__acrt_initialize_locks 00000001800566d0     libucrt:locks.obj
 0002:0000c6d0       $unwind$__acrt_uninitialize_locks 00000001800566d0     libucrt:locks.obj
 0002:0000c6d0       $unwind$__acrt_freeptd     00000001800566d0     libucrt:per_thread_data.obj
 0002:0000c6d0       $unwind$__acrt_getptd_head 00000001800566d0     libucrt:per_thread_data.obj
 0002:0000c6d0       $unwind$__acrt_get_process_end_policy 00000001800566d0     libucrt:win_policies.obj
 0002:0000c6d0       $unwind$__acrt_AppPolicyGetProcessTerminationMethodInternal 00000001800566d0     libucrt:winapi_thunks.obj
 0002:0000c6d0       $unwind$__acrt_uninitialize_winapi_thunks 00000001800566d0     libucrt:winapi_thunks.obj
 0002:0000c6d0       $unwind$__acrt_update_locale_info 00000001800566d0     libucrt:locale_update.obj
 0002:0000c6d0       $unwind$__acrt_update_locale_info_explicit 00000001800566d0     libucrt:locale_update.obj
 0002:0000c6d0       $unwind$__acrt_update_multibyte_info 00000001800566d0     libucrt:locale_update.obj
 0002:0000c6d0       $unwind$__acrt_update_multibyte_info_explicit 00000001800566d0     libucrt:locale_update.obj
 0002:0000c6d0       $unwind$__acrt_errno_map_os_error 00000001800566d0     libucrt:errno.obj
 0002:0000c6d0       $unwind$__acrt_errno_map_os_error_ptd 00000001800566d0     libucrt:errno.obj
 0002:0000c6d0       $unwind$__acrt_allocate_buffer_for_argv 00000001800566d0     libucrt:argv_parsing.obj
 0002:0000c6d0       $unwind$?exit_or_terminate_process@@YAXI@Z 00000001800566d0     libucrt:exit.obj
 0002:0000c6d0       $unwind$__acrt_uninitialize_stdio 00000001800566d0     libucrt:_file.obj
 0002:0000c6d0       $unwind$__acrt_stdio_free_buffer_nolock 00000001800566d0     libucrt:_freebuf.obj
 0002:0000c6d0       $unwind$?type_case_s@?$output_processor@DV?$string_output_adapter@D@__crt_stdio_output@@V?$format_validation_base@DV?$string_output_adapter@D@__crt_stdio_output@@@2@@__crt_stdio_output@@AEAA_NXZ 00000001800566d0     libucrt:output.obj
 0002:0000c6d0       $unwind$?type_case_s@?$output_processor@DV?$string_output_adapter@D@__crt_stdio_output@@V?$standard_base@DV?$string_output_adapter@D@__crt_stdio_output@@@2@@__crt_stdio_output@@AEAA_NXZ 00000001800566d0     libucrt:output.obj
 0002:0000c6d0       $unwind$strcpy_s           00000001800566d0     libucrt:strcpy_s.obj
 0002:0000c6d0       $unwind$_clrfp             00000001800566d0     libucrt:fpctrl.obj
 0002:0000c6d0       $unwind$_set_statfp        00000001800566d0     libucrt:fpctrl.obj
 0002:0000c6d0       $unwind$_clearfp           00000001800566d0     libucrt:ieee.obj
 0002:0000c6d0       $unwind$_controlfp_s       00000001800566d0     libucrt:contrlfp.obj
 0002:0000c6d0       $unwind$fegetenv           00000001800566d0     libucrt:fegetenv.obj
 0002:0000c6d0       $unwind$feholdexcept       00000001800566d0     libucrt:feholdexcept.obj
 0002:0000c6d0       $unwind$?DloadAcquireSectionWriteAccess@@YAXXZ 00000001800566d0     Delayimp:delayhlp.obj
 0002:0000c6d0       $unwind$__raise_securityfailure 00000001800566d0     LIBCMT:gs_report.obj
 0002:0000c6d0       $unwind$??_Gtype_info@@UEAAPEAXI@Z 00000001800566d0     LIBCMT:std_type_info_static.obj
 0002:0000c6d0       $unwind$__scrt_initialize_onexit_tables 00000001800566d0     LIBCMT:utility.obj
 0002:0000c6d0       $unwind$__scrt_release_startup_lock 00000001800566d0     LIBCMT:utility.obj
 0002:0000c6d0       $unwind$__scrt_uninitialize_crt 00000001800566d0     LIBCMT:utility.obj
 0002:0000c6d0       $unwind$_IsExceptionObjectToBeDestroyed 00000001800566d0     libvcruntime:ehhelpers.obj
 0002:0000c6d0       $unwind$?GetUnwindTryBlock@__FrameHandler3@@SAHPEA_KPEAU_xDISPATCHER_CONTEXT@@PEBU_s_FuncInfo@@@Z 00000001800566d0     libvcruntime:ehstate.obj
 0002:0000c6d0       $unwind$?StateFromIp@__FrameHandler3@@SAHPEBU_s_FuncInfo@@PEAU_xDISPATCHER_CONTEXT@@_K@Z 00000001800566d0     libvcruntime:ehstate.obj
 0002:0000c6d0       $unwind$??0HandlerMap4@FH4@@QEAA@PEBUTryBlockMapEntry4@1@_KH@Z 00000001800566d0     libvcruntime:frame.obj
 0002:0000c6d0       $unwind$??0bad_exception@std@@QEAA@AEBV01@@Z 00000001800566d0     libvcruntime:frame.obj
 0002:0000c6d0       $unwind$??0exception@std@@QEAA@AEBV01@@Z 00000001800566d0     libvcruntime:frame.obj
 0002:0000c6d0       $unwind$?ExFilterRethrow@@YAHPEAU_EXCEPTION_POINTERS@@PEAUEHExceptionRecord@@PEAH@Z 00000001800566d0     libvcruntime:frame.obj
 0002:0000c6d0       $unwind$__vcrt_initialize_locks 00000001800566d0     libvcruntime:locks.obj
 0002:0000c6d0       $unwind$__vcrt_uninitialize_locks 00000001800566d0     libvcruntime:locks.obj
 0002:0000c6d0       $unwind$__vcrt_freeptd_for_this_thread 00000001800566d0     libvcruntime:per_thread_data.obj
 0002:0000c6d0       $unwind$?ExecutionInCatch@__FrameHandler3@@SA_NPEAU_xDISPATCHER_CONTEXT@@PEBU_s_FuncInfo@@@Z 00000001800566d0     libvcruntime:risctrnsctrl.obj
 0002:0000c6d0       $unwind$_CreateFrameInfo   00000001800566d0     libvcruntime:risctrnsctrl.obj
 0002:0000c6d0       $unwind$_SetImageBase      00000001800566d0     libvcruntime:risctrnsctrl.obj
 0002:0000c6d0       $unwind$_SetThrowImageBase 00000001800566d0     libvcruntime:risctrnsctrl.obj
 0002:0000c6d0       $unwind$__std_exception_destroy 00000001800566d0     libvcruntime:std_exception.obj
 0002:0000c6d0       $unwind$__std_type_info_destroy_list 00000001800566d0     libvcruntime:std_type_info.obj
 0002:0000c6d0       $unwind$??$?0$00@DName@@QEAA@PEBDU?$StringLifeSelector@$00@@@Z 00000001800566d0     libvcruntime:undname.obj
 0002:0000c6d0       $unwind$??$?0$01@DName@@QEAA@PEBDU?$StringLifeSelector@$01@@@Z 00000001800566d0     libvcruntime:undname.obj
 0002:0000c6d0       $unwind$??$?0$0A@@DName@@QEAA@PEBDU?$StringLifeSelector@$0A@@@@Z 00000001800566d0     libvcruntime:undname.obj
 0002:0000c6d0       $unwind$??0DName@@QEAA@AEBUStringLiteral@@@Z 00000001800566d0     libvcruntime:undname.obj
 0002:0000c6d0       $unwind$??HDName@@QEBA?AV0@AEBUStringLiteral@@@Z 00000001800566d0     libvcruntime:undname.obj
 0002:0000c6d0       $unwind$??HDName@@QEBA?AV0@AEBV0@@Z 00000001800566d0     libvcruntime:undname.obj
 0002:0000c6d0       $unwind$??HDName@@QEBA?AV0@D@Z 00000001800566d0     libvcruntime:undname.obj
 0002:0000c6d0       $unwind$??HDName@@QEBA?AV0@W4DNameStatus@@@Z 00000001800566d0     libvcruntime:undname.obj
 0002:0000c6d0       $unwind$??YDName@@QEAAAEAV0@AEBV0@@Z 00000001800566d0     libvcruntime:undname.obj
 0002:0000c6d0       $unwind$??YDName@@QEAAAEAV0@W4DNameStatus@@@Z 00000001800566d0     libvcruntime:undname.obj
 0002:0000c6d0       $unwind$?getLastChar@pairNode@@UEBADXZ 00000001800566d0     libvcruntime:undname.obj
 0002:0000c6d0       $unwind$?getReturnType@UnDecorator@@CA?AVDName@@PEAV2@@Z 00000001800566d0     libvcruntime:undname.obj
 0002:0000c6d0       $unwind$?getSymbolName@UnDecorator@@CA?AVDName@@XZ 00000001800566d0     libvcruntime:undname.obj
 0002:0000c6d0       $unwind$__vcrt_FlsAlloc    00000001800566d0     libvcruntime:winapi_downlevel.obj
 0002:0000c6d0       $unwind$__vcrt_FlsFree     00000001800566d0     libvcruntime:winapi_downlevel.obj
 0002:0000c6d0       $unwind$__vcrt_FlsGetValue 00000001800566d0     libvcruntime:winapi_downlevel.obj
 0002:0000c6d8       $chain$0$??_EPxFoundation@physx@@MEAAPEAXI@Z 00000001800566d8     Adjacencies.obj
 0002:0000c6ec       $chain$1$??_EPxFoundation@physx@@MEAAPEAXI@Z 00000001800566ec     Adjacencies.obj
 0002:0000c6fc       $chain$0$??1Adjacencies@physx@@QEAA@XZ 00000001800566fc     Adjacencies.obj
 0002:0000c710       $chain$2$??1Adjacencies@physx@@QEAA@XZ 0000000180056710     Adjacencies.obj
 0002:0000c724       $chain$3$??1Adjacencies@physx@@QEAA@XZ 0000000180056724     Adjacencies.obj
 0002:0000c734       $unwind$?Init@AdjacenciesBuilder@physx@@QEAA_NAEBUADJACENCIESCREATE@2@@Z 0000000180056734     Adjacencies.obj
 0002:0000c740       $chain$3$?Init@AdjacenciesBuilder@physx@@QEAA_NAEBUADJACENCIESCREATE@2@@Z 0000000180056740     Adjacencies.obj
 0002:0000c760       $chain$4$?Init@AdjacenciesBuilder@physx@@QEAA_NAEBUADJACENCIESCREATE@2@@Z 0000000180056760     Adjacencies.obj
 0002:0000c77c       $unwind$??$?_UV?$ReflectionAllocator@VAdjTriangle@physx@@@shdfnd@physx@@@UserAllocated@shdfnd@physx@@SAPEAX_KV?$ReflectionAllocator@VAdjTriangle@physx@@@12@PEBDH@Z 000000018005677c     Adjacencies.obj
 0002:0000c77c       $unwind$??$?_UE@@YAPEAX_KV?$ReflectionAllocator@E@shdfnd@physx@@PEBDH@Z 000000018005677c     ConvexHullBuilder.obj
 0002:0000c77c       $unwind$??$?_UUHullTriangleData@physx@@@@YAPEAX_KV?$ReflectionAllocator@UHullTriangleData@physx@@@shdfnd@physx@@PEBDH@Z 000000018005677c     ConvexPolygonsBuilder.obj
 0002:0000c77c       $unwind$??$?_UI@@YAPEAX_KV?$ReflectionAllocator@I@shdfnd@physx@@PEBDH@Z 000000018005677c     EdgeList.obj
 0002:0000c77c       $unwind$?allocate@?$ReflectionAllocator@I@shdfnd@physx@@QEAAPEAX_KPEBDH@Z 000000018005677c     RTreeCooking.obj
 0002:0000c77c       $unwind$??$?_UG@@YAPEAX_KV?$ReflectionAllocator@G@shdfnd@physx@@PEBDH@Z 000000018005677c     TriangleMeshBuilder.obj
 0002:0000c78c       $chain$0$??$?_UV?$ReflectionAllocator@VAdjTriangle@physx@@@shdfnd@physx@@@UserAllocated@shdfnd@physx@@SAPEAX_KV?$ReflectionAllocator@VAdjTriangle@physx@@@12@PEBDH@Z 000000018005678c     Adjacencies.obj
 0002:0000c7a0       $chain$1$??$?_UV?$ReflectionAllocator@VAdjTriangle@physx@@@shdfnd@physx@@@UserAllocated@shdfnd@physx@@SAPEAX_KV?$ReflectionAllocator@VAdjTriangle@physx@@@12@PEBDH@Z 00000001800567a0     Adjacencies.obj
 0002:0000c7b0       $unwind$?AddTriangle@@YAXIIIIPEAVAdjTriangle@physx@@AEAIPEAVAdjEdge@@@Z 00000001800567b0     Adjacencies.obj
 0002:0000c7b0       $unwind$?getTriangleNormalInternal@HeightField@Gu@physx@@QEBA?AVPxVec3@3@I@Z 00000001800567b0     Cooking.obj
 0002:0000c7b0       $unwind$strstr             00000001800567b0     libvcruntime:strstr.obj
 0002:0000c7bc       $unwind$?UpdateLink@@YA_NIIIIPEAVAdjTriangle@physx@@AEBUADJACENCIESCREATE@2@@Z 00000001800567bc     Adjacencies.obj
 0002:0000c7c8       $chain$0$?UpdateLink@@YA_NIIIIPEAVAdjTriangle@physx@@AEBUADJACENCIESCREATE@2@@Z 00000001800567c8     Adjacencies.obj
 0002:0000c7dc       $chain$4$?UpdateLink@@YA_NIIIIPEAVAdjTriangle@physx@@AEBUADJACENCIESCREATE@2@@Z 00000001800567dc     Adjacencies.obj
 0002:0000c7fc       $chain$5$?UpdateLink@@YA_NIIIIPEAVAdjTriangle@physx@@AEBUADJACENCIESCREATE@2@@Z 00000001800567fc     Adjacencies.obj
 0002:0000c810       $chain$6$?UpdateLink@@YA_NIIIIPEAVAdjTriangle@physx@@AEBUADJACENCIESCREATE@2@@Z 0000000180056810     Adjacencies.obj
 0002:0000c820       $chain$7$?UpdateLink@@YA_NIIIIPEAVAdjTriangle@physx@@AEBUADJACENCIESCREATE@2@@Z 0000000180056820     Adjacencies.obj
 0002:0000c834       $chain$8$?UpdateLink@@YA_NIIIIPEAVAdjTriangle@physx@@AEBUADJACENCIESCREATE@2@@Z 0000000180056834     Adjacencies.obj
 0002:0000c844       $unwind$?CreateDatabase@@YA_NPEAVAdjTriangle@physx@@IPEBVAdjEdge@@AEBUADJACENCIESCREATE@2@@Z 0000000180056844     Adjacencies.obj
 0002:0000c860       $unwind$?getTransform@Box@Gu@physx@@QEBA?AVPxTransform@3@XZ 0000000180056860     ConvexHullUtils.obj
 0002:0000c860       $unwind$PxCreateCooking    0000000180056860     Cooking.obj
 0002:0000c860       $unwind$?type_case_c_tchar@?$output_processor@DV?$string_output_adapter@D@__crt_stdio_output@@V?$format_validation_base@DV?$string_output_adapter@D@__crt_stdio_output@@@2@@__crt_stdio_output@@AEAA_ND@Z 0000000180056860     libucrt:output.obj
 0002:0000c860       $unwind$?type_case_c_tchar@?$output_processor@DV?$string_output_adapter@D@__crt_stdio_output@@V?$standard_base@DV?$string_output_adapter@D@__crt_stdio_output@@@2@@__crt_stdio_output@@AEAA_ND@Z 0000000180056860     libucrt:output.obj
 0002:0000c860       $unwind$?type_case_n@?$output_processor@DV?$string_output_adapter@D@__crt_stdio_output@@V?$format_validation_base@DV?$string_output_adapter@D@__crt_stdio_output@@@2@@__crt_stdio_output@@AEAA_NXZ 0000000180056860     libucrt:output.obj
 0002:0000c860       $unwind$?type_case_n@?$output_processor@DV?$string_output_adapter@D@__crt_stdio_output@@V?$standard_base@DV?$string_output_adapter@D@__crt_stdio_output@@@2@@__crt_stdio_output@@AEAA_NXZ 0000000180056860     libucrt:output.obj
 0002:0000c870       $unwind$?release@Cooking@physx@@UEAAXXZ 0000000180056870     Cooking.obj
 0002:0000c870       $unwind$?cookingDelayHook@@YAP6A_JXZIPEAUDelayLoadInfo@@@Z 0000000180056870     WindowsCookingDelayLoadHook.obj
 0002:0000c870       $unwind$__dcrt_terminate_console_output 0000000180056870     libucrt:initcon.obj
 0002:0000c870       $unwind$??$uninitialize_environment_internal@D@@YAXAEAPEAPEAD@Z 0000000180056870     libucrt:environment_initialization.obj
 0002:0000c870       $unwind$??$uninitialize_environment_internal@_W@@YAXAEAPEAPEA_W@Z 0000000180056870     libucrt:environment_initialization.obj
 0002:0000c870       $unwind$__acrt_initialize_heap 0000000180056870     libucrt:heap_handle.obj
 0002:0000c870       $unwind$_msize_base        0000000180056870     libucrt:msize.obj
 0002:0000c870       $unwind$?initialize_multibyte@@YAHXZ 0000000180056870     libucrt:multibyte_initializer.obj
 0002:0000c870       $unwind$__acrt_thread_attach 0000000180056870     libucrt:initialization.obj
 0002:0000c870       $unwind$__acrt_thread_detach 0000000180056870     libucrt:initialization.obj
 0002:0000c870       $unwind$__acrt_uninitialize 0000000180056870     libucrt:initialization.obj
 0002:0000c870       $unwind$__acrt_uninitialize_critical 0000000180056870     libucrt:initialization.obj
 0002:0000c870       $unwind$initialize_c       0000000180056870     libucrt:initialization.obj
 0002:0000c870       $unwind$uninitialize_allocated_io_buffers 0000000180056870     libucrt:initialization.obj
 0002:0000c870       $unwind$uninitialize_environment 0000000180056870     libucrt:initialization.obj
 0002:0000c870       $unwind$__acrt_initialize_ptd 0000000180056870     libucrt:per_thread_data.obj
 0002:0000c870       $unwind$__acrt_uninitialize_ptd 0000000180056870     libucrt:per_thread_data.obj
 0002:0000c870       $unwind$__acrt_AreFileApisANSI 0000000180056870     libucrt:winapi_thunks.obj
 0002:0000c870       $unwind$__pctype_func      0000000180056870     libucrt:ctype.obj
 0002:0000c870       $unwind$__acrt_release_locale_ref 0000000180056870     libucrt:locale_refcounting.obj
 0002:0000c870       $unwind$_isatty            0000000180056870     libucrt:isatty.obj
 0002:0000c870       $unwind$_get_osfhandle     0000000180056870     libucrt:osfinfo.obj
 0002:0000c870       $unwind$__acrt_initialize_multibyte 0000000180056870     libucrt:mbctype.obj
 0002:0000c870       $unwind$__acrt_update_thread_multibyte_data 0000000180056870     libucrt:mbctype.obj
 0002:0000c870       $unwind$__doserrno         0000000180056870     libucrt:errno.obj
 0002:0000c870       $unwind$_errno             0000000180056870     libucrt:errno.obj
 0002:0000c870       $unwind$_invoke_watson     0000000180056870     libucrt:invalid_parameter.obj
 0002:0000c870       $unwind$abort              0000000180056870     libucrt:abort.obj
 0002:0000c870       $unwind$__acrt_initialize_command_line 0000000180056870     libucrt:argv_data.obj
 0002:0000c870       $unwind$?should_call_terminate_process@@YA_NXZ 0000000180056870     libucrt:exit.obj
 0002:0000c870       $unwind$_fileno            0000000180056870     libucrt:fileno.obj
 0002:0000c870       $unwind$_statfp            0000000180056870     libucrt:fpctrl.obj
 0002:0000c870       $unwind$fegetround         0000000180056870     libucrt:fegetround.obj
 0002:0000c870       $unwind$_set_errno_from_matherr 0000000180056870     libucrt:fpexcept.obj
 0002:0000c870       $unwind$?DloadReleaseSectionWriteAccess@@YAXXZ 0000000180056870     Delayimp:delayhlp.obj
 0002:0000c870       $unwind$__scrt_initialize_default_local_stdio_options 0000000180056870     LIBCMT:default_local_stdio_options.obj
 0002:0000c870       $unwind$?dllmain_crt_dispatch@@YAHQEAUHINSTANCE__@@KQEAX@Z 0000000180056870     LIBCMT:dll_dllmain.obj
 0002:0000c870       $unwind$__report_rangecheckfailure 0000000180056870     LIBCMT:gs_report.obj
 0002:0000c870       $unwind$__GSHandlerCheck   0000000180056870     LIBCMT:gshandler.obj
 0002:0000c870       $unwind$__scrt_acquire_startup_lock 0000000180056870     LIBCMT:utility.obj
 0002:0000c870       $unwind$__scrt_dllmain_after_initialize_c 0000000180056870     LIBCMT:utility.obj
 0002:0000c870       $unwind$__scrt_dllmain_before_initialize_c 0000000180056870     LIBCMT:utility.obj
 0002:0000c870       $unwind$__scrt_dllmain_crt_thread_attach 0000000180056870     LIBCMT:utility.obj
 0002:0000c870       $unwind$__scrt_dllmain_crt_thread_detach 0000000180056870     LIBCMT:utility.obj
 0002:0000c870       $unwind$__scrt_dllmain_uninitialize_c 0000000180056870     LIBCMT:utility.obj
 0002:0000c870       $unwind$__scrt_dllmain_uninitialize_critical 0000000180056870     LIBCMT:utility.obj
 0002:0000c870       $unwind$__scrt_initialize_crt 0000000180056870     LIBCMT:utility.obj
 0002:0000c870       $unwind$__std_terminate    0000000180056870     libvcruntime:ehhelpers.obj
 0002:0000c870       $unwind$?GetCurrentState@__FrameHandler3@@SAHPEA_KPEAU_xDISPATCHER_CONTEXT@@PEBU_s_FuncInfo@@@Z 0000000180056870     libvcruntime:ehstate.obj
 0002:0000c870       $xdatasym$_CallSettingFrame 0000000180056870     libvcruntime:handlers.obj
 0002:0000c870       $xdatasym$_CallSettingFrameEncoded 0000000180056870     libvcruntime:handlers.obj
 0002:0000c870       $xdatasym$_CallSettingFrame_LookupContinuationIndex 0000000180056870     libvcruntime:handlers.obj
 0002:0000c870       $xdatasym$_CallSettingFrame_NotifyContinuationAddr 0000000180056870     libvcruntime:handlers.obj
 0002:0000c870       $unwind$__vcrt_initialize  0000000180056870     libvcruntime:initialization.obj
 0002:0000c870       $unwind$__vcrt_thread_attach 0000000180056870     libvcruntime:initialization.obj
 0002:0000c870       $unwind$__vcrt_thread_detach 0000000180056870     libvcruntime:initialization.obj
 0002:0000c870       $unwind$__vcrt_uninitialize 0000000180056870     libvcruntime:initialization.obj
 0002:0000c870       $unwind$__vcrt_uninitialize_critical 0000000180056870     libvcruntime:initialization.obj
 0002:0000c870       $unwind$__vcrt_freefls     0000000180056870     libvcruntime:per_thread_data.obj
 0002:0000c870       $unwind$__vcrt_getptd      0000000180056870     libvcruntime:per_thread_data.obj
 0002:0000c870       $unwind$__vcrt_initialize_ptd 0000000180056870     libvcruntime:per_thread_data.obj
 0002:0000c870       $unwind$__vcrt_uninitialize_ptd 0000000180056870     libvcruntime:per_thread_data.obj
 0002:0000c870       $unwind$_purecall          0000000180056870     libvcruntime:purevirt.obj
 0002:0000c870       $unwind$?FrameUnwindToEmptyState@__FrameHandler4@@SAXPEA_KPEAU_xDISPATCHER_CONTEXT@@PEAUFuncInfo4@FH4@@@Z 0000000180056870     libvcruntime:risctrnsctrl.obj
 0002:0000c870       $unwind$_GetImageBase      0000000180056870     libvcruntime:risctrnsctrl.obj
 0002:0000c870       $unwind$_GetThrowImageBase 0000000180056870     libvcruntime:risctrnsctrl.obj
 0002:0000c870       $unwind$?getLastChar@pDNameNode@@UEBADXZ 0000000180056870     libvcruntime:undname.obj
 0002:0000c870       $unwind$?getString@pDNameNode@@UEBAPEADPEAD0@Z 0000000180056870     libvcruntime:undname.obj
 0002:0000c870       $unwind$?getTypeEncoding@UnDecorator@@CAHXZ 0000000180056870     libvcruntime:undname.obj
 0002:0000c870       $unwind$?length@pDNameNode@@UEBAHXZ 0000000180056870     libvcruntime:undname.obj
 0002:0000c878       $unwind$?cookConvexMesh@Cooking@physx@@UEBA_NAEBVPxConvexMeshDesc@2@AEAVPxOutputStream@2@PEAW4Enum@PxConvexMeshCookingResult@2@@Z 0000000180056878     Cooking.obj
 0002:0000c878       $unwind$?cookTriangleMesh@Cooking@physx@@UEBA_NAEBVPxTriangleMeshDesc@2@AEAVPxOutputStream@2@PEAW4Enum@PxTriangleMeshCookingResult@2@@Z 0000000180056878     Cooking.obj
 0002:0000c878       $unwind$?createTriangleMesh@Cooking@physx@@UEBAPEAVPxTriangleMesh@2@AEBVPxTriangleMeshDesc@2@AEAVPxPhysicsInsertionCallback@2@PEAW4Enum@PxTriangleMeshCookingResult@2@@Z 0000000180056878     Cooking.obj
 0002:0000c894       $unwind$?validateTriangleMesh@Cooking@physx@@UEBA_NAEBVPxTriangleMeshDesc@2@@Z 0000000180056894     Cooking.obj
 0002:0000c8a4       $unwind$?createConvexMesh@Cooking@physx@@UEBAPEAVPxConvexMesh@2@AEBVPxConvexMeshDesc@2@AEAVPxPhysicsInsertionCallback@2@PEAW4Enum@PxConvexMeshCookingResult@2@@Z 00000001800568a4     Cooking.obj
 0002:0000c8c0       $unwind$?validateConvexMesh@Cooking@physx@@UEBA_NAEBVPxConvexMeshDesc@2@@Z 00000001800568c0     Cooking.obj
 0002:0000c8d0       $unwind$?computeHullPolygons@Cooking@physx@@UEBA_NAEBVPxSimpleTriangleMesh@2@AEAVPxAllocatorCallback@2@AEAIAEAPEAVPxVec3@2@2AEAPEAI2AEAPEAUPxHullPolygon@2@@Z 00000001800568d0     Cooking.obj
 0002:0000c8f0       $unwind$?cookHeightField@Cooking@physx@@UEBA_NAEBVPxHeightFieldDesc@2@AEAVPxOutputStream@2@@Z 00000001800568f0     Cooking.obj
 0002:0000c904       $unwind$?createHeightField@Cooking@physx@@UEBAPEAVPxHeightField@2@AEBVPxHeightFieldDesc@2@AEAVPxPhysicsInsertionCallback@2@@Z 0000000180056904     Cooking.obj
 0002:0000c904       $unwind$__acrt_fp_format   0000000180056904     libucrt:cvt.obj
 0002:0000c914       $unwind$?cookBVHStructure@Cooking@physx@@UEBA_NAEBVPxBVHStructureDesc@2@AEAVPxOutputStream@2@@Z 0000000180056914     Cooking.obj
 0002:0000c924       $unwind$?createBVHStructure@Cooking@physx@@UEBAPEAVPxBVHStructure@2@AEBVPxBVHStructureDesc@2@AEAVPxPhysicsInsertionCallback@2@@Z 0000000180056924     Cooking.obj
 0002:0000c924       $unwind$?DloadMakePermanentImageCommit@@YAXPEAX_K@Z 0000000180056924     Delayimp:delayhlp.obj
 0002:0000c930       $unwind$?cookConvexMeshInternal@Cooking@physx@@AEBA_NAEBVPxConvexMeshDesc@2@AEAVConvexMeshBuilder@2@PEAVConvexHullLib@2@PEAW4Enum@PxConvexMeshCookingResult@2@@Z 0000000180056930     Cooking.obj
 0002:0000c944       $chain$2$?cookConvexMeshInternal@Cooking@physx@@AEBA_NAEBVPxConvexMeshDesc@2@AEAVConvexMeshBuilder@2@PEAVConvexHullLib@2@PEAW4Enum@PxConvexMeshCookingResult@2@@Z 0000000180056944     Cooking.obj
 0002:0000c95c       $chain$3$?cookConvexMeshInternal@Cooking@physx@@AEBA_NAEBVPxConvexMeshDesc@2@AEAVConvexMeshBuilder@2@PEAVConvexHullLib@2@PEAW4Enum@PxConvexMeshCookingResult@2@@Z 000000018005695c     Cooking.obj
 0002:0000c96c       $chain$4$?cookConvexMeshInternal@Cooking@physx@@AEBA_NAEBVPxConvexMeshDesc@2@AEAVConvexMeshBuilder@2@PEAVConvexHullLib@2@PEAW4Enum@PxConvexMeshCookingResult@2@@Z 000000018005696c     Cooking.obj
 0002:0000c984       $unwind$?allocate@?$Array@USlab@NodeAllocator@Gu@physx@@V?$ReflectionAllocator@USlab@NodeAllocator@Gu@physx@@@shdfnd@4@@shdfnd@physx@@IEAAPEAUSlab@NodeAllocator@Gu@3@I@Z 0000000180056984     BVHStructureBuilder.obj
 0002:0000c984       $unwind$?allocate@?$Array@VHalfEdge@ConvexHull@physx@@V?$ReflectionAllocator@VHalfEdge@ConvexHull@physx@@@shdfnd@3@@shdfnd@physx@@IEAAPEAVHalfEdge@ConvexHull@3@I@Z 0000000180056984     ConvexHullUtils.obj
 0002:0000c984       $unwind$?allocate@?$Array@VPxPlane@physx@@V?$ReflectionAllocator@VPxPlane@physx@@@shdfnd@2@@shdfnd@physx@@IEAAPEAVPxPlane@3@I@Z 0000000180056984     ConvexHullUtils.obj
 0002:0000c984       $unwind$?computeBoxPoints@Box@Gu@physx@@QEBAXPEIAVPxVec3@3@@Z 0000000180056984     ConvexHullUtils.obj
 0002:0000c984       $unwind$?allocate@?$Array@VPair@@V?$ReflectionAllocator@VPair@@@shdfnd@physx@@@shdfnd@physx@@IEAAPEAVPair@@I@Z 0000000180056984     ConvexPolygonsBuilder.obj
 0002:0000c984       $unwind$?allocate@?$Array@UPxDebugLine@physx@@V?$ReflectionAllocator@UPxDebugLine@physx@@@shdfnd@2@@shdfnd@physx@@IEAAPEAUPxDebugLine@3@I@Z 0000000180056984     Cooking.obj
 0002:0000c984       $unwind$?allocate@?$Array@PEAUQuickHullFace@local@@V?$ReflectionAllocator@PEAUQuickHullFace@local@@@shdfnd@physx@@@shdfnd@physx@@IEAAPEAPEAUQuickHullFace@local@@I@Z 0000000180056984     QuickHullConvexHullLib.obj
 0002:0000c984       $unwind$?allocate@?$Array@PEAUQuickHullHalfEdge@local@@V?$ReflectionAllocator@PEAUQuickHullHalfEdge@local@@@shdfnd@physx@@@shdfnd@physx@@IEAAPEAPEAUQuickHullHalfEdge@local@@I@Z 0000000180056984     QuickHullConvexHullLib.obj
 0002:0000c984       $unwind$?allocate@?$Array@PEAUQuickHullVertex@local@@V?$ReflectionAllocator@PEAUQuickHullVertex@local@@@shdfnd@physx@@@shdfnd@physx@@IEAAPEAPEAUQuickHullVertex@local@@I@Z 0000000180056984     QuickHullConvexHullLib.obj
 0002:0000c984       $unwind$?allocate@?$Array@UExpandPoint@local@@V?$ReflectionAllocator@UExpandPoint@local@@@shdfnd@physx@@@shdfnd@physx@@IEAAPEAUExpandPoint@local@@I@Z 0000000180056984     QuickHullConvexHullLib.obj
 0002:0000c984       $unwind$?allocate@?$Array@UInterval@physx@@V?$InlineAllocator@$0CAAA@V?$ReflectionAllocator@UInterval@physx@@@shdfnd@physx@@@shdfnd@2@@shdfnd@physx@@IEAAPEAUInterval@3@I@Z 0000000180056984     RTreeCooking.obj
 0002:0000c984       $unwind$?allocate@?$Array@UPxBounds3V@physx@@V?$ReflectionAllocator@UPxBounds3V@physx@@@shdfnd@2@@shdfnd@physx@@IEAAPEAUPxBounds3V@3@I@Z 0000000180056984     RTreeCooking.obj
 0002:0000c984       $unwind$?allocate@?$Array@URTreeNodeNQ@physx@@V?$ReflectionAllocator@URTreeNodeNQ@physx@@@shdfnd@2@@shdfnd@physx@@IEAAPEAURTreeNodeNQ@3@I@Z 0000000180056984     RTreeCooking.obj
 0002:0000c984       $unwind$?allocate@?$Array@URTreeNodeQ@Gu@physx@@V?$ReflectionAllocator@URTreeNodeQ@Gu@physx@@@shdfnd@3@@shdfnd@physx@@IEAAPEAURTreeNodeQ@Gu@3@I@Z 0000000180056984     RTreeCooking.obj
 0002:0000c984       $unwind$?allocate@?$Array@VPxVec3@physx@@V?$ReflectionAllocator@VPxVec3@physx@@@shdfnd@2@@shdfnd@physx@@IEAAPEAVPxVec3@3@I@Z 0000000180056984     RTreeCooking.obj
 0002:0000c984       $unwind$_invalid_parameter_noinfo 0000000180056984     libucrt:invalid_parameter.obj
 0002:0000c984       $unwind$?state_case_size@?$output_processor@DV?$string_output_adapter@D@__crt_stdio_output@@V?$format_validation_base@DV?$string_output_adapter@D@__crt_stdio_output@@@2@@__crt_stdio_output@@AEAA_NXZ 0000000180056984     libucrt:output.obj
 0002:0000c984       $unwind$?state_case_size@?$output_processor@DV?$string_output_adapter@D@__crt_stdio_output@@V?$standard_base@DV?$string_output_adapter@D@__crt_stdio_output@@@2@@__crt_stdio_output@@AEAA_NXZ 0000000180056984     libucrt:output.obj
 0002:0000c984       $unwind$_log10_special     0000000180056984     libucrt:log_special.obj
 0002:0000c98c       $chain$1$?allocate@?$Array@UPxDebugLine@physx@@V?$ReflectionAllocator@UPxDebugLine@physx@@@shdfnd@2@@shdfnd@physx@@IEAAPEAUPxDebugLine@3@I@Z 000000018005698c     Cooking.obj
 0002:0000c9a4       $chain$3$?allocate@?$Array@UPxDebugLine@physx@@V?$ReflectionAllocator@UPxDebugLine@physx@@@shdfnd@2@@shdfnd@physx@@IEAAPEAUPxDebugLine@3@I@Z 00000001800569a4     Cooking.obj
 0002:0000c9b8       $chain$4$?allocate@?$Array@UPxDebugLine@physx@@V?$ReflectionAllocator@UPxDebugLine@physx@@@shdfnd@2@@shdfnd@physx@@IEAAPEAUPxDebugLine@3@I@Z 00000001800569b8     Cooking.obj
 0002:0000c9c8       $unwind$?growAndPushBack@?$Array@VHalfEdge@ConvexHull@physx@@V?$ReflectionAllocator@VHalfEdge@ConvexHull@physx@@@shdfnd@3@@shdfnd@physx@@IEAAAEAVHalfEdge@ConvexHull@3@AEBV453@@Z 00000001800569c8     ConvexHullUtils.obj
 0002:0000c9c8       $unwind$?growAndPushBack@?$Array@VPxPlane@physx@@V?$ReflectionAllocator@VPxPlane@physx@@@shdfnd@2@@shdfnd@physx@@IEAAAEAVPxPlane@3@AEBV43@@Z 00000001800569c8     ConvexHullUtils.obj
 0002:0000c9c8       $unwind$?recreate@?$Array@VPxPlane@physx@@V?$ReflectionAllocator@VPxPlane@physx@@@shdfnd@2@@shdfnd@physx@@IEAAXI@Z 00000001800569c8     ConvexHullUtils.obj
 0002:0000c9c8       $unwind$?resize@?$Array@VHalfEdge@ConvexHull@physx@@V?$ReflectionAllocator@VHalfEdge@ConvexHull@physx@@@shdfnd@3@@shdfnd@physx@@QEAAXIAEBVHalfEdge@ConvexHull@3@@Z 00000001800569c8     ConvexHullUtils.obj
 0002:0000c9c8       $unwind$?growAndPushBack@?$Array@VPair@@V?$ReflectionAllocator@VPair@@@shdfnd@physx@@@shdfnd@physx@@IEAAAEAVPair@@AEBV4@@Z 00000001800569c8     ConvexPolygonsBuilder.obj
 0002:0000c9c8       $unwind$?recreate@?$Array@UPxDebugLine@physx@@V?$ReflectionAllocator@UPxDebugLine@physx@@@shdfnd@2@@shdfnd@physx@@IEAAXI@Z 00000001800569c8     Cooking.obj
 0002:0000c9c8       $unwind$??_GQuickHullConvexHullLib@physx@@UEAAPEAXI@Z 00000001800569c8     QuickHullConvexHullLib.obj
 0002:0000c9c8       $unwind$?growAndPushBack@?$Array@PEAUQuickHullFace@local@@V?$ReflectionAllocator@PEAUQuickHullFace@local@@@shdfnd@physx@@@shdfnd@physx@@IEAAAEAPEAUQuickHullFace@local@@AEBQEAU45@@Z 00000001800569c8     QuickHullConvexHullLib.obj
 0002:0000c9c8       $unwind$?growAndPushBack@?$Array@PEAUQuickHullHalfEdge@local@@V?$ReflectionAllocator@PEAUQuickHullHalfEdge@local@@@shdfnd@physx@@@shdfnd@physx@@IEAAAEAPEAUQuickHullHalfEdge@local@@AEBQEAU45@@Z 00000001800569c8     QuickHullConvexHullLib.obj
 0002:0000c9c8       $unwind$?growAndPushBack@?$Array@PEAUQuickHullVertex@local@@V?$ReflectionAllocator@PEAUQuickHullVertex@local@@@shdfnd@physx@@@shdfnd@physx@@IEAAAEAPEAUQuickHullVertex@local@@AEBQEAU45@@Z 00000001800569c8     QuickHullConvexHullLib.obj
 0002:0000c9c8       $unwind$?growAndPushBack@?$Array@UExpandPoint@local@@V?$ReflectionAllocator@UExpandPoint@local@@@shdfnd@physx@@@shdfnd@physx@@IEAAAEAUExpandPoint@local@@AEBU45@@Z 00000001800569c8     QuickHullConvexHullLib.obj
 0002:0000c9c8       $unwind$?recreate@?$Array@UExpandPoint@local@@V?$ReflectionAllocator@UExpandPoint@local@@@shdfnd@physx@@@shdfnd@physx@@IEAAXI@Z 00000001800569c8     QuickHullConvexHullLib.obj
 0002:0000c9c8       $unwind$?growAndPushBack@?$Array@UInterval@physx@@V?$InlineAllocator@$0CAAA@V?$ReflectionAllocator@UInterval@physx@@@shdfnd@physx@@@shdfnd@2@@shdfnd@physx@@IEAAAEAUInterval@3@AEBU43@@Z 00000001800569c8     RTreeCooking.obj
 0002:0000c9c8       $unwind$?growAndPushBack@?$Array@UPxBounds3V@physx@@V?$ReflectionAllocator@UPxBounds3V@physx@@@shdfnd@2@@shdfnd@physx@@IEAAAEAUPxBounds3V@3@AEBU43@@Z 00000001800569c8     RTreeCooking.obj
 0002:0000c9c8       $unwind$?growAndPushBack@?$Array@URTreeNodeNQ@physx@@V?$ReflectionAllocator@URTreeNodeNQ@physx@@@shdfnd@2@@shdfnd@physx@@IEAAAEAURTreeNodeNQ@3@AEBU43@@Z 00000001800569c8     RTreeCooking.obj
 0002:0000c9c8       $unwind$?growAndPushBack@?$Array@URTreeNodeQ@Gu@physx@@V?$ReflectionAllocator@URTreeNodeQ@Gu@physx@@@shdfnd@3@@shdfnd@physx@@IEAAAEAURTreeNodeQ@Gu@3@AEBU453@@Z 00000001800569c8     RTreeCooking.obj
 0002:0000c9c8       $unwind$?recreate@?$Array@URTreeNodeNQ@physx@@V?$ReflectionAllocator@URTreeNodeNQ@physx@@@shdfnd@2@@shdfnd@physx@@IEAAXI@Z 00000001800569c8     RTreeCooking.obj
 0002:0000c9c8       $unwind$?recreate@?$Array@VPxVec3@physx@@V?$ReflectionAllocator@VPxVec3@physx@@@shdfnd@2@@shdfnd@physx@@IEAAXI@Z 00000001800569c8     RTreeCooking.obj
 0002:0000c9c8       $unwind$?resize@?$Array@IV?$ReflectionAllocator@I@shdfnd@physx@@@shdfnd@physx@@QEAAXIAEBI@Z 00000001800569c8     RTreeCooking.obj
 0002:0000c9c8       $unwind$?should_round_up@@YA_NQEBD0HW4__acrt_has_trailing_digits@@W4__acrt_rounding_mode@@@Z 00000001800569c8     libucrt:_fptostr.obj
 0002:0000c9c8       $unwind$_ischartype_l      00000001800569c8     libucrt:atox.obj
 0002:0000c9c8       $unwind$_recalloc_base     00000001800569c8     libucrt:recalloc.obj
 0002:0000c9c8       $unwind$__acrt_free_locale 00000001800569c8     libucrt:locale_refcounting.obj
 0002:0000c9c8       $unwind$__acrt_lowio_create_handle_array 00000001800569c8     libucrt:osfinfo.obj
 0002:0000c9c8       $unwind$_seh_filter_exe    00000001800569c8     libucrt:exception_filter.obj
 0002:0000c9c8       $unwind$__acrt_stdio_flush_nolock 00000001800569c8     libucrt:fflush.obj
 0002:0000c9c8       $unwind$??$ensure_buffer_is_big_enough@D@formatting_buffer@__crt_stdio_output@@QEAA_N_KAEAV__crt_cached_ptd_host@@@Z 00000001800569c8     libucrt:output.obj
 0002:0000c9c8       $unwind$__scrt_dllmain_exception_filter 00000001800569c8     LIBCMT:utility.obj
 0002:0000c9c8       $unwind$?GetHandlerSearchState@__FrameHandler3@@SAHPEA_KPEAU_xDISPATCHER_CONTEXT@@PEBU_s_FuncInfo@@@Z 00000001800569c8     libvcruntime:frame.obj
 0002:0000c9c8       $unwind$?Is_bad_exception_allowed@@YAEPEBU_s_ESTypeList@@@Z 00000001800569c8     libvcruntime:frame.obj
 0002:0000c9c8       $unwind$?CatchTryBlock@__FrameHandler3@@SAPEBU_s_TryBlockMapEntry@@PEBU_s_FuncInfo@@H@Z 00000001800569c8     libvcruntime:risctrnsctrl.obj
 0002:0000c9dc       $unwind$??$copy@V?$ReflectionAllocator@USlab@NodeAllocator@Gu@physx@@@shdfnd@physx@@@?$Array@USlab@NodeAllocator@Gu@physx@@V?$ReflectionAllocator@USlab@NodeAllocator@Gu@physx@@@shdfnd@4@@shdfnd@physx@@IEAAXAEBV012@@Z 00000001800569dc     BVHStructureBuilder.obj
 0002:0000c9dc       $unwind$??0NodeAllocator@Gu@physx@@QEAA@AEBV012@@Z 00000001800569dc     BVHStructureBuilder.obj
 0002:0000c9dc       $unwind$??1ConvexHullLib@physx@@UEAA@XZ 00000001800569dc     ConvexHullLib.obj
 0002:0000c9dc       $unwind$??1ConvexMeshBuilder@physx@@QEAA@XZ 00000001800569dc     ConvexMeshBuilder.obj
 0002:0000c9dc       $unwind$??$copy@V?$ReflectionAllocator@VPair@@@shdfnd@physx@@@?$Array@VPair@@V?$ReflectionAllocator@VPair@@@shdfnd@physx@@@shdfnd@physx@@IEAAXAEBV012@@Z 00000001800569dc     ConvexPolygonsBuilder.obj
 0002:0000c9dc       $unwind$??1ConvexPolygonsBuilder@physx@@QEAA@XZ 00000001800569dc     ConvexPolygonsBuilder.obj
 0002:0000c9dc       $unwind$?reserveSegments@RenderOutput@Cm@physx@@QEAAPEAUPxDebugLine@3@I@Z 00000001800569dc     Cooking.obj
 0002:0000c9dc       $unwind$?Clean@ReducedVertexCloud@physx@@QEAAAEAV12@XZ 00000001800569dc     CookingUtils.obj
 0002:0000c9dc       $unwind$?computeLocalBounds@MeshBulider@physx@@IEAAXAEAVMeshDataBase@Gu@2@@Z 00000001800569dc     MeshBuilder.obj
 0002:0000c9dc       $unwind$??1QuickHull@local@@QEAA@XZ 00000001800569dc     QuickHullConvexHullLib.obj
 0002:0000c9dc       $unwind$?fillConvexMeshDesc@QuickHullConvexHullLib@physx@@UEAAXAEAVPxConvexMeshDesc@2@@Z 00000001800569dc     QuickHullConvexHullLib.obj
 0002:0000c9dc       $unwind$?resizeUninitialized@?$Array@URTreeNodeNQ@physx@@V?$ReflectionAllocator@URTreeNodeNQ@physx@@@shdfnd@2@@shdfnd@physx@@QEAAXI@Z 00000001800569dc     RTreeCooking.obj
 0002:0000c9dc       $unwind$??0BV4TriangleMeshBuilder@physx@@QEAA@AEBUPxCookingParams@1@@Z 00000001800569dc     TriangleMeshBuilder.obj
 0002:0000c9dc       $unwind$??1BV4TriangleMeshBuilder@physx@@UEAA@XZ 00000001800569dc     TriangleMeshBuilder.obj
 0002:0000c9dc       $unwind$??1TriangleMeshBuilder@physx@@UEAA@XZ 00000001800569dc     TriangleMeshBuilder.obj
 0002:0000c9dc       $unwind$??1TriangleMeshData@Gu@physx@@UEAA@XZ 00000001800569dc     TriangleMeshBuilder.obj
 0002:0000c9dc       $unwind$??_GBV4TriangleData@Gu@physx@@UEAAPEAXI@Z 00000001800569dc     TriangleMeshBuilder.obj
 0002:0000c9dc       $unwind$??_GMeshDataBase@Gu@physx@@UEAAPEAXI@Z 00000001800569dc     TriangleMeshBuilder.obj
 0002:0000c9dc       $unwind$??_GRTreeTriangleData@Gu@physx@@UEAAPEAXI@Z 00000001800569dc     TriangleMeshBuilder.obj
 0002:0000c9dc       $unwind$??_GRTreeTriangleMeshBuilder@physx@@UEAAPEAXI@Z 00000001800569dc     TriangleMeshBuilder.obj
 0002:0000c9dc       $unwind$??_GTriangleMeshBuilder@physx@@UEAAPEAXI@Z 00000001800569dc     TriangleMeshBuilder.obj
 0002:0000c9dc       $unwind$??_GTriangleMeshData@Gu@physx@@UEAAPEAXI@Z 00000001800569dc     TriangleMeshBuilder.obj
 0002:0000c9dc       $unwind$??$common_initialize_environment_nolock@D@@YAHXZ 00000001800569dc     libucrt:environment_initialization.obj
 0002:0000c9dc       $unwind$_callnewh          00000001800569dc     libucrt:new_handler.obj
 0002:0000c9dc       $unwind$_realloc_base      00000001800569dc     libucrt:realloc_base.obj
 0002:0000c9dc       $unwind$?replace_current_thread_locale_nolock@@YAXQEAU__acrt_ptd@@QEAU__crt_locale_data@@@Z 00000001800569dc     libucrt:per_thread_data.obj
 0002:0000c9dc       $unwind$__acrt_execute_uninitializers 00000001800569dc     libucrt:shared_initialization.obj
 0002:0000c9dc       $unwind$__acrt_LocaleNameToLCID 00000001800569dc     libucrt:winapi_thunks.obj
 0002:0000c9dc       $unwind$?free_crt_array_internal@@YAXQEAPEBX_K@Z 00000001800569dc     libucrt:inittime.obj
 0002:0000c9dc       $unwind$_updatetlocinfoEx_nolock 00000001800569dc     libucrt:locale_refcounting.obj
 0002:0000c9dc       $unwind$__acrt_uninitialize_lowio 00000001800569dc     libucrt:ioinit.obj
 0002:0000c9dc       $unwind$?setSBCS@@YAXPEAU__crt_multibyte_data@@@Z 00000001800569dc     libucrt:mbctype.obj
 0002:0000c9dc       $unwind$_initterm_e        00000001800569dc     libucrt:initterm.obj
 0002:0000c9dc       $unwind$?DloadGetSRWLockFunctionPointers@@YAEXZ 00000001800569dc     Delayimp:delayhlp.obj
 0002:0000c9dc       $unwind$_RTC_Initialize    00000001800569dc     LIBCMT:initsect.obj
 0002:0000c9dc       $unwind$_RTC_Terminate     00000001800569dc     LIBCMT:initsect.obj
 0002:0000c9dc       $unwind$__C_specific_handler_noexcept 00000001800569dc     libvcruntime:chandler_noexcept.obj
 0002:0000c9dc       $unwind$__FrameUnwindFilter 00000001800569dc     libvcruntime:ehhelpers.obj
 0002:0000c9dc       $unwind$?SetUnwindTryBlock@__FrameHandler3@@SAXPEA_KPEAU_xDISPATCHER_CONTEXT@@PEBU_s_FuncInfo@@H@Z 00000001800569dc     libvcruntime:ehstate.obj
 0002:0000c9dc       $unwind$??_Gbad_exception@std@@UEAAPEAXI@Z 00000001800569dc     libvcruntime:frame.obj
 0002:0000c9dc       $unwind$??_Gexception@std@@UEAAPEAXI@Z 00000001800569dc     libvcruntime:frame.obj
 0002:0000c9dc       $unwind$?ExFilterRethrowFH4@@YAHPEAU_EXCEPTION_POINTERS@@PEAUEHExceptionRecord@@HPEAH@Z 00000001800569dc     libvcruntime:frame.obj
 0002:0000c9dc       $unwind$_FindAndUnlinkFrame 00000001800569dc     libvcruntime:risctrnsctrl.obj
 0002:0000c9dc       $unwind$??$append@VDNameNode@@@DName@@AEAAXPEBVDNameNode@@@Z 00000001800569dc     libvcruntime:undname.obj
 0002:0000c9dc       $unwind$??$append@VDNameStatusNode@@@DName@@AEAAXPEBVDNameStatusNode@@@Z 00000001800569dc     libvcruntime:undname.obj
 0002:0000c9dc       $unwind$??$append@VcharNode@@@DName@@AEAAXPEBVcharNode@@@Z 00000001800569dc     libvcruntime:undname.obj
 0002:0000c9dc       $unwind$??$append@VpcharNode@@@DName@@AEAAXPEBVpcharNode@@@Z 00000001800569dc     libvcruntime:undname.obj
 0002:0000c9dc       $unwind$??YDName@@QEAAAEAV0@AEBUStringLiteral@@@Z 00000001800569dc     libvcruntime:undname.obj
 0002:0000c9dc       $unwind$??YDName@@QEAAAEAV0@D@Z 00000001800569dc     libvcruntime:undname.obj
 0002:0000c9dc       $unwind$??YReplicator@@QEAAAEAV0@AEBVDName@@@Z 00000001800569dc     libvcruntime:undname.obj
 0002:0000c9dc       $unwind$?getString@pairNode@@UEBAPEADPEAD0@Z 00000001800569dc     libvcruntime:undname.obj
 0002:0000c9dc       $unwind$?length@pairNode@@UEBAHXZ 00000001800569dc     libvcruntime:undname.obj
 0002:0000c9dc       $unwind$__vcrt_FlsSetValue 00000001800569dc     libvcruntime:winapi_downlevel.obj
 0002:0000c9e8       $unwind$?outputSegment@RenderOutput@Cm@physx@@QEAAXAEBVPxVec3@3@0@Z 00000001800569e8     Cooking.obj
 0002:0000ca00       $unwind$?getHeight@HeightField@Gu@physx@@UEBAMMM@Z 0000000180056a00     Cooking.obj
 0002:0000ca00       $unwind$__dcrt_lowio_ensure_console_output_initialized 0000000180056a00     libucrt:initcon.obj
 0002:0000ca00       $unwind$?__mbrtowc_utf8@__crt_mbstring@@YA_KPEA_WPEBD_KPEAU_Mbstatet@@AEAV__crt_cached_ptd_host@@@Z 0000000180056a00     libucrt:mbrtowc.obj
 0002:0000ca00       $unwind$?getSystemCP@@YAHH@Z 0000000180056a00     libucrt:mbctype.obj
 0002:0000ca00       $unwind$?getAddressOf@UnDecorator@@CA?AVDName@@XZ 0000000180056a00     libvcruntime:undname.obj
 0002:0000ca00       $unwind$?getArrayAccess@UnDecorator@@CA?AVDName@@XZ 0000000180056a00     libvcruntime:undname.obj
 0002:0000ca00       $unwind$?getArrayObject@UnDecorator@@CA?AVDName@@XZ 0000000180056a00     libvcruntime:undname.obj
 0002:0000ca00       $unwind$?getMemberAccess@UnDecorator@@CA?AVDName@@XZ 0000000180056a00     libvcruntime:undname.obj
 0002:0000ca00       $unwind$?getStringEncoding@UnDecorator@@CA?AVDName@@W4PrefixKind@@H@Z 0000000180056a00     libvcruntime:undname.obj
 0002:0000ca00       $unwind$?getUnionObject@UnDecorator@@CA?AVDName@@XZ 0000000180056a00     libvcruntime:undname.obj
 0002:0000ca08       $unwind$?getHeightInternal2@HeightField@Gu@physx@@QEBAMIMM@Z 0000000180056a08     Cooking.obj
 0002:0000ca14       $chain$0$?getHeightInternal2@HeightField@Gu@physx@@QEBAMIMM@Z 0000000180056a14     Cooking.obj
 0002:0000ca28       $chain$2$?getHeightInternal2@HeightField@Gu@physx@@QEBAMIMM@Z 0000000180056a28     Cooking.obj
 0002:0000ca3c       $unwind$?Reduce@ReducedVertexCloud@physx@@QEAA_NPEAUREDUCEDCLOUD@2@@Z 0000000180056a3c     CookingUtils.obj
 0002:0000ca48       $chain$3$?Reduce@ReducedVertexCloud@physx@@QEAA_NPEAUREDUCEDCLOUD@2@@Z 0000000180056a48     CookingUtils.obj
 0002:0000ca68       $chain$4$?Reduce@ReducedVertexCloud@physx@@QEAA_NPEAUREDUCEDCLOUD@2@@Z 0000000180056a68     CookingUtils.obj
 0002:0000ca7c       $chain$5$?Reduce@ReducedVertexCloud@physx@@QEAA_NPEAUREDUCEDCLOUD@2@@Z 0000000180056a7c     CookingUtils.obj
 0002:0000ca8c       $chain$6$?Reduce@ReducedVertexCloud@physx@@QEAA_NPEAUREDUCEDCLOUD@2@@Z 0000000180056a8c     CookingUtils.obj
 0002:0000caa4       $chain$7$?Reduce@ReducedVertexCloud@physx@@QEAA_NPEAUREDUCEDCLOUD@2@@Z 0000000180056aa4     CookingUtils.obj
 0002:0000cab4       $unwind$??1AABBTreeBuildParams@Gu@physx@@QEAA@XZ 0000000180056ab4     BVHStructureBuilder.obj
 0002:0000cab4       $unwind$??1BVHStructureBuilder@physx@@QEAA@XZ 0000000180056ab4     BVHStructureBuilder.obj
 0002:0000cab4       $unwind$?reset@AABBTreeBuildParams@Gu@physx@@QEAAXXZ 0000000180056ab4     BVHStructureBuilder.obj
 0002:0000cab4       $unwind$??1ConvexHullBuilder@physx@@QEAA@XZ 0000000180056ab4     ConvexHullBuilder.obj
 0002:0000cab4       $unwind$??_GConvexHullLib@physx@@UEAAPEAXI@Z 0000000180056ab4     ConvexHullLib.obj
 0002:0000cab4       $unwind$?resize@?$Array@VPxPlane@physx@@V?$ReflectionAllocator@VPxPlane@physx@@@shdfnd@2@@shdfnd@physx@@QEAAXIAEBVPxPlane@3@@Z 0000000180056ab4     ConvexHullUtils.obj
 0002:0000cab4       $unwind$??1EdgeList@Gu@physx@@QEAA@XZ 0000000180056ab4     EdgeList.obj
 0002:0000cab4       $unwind$??1MeshCleaner@physx@@QEAA@XZ 0000000180056ab4     MeshCleaner.obj
 0002:0000cab4       $unwind$??1MeshDataBase@Gu@physx@@UEAA@XZ 0000000180056ab4     TriangleMeshBuilder.obj
 0002:0000cab4       $unwind$??_GBV4TriangleMeshBuilder@physx@@UEAAPEAXI@Z 0000000180056ab4     TriangleMeshBuilder.obj
 0002:0000cab4       $unwind$memcpy_s           0000000180056ab4     libucrt:cfout.obj
 0002:0000cab4       $unwind$__acrt_getptd      0000000180056ab4     libucrt:per_thread_data.obj
 0002:0000cab4       $unwind$__acrt_getptd_noexit 0000000180056ab4     libucrt:per_thread_data.obj
 0002:0000cab4       $unwind$__acrt_getptd_noexit_explicit 0000000180056ab4     libucrt:per_thread_data.obj
 0002:0000cab4       $unwind$__acrt_execute_initializers 0000000180056ab4     libucrt:shared_initialization.obj
 0002:0000cab4       $unwind$__acrt_InitializeCriticalSectionEx 0000000180056ab4     libucrt:winapi_thunks.obj
 0002:0000cab4       $unwind$_close_nolock_internal 0000000180056ab4     libucrt:close.obj
 0002:0000cab4       $unwind$?value@?$dual_state_global@P6AXPEB_W00I_K@Z@__crt_state_management@@QEAAAEAP6AXPEB_W00I_K@ZAEAV__crt_cached_ptd_host@@@Z 0000000180056ab4     libucrt:invalid_parameter.obj
 0002:0000cab4       $unwind$??0_LocaleUpdate@@QEAA@QEAU__crt_locale_pointers@@@Z 0000000180056ab4     libucrt:argv_wildcards.obj
 0002:0000cab4       $unwind$?update_locale_slow@__crt_cached_ptd_host@@AEAAXXZ 0000000180056ab4     libucrt:output.obj
 0002:0000cab4       $unwind$strncpy_s          0000000180056ab4     libucrt:strncpy_s.obj
 0002:0000cab4       $unwind$_exception_enabled 0000000180056ab4     libucrt:libm_error.obj
 0002:0000cab4       $unwind$_DllMainCRTStartup 0000000180056ab4     LIBCMT:dll_dllmain.obj
 0002:0000cab4       $unwind$__vcrt_getptd_noexit 0000000180056ab4     libvcruntime:per_thread_data.obj
 0002:0000cab4       $unwind$?FrameUnwindToEmptyState@__FrameHandler3@@SAXPEA_KPEAU_xDISPATCHER_CONTEXT@@PEBU_s_FuncInfo@@@Z 0000000180056ab4     libvcruntime:risctrnsctrl.obj
 0002:0000cab4       $unwind$??$?0$01@pcharNode@@QEAA@PEBDHU?$StringLifeSelector@$01@@@Z 0000000180056ab4     libvcruntime:undname.obj
 0002:0000cab4       $unwind$??$?0$0A@@pcharNode@@QEAA@PEBDHU?$StringLifeSelector@$0A@@@@Z 0000000180056ab4     libvcruntime:undname.obj
 0002:0000cab4       $unwind$??$doPchar@$00@DName@@AEAAXPEBDH@Z 0000000180056ab4     libvcruntime:undname.obj
 0002:0000cab4       $unwind$??$doPchar@$01@DName@@AEAAXPEBDH@Z 0000000180056ab4     libvcruntime:undname.obj
 0002:0000cab4       $unwind$??$doPchar@$0A@@DName@@AEAAXPEBDH@Z 0000000180056ab4     libvcruntime:undname.obj
 0002:0000cab4       $unwind$??0DName@@QEAA@AEAPEBDD@Z 0000000180056ab4     libvcruntime:undname.obj
 0002:0000cab4       $unwind$??0DName@@QEAA@PEAV0@@Z 0000000180056ab4     libvcruntime:undname.obj
 0002:0000cab4       $unwind$?getMemoryWithBuffer@_HeapManager@@QEAAPEAX_K@Z 0000000180056ab4     libvcruntime:undname.obj
 0002:0000cab4       $unwind$__vcrt_InitializeCriticalSectionEx 0000000180056ab4     libvcruntime:winapi_downlevel.obj
 0002:0000cac4       $unwind$?init@EdgeListBuilder@Gu@physx@@QEAA_NAEBUEDGELISTCREATE@23@@Z 0000000180056ac4     EdgeList.obj
 0002:0000cac4       $unwind$__acrt_fp_strflt_to_string 0000000180056ac4     libucrt:_fptostr.obj
 0002:0000cac4       $unwind$??$common_lseek_nolock@_J@@YA_JH_JHAEAV__crt_cached_ptd_host@@@Z 0000000180056ac4     libucrt:lseek.obj
 0002:0000cac4       $unwind$_invalid_parameter_internal 0000000180056ac4     libucrt:invalid_parameter.obj
 0002:0000cad8       $unwind$?createFacesToEdges@EdgeListBuilder@Gu@physx@@AEAA_NIPEBIPEBG@Z 0000000180056ad8     EdgeList.obj
 0002:0000cae8       $chain$1$?createFacesToEdges@EdgeListBuilder@Gu@physx@@AEAA_NIPEBIPEBG@Z 0000000180056ae8     EdgeList.obj
 0002:0000cb00       $chain$3$?createFacesToEdges@EdgeListBuilder@Gu@physx@@AEAA_NIPEBIPEBG@Z 0000000180056b00     EdgeList.obj
 0002:0000cb18       $chain$4$?createFacesToEdges@EdgeListBuilder@Gu@physx@@AEAA_NIPEBIPEBG@Z 0000000180056b18     EdgeList.obj
 0002:0000cb2c       $chain$5$?createFacesToEdges@EdgeListBuilder@Gu@physx@@AEAA_NIPEBIPEBG@Z 0000000180056b2c     EdgeList.obj
 0002:0000cb44       $chain$6$?createFacesToEdges@EdgeListBuilder@Gu@physx@@AEAA_NIPEBIPEBG@Z 0000000180056b44     EdgeList.obj
 0002:0000cb58       $chain$7$?createFacesToEdges@EdgeListBuilder@Gu@physx@@AEAA_NIPEBIPEBG@Z 0000000180056b58     EdgeList.obj
 0002:0000cb68       $unwind$?createEdgesToFaces@EdgeListBuilder@Gu@physx@@AEAA_NIPEBIPEBG@Z 0000000180056b68     EdgeList.obj
 0002:0000cb74       $chain$2$?createEdgesToFaces@EdgeListBuilder@Gu@physx@@AEAA_NIPEBIPEBG@Z 0000000180056b74     EdgeList.obj
 0002:0000cb90       $chain$3$?createEdgesToFaces@EdgeListBuilder@Gu@physx@@AEAA_NIPEBIPEBG@Z 0000000180056b90     EdgeList.obj
 0002:0000cba8       $unwind$?computeActiveEdges@EdgeListBuilder@Gu@physx@@AEAA_NIPEBIPEBGPEBVPxVec3@3@M@Z 0000000180056ba8     EdgeList.obj
 0002:0000cbb8       $chain$0$?computeActiveEdges@EdgeListBuilder@Gu@physx@@AEAA_NIPEBIPEBGPEBVPxVec3@3@M@Z 0000000180056bb8     EdgeList.obj
 0002:0000cbcc       $chain$3$?computeActiveEdges@EdgeListBuilder@Gu@physx@@AEAA_NIPEBIPEBGPEBVPxVec3@3@M@Z 0000000180056bcc     EdgeList.obj
 0002:0000cbe4       $chain$16$?computeActiveEdges@EdgeListBuilder@Gu@physx@@AEAA_NIPEBIPEBGPEBVPxVec3@3@M@Z 0000000180056be4     EdgeList.obj
 0002:0000cc28       $chain$17$?computeActiveEdges@EdgeListBuilder@Gu@physx@@AEAA_NIPEBIPEBGPEBVPxVec3@3@M@Z 0000000180056c28     EdgeList.obj
 0002:0000cc3c       $chain$18$?computeActiveEdges@EdgeListBuilder@Gu@physx@@AEAA_NIPEBIPEBGPEBVPxVec3@3@M@Z 0000000180056c3c     EdgeList.obj
 0002:0000cc4c       $chain$19$?computeActiveEdges@EdgeListBuilder@Gu@physx@@AEAA_NIPEBIPEBGPEBVPxVec3@3@M@Z 0000000180056c4c     EdgeList.obj
 0002:0000cc5c       $chain$0$??$?_UI@@YAPEAX_KV?$ReflectionAllocator@I@shdfnd@physx@@PEBDH@Z 0000000180056c5c     EdgeList.obj
 0002:0000cc70       $chain$1$??$?_UI@@YAPEAX_KV?$ReflectionAllocator@I@shdfnd@physx@@PEBDH@Z 0000000180056c70     EdgeList.obj
 0002:0000cc80       $unwind$??0MeshCleaner@physx@@QEAA@IPEBVPxVec3@1@IPEBIM@Z 0000000180056c80     MeshCleaner.obj
 0002:0000cc90       $chain$4$??0MeshCleaner@physx@@QEAA@IPEBVPxVec3@1@IPEBIM@Z 0000000180056c90     MeshCleaner.obj
 0002:0000ccb4       $chain$6$??0MeshCleaner@physx@@QEAA@IPEBVPxVec3@1@IPEBIM@Z 0000000180056cb4     MeshCleaner.obj
 0002:0000cccc       $chain$7$??0MeshCleaner@physx@@QEAA@IPEBVPxVec3@1@IPEBIM@Z 0000000180056ccc     MeshCleaner.obj
 0002:0000cce0       $chain$8$??0MeshCleaner@physx@@QEAA@IPEBVPxVec3@1@IPEBIM@Z 0000000180056ce0     MeshCleaner.obj
 0002:0000ccf0       $chain$9$??0MeshCleaner@physx@@QEAA@IPEBVPxVec3@1@IPEBIM@Z 0000000180056cf0     MeshCleaner.obj
 0002:0000cd00       $chain$10$??0MeshCleaner@physx@@QEAA@IPEBVPxVec3@1@IPEBIM@Z 0000000180056d00     MeshCleaner.obj
 0002:0000cd10       $unwind$?createQuantizer@physx@@YAPEAVQuantizer@1@XZ 0000000180056d10     Quantizer.obj
 0002:0000cd10       $unwind$?getNoexcept@UnDecorator@@CA?AVDName@@XZ 0000000180056d10     libvcruntime:undname.obj
 0002:0000cd10       $unwind$?getStringObject@UnDecorator@@CA?AVDName@@XZ 0000000180056d10     libvcruntime:undname.obj
 0002:0000cd10       $unwind$?getVCallThunkType@UnDecorator@@CA?AVDName@@XZ 0000000180056d10     libvcruntime:undname.obj
 0002:0000cd10       $unwind$?getVdispMapType@UnDecorator@@CA?AVDName@@AEBV2@@Z 0000000180056d10     libvcruntime:undname.obj
 0002:0000cd18       $unwind$??$kmeans_cluster@VPxVec3@physx@@M@@YAIPEBVPxVec3@physx@@IIPEAV01@PEAIMM@Z 0000000180056d18     Quantizer.obj
 0002:0000cd24       $chain$6$??$kmeans_cluster@VPxVec3@physx@@M@@YAIPEBVPxVec3@physx@@IIPEAV01@PEAIMM@Z 0000000180056d24     Quantizer.obj
 0002:0000cd50       $chain$12$??$kmeans_cluster@VPxVec3@physx@@M@@YAIPEBVPxVec3@physx@@IIPEAV01@PEAIMM@Z 0000000180056d50     Quantizer.obj
 0002:0000cd78       $chain$13$??$kmeans_cluster@VPxVec3@physx@@M@@YAIPEBVPxVec3@physx@@IIPEAV01@PEAIMM@Z 0000000180056d78     Quantizer.obj
 0002:0000cd88       $chain$14$??$kmeans_cluster@VPxVec3@physx@@M@@YAIPEBVPxVec3@physx@@IIPEAV01@PEAIMM@Z 0000000180056d88     Quantizer.obj
 0002:0000cd98       $unwind$?kmeansQuantize3D@QuantizerImpl@@UEAAPEBVPxVec3@physx@@IPEBV23@I_NIAEAI@Z 0000000180056d98     Quantizer.obj
 0002:0000cda8       $chain$0$?kmeansQuantize3D@QuantizerImpl@@UEAAPEBVPxVec3@physx@@IPEBV23@I_NIAEAI@Z 0000000180056da8     Quantizer.obj
 0002:0000cdbc       $chain$2$?kmeansQuantize3D@QuantizerImpl@@UEAAPEBVPxVec3@physx@@IPEBV23@I_NIAEAI@Z 0000000180056dbc     Quantizer.obj
 0002:0000cdd4       $chain$3$?kmeansQuantize3D@QuantizerImpl@@UEAAPEBVPxVec3@physx@@IPEBV23@I_NIAEAI@Z 0000000180056dd4     Quantizer.obj
 0002:0000cde8       $chain$4$?kmeansQuantize3D@QuantizerImpl@@UEAAPEBVPxVec3@physx@@IPEBV23@I_NIAEAI@Z 0000000180056de8     Quantizer.obj
 0002:0000cdf8       $chain$5$?kmeansQuantize3D@QuantizerImpl@@UEAAPEBVPxVec3@physx@@IPEBV23@I_NIAEAI@Z 0000000180056df8     Quantizer.obj
 0002:0000ce08       $unwind$?normalizeInput@QuantizerImpl@@AEAAXIPEBVPxVec3@physx@@I@Z 0000000180056e08     Quantizer.obj
 0002:0000ce20       $chain$1$?normalizeInput@QuantizerImpl@@AEAAXIPEBVPxVec3@physx@@I@Z 0000000180056e20     Quantizer.obj
 0002:0000ce38       $chain$4$?normalizeInput@QuantizerImpl@@AEAAXIPEBVPxVec3@physx@@I@Z 0000000180056e38     Quantizer.obj
 0002:0000ce54       $chain$6$?normalizeInput@QuantizerImpl@@AEAAXIPEBVPxVec3@physx@@I@Z 0000000180056e54     Quantizer.obj
 0002:0000ce6c       $chain$7$?normalizeInput@QuantizerImpl@@AEAAXIPEBVPxVec3@physx@@I@Z 0000000180056e6c     Quantizer.obj
 0002:0000ce7c       $chain$8$?normalizeInput@QuantizerImpl@@AEAAXIPEBVPxVec3@physx@@I@Z 0000000180056e7c     Quantizer.obj
 0002:0000ce8c       $chain$9$?normalizeInput@QuantizerImpl@@AEAAXIPEBVPxVec3@physx@@I@Z 0000000180056e8c     Quantizer.obj
 0002:0000cea0       $chain$10$?normalizeInput@QuantizerImpl@@AEAAXIPEBVPxVec3@physx@@I@Z 0000000180056ea0     Quantizer.obj
 0002:0000ceb0       $chain$13$?normalizeInput@QuantizerImpl@@AEAAXIPEBVPxVec3@physx@@I@Z 0000000180056eb0     Quantizer.obj
 0002:0000cecc       $chain$14$?normalizeInput@QuantizerImpl@@AEAAXIPEBVPxVec3@physx@@I@Z 0000000180056ecc     Quantizer.obj
 0002:0000cedc       $unwind$?growAndPushBack@?$Array@VPxVec3@physx@@V?$ReflectionAllocator@VPxVec3@physx@@@shdfnd@2@@shdfnd@physx@@IEAAAEAVPxVec3@3@AEBV43@@Z 0000000180056edc     Quantizer.obj
 0002:0000cedc       $unwind$?doAdjacentMerge@QuickHull@local@@IEAA_NAEAUQuickHullFace@2@_NAEA_N@Z 0000000180056edc     QuickHullConvexHullLib.obj
 0002:0000cedc       $unwind$?saveMidPhaseStructure@BV4TriangleMeshBuilder@physx@@UEBAXAEAVPxOutputStream@2@_N@Z 0000000180056edc     TriangleMeshBuilder.obj
 0002:0000cee8       $chain$0$?growAndPushBack@?$Array@VPxVec3@physx@@V?$ReflectionAllocator@VPxVec3@physx@@@shdfnd@2@@shdfnd@physx@@IEAAAEAVPxVec3@3@AEBV43@@Z 0000000180056ee8     Quantizer.obj
 0002:0000cefc       $chain$1$?growAndPushBack@?$Array@VPxVec3@physx@@V?$ReflectionAllocator@VPxVec3@physx@@@shdfnd@2@@shdfnd@physx@@IEAAAEAVPxVec3@3@AEBV43@@Z 0000000180056efc     Quantizer.obj
 0002:0000cf10       $chain$2$?growAndPushBack@?$Array@VPxVec3@physx@@V?$ReflectionAllocator@VPxVec3@physx@@@shdfnd@2@@shdfnd@physx@@IEAAAEAVPxVec3@3@AEBV43@@Z 0000000180056f10     Quantizer.obj
 0002:0000cf20       $chain$4$?growAndPushBack@?$Array@VPxVec3@physx@@V?$ReflectionAllocator@VPxVec3@physx@@@shdfnd@2@@shdfnd@physx@@IEAAAEAVPxVec3@3@AEBV43@@Z 0000000180056f20     Quantizer.obj
 0002:0000cf34       $chain$3$?growAndPushBack@?$Array@VPxVec3@physx@@V?$ReflectionAllocator@VPxVec3@physx@@@shdfnd@2@@shdfnd@physx@@IEAAAEAVPxVec3@3@AEBV43@@Z 0000000180056f34     Quantizer.obj
 0002:0000cf44       $unwind$??_GQuantizerImpl@@EEAAPEAXI@Z 0000000180056f44     Quantizer.obj
 0002:0000cf44       $unwind$??_GConvexHull@physx@@QEAAPEAXI@Z 0000000180056f44     QuickHullConvexHullLib.obj
 0002:0000cf50       $chain$0$??_GQuantizerImpl@@EEAAPEAXI@Z 0000000180056f50     Quantizer.obj
 0002:0000cf64       $chain$1$??_GQuantizerImpl@@EEAAPEAXI@Z 0000000180056f64     Quantizer.obj
 0002:0000cf74       $unwind$?loadFromDesc@BVHStructureBuilder@physx@@QEAA_NAEBVPxBVHStructureDesc@2@@Z 0000000180056f74     BVHStructureBuilder.obj
 0002:0000cf88       $unwind$?save@BVHStructureBuilder@physx@@QEBA_NAEAVPxOutputStream@2@_N@Z 0000000180056f88     BVHStructureBuilder.obj
 0002:0000cf98       $chain$2$?save@BVHStructureBuilder@physx@@QEBA_NAEAVPxOutputStream@2@_N@Z 0000000180056f98     BVHStructureBuilder.obj
 0002:0000cfb0       $chain$3$?save@BVHStructureBuilder@physx@@QEBA_NAEAVPxOutputStream@2@_N@Z 0000000180056fb0     BVHStructureBuilder.obj
 0002:0000cfc4       $chain$1$?allocate@?$Array@USlab@NodeAllocator@Gu@physx@@V?$ReflectionAllocator@USlab@NodeAllocator@Gu@physx@@@shdfnd@4@@shdfnd@physx@@IEAAPEAUSlab@NodeAllocator@Gu@3@I@Z 0000000180056fc4     BVHStructureBuilder.obj
 0002:0000cfdc       $chain$3$?allocate@?$Array@USlab@NodeAllocator@Gu@physx@@V?$ReflectionAllocator@USlab@NodeAllocator@Gu@physx@@@shdfnd@4@@shdfnd@physx@@IEAAPEAUSlab@NodeAllocator@Gu@3@I@Z 0000000180056fdc     BVHStructureBuilder.obj
 0002:0000cff0       $chain$4$?allocate@?$Array@USlab@NodeAllocator@Gu@physx@@V?$ReflectionAllocator@USlab@NodeAllocator@Gu@physx@@@shdfnd@4@@shdfnd@physx@@IEAAPEAUSlab@NodeAllocator@Gu@3@I@Z 0000000180056ff0     BVHStructureBuilder.obj
 0002:0000d000       $unwind$?recreate@?$Array@USlab@NodeAllocator@Gu@physx@@V?$ReflectionAllocator@USlab@NodeAllocator@Gu@physx@@@shdfnd@4@@shdfnd@physx@@IEAAXI@Z 0000000180057000     BVHStructureBuilder.obj
 0002:0000d000       $unwind$?recreate@?$Array@VHalfEdge@ConvexHull@physx@@V?$ReflectionAllocator@VHalfEdge@ConvexHull@physx@@@shdfnd@3@@shdfnd@physx@@IEAAXI@Z 0000000180057000     ConvexHullUtils.obj
 0002:0000d000       $unwind$?resize@?$Array@VPxVec3@physx@@V?$ReflectionAllocator@VPxVec3@physx@@@shdfnd@2@@shdfnd@physx@@QEAAXIAEBVPxVec3@3@@Z 0000000180057000     ConvexHullUtils.obj
 0002:0000d000       $unwind$?copy@ConvexMeshBuilder@physx@@QEAA_NAEAUConvexHullInitData@Gu@2@@Z 0000000180057000     ConvexMeshBuilder.obj
 0002:0000d000       $unwind$?recreate@?$Array@PEAUQuickHullFace@local@@V?$ReflectionAllocator@PEAUQuickHullFace@local@@@shdfnd@physx@@@shdfnd@physx@@IEAAXI@Z 0000000180057000     QuickHullConvexHullLib.obj
 0002:0000d000       $unwind$?recreate@?$Array@PEAUQuickHullHalfEdge@local@@V?$ReflectionAllocator@PEAUQuickHullHalfEdge@local@@@shdfnd@physx@@@shdfnd@physx@@IEAAXI@Z 0000000180057000     QuickHullConvexHullLib.obj
 0002:0000d000       $unwind$?recreate@?$Array@PEAUQuickHullVertex@local@@V?$ReflectionAllocator@PEAUQuickHullVertex@local@@@shdfnd@physx@@@shdfnd@physx@@IEAAXI@Z 0000000180057000     QuickHullConvexHullLib.obj
 0002:0000d000       $unwind$?recreate@?$Array@IV?$ReflectionAllocator@I@shdfnd@physx@@@shdfnd@physx@@IEAAXI@Z 0000000180057000     RTreeCooking.obj
 0002:0000d000       $unwind$?recreate@?$Array@UPxBounds3V@physx@@V?$ReflectionAllocator@UPxBounds3V@physx@@@shdfnd@2@@shdfnd@physx@@IEAAXI@Z 0000000180057000     RTreeCooking.obj
 0002:0000d000       $unwind$?recreate@?$Array@URTreeNodeQ@Gu@physx@@V?$ReflectionAllocator@URTreeNodeQ@Gu@physx@@@shdfnd@3@@shdfnd@physx@@IEAAXI@Z 0000000180057000     RTreeCooking.obj
 0002:0000d000       $unwind$?get_raw_ptd_noexit@__crt_cached_ptd_host@@QEAAPEAU__acrt_ptd@@XZ 0000000180057000     libucrt:invalid_parameter.obj
 0002:0000d010       $chain$0$?recreate@?$Array@USlab@NodeAllocator@Gu@physx@@V?$ReflectionAllocator@USlab@NodeAllocator@Gu@physx@@@shdfnd@4@@shdfnd@physx@@IEAAXI@Z 0000000180057010     BVHStructureBuilder.obj
 0002:0000d024       $chain$1$?recreate@?$Array@USlab@NodeAllocator@Gu@physx@@V?$ReflectionAllocator@USlab@NodeAllocator@Gu@physx@@@shdfnd@4@@shdfnd@physx@@IEAAXI@Z 0000000180057024     BVHStructureBuilder.obj
 0002:0000d034       $unwind$??4NodeAllocator@Gu@physx@@QEAAAEAV012@AEBV012@@Z 0000000180057034     BVHStructureBuilder.obj
 0002:0000d034       $unwind$_free_osfhnd       0000000180057034     libucrt:osfinfo.obj
 0002:0000d034       $unwind$__std_exception_copy 0000000180057034     libvcruntime:std_exception.obj
 0002:0000d048       $unwind$?flatten@@YAXAEBVNodeAllocator@Gu@physx@@PEAUBVHNode@23@@Z 0000000180057048     BVHStructureBuilder.obj
 0002:0000d054       $chain$5$?flatten@@YAXAEBVNodeAllocator@Gu@physx@@PEAUBVHNode@23@@Z 0000000180057054     BVHStructureBuilder.obj
 0002:0000d07c       $chain$6$?flatten@@YAXAEBVNodeAllocator@Gu@physx@@PEAUBVHNode@23@@Z 000000018005707c     BVHStructureBuilder.obj
 0002:0000d08c       $unwind$?saveHeightField@physx@@YA_NAEBVHeightField@Gu@1@AEAVPxOutputStream@1@_N@Z 000000018005708c     HeightFieldCooking.obj
 0002:0000d09c       $chain$2$?saveHeightField@physx@@YA_NAEBVHeightField@Gu@1@AEAVPxOutputStream@1@_N@Z 000000018005709c     HeightFieldCooking.obj
 0002:0000d0b4       $chain$3$?saveHeightField@physx@@YA_NAEBVHeightField@Gu@1@AEAVPxOutputStream@1@_N@Z 00000001800570b4     HeightFieldCooking.obj
 0002:0000d0c4       $chain$0$?allocate@?$ReflectionAllocator@I@shdfnd@physx@@QEAAPEAX_KPEBDH@Z 00000001800570c4     RTreeCooking.obj
 0002:0000d0d8       $chain$1$?allocate@?$ReflectionAllocator@I@shdfnd@physx@@QEAAPEAX_KPEBDH@Z 00000001800570d8     RTreeCooking.obj
 0002:0000d0e8       $unwind$?buildFromTriangles@RTreeCooker@physx@@SAXAEAURTree@Gu@2@PEBVPxVec3@2@IPEBGPEBIIAEAV?$Array@IV?$ReflectionAllocator@I@shdfnd@physx@@@shdfnd@2@PEAURemapCallback@12@MW4Enum@PxMeshCookingHint@2@@Z 00000001800570e8     RTreeCooking.obj
 0002:0000d0f4       $chain$8$?buildFromTriangles@RTreeCooker@physx@@SAXAEAURTree@Gu@2@PEBVPxVec3@2@IPEBGPEBIIAEAV?$Array@IV?$ReflectionAllocator@I@shdfnd@physx@@@shdfnd@2@PEAURemapCallback@12@MW4Enum@PxMeshCookingHint@2@@Z 00000001800570f4     RTreeCooking.obj
 0002:0000d128       $chain$9$?buildFromTriangles@RTreeCooker@physx@@SAXAEAURTree@Gu@2@PEBVPxVec3@2@IPEBGPEBIIAEAV?$Array@IV?$ReflectionAllocator@I@shdfnd@physx@@@shdfnd@2@PEAURemapCallback@12@MW4Enum@PxMeshCookingHint@2@@Z 0000000180057128     RTreeCooking.obj
 0002:0000d13c       $chain$10$?buildFromTriangles@RTreeCooker@physx@@SAXAEAURTree@Gu@2@PEBVPxVec3@2@IPEBGPEBIIAEAV?$Array@IV?$ReflectionAllocator@I@shdfnd@physx@@@shdfnd@2@PEAURemapCallback@12@MW4Enum@PxMeshCookingHint@2@@Z 000000018005713c     RTreeCooking.obj
 0002:0000d14c       $chain$11$?buildFromTriangles@RTreeCooker@physx@@SAXAEAURTree@Gu@2@PEBVPxVec3@2@IPEBGPEBIIAEAV?$Array@IV?$ReflectionAllocator@I@shdfnd@physx@@@shdfnd@2@PEAURemapCallback@12@MW4Enum@PxMeshCookingHint@2@@Z 000000018005714c     RTreeCooking.obj
 0002:0000d15c       $unwind$?buildFromBounds@physx@@YAXAEAURTree@Gu@1@PEBUPxBounds3V@1@IAEAV?$Array@IV?$ReflectionAllocator@I@shdfnd@physx@@@shdfnd@1@PEAURemapCallback@RTreeCooker@1@AEAT__m128@@4MW4Enum@PxMeshCookingHint@1@@Z 000000018005715c     RTreeCooking.obj
 0002:0000d180       $chain$1$?allocate@?$Array@UPxBounds3V@physx@@V?$ReflectionAllocator@UPxBounds3V@physx@@@shdfnd@2@@shdfnd@physx@@IEAAPEAUPxBounds3V@3@I@Z 0000000180057180     RTreeCooking.obj
 0002:0000d198       $chain$3$?allocate@?$Array@UPxBounds3V@physx@@V?$ReflectionAllocator@UPxBounds3V@physx@@@shdfnd@2@@shdfnd@physx@@IEAAPEAUPxBounds3V@3@I@Z 0000000180057198     RTreeCooking.obj
 0002:0000d1ac       $chain$4$?allocate@?$Array@UPxBounds3V@physx@@V?$ReflectionAllocator@UPxBounds3V@physx@@@shdfnd@2@@shdfnd@physx@@IEAAPEAUPxBounds3V@3@I@Z 00000001800571ac     RTreeCooking.obj
 0002:0000d1bc       $chain$0$?recreate@?$Array@UPxBounds3V@physx@@V?$ReflectionAllocator@UPxBounds3V@physx@@@shdfnd@2@@shdfnd@physx@@IEAAXI@Z 00000001800571bc     RTreeCooking.obj
 0002:0000d1d0       $chain$1$?recreate@?$Array@UPxBounds3V@physx@@V?$ReflectionAllocator@UPxBounds3V@physx@@@shdfnd@2@@shdfnd@physx@@IEAAXI@Z 00000001800571d0     RTreeCooking.obj
 0002:0000d1e0       $unwind$?growAndPushBack@?$Array@IV?$ReflectionAllocator@I@shdfnd@physx@@@shdfnd@physx@@IEAAAEAIAEBI@Z 00000001800571e0     RTreeCooking.obj
 0002:0000d1f0       $chain$0$?growAndPushBack@?$Array@IV?$ReflectionAllocator@I@shdfnd@physx@@@shdfnd@physx@@IEAAAEAIAEBI@Z 00000001800571f0     RTreeCooking.obj
 0002:0000d204       $chain$2$?growAndPushBack@?$Array@IV?$ReflectionAllocator@I@shdfnd@physx@@@shdfnd@physx@@IEAAAEAIAEBI@Z 0000000180057204     RTreeCooking.obj
 0002:0000d218       $chain$1$?growAndPushBack@?$Array@IV?$ReflectionAllocator@I@shdfnd@physx@@@shdfnd@physx@@IEAAAEAIAEBI@Z 0000000180057218     RTreeCooking.obj
 0002:0000d228       $chain$0$?recreate@?$Array@IV?$ReflectionAllocator@I@shdfnd@physx@@@shdfnd@physx@@IEAAXI@Z 0000000180057228     RTreeCooking.obj
 0002:0000d23c       $chain$1$?recreate@?$Array@IV?$ReflectionAllocator@I@shdfnd@physx@@@shdfnd@physx@@IEAAXI@Z 000000018005723c     RTreeCooking.obj
 0002:0000d24c       $chain$1$?allocate@?$Array@VPxVec3@physx@@V?$ReflectionAllocator@VPxVec3@physx@@@shdfnd@2@@shdfnd@physx@@IEAAPEAVPxVec3@3@I@Z 000000018005724c     RTreeCooking.obj
 0002:0000d264       $chain$3$?allocate@?$Array@VPxVec3@physx@@V?$ReflectionAllocator@VPxVec3@physx@@@shdfnd@2@@shdfnd@physx@@IEAAPEAVPxVec3@3@I@Z 0000000180057264     RTreeCooking.obj
 0002:0000d278       $chain$4$?allocate@?$Array@VPxVec3@physx@@V?$ReflectionAllocator@VPxVec3@physx@@@shdfnd@2@@shdfnd@physx@@IEAAPEAVPxVec3@3@I@Z 0000000180057278     RTreeCooking.obj
 0002:0000d288       $unwind$?sort4@SubSortQuick@physx@@QEAAXPEIAIIAEAV?$Array@URTreeNodeNQ@physx@@V?$ReflectionAllocator@URTreeNodeNQ@physx@@@shdfnd@2@@shdfnd@2@AEAIAEAUPxBounds3V@2@I@Z 0000000180057288     RTreeCooking.obj
 0002:0000d2a0       $chain$1$?allocate@?$Array@URTreeNodeNQ@physx@@V?$ReflectionAllocator@URTreeNodeNQ@physx@@@shdfnd@2@@shdfnd@physx@@IEAAPEAURTreeNodeNQ@3@I@Z 00000001800572a0     RTreeCooking.obj
 0002:0000d2b8       $chain$3$?allocate@?$Array@URTreeNodeNQ@physx@@V?$ReflectionAllocator@URTreeNodeNQ@physx@@@shdfnd@2@@shdfnd@physx@@IEAAPEAURTreeNodeNQ@3@I@Z 00000001800572b8     RTreeCooking.obj
 0002:0000d2cc       $chain$4$?allocate@?$Array@URTreeNodeNQ@physx@@V?$ReflectionAllocator@URTreeNodeNQ@physx@@@shdfnd@2@@shdfnd@physx@@IEAAPEAURTreeNodeNQ@3@I@Z 00000001800572cc     RTreeCooking.obj
 0002:0000d2dc       $unwind$??$quickSelectFirstK@UBoundsLTE@physx@@@quickSelect@physx@@YAXPEIAIIIIAEBUBoundsLTE@1@@Z 00000001800572dc     RTreeCooking.obj
 0002:0000d2f8       $unwind$?split@SubSortSAH@physx@@QEAAIPEAII@Z 00000001800572f8     RTreeCooking.obj
 0002:0000d304       $chain$2$?split@SubSortSAH@physx@@QEAAIPEAII@Z 0000000180057304     RTreeCooking.obj
 0002:0000d320       $chain$6$?split@SubSortSAH@physx@@QEAAIPEAII@Z 0000000180057320     RTreeCooking.obj
 0002:0000d340       $chain$7$?split@SubSortSAH@physx@@QEAAIPEAII@Z 0000000180057340     RTreeCooking.obj
 0002:0000d340       $chain$9$?split@SubSortSAH@physx@@QEAAIPEAII@Z 0000000180057340     RTreeCooking.obj
 0002:0000d358       $chain$8$?split@SubSortSAH@physx@@QEAAIPEAII@Z 0000000180057358     RTreeCooking.obj
 0002:0000d378       $chain$10$?split@SubSortSAH@physx@@QEAAIPEAII@Z 0000000180057378     RTreeCooking.obj
 0002:0000d38c       $unwind$?sort4@SubSortSAH@physx@@QEAAXPEAIIAEAV?$Array@URTreeNodeNQ@physx@@V?$ReflectionAllocator@URTreeNodeNQ@physx@@@shdfnd@2@@shdfnd@2@AEAIIPEAURTreeNodeNQ@2@@Z 000000018005738c     RTreeCooking.obj
 0002:0000d3c4       $chain$1$?allocate@?$Array@UInterval@physx@@V?$InlineAllocator@$0CAAA@V?$ReflectionAllocator@UInterval@physx@@@shdfnd@physx@@@shdfnd@2@@shdfnd@physx@@IEAAPEAUInterval@3@I@Z 00000001800573c4     RTreeCooking.obj
 0002:0000d3dc       $chain$3$?allocate@?$Array@UInterval@physx@@V?$InlineAllocator@$0CAAA@V?$ReflectionAllocator@UInterval@physx@@@shdfnd@physx@@@shdfnd@2@@shdfnd@physx@@IEAAPEAUInterval@3@I@Z 00000001800573dc     RTreeCooking.obj
 0002:0000d3f0       $chain$4$?allocate@?$Array@UInterval@physx@@V?$InlineAllocator@$0CAAA@V?$ReflectionAllocator@UInterval@physx@@@shdfnd@physx@@@shdfnd@2@@shdfnd@physx@@IEAAPEAUInterval@3@I@Z 00000001800573f0     RTreeCooking.obj
 0002:0000d400       $chain$1$?allocate@?$Array@URTreeNodeQ@Gu@physx@@V?$ReflectionAllocator@URTreeNodeQ@Gu@physx@@@shdfnd@3@@shdfnd@physx@@IEAAPEAURTreeNodeQ@Gu@3@I@Z 0000000180057400     RTreeCooking.obj
 0002:0000d418       $chain$3$?allocate@?$Array@URTreeNodeQ@Gu@physx@@V?$ReflectionAllocator@URTreeNodeQ@Gu@physx@@@shdfnd@3@@shdfnd@physx@@IEAAPEAURTreeNodeQ@Gu@3@I@Z 0000000180057418     RTreeCooking.obj
 0002:0000d42c       $chain$4$?allocate@?$Array@URTreeNodeQ@Gu@physx@@V?$ReflectionAllocator@URTreeNodeQ@Gu@physx@@@shdfnd@3@@shdfnd@physx@@IEAAPEAURTreeNodeQ@Gu@3@I@Z 000000018005742c     RTreeCooking.obj
 0002:0000d43c       $chain$0$?recreate@?$Array@URTreeNodeQ@Gu@physx@@V?$ReflectionAllocator@URTreeNodeQ@Gu@physx@@@shdfnd@3@@shdfnd@physx@@IEAAXI@Z 000000018005743c     RTreeCooking.obj
 0002:0000d450       $chain$1$?recreate@?$Array@URTreeNodeQ@Gu@physx@@V?$ReflectionAllocator@URTreeNodeQ@Gu@physx@@@shdfnd@3@@shdfnd@physx@@IEAAXI@Z 0000000180057450     RTreeCooking.obj
 0002:0000d460       $unwind$??$sort@IU?$Less@I@shdfnd@physx@@V?$ReflectionAllocator@I@23@@shdfnd@physx@@YAXPEAIIAEBU?$Less@I@01@AEBV?$ReflectionAllocator@I@01@I@Z 0000000180057460     RTreeCooking.obj
 0002:0000d480       $unwind$??$sort@IUSortBoundsPredicate@physx@@V?$ReflectionAllocator@I@shdfnd@2@@shdfnd@physx@@YAXPEAIIAEBUSortBoundsPredicate@1@AEBV?$ReflectionAllocator@I@01@I@Z 0000000180057480     RTreeCooking.obj
 0002:0000d49c       $unwind$??$smallSort@I$$CBUSortBoundsPredicate@physx@@@internal@shdfnd@physx@@YAXPEAIHHAEBUSortBoundsPredicate@2@@Z 000000018005749c     RTreeCooking.obj
 0002:0000d4a8       $chain$6$??$smallSort@I$$CBUSortBoundsPredicate@physx@@@internal@shdfnd@physx@@YAXPEAIHHAEBUSortBoundsPredicate@2@@Z 00000001800574a8     RTreeCooking.obj
 0002:0000d4d4       $chain$7$??$smallSort@I$$CBUSortBoundsPredicate@physx@@@internal@shdfnd@physx@@YAXPEAIHHAEBUSortBoundsPredicate@2@@Z 00000001800574d4     RTreeCooking.obj
 0002:0000d4e4       $unwind$?preallocate@QuickHull@local@@QEAAXI@Z 00000001800574e4     QuickHullConvexHullLib.obj
 0002:0000d4e4       $unwind$?allocateVertices@MeshDataBase@Gu@physx@@QEAAPEAVPxVec3@3@I@Z 00000001800574e4     TriangleMeshBuilder.obj
 0002:0000d4e4       $unwind$?getStateFromIterators@UWMap4@FH4@@SAHAEBViterator@12@H0H0@Z 00000001800574e4     libvcruntime:frame.obj
 0002:0000d4e4       $unwind$?getUndecoratedName@UnDecorator@@QEAAPEADPEADH@Z 00000001800574e4     libvcruntime:undname.obj
 0002:0000d4f4       $unwind$??0QuickHullConvexHullLib@physx@@QEAA@AEBVPxConvexMeshDesc@1@AEBUPxCookingParams@1@@Z 00000001800574f4     QuickHullConvexHullLib.obj
 0002:0000d4f4       $unwind$?allocateTriangles@TriangleMeshData@Gu@physx@@QEAAPEAXI_NI@Z 00000001800574f4     TriangleMeshBuilder.obj
 0002:0000d50c       $chain$0$??$?_UG@@YAPEAX_KV?$ReflectionAllocator@G@shdfnd@physx@@PEBDH@Z 000000018005750c     TriangleMeshBuilder.obj
 0002:0000d520       $chain$1$??$?_UG@@YAPEAX_KV?$ReflectionAllocator@G@shdfnd@physx@@PEBDH@Z 0000000180057520     TriangleMeshBuilder.obj
 0002:0000d530       $chain$0$??1RTreeTriangleData@Gu@physx@@UEAA@XZ 0000000180057530     TriangleMeshBuilder.obj
 0002:0000d544       $chain$1$??1RTreeTriangleData@Gu@physx@@UEAA@XZ 0000000180057544     TriangleMeshBuilder.obj
 0002:0000d554       $unwind$?cleanMesh@TriangleMeshBuilder@physx@@QEAA_N_NPEAW4Enum@PxTriangleMeshCookingResult@2@@Z 0000000180057554     TriangleMeshBuilder.obj
 0002:0000d56c       $chain$0$?cleanMesh@TriangleMeshBuilder@physx@@QEAA_N_NPEAW4Enum@PxTriangleMeshCookingResult@2@@Z 000000018005756c     TriangleMeshBuilder.obj
 0002:0000d580       $chain$1$?cleanMesh@TriangleMeshBuilder@physx@@QEAA_N_NPEAW4Enum@PxTriangleMeshCookingResult@2@@Z 0000000180057580     TriangleMeshBuilder.obj
 0002:0000d594       $chain$2$?cleanMesh@TriangleMeshBuilder@physx@@QEAA_N_NPEAW4Enum@PxTriangleMeshCookingResult@2@@Z 0000000180057594     TriangleMeshBuilder.obj
 0002:0000d5a8       $chain$3$?cleanMesh@TriangleMeshBuilder@physx@@QEAA_N_NPEAW4Enum@PxTriangleMeshCookingResult@2@@Z 00000001800575a8     TriangleMeshBuilder.obj
 0002:0000d5b8       $chain$7$?cleanMesh@TriangleMeshBuilder@physx@@QEAA_N_NPEAW4Enum@PxTriangleMeshCookingResult@2@@Z 00000001800575b8     TriangleMeshBuilder.obj
 0002:0000d5d4       $chain$4$?cleanMesh@TriangleMeshBuilder@physx@@QEAA_N_NPEAW4Enum@PxTriangleMeshCookingResult@2@@Z 00000001800575d4     TriangleMeshBuilder.obj
 0002:0000d5e4       $chain$8$?cleanMesh@TriangleMeshBuilder@physx@@QEAA_N_NPEAW4Enum@PxTriangleMeshCookingResult@2@@Z 00000001800575e4     TriangleMeshBuilder.obj
 0002:0000d5f4       $unwind$?remapTopology@TriangleMeshBuilder@physx@@QEAAXPEBI@Z 00000001800575f4     TriangleMeshBuilder.obj
 0002:0000d600       $chain$2$?remapTopology@TriangleMeshBuilder@physx@@QEAAXPEBI@Z 0000000180057600     TriangleMeshBuilder.obj
 0002:0000d61c       $chain$3$?remapTopology@TriangleMeshBuilder@physx@@QEAAXPEBI@Z 000000018005761c     TriangleMeshBuilder.obj
 0002:0000d634       $chain$4$?remapTopology@TriangleMeshBuilder@physx@@QEAAXPEBI@Z 0000000180057634     TriangleMeshBuilder.obj
 0002:0000d644       $unwind$?createSharedEdgeData@TriangleMeshBuilder@physx@@QEAAX_N0@Z 0000000180057644     TriangleMeshBuilder.obj
 0002:0000d650       $chain$3$?createSharedEdgeData@TriangleMeshBuilder@physx@@QEAAX_N0@Z 0000000180057650     TriangleMeshBuilder.obj
 0002:0000d670       $chain$4$?createSharedEdgeData@TriangleMeshBuilder@physx@@QEAAX_N0@Z 0000000180057670     TriangleMeshBuilder.obj
 0002:0000d684       $chain$5$?createSharedEdgeData@TriangleMeshBuilder@physx@@QEAAX_N0@Z 0000000180057684     TriangleMeshBuilder.obj
 0002:0000d694       $chain$6$?createSharedEdgeData@TriangleMeshBuilder@physx@@QEAAX_N0@Z 0000000180057694     TriangleMeshBuilder.obj
 0002:0000d6a4       $unwind$?createGRBMidPhaseAndData@TriangleMeshBuilder@physx@@QEAAXI@Z 00000001800576a4     TriangleMeshBuilder.obj
 0002:0000d6b0       $chain$0$?createGRBMidPhaseAndData@TriangleMeshBuilder@physx@@QEAAXI@Z 00000001800576b0     TriangleMeshBuilder.obj
 0002:0000d6c4       $chain$2$?createGRBMidPhaseAndData@TriangleMeshBuilder@physx@@QEAAXI@Z 00000001800576c4     TriangleMeshBuilder.obj
 0002:0000d6dc       $chain$5$?createGRBMidPhaseAndData@TriangleMeshBuilder@physx@@QEAAXI@Z 00000001800576dc     TriangleMeshBuilder.obj
 0002:0000d6f8       $chain$6$?createGRBMidPhaseAndData@TriangleMeshBuilder@physx@@QEAAXI@Z 00000001800576f8     TriangleMeshBuilder.obj
 0002:0000d710       $chain$7$?createGRBMidPhaseAndData@TriangleMeshBuilder@physx@@QEAAXI@Z 0000000180057710     TriangleMeshBuilder.obj
 0002:0000d72c       $chain$8$?createGRBMidPhaseAndData@TriangleMeshBuilder@physx@@QEAAXI@Z 000000018005772c     TriangleMeshBuilder.obj
 0002:0000d740       $chain$9$?createGRBMidPhaseAndData@TriangleMeshBuilder@physx@@QEAAXI@Z 0000000180057740     TriangleMeshBuilder.obj
 0002:0000d754       $chain$10$?createGRBMidPhaseAndData@TriangleMeshBuilder@physx@@QEAAXI@Z 0000000180057754     TriangleMeshBuilder.obj
 0002:0000d764       $unwind$?loadFromDesc@TriangleMeshBuilder@physx@@QEAA_NAEBVPxTriangleMeshDesc@2@PEAW4Enum@PxTriangleMeshCookingResult@2@_N@Z 0000000180057764     TriangleMeshBuilder.obj
 0002:0000d774       $chain$1$?loadFromDesc@TriangleMeshBuilder@physx@@QEAA_NAEBVPxTriangleMeshDesc@2@PEAW4Enum@PxTriangleMeshCookingResult@2@_N@Z 0000000180057774     TriangleMeshBuilder.obj
 0002:0000d78c       $chain$2$?loadFromDesc@TriangleMeshBuilder@physx@@QEAA_NAEBVPxTriangleMeshDesc@2@PEAW4Enum@PxTriangleMeshCookingResult@2@_N@Z 000000018005778c     TriangleMeshBuilder.obj
 0002:0000d7a0       $chain$3$?loadFromDesc@TriangleMeshBuilder@physx@@QEAA_NAEBVPxTriangleMeshDesc@2@PEAW4Enum@PxTriangleMeshCookingResult@2@_N@Z 00000001800577a0     TriangleMeshBuilder.obj
 0002:0000d7b0       $chain$5$?loadFromDesc@TriangleMeshBuilder@physx@@QEAA_NAEBVPxTriangleMeshDesc@2@PEAW4Enum@PxTriangleMeshCookingResult@2@_N@Z 00000001800577b0     TriangleMeshBuilder.obj
 0002:0000d7c8       $chain$6$?loadFromDesc@TriangleMeshBuilder@physx@@QEAA_NAEBVPxTriangleMeshDesc@2@PEAW4Enum@PxTriangleMeshCookingResult@2@_N@Z 00000001800577c8     TriangleMeshBuilder.obj
 0002:0000d7d8       $unwind$?save@TriangleMeshBuilder@physx@@QEBA_NAEAVPxOutputStream@2@_NAEBUPxCookingParams@2@@Z 00000001800577d8     TriangleMeshBuilder.obj
 0002:0000d7f4       $chain$3$?save@TriangleMeshBuilder@physx@@QEBA_NAEAVPxOutputStream@2@_NAEBUPxCookingParams@2@@Z 00000001800577f4     TriangleMeshBuilder.obj
 0002:0000d808       $unwind$?checkMeshIndicesSize@TriangleMeshBuilder@physx@@QEAAXXZ 0000000180057808     TriangleMeshBuilder.obj
 0002:0000d814       $chain$2$?checkMeshIndicesSize@TriangleMeshBuilder@physx@@QEAAXXZ 0000000180057814     TriangleMeshBuilder.obj
 0002:0000d830       $chain$4$?checkMeshIndicesSize@TriangleMeshBuilder@physx@@QEAAXXZ 0000000180057830     TriangleMeshBuilder.obj
 0002:0000d848       $chain$5$?checkMeshIndicesSize@TriangleMeshBuilder@physx@@QEAAXXZ 0000000180057848     TriangleMeshBuilder.obj
 0002:0000d85c       $chain$6$?checkMeshIndicesSize@TriangleMeshBuilder@physx@@QEAAXXZ 000000018005785c     TriangleMeshBuilder.obj
 0002:0000d86c       $unwind$?importMesh@TriangleMeshBuilder@physx@@IEAA_NAEBVPxTriangleMeshDesc@2@AEBUPxCookingParams@2@PEAW4Enum@PxTriangleMeshCookingResult@2@_N@Z 000000018005786c     TriangleMeshBuilder.obj
 0002:0000d888       $unwind$?createMidPhaseStructure@RTreeTriangleMeshBuilder@physx@@UEAAXXZ 0000000180057888     TriangleMeshBuilder.obj
 0002:0000d890       $unwind$?saveMidPhaseStructure@RTreeTriangleMeshBuilder@physx@@UEBAXAEAVPxOutputStream@2@_N@Z 0000000180057890     TriangleMeshBuilder.obj
 0002:0000d8a0       $chain$0$?saveMidPhaseStructure@RTreeTriangleMeshBuilder@physx@@UEBAXAEAVPxOutputStream@2@_N@Z 00000001800578a0     TriangleMeshBuilder.obj
 0002:0000d8b4       $chain$1$?saveMidPhaseStructure@RTreeTriangleMeshBuilder@physx@@UEBAXAEAVPxOutputStream@2@_N@Z 00000001800578b4     TriangleMeshBuilder.obj
 0002:0000d8c4       $unwind$?createMidPhaseStructure@BV4TriangleMeshBuilder@physx@@UEAAXXZ 00000001800578c4     TriangleMeshBuilder.obj
 0002:0000d8d0       $chain$2$?createMidPhaseStructure@BV4TriangleMeshBuilder@physx@@UEAAXXZ 00000001800578d0     TriangleMeshBuilder.obj
 0002:0000d8ec       $chain$3$?createMidPhaseStructure@BV4TriangleMeshBuilder@physx@@UEAAXXZ 00000001800578ec     TriangleMeshBuilder.obj
 0002:0000d900       $chain$4$?createMidPhaseStructure@BV4TriangleMeshBuilder@physx@@UEAAXXZ 0000000180057900     TriangleMeshBuilder.obj
 0002:0000d910       $chain$5$?createMidPhaseStructure@BV4TriangleMeshBuilder@physx@@UEAAXXZ 0000000180057910     TriangleMeshBuilder.obj
 0002:0000d924       $unwind$?findAdjacent@physx@@YAIPEBVPxVec3@1@0PEBUuint3@1@IIIAEBVPxPlane@1@PEAUEdgeTriLookup@1@I@Z 0000000180057924     TriangleMeshBuilder.obj
 0002:0000d948       $unwind$?buildAdjacencies@physx@@YAXPEAUuint4@1@PEAVPxVec3@1@PEBV31@PEBUuint3@1@I@Z 0000000180057948     TriangleMeshBuilder.obj
 0002:0000d954       $chain$3$?buildAdjacencies@physx@@YAXPEAUuint4@1@PEAVPxVec3@1@PEBV31@PEBUuint3@1@I@Z 0000000180057954     TriangleMeshBuilder.obj
 0002:0000d974       $chain$7$?buildAdjacencies@physx@@YAXPEAUuint4@1@PEAVPxVec3@1@PEBV31@PEBUuint3@1@I@Z 0000000180057974     TriangleMeshBuilder.obj
 0002:0000d994       $chain$12$?buildAdjacencies@physx@@YAXPEAUuint4@1@PEAVPxVec3@1@PEBV31@PEBUuint3@1@I@Z 0000000180057994     TriangleMeshBuilder.obj
 0002:0000d9b8       $chain$13$?buildAdjacencies@physx@@YAXPEAUuint4@1@PEAVPxVec3@1@PEBV31@PEBUuint3@1@I@Z 00000001800579b8     TriangleMeshBuilder.obj
 0002:0000d9c8       $chain$14$?buildAdjacencies@physx@@YAXPEAUuint4@1@PEAVPxVec3@1@PEBV31@PEBUuint3@1@I@Z 00000001800579c8     TriangleMeshBuilder.obj
 0002:0000d9d8       $chain$15$?buildAdjacencies@physx@@YAXPEAUuint4@1@PEAVPxVec3@1@PEBV31@PEBUuint3@1@I@Z 00000001800579d8     TriangleMeshBuilder.obj
 0002:0000d9e8       $unwind$??$sort@UEdgeTriLookup@physx@@U?$Less@UEdgeTriLookup@physx@@@shdfnd@2@V?$ReflectionAllocator@UEdgeTriLookup@physx@@@42@@shdfnd@physx@@YAXPEAUEdgeTriLookup@1@IAEBU?$Less@UEdgeTriLookup@physx@@@01@AEBV?$ReflectionAllocator@UEdgeTriLookup@physx@@@01@I@Z 00000001800579e8     TriangleMeshBuilder.obj
 0002:0000da04       $unwind$??$median3@UEdgeTriLookup@physx@@$$CBU?$Less@UEdgeTriLookup@physx@@@shdfnd@2@@internal@shdfnd@physx@@YAXPEAUEdgeTriLookup@2@HHAEBU?$Less@UEdgeTriLookup@physx@@@12@@Z 0000000180057a04     TriangleMeshBuilder.obj
 0002:0000da04       $unwind$?DloadObtainSection@@YAPEAXPEAK0@Z 0000000180057a04     Delayimp:delayhlp.obj
 0002:0000da14       $unwind$?precompute@BigConvexDataBuilder@physx@@QEAA_NI@Z 0000000180057a14     BigConvexDataBuilder.obj
 0002:0000da2c       $chain$10$?precompute@BigConvexDataBuilder@physx@@QEAA_NI@Z 0000000180057a2c     BigConvexDataBuilder.obj
 0002:0000da68       $chain$11$?precompute@BigConvexDataBuilder@physx@@QEAA_NI@Z 0000000180057a68     BigConvexDataBuilder.obj
 0002:0000da78       $unwind$?save@BigConvexDataBuilder@physx@@QEBA_NAEAVPxOutputStream@2@_N@Z 0000000180057a78     BigConvexDataBuilder.obj
 0002:0000da78       $unwind$?x_ismbbtype_l@@YAHPEAU__crt_locale_pointers@@IHH@Z 0000000180057a78     libucrt:ismbbyte.obj
 0002:0000da88       $unwind$?computeValencies@BigConvexDataBuilder@physx@@QEAA_NAEBVConvexHullBuilder@2@@Z 0000000180057a88     BigConvexDataBuilder.obj
 0002:0000daa0       $unwind$?saveValencies@BigConvexDataBuilder@physx@@QEBA_NAEAVPxOutputStream@2@_N@Z 0000000180057aa0     BigConvexDataBuilder.obj
 0002:0000daac       $chain$1$?saveValencies@BigConvexDataBuilder@physx@@QEBA_NAEAVPxOutputStream@2@_N@Z 0000000180057aac     BigConvexDataBuilder.obj
 0002:0000dac4       $chain$2$?saveValencies@BigConvexDataBuilder@physx@@QEBA_NAEAVPxOutputStream@2@_N@Z 0000000180057ac4     BigConvexDataBuilder.obj
 0002:0000dad8       $chain$3$?saveValencies@BigConvexDataBuilder@physx@@QEBA_NAEAVPxOutputStream@2@_N@Z 0000000180057ad8     BigConvexDataBuilder.obj
 0002:0000dae8       $chain$4$?saveValencies@BigConvexDataBuilder@physx@@QEBA_NAEAVPxOutputStream@2@_N@Z 0000000180057ae8     BigConvexDataBuilder.obj
 0002:0000dafc       $unwind$?init@ConvexHullBuilder@physx@@QEAA_NIPEBVPxVec3@2@PEBIIIPEBUPxHullPolygon@2@_NPEAVConvexHullLib@2@@Z 0000000180057afc     ConvexHullBuilder.obj
 0002:0000db14       $chain$0$?init@ConvexHullBuilder@physx@@QEAA_NIPEBVPxVec3@2@PEBIIIPEBUPxHullPolygon@2@_NPEAVConvexHullLib@2@@Z 0000000180057b14     ConvexHullBuilder.obj
 0002:0000db28       $chain$3$?init@ConvexHullBuilder@physx@@QEAA_NIPEBVPxVec3@2@PEBIIIPEBUPxHullPolygon@2@_NPEAVConvexHullLib@2@@Z 0000000180057b28     ConvexHullBuilder.obj
 0002:0000db44       $chain$8$?init@ConvexHullBuilder@physx@@QEAA_NIPEBVPxVec3@2@PEBIIIPEBUPxHullPolygon@2@_NPEAVConvexHullLib@2@@Z 0000000180057b44     ConvexHullBuilder.obj
 0002:0000db68       $chain$10$?init@ConvexHullBuilder@physx@@QEAA_NIPEBVPxVec3@2@PEBIIIPEBUPxHullPolygon@2@_NPEAVConvexHullLib@2@@Z 0000000180057b68     ConvexHullBuilder.obj
 0002:0000db80       $chain$11$?init@ConvexHullBuilder@physx@@QEAA_NIPEBVPxVec3@2@PEBIIIPEBUPxHullPolygon@2@_NPEAVConvexHullLib@2@@Z 0000000180057b80     ConvexHullBuilder.obj
 0002:0000db90       $chain$12$?init@ConvexHullBuilder@physx@@QEAA_NIPEBVPxVec3@2@PEBIIIPEBUPxHullPolygon@2@_NPEAVConvexHullLib@2@@Z 0000000180057b90     ConvexHullBuilder.obj
 0002:0000dba0       $chain$13$?init@ConvexHullBuilder@physx@@QEAA_NIPEBVPxVec3@2@PEBIIIPEBUPxHullPolygon@2@_NPEAVConvexHullLib@2@@Z 0000000180057ba0     ConvexHullBuilder.obj
 0002:0000dbb0       $chain$14$?init@ConvexHullBuilder@physx@@QEAA_NIPEBVPxVec3@2@PEBIIIPEBUPxHullPolygon@2@_NPEAVConvexHullLib@2@@Z 0000000180057bb0     ConvexHullBuilder.obj
 0002:0000dbc0       $chain$15$?init@ConvexHullBuilder@physx@@QEAA_NIPEBVPxVec3@2@PEBIIIPEBUPxHullPolygon@2@_NPEAVConvexHullLib@2@@Z 0000000180057bc0     ConvexHullBuilder.obj
 0002:0000dbe0       $chain$16$?init@ConvexHullBuilder@physx@@QEAA_NIPEBVPxVec3@2@PEBIIIPEBUPxHullPolygon@2@_NPEAVConvexHullLib@2@@Z 0000000180057be0     ConvexHullBuilder.obj
 0002:0000dbf4       $unwind$?save@ConvexHullBuilder@physx@@QEBA_NAEAVPxOutputStream@2@_N@Z 0000000180057bf4     ConvexHullBuilder.obj
 0002:0000dc08       $chain$3$?save@ConvexHullBuilder@physx@@QEBA_NAEAVPxOutputStream@2@_N@Z 0000000180057c08     ConvexHullBuilder.obj
 0002:0000dc24       $chain$4$?save@ConvexHullBuilder@physx@@QEBA_NAEAVPxOutputStream@2@_N@Z 0000000180057c24     ConvexHullBuilder.obj
 0002:0000dc3c       $chain$5$?save@ConvexHullBuilder@physx@@QEBA_NAEAVPxOutputStream@2@_N@Z 0000000180057c3c     ConvexHullBuilder.obj
 0002:0000dc50       $chain$6$?save@ConvexHullBuilder@physx@@QEBA_NAEAVPxOutputStream@2@_N@Z 0000000180057c50     ConvexHullBuilder.obj
 0002:0000dc60       $unwind$?copy@ConvexHullBuilder@physx@@QEAA_NAEAUConvexHullData@Gu@2@AEAI@Z 0000000180057c60     ConvexHullBuilder.obj
 0002:0000dc60       $unwind$??$parse_integer@KV?$c_string_character_source@D@__crt_strtox@@$00@__crt_strtox@@YAKAEAV__crt_cached_ptd_host@@V?$c_string_character_source@D@0@H_N@Z 0000000180057c60     libucrt:atox.obj
 0002:0000dc60       $unwind$??$copy_and_add_argument_to_buffer@D@@YAHQEBD0_KAEAV?$argument_list@D@?A0x5f5c8891@@@Z 0000000180057c60     libucrt:argv_wildcards.obj
 0002:0000dc60       $unwind$??$parse_integer@KV?$c_string_character_source@D@__crt_strtox@@$0A@@__crt_strtox@@YAKAEAV__crt_cached_ptd_host@@V?$c_string_character_source@D@0@H_N@Z 0000000180057c60     libucrt:output.obj
 0002:0000dc7c       $unwind$?createEdgeList@ConvexHullBuilder@physx@@QEAA_N_NI@Z 0000000180057c7c     ConvexHullBuilder.obj
 0002:0000dc8c       $chain$4$?createEdgeList@ConvexHullBuilder@physx@@QEAA_N_NI@Z 0000000180057c8c     ConvexHullBuilder.obj
 0002:0000dcb0       $chain$6$?createEdgeList@ConvexHullBuilder@physx@@QEAA_N_NI@Z 0000000180057cb0     ConvexHullBuilder.obj
 0002:0000dcd4       $unwind$?checkHullPolygons@ConvexHullBuilder@physx@@QEBA_NXZ 0000000180057cd4     ConvexHullBuilder.obj
 0002:0000dce0       $chain$5$?checkHullPolygons@ConvexHullBuilder@physx@@QEBA_NXZ 0000000180057ce0     ConvexHullBuilder.obj
 0002:0000dd08       $chain$14$?checkHullPolygons@ConvexHullBuilder@physx@@QEBA_NXZ 0000000180057d08     ConvexHullBuilder.obj
 0002:0000dd3c       $chain$15$?checkHullPolygons@ConvexHullBuilder@physx@@QEBA_NXZ 0000000180057d3c     ConvexHullBuilder.obj
 0002:0000dd68       $chain$17$?checkHullPolygons@ConvexHullBuilder@physx@@QEBA_NXZ 0000000180057d68     ConvexHullBuilder.obj
 0002:0000ddac       $chain$18$?checkHullPolygons@ConvexHullBuilder@physx@@QEBA_NXZ 0000000180057dac     ConvexHullBuilder.obj
 0002:0000ddbc       $unwind$?calculateVertexMapTable@ConvexHullBuilder@physx@@QEAA_NI_N@Z 0000000180057dbc     ConvexHullBuilder.obj
 0002:0000ddd4       $unwind$?computeGeomCenter@ConvexHullBuilder@physx@@IEBA_NAEAVPxVec3@2@IPEAUHullTriangleData@2@@Z 0000000180057dd4     ConvexHullBuilder.obj
 0002:0000dddc       $chain$1$?computeGeomCenter@ConvexHullBuilder@physx@@IEBA_NAEAVPxVec3@2@IPEAUHullTriangleData@2@@Z 0000000180057ddc     ConvexHullBuilder.obj
 0002:0000ddf4       $chain$10$?computeGeomCenter@ConvexHullBuilder@physx@@IEBA_NAEAVPxVec3@2@IPEAUHullTriangleData@2@@Z 0000000180057df4     ConvexHullBuilder.obj
 0002:0000de28       $chain$11$?computeGeomCenter@ConvexHullBuilder@physx@@IEBA_NAEAVPxVec3@2@IPEAUHullTriangleData@2@@Z 0000000180057e28     ConvexHullBuilder.obj
 0002:0000de38       $chain$12$?computeGeomCenter@ConvexHullBuilder@physx@@IEBA_NAEAVPxVec3@2@IPEAUHullTriangleData@2@@Z 0000000180057e38     ConvexHullBuilder.obj
 0002:0000de48       $chain$0$??$?_UE@@YAPEAX_KV?$ReflectionAllocator@E@shdfnd@physx@@PEBDH@Z 0000000180057e48     ConvexHullBuilder.obj
 0002:0000de5c       $chain$1$??$?_UE@@YAPEAX_KV?$ReflectionAllocator@E@shdfnd@physx@@PEBDH@Z 0000000180057e5c     ConvexHullBuilder.obj
 0002:0000de6c       $unwind$?cleanupVertices@ConvexHullLib@physx@@IEAA_NIPEBVPxVec3@2@IAEAIPEAV32@AEAV32@3@Z 0000000180057e6c     ConvexHullLib.obj
 0002:0000de94       $chain$6$?cleanupVertices@ConvexHullLib@physx@@IEAA_NIPEBVPxVec3@2@IAEAIPEAV32@AEAV32@3@Z 0000000180057e94     ConvexHullLib.obj
 0002:0000deac       $chain$12$?cleanupVertices@ConvexHullLib@physx@@IEAA_NIPEBVPxVec3@2@IAEAIPEAV32@AEAV32@3@Z 0000000180057eac     ConvexHullLib.obj
 0002:0000ded4       $chain$13$?cleanupVertices@ConvexHullLib@physx@@IEAA_NIPEBVPxVec3@2@IAEAIPEAV32@AEAV32@3@Z 0000000180057ed4     ConvexHullLib.obj
 0002:0000dee4       $chain$14$?cleanupVertices@ConvexHullLib@physx@@IEAA_NIPEBVPxVec3@2@IAEAIPEAV32@AEAV32@3@Z 0000000180057ee4     ConvexHullLib.obj
 0002:0000def4       $unwind$?shiftAndcleanupVertices@ConvexHullLib@physx@@IEAA_NIPEBVPxVec3@2@IAEAIPEAV32@AEAV32@3@Z 0000000180057ef4     ConvexHullLib.obj
 0002:0000df08       $chain$4$?shiftAndcleanupVertices@ConvexHullLib@physx@@IEAA_NIPEBVPxVec3@2@IAEAIPEAV32@AEAV32@3@Z 0000000180057f08     ConvexHullLib.obj
 0002:0000df2c       $chain$11$?shiftAndcleanupVertices@ConvexHullLib@physx@@IEAA_NIPEBVPxVec3@2@IAEAIPEAV32@AEAV32@3@Z 0000000180057f2c     ConvexHullLib.obj
 0002:0000df54       $chain$5$?shiftAndcleanupVertices@ConvexHullLib@physx@@IEAA_NIPEBVPxVec3@2@IAEAIPEAV32@AEAV32@3@Z 0000000180057f54     ConvexHullLib.obj
 0002:0000df74       $chain$12$?shiftAndcleanupVertices@ConvexHullLib@physx@@IEAA_NIPEBVPxVec3@2@IAEAIPEAV32@AEAV32@3@Z 0000000180057f74     ConvexHullLib.obj
 0002:0000df84       $unwind$?swapLargestFace@ConvexHullLib@physx@@IEAAXAEAVPxConvexMeshDesc@2@@Z 0000000180057f84     ConvexHullLib.obj
 0002:0000df94       $chain$1$?swapLargestFace@ConvexHullLib@physx@@IEAAXAEAVPxConvexMeshDesc@2@@Z 0000000180057f94     ConvexHullLib.obj
 0002:0000dfac       $chain$2$?swapLargestFace@ConvexHullLib@physx@@IEAAXAEAVPxConvexMeshDesc@2@@Z 0000000180057fac     ConvexHullLib.obj
 0002:0000dfc0       $chain$3$?swapLargestFace@ConvexHullLib@physx@@IEAAXAEAVPxConvexMeshDesc@2@@Z 0000000180057fc0     ConvexHullLib.obj
 0002:0000dfd0       $chain$4$?swapLargestFace@ConvexHullLib@physx@@IEAAXAEAVPxConvexMeshDesc@2@@Z 0000000180057fd0     ConvexHullLib.obj
 0002:0000dfe0       $unwind$?checkPointsAABBValidity@local@@YA_NIPEBVPxVec3@physx@@IMMAEAV23@1AEAIPEAV23@_N@Z 0000000180057fe0     ConvexHullLib.obj
 0002:0000dffc       $chain$1$?checkPointsAABBValidity@local@@YA_NIPEBVPxVec3@physx@@IMMAEAV23@1AEAIPEAV23@_N@Z 0000000180057ffc     ConvexHullLib.obj
 0002:0000e014       $chain$4$?checkPointsAABBValidity@local@@YA_NIPEBVPxVec3@physx@@IMMAEAV23@1AEAIPEAV23@_N@Z 0000000180058014     ConvexHullLib.obj
 0002:0000e030       $chain$5$?checkPointsAABBValidity@local@@YA_NIPEBVPxVec3@physx@@IMMAEAV23@1AEAIPEAV23@_N@Z 0000000180058030     ConvexHullLib.obj
 0002:0000e040       $chain$6$?checkPointsAABBValidity@local@@YA_NIPEBVPxVec3@physx@@IMMAEAV23@1AEAIPEAV23@_N@Z 0000000180058040     ConvexHullLib.obj
 0002:0000e050       $unwind$??0PxQuat@physx@@QEAA@AEBVPxMat33@1@@Z 0000000180058050     ConvexHullUtils.obj
 0002:0000e058       $chain$0$??0PxQuat@physx@@QEAA@AEBVPxMat33@1@@Z 0000000180058058     ConvexHullUtils.obj
 0002:0000e06c       $chain$1$??0PxQuat@physx@@QEAA@AEBVPxMat33@1@@Z 000000018005806c     ConvexHullUtils.obj
 0002:0000e07c       $unwind$?getInverse@PxMat33@physx@@QEBA?BV12@XZ 000000018005807c     ConvexHullUtils.obj
 0002:0000e09c       $chain$1$?getInverse@PxMat33@physx@@QEBA?BV12@XZ 000000018005809c     ConvexHullUtils.obj
 0002:0000e0b4       $chain$2$?getInverse@PxMat33@physx@@QEBA?BV12@XZ 00000001800580b4     ConvexHullUtils.obj
 0002:0000e0c4       $unwind$??0ConvexHull@physx@@QEAA@AEBVPxVec3@1@AEBVPxTransform@1@AEBV?$Array@VPxPlane@physx@@V?$ReflectionAllocator@VPxPlane@physx@@@shdfnd@2@@shdfnd@1@@Z 00000001800580c4     ConvexHullUtils.obj
 0002:0000e0fc       $unwind$?findCandidatePlane@ConvexHull@physx@@QEBAHMM@Z 00000001800580fc     ConvexHullUtils.obj
 0002:0000e11c       $chain$10$?findCandidatePlane@ConvexHull@physx@@QEBAHMM@Z 000000018005811c     ConvexHullUtils.obj
 0002:0000e158       $chain$11$?findCandidatePlane@ConvexHull@physx@@QEBAHMM@Z 0000000180058158     ConvexHullUtils.obj
 0002:0000e168       $unwind$?assertIntact@ConvexHull@physx@@QEBA_NM@Z 0000000180058168     ConvexHullUtils.obj
 0002:0000e19c       $unwind$?maxNumVertsPerFace@ConvexHull@physx@@QEBAIXZ 000000018005819c     ConvexHullUtils.obj
 0002:0000e1a8       $chain$0$?maxNumVertsPerFace@ConvexHull@physx@@QEBAIXZ 00000001800581a8     ConvexHullUtils.obj
 0002:0000e1bc       $chain$1$?maxNumVertsPerFace@ConvexHull@physx@@QEBAIXZ 00000001800581bc     ConvexHullUtils.obj
 0002:0000e1cc       $chain$1$?allocate@?$Array@VHalfEdge@ConvexHull@physx@@V?$ReflectionAllocator@VHalfEdge@ConvexHull@physx@@@shdfnd@3@@shdfnd@physx@@IEAAPEAVHalfEdge@ConvexHull@3@I@Z 00000001800581cc     ConvexHullUtils.obj
 0002:0000e1e4       $chain$3$?allocate@?$Array@VHalfEdge@ConvexHull@physx@@V?$ReflectionAllocator@VHalfEdge@ConvexHull@physx@@@shdfnd@3@@shdfnd@physx@@IEAAPEAVHalfEdge@ConvexHull@3@I@Z 00000001800581e4     ConvexHullUtils.obj
 0002:0000e1f8       $chain$4$?allocate@?$Array@VHalfEdge@ConvexHull@physx@@V?$ReflectionAllocator@VHalfEdge@ConvexHull@physx@@@shdfnd@3@@shdfnd@physx@@IEAAPEAVHalfEdge@ConvexHull@3@I@Z 00000001800581f8     ConvexHullUtils.obj
 0002:0000e208       $chain$0$?recreate@?$Array@VHalfEdge@ConvexHull@physx@@V?$ReflectionAllocator@VHalfEdge@ConvexHull@physx@@@shdfnd@3@@shdfnd@physx@@IEAAXI@Z 0000000180058208     ConvexHullUtils.obj
 0002:0000e21c       $chain$1$?recreate@?$Array@VHalfEdge@ConvexHull@physx@@V?$ReflectionAllocator@VHalfEdge@ConvexHull@physx@@@shdfnd@3@@shdfnd@physx@@IEAAXI@Z 000000018005821c     ConvexHullUtils.obj
 0002:0000e22c       $chain$1$?allocate@?$Array@VPxPlane@physx@@V?$ReflectionAllocator@VPxPlane@physx@@@shdfnd@2@@shdfnd@physx@@IEAAPEAVPxPlane@3@I@Z 000000018005822c     ConvexHullUtils.obj
 0002:0000e244       $chain$3$?allocate@?$Array@VPxPlane@physx@@V?$ReflectionAllocator@VPxPlane@physx@@@shdfnd@2@@shdfnd@physx@@IEAAPEAVPxPlane@3@I@Z 0000000180058244     ConvexHullUtils.obj
 0002:0000e258       $chain$4$?allocate@?$Array@VPxPlane@physx@@V?$ReflectionAllocator@VPxPlane@physx@@@shdfnd@2@@shdfnd@physx@@IEAAPEAVPxPlane@3@I@Z 0000000180058258     ConvexHullUtils.obj
 0002:0000e268       $unwind$?convexHullCrop@physx@@YAPEAVConvexHull@1@AEBV21@AEBVPxPlane@1@M@Z 0000000180058268     ConvexHullUtils.obj
 0002:0000e278       $chain$5$?convexHullCrop@physx@@YAPEAVConvexHull@1@AEBV21@AEBVPxPlane@1@M@Z 0000000180058278     ConvexHullUtils.obj
 0002:0000e2a0       $chain$6$?convexHullCrop@physx@@YAPEAVConvexHull@1@AEBV21@AEBVPxPlane@1@M@Z 00000001800582a0     ConvexHullUtils.obj
 0002:0000e2b4       $chain$7$?convexHullCrop@physx@@YAPEAVConvexHull@1@AEBV21@AEBVPxPlane@1@M@Z 00000001800582b4     ConvexHullUtils.obj
 0002:0000e2b4       $chain$9$?convexHullCrop@physx@@YAPEAVConvexHull@1@AEBV21@AEBVPxPlane@1@M@Z 00000001800582b4     ConvexHullUtils.obj
 0002:0000e2c4       $chain$8$?convexHullCrop@physx@@YAPEAVConvexHull@1@AEBV21@AEBVPxPlane@1@M@Z 00000001800582c4     ConvexHullUtils.obj
 0002:0000e2d8       $chain$10$?convexHullCrop@physx@@YAPEAVConvexHull@1@AEBV21@AEBVPxPlane@1@M@Z 00000001800582d8     ConvexHullUtils.obj
 0002:0000e2e8       $unwind$?computeOBBFromConvex@physx@@YA_NAEBVPxConvexMeshDesc@1@AEAVPxVec3@1@AEAVPxTransform@1@@Z 00000001800582e8     ConvexHullUtils.obj
 0002:0000e308       $chain$5$?computeOBBFromConvex@physx@@YA_NAEBVPxConvexMeshDesc@1@AEAVPxVec3@1@AEAVPxTransform@1@@Z 0000000180058308     ConvexHullUtils.obj
 0002:0000e330       $chain$6$?computeOBBFromConvex@physx@@YA_NAEBVPxConvexMeshDesc@1@AEAVPxVec3@1@AEAVPxTransform@1@@Z 0000000180058330     ConvexHullUtils.obj
 0002:0000e344       $chain$7$?computeOBBFromConvex@physx@@YA_NAEBVPxConvexMeshDesc@1@AEAVPxVec3@1@AEAVPxTransform@1@@Z 0000000180058344     ConvexHullUtils.obj
 0002:0000e354       $chain$8$?computeOBBFromConvex@physx@@YA_NAEBVPxConvexMeshDesc@1@AEAVPxVec3@1@AEAVPxTransform@1@@Z 0000000180058354     ConvexHullUtils.obj
 0002:0000e364       $unwind$?rotate@Box@Gu@physx@@QEBA?AVPxVec3@3@AEBV43@@Z 0000000180058364     ConvexHullUtils.obj
 0002:0000e370       $unwind$?rotateInv@Box@Gu@physx@@QEBA?AVPxVec3@3@AEBV43@@Z 0000000180058370     ConvexHullUtils.obj
 0002:0000e370       $unwind$?transform@Box@Gu@physx@@QEBA?AVPxVec3@3@AEBV43@@Z 0000000180058370     ConvexHullUtils.obj
 0002:0000e37c       $unwind$?computeAABBExtent@Box@Gu@physx@@QEBA?AVPxVec3@3@XZ 000000018005837c     ConvexHullUtils.obj
 0002:0000e388       $unwind$?computeOBBSIMD@local@@YAXIPEBT__m128@@AEAT2@AEBT2@1@Z 0000000180058388     ConvexHullUtils.obj
 0002:0000e3b4       $chain$2$?computeOBBSIMD@local@@YAXIPEBT__m128@@AEAT2@AEBT2@1@Z 00000001800583b4     ConvexHullUtils.obj
 0002:0000e3d0       $chain$3$?computeOBBSIMD@local@@YAXIPEBT__m128@@AEAT2@AEBT2@1@Z 00000001800583d0     ConvexHullUtils.obj
 0002:0000e3e0       $unwind$?build@ConvexMeshBuilder@physx@@QEAA_NAEBVPxConvexMeshDesc@2@I_NPEAVConvexHullLib@2@@Z 00000001800583e0     ConvexMeshBuilder.obj
 0002:0000e3f0       $chain$0$?build@ConvexMeshBuilder@physx@@QEAA_NAEBVPxConvexMeshDesc@2@I_NPEAVConvexHullLib@2@@Z 00000001800583f0     ConvexMeshBuilder.obj
 0002:0000e404       $chain$2$?build@ConvexMeshBuilder@physx@@QEAA_NAEBVPxConvexMeshDesc@2@I_NPEAVConvexHullLib@2@@Z 0000000180058404     ConvexMeshBuilder.obj
 0002:0000e41c       $chain$3$?build@ConvexMeshBuilder@physx@@QEAA_NAEBVPxConvexMeshDesc@2@I_NPEAVConvexHullLib@2@@Z 000000018005841c     ConvexMeshBuilder.obj
 0002:0000e42c       $chain$4$?build@ConvexMeshBuilder@physx@@QEAA_NAEBVPxConvexMeshDesc@2@I_NPEAVConvexHullLib@2@@Z 000000018005842c     ConvexMeshBuilder.obj
 0002:0000e43c       $unwind$?save@ConvexMeshBuilder@physx@@QEBA_NAEAVPxOutputStream@2@_N@Z 000000018005843c     ConvexMeshBuilder.obj
 0002:0000e44c       $chain$0$?save@ConvexMeshBuilder@physx@@QEBA_NAEAVPxOutputStream@2@_N@Z 000000018005844c     ConvexMeshBuilder.obj
 0002:0000e460       $chain$1$?save@ConvexMeshBuilder@physx@@QEBA_NAEAVPxOutputStream@2@_N@Z 0000000180058460     ConvexMeshBuilder.obj
 0002:0000e470       $unwind$?loadConvexHull@ConvexMeshBuilder@physx@@QEAA_NAEBVPxConvexMeshDesc@2@PEAVConvexHullLib@2@@Z 0000000180058470     ConvexMeshBuilder.obj
 0002:0000e490       $unwind$?computeHullPolygons@ConvexMeshBuilder@physx@@QEAA_NAEBIPEBVPxVec3@2@0PEBIAEAVPxAllocatorCallback@2@AEAIAEAPEAV32@4AEAPEAI4AEAPEAUPxHullPolygon@2@@Z 0000000180058490     ConvexMeshBuilder.obj
 0002:0000e49c       $chain$4$?computeHullPolygons@ConvexMeshBuilder@physx@@QEAA_NAEBIPEBVPxVec3@2@0PEBIAEAVPxAllocatorCallback@2@AEAIAEAPEAV32@4AEAPEAI4AEAPEAUPxHullPolygon@2@@Z 000000018005849c     ConvexMeshBuilder.obj
 0002:0000e4bc       $chain$5$?computeHullPolygons@ConvexMeshBuilder@physx@@QEAA_NAEBIPEBVPxVec3@2@0PEBIAEAVPxAllocatorCallback@2@AEAIAEAPEAV32@4AEAPEAI4AEAPEAUPxHullPolygon@2@@Z 00000001800584bc     ConvexMeshBuilder.obj
 0002:0000e4d4       $unwind$?computeMassInfo@ConvexMeshBuilder@physx@@QEAAX_N@Z 00000001800584d4     ConvexMeshBuilder.obj
 0002:0000e4e4       $chain$1$?computeMassInfo@ConvexMeshBuilder@physx@@QEAAX_N@Z 00000001800584e4     ConvexMeshBuilder.obj
 0002:0000e4fc       $chain$2$?computeMassInfo@ConvexMeshBuilder@physx@@QEAAX_N@Z 00000001800584fc     ConvexMeshBuilder.obj
 0002:0000e510       $chain$6$?computeMassInfo@ConvexMeshBuilder@physx@@QEAAX_N@Z 0000000180058510     ConvexMeshBuilder.obj
 0002:0000e530       $chain$7$?computeMassInfo@ConvexMeshBuilder@physx@@QEAAX_N@Z 0000000180058530     ConvexMeshBuilder.obj
 0002:0000e540       $chain$8$?computeMassInfo@ConvexMeshBuilder@physx@@QEAAX_N@Z 0000000180058540     ConvexMeshBuilder.obj
 0002:0000e550       $chain$9$?computeMassInfo@ConvexMeshBuilder@physx@@QEAAX_N@Z 0000000180058550     ConvexMeshBuilder.obj
 0002:0000e560       $unwind$?ComputeInternalExtent@@YAXAEAUConvexHullData@Gu@physx@@PEBUHullPolygonData@23@@Z 0000000180058560     ConvexMeshBuilder.obj
 0002:0000e574       $chain$4$?ComputeInternalExtent@@YAXAEAUConvexHullData@Gu@physx@@PEBUHullPolygonData@23@@Z 0000000180058574     ConvexMeshBuilder.obj
 0002:0000e598       $chain$5$?ComputeInternalExtent@@YAXAEAUConvexHullData@Gu@physx@@PEBUHullPolygonData@23@@Z 0000000180058598     ConvexMeshBuilder.obj
 0002:0000e5ac       $chain$7$?ComputeInternalExtent@@YAXAEAUConvexHullData@Gu@physx@@PEBUHullPolygonData@23@@Z 00000001800585ac     ConvexMeshBuilder.obj
 0002:0000e5c0       $chain$6$?ComputeInternalExtent@@YAXAEAUConvexHullData@Gu@physx@@PEBUHullPolygonData@23@@Z 00000001800585c0     ConvexMeshBuilder.obj
 0002:0000e5d0       $chain$8$?ComputeInternalExtent@@YAXAEAUConvexHullData@Gu@physx@@PEBUHullPolygonData@23@@Z 00000001800585d0     ConvexMeshBuilder.obj
 0002:0000e5e0       $unwind$?computeHullPolygons@ConvexPolygonsBuilder@physx@@QEAA_NAEBIPEBVPxVec3@2@0PEBI@Z 00000001800585e0     ConvexPolygonsBuilder.obj
 0002:0000e604       $chain$0$?computeHullPolygons@ConvexPolygonsBuilder@physx@@QEAA_NAEBIPEBVPxVec3@2@0PEBI@Z 0000000180058604     ConvexPolygonsBuilder.obj
 0002:0000e618       $chain$8$?computeHullPolygons@ConvexPolygonsBuilder@physx@@QEAA_NAEBIPEBVPxVec3@2@0PEBI@Z 0000000180058618     ConvexPolygonsBuilder.obj
 0002:0000e648       $chain$9$?computeHullPolygons@ConvexPolygonsBuilder@physx@@QEAA_NAEBIPEBVPxVec3@2@0PEBI@Z 0000000180058648     ConvexPolygonsBuilder.obj
 0002:0000e678       $unwind$?createPolygonData@ConvexPolygonsBuilder@physx@@AEAA_NXZ 0000000180058678     ConvexPolygonsBuilder.obj
 0002:0000e688       $chain$0$?createPolygonData@ConvexPolygonsBuilder@physx@@AEAA_NXZ 0000000180058688     ConvexPolygonsBuilder.obj
 0002:0000e69c       $chain$7$?createPolygonData@ConvexPolygonsBuilder@physx@@AEAA_NXZ 000000018005869c     ConvexPolygonsBuilder.obj
 0002:0000e6c8       $chain$8$?createPolygonData@ConvexPolygonsBuilder@physx@@AEAA_NXZ 00000001800586c8     ConvexPolygonsBuilder.obj
 0002:0000e6d8       $chain$9$?createPolygonData@ConvexPolygonsBuilder@physx@@AEAA_NXZ 00000001800586d8     ConvexPolygonsBuilder.obj
 0002:0000e6e8       $chain$10$?createPolygonData@ConvexPolygonsBuilder@physx@@AEAA_NXZ 00000001800586e8     ConvexPolygonsBuilder.obj
 0002:0000e718       $chain$14$?createPolygonData@ConvexPolygonsBuilder@physx@@AEAA_NXZ 0000000180058718     ConvexPolygonsBuilder.obj
 0002:0000e738       $chain$15$?createPolygonData@ConvexPolygonsBuilder@physx@@AEAA_NXZ 0000000180058738     ConvexPolygonsBuilder.obj
 0002:0000e748       $unwind$?createTrianglesFromPolygons@ConvexPolygonsBuilder@physx@@AEAA_NXZ 0000000180058748     ConvexPolygonsBuilder.obj
 0002:0000e76c       $chain$3$?createTrianglesFromPolygons@ConvexPolygonsBuilder@physx@@AEAA_NXZ 000000018005876c     ConvexPolygonsBuilder.obj
 0002:0000e78c       $chain$4$?createTrianglesFromPolygons@ConvexPolygonsBuilder@physx@@AEAA_NXZ 000000018005878c     ConvexPolygonsBuilder.obj
 0002:0000e79c       $unwind$?findLineStrip@@YA_NAEAV?$Array@IV?$ReflectionAllocator@I@shdfnd@physx@@@shdfnd@physx@@AEBV?$Array@VPair@@V?$ReflectionAllocator@VPair@@@shdfnd@physx@@@23@@Z 000000018005879c     ConvexPolygonsBuilder.obj
 0002:0000e7a8       $chain$2$?findLineStrip@@YA_NAEAV?$Array@IV?$ReflectionAllocator@I@shdfnd@physx@@@shdfnd@physx@@AEBV?$Array@VPair@@V?$ReflectionAllocator@VPair@@@shdfnd@physx@@@23@@Z 00000001800587a8     ConvexPolygonsBuilder.obj
 0002:0000e7c4       $chain$5$?findLineStrip@@YA_NAEAV?$Array@IV?$ReflectionAllocator@I@shdfnd@physx@@@shdfnd@physx@@AEBV?$Array@VPair@@V?$ReflectionAllocator@VPair@@@shdfnd@physx@@@23@@Z 00000001800587c4     ConvexPolygonsBuilder.obj
 0002:0000e7e0       $chain$6$?findLineStrip@@YA_NAEAV?$Array@IV?$ReflectionAllocator@I@shdfnd@physx@@@shdfnd@physx@@AEBV?$Array@VPair@@V?$ReflectionAllocator@VPair@@@shdfnd@physx@@@23@@Z 00000001800587e0     ConvexPolygonsBuilder.obj
 0002:0000e7f0       $chain$7$?findLineStrip@@YA_NAEAV?$Array@IV?$ReflectionAllocator@I@shdfnd@physx@@@shdfnd@physx@@AEBV?$Array@VPair@@V?$ReflectionAllocator@VPair@@@shdfnd@physx@@@23@@Z 00000001800587f0     ConvexPolygonsBuilder.obj
 0002:0000e818       $chain$1$?allocate@?$Array@VPair@@V?$ReflectionAllocator@VPair@@@shdfnd@physx@@@shdfnd@physx@@IEAAPEAVPair@@I@Z 0000000180058818     ConvexPolygonsBuilder.obj
 0002:0000e830       $chain$3$?allocate@?$Array@VPair@@V?$ReflectionAllocator@VPair@@@shdfnd@physx@@@shdfnd@physx@@IEAAPEAVPair@@I@Z 0000000180058830     ConvexPolygonsBuilder.obj
 0002:0000e844       $chain$4$?allocate@?$Array@VPair@@V?$ReflectionAllocator@VPair@@@shdfnd@physx@@@shdfnd@physx@@IEAAPEAVPair@@I@Z 0000000180058844     ConvexPolygonsBuilder.obj
 0002:0000e854       $unwind$?TestDuplicateTriangles@@YA_NAEAIPEAU?$TriangleT@I@Gu@physx@@_N@Z 0000000180058854     ConvexPolygonsBuilder.obj
 0002:0000e870       $unwind$?computeNewellPlane@@YA_NAEAVPxPlane@physx@@IPEBEPEBVPxVec3@2@@Z 0000000180058870     ConvexPolygonsBuilder.obj
 0002:0000e878       $chain$5$?computeNewellPlane@@YA_NAEAVPxPlane@physx@@IPEBEPEBVPxVec3@2@@Z 0000000180058878     ConvexPolygonsBuilder.obj
 0002:0000e8a0       $chain$8$?computeNewellPlane@@YA_NAEAVPxPlane@physx@@IPEBEPEBVPxVec3@2@@Z 00000001800588a0     ConvexPolygonsBuilder.obj
 0002:0000e8bc       $chain$9$?computeNewellPlane@@YA_NAEAVPxPlane@physx@@IPEBEPEBVPxVec3@2@@Z 00000001800588bc     ConvexPolygonsBuilder.obj
 0002:0000e8cc       $chain$10$?computeNewellPlane@@YA_NAEAVPxPlane@physx@@IPEBEPEBVPxVec3@2@@Z 00000001800588cc     ConvexPolygonsBuilder.obj
 0002:0000e8ec       $chain$11$?computeNewellPlane@@YA_NAEAVPxPlane@physx@@IPEBEPEBVPxVec3@2@@Z 00000001800588ec     ConvexPolygonsBuilder.obj
 0002:0000e8fc       $unwind$?checkRedundantVertices@@YAXAEAIAEAV?$Array@IV?$ReflectionAllocator@I@shdfnd@physx@@@shdfnd@physx@@AEBVConvexPolygonsBuilder@3@11@Z 00000001800588fc     ConvexPolygonsBuilder.obj
 0002:0000e918       $unwind$?extractHullPolygons@@YA_NAEAIAEAV?$Array@IV?$ReflectionAllocator@I@shdfnd@physx@@@shdfnd@physx@@AEBVConvexPolygonsBuilder@3@PEAV123@1@Z 0000000180058918     ConvexPolygonsBuilder.obj
 0002:0000e934       $unwind$?FloodFill@Local@?7??extractHullPolygons@@YA_NAEAIAEAV?$Array@IV?$ReflectionAllocator@I@shdfnd@physx@@@shdfnd@physx@@AEBVConvexPolygonsBuilder@5@PEAV345@1@Z@SAX1PEBVAdjTriangle@5@IPEA_N@Z 0000000180058934     ConvexPolygonsBuilder.obj
 0002:0000e944       $chain$0$?FloodFill@Local@?7??extractHullPolygons@@YA_NAEAIAEAV?$Array@IV?$ReflectionAllocator@I@shdfnd@physx@@@shdfnd@physx@@AEBVConvexPolygonsBuilder@5@PEAV345@1@Z@SAX1PEBVAdjTriangle@5@IPEA_N@Z 0000000180058944     ConvexPolygonsBuilder.obj
 0002:0000e958       $chain$1$?FloodFill@Local@?7??extractHullPolygons@@YA_NAEAIAEAV?$Array@IV?$ReflectionAllocator@I@shdfnd@physx@@@shdfnd@physx@@AEBVConvexPolygonsBuilder@5@PEAV345@1@Z@SAX1PEBVAdjTriangle@5@IPEA_N@Z 0000000180058958     ConvexPolygonsBuilder.obj
 0002:0000e968       $unwind$?CheckFloodFillFace@Local@?7??extractHullPolygons@@YA_NAEAIAEAV?$Array@IV?$ReflectionAllocator@I@shdfnd@physx@@@shdfnd@physx@@AEBVConvexPolygonsBuilder@5@PEAV345@1@Z@SA_NIPEBVAdjTriangle@5@PEBI@Z 0000000180058968     ConvexPolygonsBuilder.obj
 0002:0000e980       $chain$0$??$?_UUHullTriangleData@physx@@@@YAPEAX_KV?$ReflectionAllocator@UHullTriangleData@physx@@@shdfnd@physx@@PEBDH@Z 0000000180058980     ConvexPolygonsBuilder.obj
 0002:0000e994       $chain$1$??$?_UUHullTriangleData@physx@@@@YAPEAX_KV?$ReflectionAllocator@UHullTriangleData@physx@@@shdfnd@physx@@PEBDH@Z 0000000180058994     ConvexPolygonsBuilder.obj
 0002:0000e9a4       $unwind$?createConvexHull@QuickHullConvexHullLib@physx@@UEAA?AW4Enum@PxConvexMeshCookingResult@2@XZ 00000001800589a4     QuickHullConvexHullLib.obj
 0002:0000e9bc       $unwind$?createEdgeList@QuickHullConvexHullLib@physx@@UEAA_NIPEBEPEAPEAEPEAPEAG2@Z 00000001800589bc     QuickHullConvexHullLib.obj
 0002:0000e9dc       $chain$5$?createEdgeList@QuickHullConvexHullLib@physx@@UEAA_NIPEBEPEAPEAEPEAPEAG2@Z 00000001800589dc     QuickHullConvexHullLib.obj
 0002:0000e9f0       $chain$6$?createEdgeList@QuickHullConvexHullLib@physx@@UEAA_NIPEBEPEAPEAEPEAPEAG2@Z 00000001800589f0     QuickHullConvexHullLib.obj
 0002:0000ea00       $unwind$?expandHullOBB@QuickHullConvexHullLib@physx@@IEAA?AW4Enum@PxConvexMeshCookingResult@2@XZ 0000000180058a00     QuickHullConvexHullLib.obj
 0002:0000ea0c       $chain$4$?expandHullOBB@QuickHullConvexHullLib@physx@@IEAA?AW4Enum@PxConvexMeshCookingResult@2@XZ 0000000180058a0c     QuickHullConvexHullLib.obj
 0002:0000ea30       $chain$5$?expandHullOBB@QuickHullConvexHullLib@physx@@IEAA?AW4Enum@PxConvexMeshCookingResult@2@XZ 0000000180058a30     QuickHullConvexHullLib.obj
 0002:0000ea44       $chain$6$?expandHullOBB@QuickHullConvexHullLib@physx@@IEAA?AW4Enum@PxConvexMeshCookingResult@2@XZ 0000000180058a44     QuickHullConvexHullLib.obj
 0002:0000ea54       $chain$7$?expandHullOBB@QuickHullConvexHullLib@physx@@IEAA?AW4Enum@PxConvexMeshCookingResult@2@XZ 0000000180058a54     QuickHullConvexHullLib.obj
 0002:0000ea64       $unwind$?expandHull@QuickHullConvexHullLib@physx@@IEAA?AW4Enum@PxConvexMeshCookingResult@2@XZ 0000000180058a64     QuickHullConvexHullLib.obj
 0002:0000ea8c       $unwind$?cleanupForSimplex@QuickHullConvexHullLib@physx@@IEAA_NPEAVPxVec3@2@IPEAUQuickHullVertex@local@@1AEAM2@Z 0000000180058a8c     QuickHullConvexHullLib.obj
 0002:0000eab0       $chain$7$?cleanupForSimplex@QuickHullConvexHullLib@physx@@IEAA_NPEAVPxVec3@2@IPEAUQuickHullVertex@local@@1AEAM2@Z 0000000180058ab0     QuickHullConvexHullLib.obj
 0002:0000eae0       $chain$8$?cleanupForSimplex@QuickHullConvexHullLib@physx@@IEAA_NPEAVPxVec3@2@IPEAUQuickHullVertex@local@@1AEAM2@Z 0000000180058ae0     QuickHullConvexHullLib.obj
 0002:0000eaf4       $chain$9$?cleanupForSimplex@QuickHullConvexHullLib@physx@@IEAA_NPEAVPxVec3@2@IPEAUQuickHullVertex@local@@1AEAM2@Z 0000000180058af4     QuickHullConvexHullLib.obj
 0002:0000eb04       $chain$10$?cleanupForSimplex@QuickHullConvexHullLib@physx@@IEAA_NPEAVPxVec3@2@IPEAUQuickHullVertex@local@@1AEAM2@Z 0000000180058b04     QuickHullConvexHullLib.obj
 0002:0000eb30       $chain$11$?cleanupForSimplex@QuickHullConvexHullLib@physx@@IEAA_NPEAVPxVec3@2@IPEAUQuickHullVertex@local@@1AEAM2@Z 0000000180058b30     QuickHullConvexHullLib.obj
 0002:0000eb54       $chain$12$?cleanupForSimplex@QuickHullConvexHullLib@physx@@IEAA_NPEAVPxVec3@2@IPEAUQuickHullVertex@local@@1AEAM2@Z 0000000180058b54     QuickHullConvexHullLib.obj
 0002:0000eb6c       $chain$13$?cleanupForSimplex@QuickHullConvexHullLib@physx@@IEAA_NPEAVPxVec3@2@IPEAUQuickHullVertex@local@@1AEAM2@Z 0000000180058b6c     QuickHullConvexHullLib.obj
 0002:0000eb7c       $unwind$?fillConvexMeshDescFromQuickHull@QuickHullConvexHullLib@physx@@IEAAXAEAVPxConvexMeshDesc@2@@Z 0000000180058b7c     QuickHullConvexHullLib.obj
 0002:0000eb94       $unwind$?fillConvexMeshDescFromCroppedHull@QuickHullConvexHullLib@physx@@IEAAXAEAVPxConvexMeshDesc@2@@Z 0000000180058b94     QuickHullConvexHullLib.obj
 0002:0000ebac       $chain$0$??_GConvexHull@physx@@QEAAPEAXI@Z 0000000180058bac     QuickHullConvexHullLib.obj
 0002:0000ebc0       $chain$1$??_GConvexHull@physx@@QEAAPEAXI@Z 0000000180058bc0     QuickHullConvexHullLib.obj
 0002:0000ebd0       $unwind$?mergeAdjacentFace@QuickHullFace@local@@QEAA_NPEAUQuickHullHalfEdge@2@AEAV?$Array@PEAUQuickHullFace@local@@V?$ReflectionAllocator@PEAUQuickHullFace@local@@@shdfnd@physx@@@shdfnd@physx@@@Z 0000000180058bd0     QuickHullConvexHullLib.obj
 0002:0000ebe8       $chain$4$?mergeAdjacentFace@QuickHullFace@local@@QEAA_NPEAUQuickHullHalfEdge@2@AEAV?$Array@PEAUQuickHullFace@local@@V?$ReflectionAllocator@PEAUQuickHullFace@local@@@shdfnd@physx@@@shdfnd@physx@@@Z 0000000180058be8     QuickHullConvexHullLib.obj
 0002:0000ec0c       $chain$5$?mergeAdjacentFace@QuickHullFace@local@@QEAA_NPEAUQuickHullHalfEdge@2@AEAV?$Array@PEAUQuickHullFace@local@@V?$ReflectionAllocator@PEAUQuickHullFace@local@@@shdfnd@physx@@@shdfnd@physx@@@Z 0000000180058c0c     QuickHullConvexHullLib.obj
 0002:0000ec0c       $chain$8$?mergeAdjacentFace@QuickHullFace@local@@QEAA_NPEAUQuickHullHalfEdge@2@AEAV?$Array@PEAUQuickHullFace@local@@V?$ReflectionAllocator@PEAUQuickHullFace@local@@@shdfnd@physx@@@shdfnd@physx@@@Z 0000000180058c0c     QuickHullConvexHullLib.obj
 0002:0000ec1c       $chain$6$?mergeAdjacentFace@QuickHullFace@local@@QEAA_NPEAUQuickHullHalfEdge@2@AEAV?$Array@PEAUQuickHullFace@local@@V?$ReflectionAllocator@PEAUQuickHullFace@local@@@shdfnd@physx@@@shdfnd@physx@@@Z 0000000180058c1c     QuickHullConvexHullLib.obj
 0002:0000ec40       $chain$7$?mergeAdjacentFace@QuickHullFace@local@@QEAA_NPEAUQuickHullHalfEdge@2@AEAV?$Array@PEAUQuickHullFace@local@@V?$ReflectionAllocator@PEAUQuickHullFace@local@@@shdfnd@physx@@@shdfnd@physx@@@Z 0000000180058c40     QuickHullConvexHullLib.obj
 0002:0000ec54       $unwind$?connectHalfEdges@QuickHullFace@local@@AEAAPEAU12@PEAUQuickHullHalfEdge@2@0@Z 0000000180058c54     QuickHullConvexHullLib.obj
 0002:0000ec5c       $chain$5$?connectHalfEdges@QuickHullFace@local@@AEAAPEAU12@PEAUQuickHullHalfEdge@2@0@Z 0000000180058c5c     QuickHullConvexHullLib.obj
 0002:0000ec84       $chain$6$?connectHalfEdges@QuickHullFace@local@@AEAAPEAU12@PEAUQuickHullHalfEdge@2@0@Z 0000000180058c84     QuickHullConvexHullLib.obj
 0002:0000eca8       $chain$7$?connectHalfEdges@QuickHullFace@local@@AEAAPEAU12@PEAUQuickHullHalfEdge@2@0@Z 0000000180058ca8     QuickHullConvexHullLib.obj
 0002:0000ecbc       $chain$8$?connectHalfEdges@QuickHullFace@local@@AEAAPEAU12@PEAUQuickHullHalfEdge@2@0@Z 0000000180058cbc     QuickHullConvexHullLib.obj
 0002:0000eccc       $unwind$?parseInputVertices@QuickHull@local@@QEAAXPEBVPxVec3@physx@@I@Z 0000000180058ccc     QuickHullConvexHullLib.obj
 0002:0000ecd8       $chain$1$?parseInputVertices@QuickHull@local@@QEAAXPEBVPxVec3@physx@@I@Z 0000000180058cd8     QuickHullConvexHullLib.obj
 0002:0000ecf0       $chain$2$?parseInputVertices@QuickHull@local@@QEAAXPEBVPxVec3@physx@@I@Z 0000000180058cf0     QuickHullConvexHullLib.obj
 0002:0000ed00       $unwind$?buildHull@QuickHull@local@@QEAA?AW4Enum@QuickHullResult@2@XZ 0000000180058d00     QuickHullConvexHullLib.obj
 0002:0000ed14       $unwind$?computeMinMaxVerts@QuickHull@local@@IEAAXXZ 0000000180058d14     QuickHullConvexHullLib.obj
 0002:0000ed20       $unwind$?findSimplex@QuickHull@local@@IEAA_NXZ 0000000180058d20     QuickHullConvexHullLib.obj
 0002:0000ed34       $chain$8$?findSimplex@QuickHull@local@@IEAA_NXZ 0000000180058d34     QuickHullConvexHullLib.obj
 0002:0000ed68       $chain$12$?findSimplex@QuickHull@local@@IEAA_NXZ 0000000180058d68     QuickHullConvexHullLib.obj
 0002:0000ed88       $chain$13$?findSimplex@QuickHull@local@@IEAA_NXZ 0000000180058d88     QuickHullConvexHullLib.obj
 0002:0000ed88       $chain$15$?findSimplex@QuickHull@local@@IEAA_NXZ 0000000180058d88     QuickHullConvexHullLib.obj
 0002:0000edb4       $chain$14$?findSimplex@QuickHull@local@@IEAA_NXZ 0000000180058db4     QuickHullConvexHullLib.obj
 0002:0000edf8       $chain$16$?findSimplex@QuickHull@local@@IEAA_NXZ 0000000180058df8     QuickHullConvexHullLib.obj
 0002:0000ee08       $unwind$?addSimplex@QuickHull@local@@IEAAXPEAUQuickHullVertex@2@_N@Z 0000000180058e08     QuickHullConvexHullLib.obj
 0002:0000ee20       $chain$0$?addSimplex@QuickHull@local@@IEAAXPEAUQuickHullVertex@2@_N@Z 0000000180058e20     QuickHullConvexHullLib.obj
 0002:0000ee34       $chain$2$?addSimplex@QuickHull@local@@IEAAXPEAUQuickHullVertex@2@_N@Z 0000000180058e34     QuickHullConvexHullLib.obj
 0002:0000ee48       $chain$1$?addSimplex@QuickHull@local@@IEAAXPEAUQuickHullVertex@2@_N@Z 0000000180058e48     QuickHullConvexHullLib.obj
 0002:0000ee58       $unwind$?nextPointToAdd@QuickHull@local@@IEAAPEAUQuickHullVertex@2@AEAPEAUQuickHullFace@2@@Z 0000000180058e58     QuickHullConvexHullLib.obj
 0002:0000ee6c       $unwind$?addPointToHull@QuickHull@local@@IEAA_NPEBUQuickHullVertex@2@AEAUQuickHullFace@2@AEA_N@Z 0000000180058e6c     QuickHullConvexHullLib.obj
 0002:0000ee80       $chain$1$?addPointToHull@QuickHull@local@@IEAA_NPEBUQuickHullVertex@2@AEAUQuickHullFace@2@AEA_N@Z 0000000180058e80     QuickHullConvexHullLib.obj
 0002:0000ee98       $chain$2$?addPointToHull@QuickHull@local@@IEAA_NPEBUQuickHullVertex@2@AEAUQuickHullFace@2@AEA_N@Z 0000000180058e98     QuickHullConvexHullLib.obj
 0002:0000eeac       $unwind$?createTriangle@QuickHull@local@@IEAAPEAUQuickHullFace@2@AEBUQuickHullVertex@2@00@Z 0000000180058eac     QuickHullConvexHullLib.obj
 0002:0000eedc       $unwind$?calculateHorizon@QuickHull@local@@IEAAXAEBVPxVec3@physx@@PEAUQuickHullHalfEdge@2@AEAUQuickHullFace@2@AEAV?$Array@PEAUQuickHullHalfEdge@local@@V?$ReflectionAllocator@PEAUQuickHullHalfEdge@local@@@shdfnd@physx@@@shdfnd@4@AEAV?$Array@PEAUQuickHullFace@local@@V?$ReflectionAllocator@PEAUQuickHullFace@local@@@shdfnd@physx@@@84@@Z 0000000180058edc     QuickHullConvexHullLib.obj
 0002:0000eef4       $chain$1$?doAdjacentMerge@QuickHull@local@@IEAA_NAEAUQuickHullFace@2@_NAEA_N@Z 0000000180058ef4     QuickHullConvexHullLib.obj
 0002:0000ef0c       $chain$2$?doAdjacentMerge@QuickHull@local@@IEAA_NAEAUQuickHullFace@2@_NAEA_N@Z 0000000180058f0c     QuickHullConvexHullLib.obj
 0002:0000ef20       $chain$3$?doAdjacentMerge@QuickHull@local@@IEAA_NAEAUQuickHullFace@2@_NAEA_N@Z 0000000180058f20     QuickHullConvexHullLib.obj
 0002:0000ef34       $chain$4$?doAdjacentMerge@QuickHull@local@@IEAA_NAEAUQuickHullFace@2@_NAEA_N@Z 0000000180058f34     QuickHullConvexHullLib.obj
 0002:0000ef44       $chain$5$?doAdjacentMerge@QuickHull@local@@IEAA_NAEAUQuickHullFace@2@_NAEA_N@Z 0000000180058f44     QuickHullConvexHullLib.obj
 0002:0000ef54       $unwind$?resolveUnclaimedPoints@QuickHull@local@@IEAAXAEBV?$Array@PEAUQuickHullFace@local@@V?$ReflectionAllocator@PEAUQuickHullFace@local@@@shdfnd@physx@@@shdfnd@physx@@@Z 0000000180058f54     QuickHullConvexHullLib.obj
 0002:0000ef64       $chain$1$?resolveUnclaimedPoints@QuickHull@local@@IEAAXAEBV?$Array@PEAUQuickHullFace@local@@V?$ReflectionAllocator@PEAUQuickHullFace@local@@@shdfnd@physx@@@shdfnd@physx@@@Z 0000000180058f64     QuickHullConvexHullLib.obj
 0002:0000ef7c       $chain$2$?resolveUnclaimedPoints@QuickHull@local@@IEAAXAEBV?$Array@PEAUQuickHullFace@local@@V?$ReflectionAllocator@PEAUQuickHullFace@local@@@shdfnd@physx@@@shdfnd@physx@@@Z 0000000180058f7c     QuickHullConvexHullLib.obj
 0002:0000ef8c       $unwind$?postMergeHull@QuickHull@local@@IEAAXXZ 0000000180058f8c     QuickHullConvexHullLib.obj
 0002:0000ef98       $chain$5$?postMergeHull@QuickHull@local@@IEAAXXZ 0000000180058f98     QuickHullConvexHullLib.obj
 0002:0000efc0       $chain$6$?postMergeHull@QuickHull@local@@IEAAXXZ 0000000180058fc0     QuickHullConvexHullLib.obj
 0002:0000efd0       $chain$7$?postMergeHull@QuickHull@local@@IEAAXXZ 0000000180058fd0     QuickHullConvexHullLib.obj
 0002:0000eff8       $unwind$?canMergeFaces@QuickHull@local@@IEAA_NAEBUQuickHullHalfEdge@2@@Z 0000000180058ff8     QuickHullConvexHullLib.obj
 0002:0000f03c       $unwind$?init@?$MemBlock@UQuickHullHalfEdge@local@@$0A@@local@@QEAAXI@Z 000000018005903c     QuickHullConvexHullLib.obj
 0002:0000f048       $unwind$??1?$MemBlock@UQuickHullFace@local@@$00@local@@QEAA@XZ 0000000180059048     QuickHullConvexHullLib.obj
 0002:0000f048       $unwind$??1?$MemBlock@UQuickHullHalfEdge@local@@$0A@@local@@QEAA@XZ 0000000180059048     QuickHullConvexHullLib.obj
 0002:0000f054       $chain$0$??1?$MemBlock@UQuickHullFace@local@@$00@local@@QEAA@XZ 0000000180059054     QuickHullConvexHullLib.obj
 0002:0000f054       $chain$0$??1?$MemBlock@UQuickHullHalfEdge@local@@$0A@@local@@QEAA@XZ 0000000180059054     QuickHullConvexHullLib.obj
 0002:0000f068       $chain$1$??1?$MemBlock@UQuickHullFace@local@@$00@local@@QEAA@XZ 0000000180059068     QuickHullConvexHullLib.obj
 0002:0000f068       $chain$1$??1?$MemBlock@UQuickHullHalfEdge@local@@$0A@@local@@QEAA@XZ 0000000180059068     QuickHullConvexHullLib.obj
 0002:0000f07c       $chain$2$??1?$MemBlock@UQuickHullFace@local@@$00@local@@QEAA@XZ 000000018005907c     QuickHullConvexHullLib.obj
 0002:0000f07c       $chain$2$??1?$MemBlock@UQuickHullHalfEdge@local@@$0A@@local@@QEAA@XZ 000000018005907c     QuickHullConvexHullLib.obj
 0002:0000f08c       $chain$3$??1?$MemBlock@UQuickHullFace@local@@$00@local@@QEAA@XZ 000000018005908c     QuickHullConvexHullLib.obj
 0002:0000f08c       $chain$3$??1?$MemBlock@UQuickHullHalfEdge@local@@$0A@@local@@QEAA@XZ 000000018005908c     QuickHullConvexHullLib.obj
 0002:0000f09c       $unwind$?getFreeItem@?$MemBlock@UQuickHullHalfEdge@local@@$0A@@local@@QEAAPEAUQuickHullHalfEdge@2@XZ 000000018005909c     QuickHullConvexHullLib.obj
 0002:0000f0a8       $chain$1$?allocate@?$Array@PEAUQuickHullHalfEdge@local@@V?$ReflectionAllocator@PEAUQuickHullHalfEdge@local@@@shdfnd@physx@@@shdfnd@physx@@IEAAPEAPEAUQuickHullHalfEdge@local@@I@Z 00000001800590a8     QuickHullConvexHullLib.obj
 0002:0000f0c0       $chain$3$?allocate@?$Array@PEAUQuickHullHalfEdge@local@@V?$ReflectionAllocator@PEAUQuickHullHalfEdge@local@@@shdfnd@physx@@@shdfnd@physx@@IEAAPEAPEAUQuickHullHalfEdge@local@@I@Z 00000001800590c0     QuickHullConvexHullLib.obj
 0002:0000f0d4       $chain$4$?allocate@?$Array@PEAUQuickHullHalfEdge@local@@V?$ReflectionAllocator@PEAUQuickHullHalfEdge@local@@@shdfnd@physx@@@shdfnd@physx@@IEAAPEAPEAUQuickHullHalfEdge@local@@I@Z 00000001800590d4     QuickHullConvexHullLib.obj
 0002:0000f0e4       $chain$0$?recreate@?$Array@PEAUQuickHullHalfEdge@local@@V?$ReflectionAllocator@PEAUQuickHullHalfEdge@local@@@shdfnd@physx@@@shdfnd@physx@@IEAAXI@Z 00000001800590e4     QuickHullConvexHullLib.obj
 0002:0000f0f8       $chain$1$?recreate@?$Array@PEAUQuickHullHalfEdge@local@@V?$ReflectionAllocator@PEAUQuickHullHalfEdge@local@@@shdfnd@physx@@@shdfnd@physx@@IEAAXI@Z 00000001800590f8     QuickHullConvexHullLib.obj
 0002:0000f108       $unwind$?init@?$MemBlock@UQuickHullFace@local@@$00@local@@QEAAXI@Z 0000000180059108     QuickHullConvexHullLib.obj
 0002:0000f118       $unwind$?getFreeItem@?$MemBlock@UQuickHullFace@local@@$00@local@@QEAAPEAUQuickHullFace@2@XZ 0000000180059118     QuickHullConvexHullLib.obj
 0002:0000f128       $chain$1$?allocate@?$Array@PEAUQuickHullFace@local@@V?$ReflectionAllocator@PEAUQuickHullFace@local@@@shdfnd@physx@@@shdfnd@physx@@IEAAPEAPEAUQuickHullFace@local@@I@Z 0000000180059128     QuickHullConvexHullLib.obj
 0002:0000f140       $chain$3$?allocate@?$Array@PEAUQuickHullFace@local@@V?$ReflectionAllocator@PEAUQuickHullFace@local@@@shdfnd@physx@@@shdfnd@physx@@IEAAPEAPEAUQuickHullFace@local@@I@Z 0000000180059140     QuickHullConvexHullLib.obj
 0002:0000f154       $chain$4$?allocate@?$Array@PEAUQuickHullFace@local@@V?$ReflectionAllocator@PEAUQuickHullFace@local@@@shdfnd@physx@@@shdfnd@physx@@IEAAPEAPEAUQuickHullFace@local@@I@Z 0000000180059154     QuickHullConvexHullLib.obj
 0002:0000f164       $chain$0$?recreate@?$Array@PEAUQuickHullFace@local@@V?$ReflectionAllocator@PEAUQuickHullFace@local@@@shdfnd@physx@@@shdfnd@physx@@IEAAXI@Z 0000000180059164     QuickHullConvexHullLib.obj
 0002:0000f178       $chain$1$?recreate@?$Array@PEAUQuickHullFace@local@@V?$ReflectionAllocator@PEAUQuickHullFace@local@@@shdfnd@physx@@@shdfnd@physx@@IEAAXI@Z 0000000180059178     QuickHullConvexHullLib.obj
 0002:0000f188       $chain$1$?allocate@?$Array@PEAUQuickHullVertex@local@@V?$ReflectionAllocator@PEAUQuickHullVertex@local@@@shdfnd@physx@@@shdfnd@physx@@IEAAPEAPEAUQuickHullVertex@local@@I@Z 0000000180059188     QuickHullConvexHullLib.obj
 0002:0000f1a0       $chain$3$?allocate@?$Array@PEAUQuickHullVertex@local@@V?$ReflectionAllocator@PEAUQuickHullVertex@local@@@shdfnd@physx@@@shdfnd@physx@@IEAAPEAPEAUQuickHullVertex@local@@I@Z 00000001800591a0     QuickHullConvexHullLib.obj
 0002:0000f1b4       $chain$4$?allocate@?$Array@PEAUQuickHullVertex@local@@V?$ReflectionAllocator@PEAUQuickHullVertex@local@@@shdfnd@physx@@@shdfnd@physx@@IEAAPEAPEAUQuickHullVertex@local@@I@Z 00000001800591b4     QuickHullConvexHullLib.obj
 0002:0000f1c4       $chain$0$?recreate@?$Array@PEAUQuickHullVertex@local@@V?$ReflectionAllocator@PEAUQuickHullVertex@local@@@shdfnd@physx@@@shdfnd@physx@@IEAAXI@Z 00000001800591c4     QuickHullConvexHullLib.obj
 0002:0000f1d8       $chain$1$?recreate@?$Array@PEAUQuickHullVertex@local@@V?$ReflectionAllocator@PEAUQuickHullVertex@local@@@shdfnd@physx@@@shdfnd@physx@@IEAAXI@Z 00000001800591d8     QuickHullConvexHullLib.obj
 0002:0000f1e8       $chain$1$?allocate@?$Array@UExpandPoint@local@@V?$ReflectionAllocator@UExpandPoint@local@@@shdfnd@physx@@@shdfnd@physx@@IEAAPEAUExpandPoint@local@@I@Z 00000001800591e8     QuickHullConvexHullLib.obj
 0002:0000f200       $chain$3$?allocate@?$Array@UExpandPoint@local@@V?$ReflectionAllocator@UExpandPoint@local@@@shdfnd@physx@@@shdfnd@physx@@IEAAPEAUExpandPoint@local@@I@Z 0000000180059200     QuickHullConvexHullLib.obj
 0002:0000f214       $chain$4$?allocate@?$Array@UExpandPoint@local@@V?$ReflectionAllocator@UExpandPoint@local@@@shdfnd@physx@@@shdfnd@physx@@IEAAPEAUExpandPoint@local@@I@Z 0000000180059214     QuickHullConvexHullLib.obj
 0002:0000f224       $unwind$?computeVolumeIntegralsEberly@physx@@YA_NAEBVPxConvexMeshDesc@1@MAEAUPxIntegrals@1@AEBVPxVec3@1@@Z 0000000180059224     VolumeIntegration.obj
 0002:0000f224       $unwind$?computeVolumeIntegralsEberlySIMD@physx@@YA_NAEBVPxConvexMeshDesc@1@MAEAUPxIntegrals@1@AEBVPxVec3@1@@Z 0000000180059224     VolumeIntegration.obj
 0002:0000f224       $unwind$_raise_exc         0000000180059224     libucrt:fpexcept.obj
 0002:0000f224       $unwind$_raise_excf        0000000180059224     libucrt:fpexcept.obj
 0002:0000f224       $unwind$__unDName          0000000180059224     libvcruntime:undname.obj
 0002:0000f22c       $unwind$?computeVolumeIntegralsSIMD@VolumeIntegratorEberly@?A0x15ce7506@physx@@QEAA_NAEAUPxIntegrals@3@AEBVPxVec3@3@@Z 000000018005922c     VolumeIntegration.obj
 0002:0000f264       $chain$1$?computeVolumeIntegralsSIMD@VolumeIntegratorEberly@?A0x15ce7506@physx@@QEAA_NAEAUPxIntegrals@3@AEBVPxVec3@3@@Z 0000000180059264     VolumeIntegration.obj
 0002:0000f27c       $chain$2$?computeVolumeIntegralsSIMD@VolumeIntegratorEberly@?A0x15ce7506@physx@@QEAA_NAEAUPxIntegrals@3@AEBVPxVec3@3@@Z 000000018005927c     VolumeIntegration.obj
 0002:0000f28c       $unwind$?computeVolumeIntegrals@VolumeIntegratorEberly@?A0x15ce7506@physx@@QEAA_NAEAUPxIntegrals@3@AEBVPxVec3@3@@Z 000000018005928c     VolumeIntegration.obj
 0002:0000f2c4       $chain$3$?computeVolumeIntegrals@VolumeIntegratorEberly@?A0x15ce7506@physx@@QEAA_NAEAUPxIntegrals@3@AEBVPxVec3@3@@Z 00000001800592c4     VolumeIntegration.obj
 0002:0000f2e4       $chain$4$?computeVolumeIntegrals@VolumeIntegratorEberly@?A0x15ce7506@physx@@QEAA_NAEAUPxIntegrals@3@AEBVPxVec3@3@@Z 00000001800592e4     VolumeIntegration.obj
 0002:0000f2f4       $chain$1$?cookingDelayHook@@YAP6A_JXZIPEAUDelayLoadInfo@@@Z 00000001800592f4     WindowsCookingDelayLoadHook.obj
 0002:0000f30c       $chain$3$?cookingDelayHook@@YAP6A_JXZIPEAUDelayLoadInfo@@@Z 000000018005930c     WindowsCookingDelayLoadHook.obj
 0002:0000f30c       $chain$5$?cookingDelayHook@@YAP6A_JXZIPEAUDelayLoadInfo@@@Z 000000018005930c     WindowsCookingDelayLoadHook.obj
 0002:0000f324       $chain$6$?cookingDelayHook@@YAP6A_JXZIPEAUDelayLoadInfo@@@Z 0000000180059324     WindowsCookingDelayLoadHook.obj
 0002:0000f334       xdata                      0000000180059334     PhysXCommon_64:PhysXCommon_64.dll
 0002:0000f33c       xdata                      000000018005933c     PhysXFoundation_64:PhysXFoundation_64.dll
 0002:0000f344       $unwind$?DloadProtectSection@@YAXPEAX_KKPEAK@Z 0000000180059344     Delayimp:delayhlp.obj
 0002:0000f35c       $unwind$__delayLoadHelper2 000000018005935c     Delayimp:delayhlp.obj
 0002:0000f378       $unwind$??$GuardedWrite@V<lambda_1>@?1??__delayLoadHelper2@@YAP6A_JXZPEBUImgDelayDescr@@PEAP6A_JXZ@Z@@@YAXPEAX_KV<lambda_1>@?1??__delayLoadHelper2@@YAP6A_JXZPEBUImgDelayDescr@@PEAP6A_JXZ@Z@@Z 0000000180059378     Delayimp:delayhlp.obj
 0002:0000f390       $xdatasym                  0000000180059390     LIBCMT:chkstk.obj
 0002:0000f398       $unwind$?dllmain_crt_process_attach@@YAHQEAUHINSTANCE__@@QEAX@Z 0000000180059398     LIBCMT:dll_dllmain.obj
 0002:0000f3d4       $unwind$_query_new_handler$fin$0 00000001800593d4     libucrt:new_handler.obj
 0002:0000f3d4       $unwind$?fin$0@?0???$?RV<lambda_0ae27a3a962d80f24befdcbee591983d>@@AEAV<lambda_8d0ee55de4b1038c4002e0adecdf1839>@@V<lambda_dc504788e8f1664fe9b84e20bfb512f2>@@@?$__crt_seh_guarded_call@X@@QEAAX$$QEAV<lambda_0ae27a3a962d80f24befdcbee591983d>@@AEAV<lambda_8d0ee55de4b1038c4002e0adecdf1839>@@$$QEAV<lambda_dc504788e8f1664fe9b84e20bfb512f2>@@@Z@4HA 00000001800593d4     libucrt:per_thread_data.obj
 0002:0000f3d4       $unwind$?fin$0@?0???$?RV<lambda_2d41944a1d46af3157314b8a01080d33>@@AEAV<lambda_8f455de75cd7d7f24b4096f044d8b9e6>@@V<lambda_aa500f224e6afead328df44964fe2772>@@@?$__crt_seh_guarded_call@X@@QEAAX$$QEAV<lambda_2d41944a1d46af3157314b8a01080d33>@@AEAV<lambda_8f455de75cd7d7f24b4096f044d8b9e6>@@$$QEAV<lambda_aa500f224e6afead328df44964fe2772>@@@Z@4HA 00000001800593d4     libucrt:per_thread_data.obj
 0002:0000f3d4       $unwind$?fin$0@?0???$?RV<lambda_aa87e3671a710a21b5dc78c0bdf72e11>@@AEAV<lambda_92619d2358a28f41a33ba319515a20b9>@@V<lambda_6992ecaafeb10aed2b74cb1fae11a551>@@@?$__crt_seh_guarded_call@X@@QEAAX$$QEAV<lambda_aa87e3671a710a21b5dc78c0bdf72e11>@@AEAV<lambda_92619d2358a28f41a33ba319515a20b9>@@$$QEAV<lambda_6992ecaafeb10aed2b74cb1fae11a551>@@@Z@4HA 00000001800593d4     libucrt:per_thread_data.obj
 0002:0000f3d4       $unwind$?fin$0@?0???$?RV<lambda_f2e299630e499de9f9a165e60fcd3db5>@@AEAV<lambda_2ae9d31cdba2644fcbeaf08da7c24588>@@V<lambda_40d01ff24d0e7b3814fdbdcee8eab3c7>@@@?$__crt_seh_guarded_call@X@@QEAAX$$QEAV<lambda_f2e299630e499de9f9a165e60fcd3db5>@@AEAV<lambda_2ae9d31cdba2644fcbeaf08da7c24588>@@$$QEAV<lambda_40d01ff24d0e7b3814fdbdcee8eab3c7>@@@Z@4HA 00000001800593d4     libucrt:per_thread_data.obj
 0002:0000f3d4       $unwind$__acrt_update_thread_locale_data$fin$0 00000001800593d4     libucrt:locale_refcounting.obj
 0002:0000f3d4       $unwind$?fin$0@?0???$?RV<lambda_410d79af7f07d98d83a3f525b3859a53>@@AEAV<lambda_3e16ef9562a7dcce91392c22ab16ea36>@@V<lambda_38119f0e861e05405d8a144b9b982f0a>@@@?$__crt_seh_guarded_call@X@@QEAAX$$QEAV<lambda_410d79af7f07d98d83a3f525b3859a53>@@AEAV<lambda_3e16ef9562a7dcce91392c22ab16ea36>@@$$QEAV<lambda_38119f0e861e05405d8a144b9b982f0a>@@@Z@4HA 00000001800593d4     libucrt:wsetlocale.obj
 0002:0000f3d4       $unwind$?fin$0@?0???$?RV<lambda_ad8af0d99a0adf03d037d7dffe354bb5>@@AEAV<lambda_c9ba49e555ba839a7b07aa3fbecb7617>@@V<lambda_2f1ebd5d68526518146ae959c9e734c8>@@@?$__crt_seh_guarded_call@H@@QEAAH$$QEAV<lambda_ad8af0d99a0adf03d037d7dffe354bb5>@@AEAV<lambda_c9ba49e555ba839a7b07aa3fbecb7617>@@$$QEAV<lambda_2f1ebd5d68526518146ae959c9e734c8>@@@Z@4HA 00000001800593d4     libucrt:close.obj
 0002:0000f3d4       $unwind$?fin$0@?0???$?RV<lambda_a37b2b86f63e897a80ea819b0eb08c01>@@AEAV<lambda_38ce7e780aa69e748d6df282ebc68efe>@@V<lambda_99fb1378e971ab6e7edea83e3a7a83a2>@@@?$__crt_seh_guarded_call@H@@QEAAH$$QEAV<lambda_a37b2b86f63e897a80ea819b0eb08c01>@@AEAV<lambda_38ce7e780aa69e748d6df282ebc68efe>@@$$QEAV<lambda_99fb1378e971ab6e7edea83e3a7a83a2>@@@Z@4HA 00000001800593d4     libucrt:commit.obj
 0002:0000f3d4       $unwind$__acrt_initialize_lowio$fin$0 00000001800593d4     libucrt:ioinit.obj
 0002:0000f3d4       $unwind$__acrt_lowio_ensure_fh_exists$fin$0 00000001800593d4     libucrt:osfinfo.obj
 0002:0000f3d4       $unwind$?fin$0@?0???$?RV<lambda_efdfa57d1f175319df784efa44bb7b81>@@AEAV<lambda_5f0a4c1567f8adc6734073e5d1e1b35c>@@V<lambda_2e8a7d3640ea6ccb4c2413664c2db6fd>@@@?$__crt_seh_guarded_call@X@@QEAAX$$QEAV<lambda_efdfa57d1f175319df784efa44bb7b81>@@AEAV<lambda_5f0a4c1567f8adc6734073e5d1e1b35c>@@$$QEAV<lambda_2e8a7d3640ea6ccb4c2413664c2db6fd>@@@Z@4HA 00000001800593d4     libucrt:mbctype.obj
 0002:0000f3d4       $unwind$?fin$0@?0??update_thread_multibyte_data_internal@@YAPEAU__crt_multibyte_data@@QEAU__acrt_ptd@@QEAPEAU1@@Z@4HA 00000001800593d4     libucrt:mbctype.obj
 0002:0000f3d4       $unwind$?fin$0@?0???$?RV<lambda_450d765d439847d4c735a33c368b5fc0>@@AEAV<lambda_44731a7d0e6d81c3e6aa82d741081786>@@V<lambda_601a2a7da3b7a96e9554ac7215c4b07c>@@@?$__crt_seh_guarded_call@P6AXH@Z@@QEAAP6AXH@Z$$QEAV<lambda_450d765d439847d4c735a33c368b5fc0>@@AEAV<lambda_44731a7d0e6d81c3e6aa82d741081786>@@$$QEAV<lambda_601a2a7da3b7a96e9554ac7215c4b07c>@@@Z@4HA 00000001800593d4     libucrt:signal.obj
 0002:0000f3d4       $unwind$raise$fin$0        00000001800593d4     libucrt:signal.obj
 0002:0000f3d4       $unwind$?filt$0@?0???R<lambda_6e4b09c48022b2350581041d5f6b0c4c>@@QEBA@XZ@4HA 00000001800593d4     libucrt:exit.obj
 0002:0000f3d4       $unwind$?fin$0@?0???$?RV<lambda_d80eeec6fff315bfe5c115232f3240e3>@@AEAV<lambda_6e4b09c48022b2350581041d5f6b0c4c>@@V<lambda_2358e3775559c9db80273638284d5e45>@@@?$__crt_seh_guarded_call@X@@QEAAX$$QEAV<lambda_d80eeec6fff315bfe5c115232f3240e3>@@AEAV<lambda_6e4b09c48022b2350581041d5f6b0c4c>@@$$QEAV<lambda_2358e3775559c9db80273638284d5e45>@@@Z@4HA 00000001800593d4     libucrt:exit.obj
 0002:0000f3d4       $unwind$?fin$0@?0???$?RV<lambda_7777bce6b2f8c936911f934f8298dc43>@@AEAV<lambda_f03950bc5685219e0bcd2087efbe011e>@@V<lambda_3883c3dff614d5e0c5f61bb1ac94921c>@@@?$__crt_seh_guarded_call@H@@QEAAH$$QEAV<lambda_7777bce6b2f8c936911f934f8298dc43>@@AEAV<lambda_f03950bc5685219e0bcd2087efbe011e>@@$$QEAV<lambda_3883c3dff614d5e0c5f61bb1ac94921c>@@@Z@4HA 00000001800593d4     libucrt:onexit.obj
 0002:0000f3d4       $unwind$_fcloseall$fin$0   00000001800593d4     libucrt:closeall.obj
 0002:0000f3d4       $unwind$?fin$0@?0???$?RV<lambda_842d9ff0dc9ef11c61343bbaebe7f885>@@AEAV<lambda_c5860995281e5c4ce005b3de8f5874ee>@@V<lambda_d90129c13df834fdcbf8d2b88dafcf2d>@@@?$__crt_seh_guarded_call@X@@QEAAX$$QEAV<lambda_842d9ff0dc9ef11c61343bbaebe7f885>@@AEAV<lambda_c5860995281e5c4ce005b3de8f5874ee>@@$$QEAV<lambda_d90129c13df834fdcbf8d2b88dafcf2d>@@@Z@4HA 00000001800593d4     libucrt:fflush.obj
 0002:0000f3d4       $unwind$?fin$0@?0???$?RV<lambda_886d6c58226a84441f68b9f2b8217b83>@@AEAV<lambda_ab61a845afdef5b7c387490eaf3616ee>@@V<lambda_f7f22ab5edc0698d5f6905b0d3f44752>@@@?$__crt_seh_guarded_call@X@@QEAAX$$QEAV<lambda_886d6c58226a84441f68b9f2b8217b83>@@AEAV<lambda_ab61a845afdef5b7c387490eaf3616ee>@@$$QEAV<lambda_f7f22ab5edc0698d5f6905b0d3f44752>@@@Z@4HA 00000001800593d4     libucrt:fflush.obj
 0002:0000f3d4       $unwind$_ctrlfp$filt$0     00000001800593d4     libucrt:fpctrl.obj
 0002:0000f3d4       $unwind$common_control87$filt$0 00000001800593d4     libucrt:ieee.obj
 0002:0000f3d4       $unwind$?fin$0@?0??dllmain_crt_process_attach@@YAHQEAUHINSTANCE__@@QEAX@Z@4HA 00000001800593d4     LIBCMT:dll_dllmain.obj
 0002:0000f3d4       $unwind$?fin$0@?0??dllmain_crt_process_detach@@YAH_N@Z@4HA 00000001800593d4     LIBCMT:dll_dllmain.obj
 0002:0000f3d4       $unwind$?fin$1@?0??dllmain_crt_process_detach@@YAH_N@Z@4HA 00000001800593d4     LIBCMT:dll_dllmain.obj
 0002:0000f3d4       $unwind$_IsNonwritableInCurrentImage$filt$0 00000001800593d4     LIBCMT:pesect.obj
 0002:0000f3d4       $unwind$?filt$0@?0??CxxCallCatchBlock@__FrameHandler3@@SAPEAXPEAU_EXCEPTION_RECORD@@@Z@4HA 00000001800593d4     libvcruntime:frame.obj
 0002:0000f3d4       $unwind$?filt$0@?0??CxxCallCatchBlock@__FrameHandler4@@SAPEAXPEAU_EXCEPTION_RECORD@@@Z@4HA 00000001800593d4     libvcruntime:frame.obj
 0002:0000f3d4       $unwind$?filt$0@?0??FrameUnwindToState@__FrameHandler3@@SAXPEA_KPEAU_xDISPATCHER_CONTEXT@@PEBU_s_FuncInfo@@H@Z@4HA 00000001800593d4     libvcruntime:frame.obj
 0002:0000f3d4       $unwind$?fin$1@?0??FrameUnwindToState@__FrameHandler3@@SAXPEA_KPEAU_xDISPATCHER_CONTEXT@@PEBU_s_FuncInfo@@H@Z@4HA 00000001800593d4     libvcruntime:frame.obj
 0002:0000f3d4       $unwind$__unDNameEx$fin$0  00000001800593d4     libvcruntime:undname.obj
 0002:0000f3dc       $unwind$?dllmain_crt_process_detach@@YAH_N@Z 00000001800593dc     LIBCMT:dll_dllmain.obj
 0002:0000f430       $unwind$?dllmain_dispatch@@YAHQEAUHINSTANCE__@@KQEAX@Z 0000000180059430     LIBCMT:dll_dllmain.obj
 0002:0000f458       $unwind$_write_internal$fin$0 0000000180059458     libucrt:write.obj
 0002:0000f458       $unwind$?fin$0@?0??_fclose_internal@@YAHQEAU_iobuf@@AEAV__crt_cached_ptd_host@@@Z@4HA 0000000180059458     libucrt:fclose.obj
 0002:0000f458       $unwind$?filt$0@?0??dllmain_dispatch@@YAHQEAUHINSTANCE__@@KQEAX@Z@4HA 0000000180059458     LIBCMT:dll_dllmain.obj
 0002:0000f458       $unwind$?filt$0@?0??FrameUnwindToState@__FrameHandler4@@SAXPEA_KPEAU_xDISPATCHER_CONTEXT@@PEAUFuncInfo4@FH4@@H@Z@4HA 0000000180059458     libvcruntime:frame.obj
 0002:0000f458       $unwind$?fin$1@?0??FrameUnwindToState@__FrameHandler4@@SAXPEA_KPEAU_xDISPATCHER_CONTEXT@@PEAUFuncInfo4@FH4@@H@Z@4HA 0000000180059458     libvcruntime:frame.obj
 0002:0000f460       $unwind$__isa_available_init 0000000180059460     LIBCMT:cpu_disp.obj
 0002:0000f478       $xdatasym                  0000000180059478     LIBCMT:svml_ssinf4_sse2.obj
 0002:0000f4b0       $xdatasym                  00000001800594b0     LIBCMT:svml_ssinf4_sse4.obj
 0002:0000f4e4       $unwind$__security_init_cookie 00000001800594e4     LIBCMT:gs_support.obj
 0002:0000f4f0       $unwind$__scrt_is_nonwritable_in_current_image 00000001800594f0     LIBCMT:utility.obj
 0002:0000f510       $unwind$__scrt_is_nonwritable_in_current_image$filt$0 0000000180059510     LIBCMT:utility.obj
 0002:0000f518       $unwind$__scrt_fastfail    0000000180059518     LIBCMT:utility_desktop.obj
 0002:0000f528       $xdatasym                  0000000180059528     LIBCMT:guard_dispatch.obj
 0002:0000f530       $xdatasym                  0000000180059530     LIBCMT:guard_xfg_dispatch.obj
 0002:0000f538       $xdatasym                  0000000180059538     LIBCMT:svml_s_sin_cout.obj
 0002:0000f540       $unwind$__C_specific_handler 0000000180059540     libvcruntime:riscchandler.obj
 0002:0000f540       $unwind$?GetRangeOfTrysToCheck@__FrameHandler3@@SA?AU?$pair@Viterator@TryBlockMap@__FrameHandler3@@V123@@std@@AEAVTryBlockMap@1@HPEAU_xDISPATCHER_CONTEXT@@PEBU_s_FuncInfo@@H@Z 0000000180059540     libvcruntime:risctrnsctrl.obj
 0002:0000f540       $unwind$__std_type_info_name 0000000180059540     libvcruntime:std_type_info.obj
 0002:0000f560       $xdatasym$memset_repstos   0000000180059560     libvcruntime:memset.obj
 0002:0000f570       $xdatasym$memcpy           0000000180059570     libvcruntime:memcpy.obj
 0002:0000f570       $xdatasym$memset           0000000180059570     libvcruntime:memset.obj
 0002:0000f570       $xdatasym$_NLG_Notify      0000000180059570     libvcruntime:notify.obj
 0002:0000f570       $xdatasym$__NLG_Dispatch2  0000000180059570     libvcruntime:notify.obj
 0002:0000f570       $xdatasym$__NLG_Return2    0000000180059570     libvcruntime:notify.obj
